ARM GAS  C:\Users\euanm\AppData\Local\Temp\cc8LfcOk.s 			page 1


   1              		.syntax unified
   2              		.cpu cortex-m4
   3              		.eabi_attribute 27, 1
   4              		.eabi_attribute 28, 1
   5              		.fpu fpv4-sp-d16
   6              		.eabi_attribute 20, 1
   7              		.eabi_attribute 21, 1
   8              		.eabi_attribute 23, 3
   9              		.eabi_attribute 24, 1
  10              		.eabi_attribute 25, 1
  11              		.eabi_attribute 26, 1
  12              		.eabi_attribute 30, 2
  13              		.eabi_attribute 34, 1
  14              		.eabi_attribute 18, 4
  15              		.thumb
  16              		.syntax unified
  17              		.file	"app_adc.c"
  18              		.text
  19              	.Ltext0:
  20              		.cfi_sections	.debug_frame
  21              		.section	.text.adc_thread,"ax",%progbits
  22              		.align	2
  23              		.p2align 4,,15
  24              		.thumb
  25              		.thumb_func
  26              		.type	adc_thread, %function
  27              	adc_thread:
  28              	.LFB262:
  29              		.file 1 "applications/app_adc.c"
  30              		.loc 1 83 0
  31              		.cfi_startproc
  32              		@ args = 0, pretend = 0, frame = 16
  33              		@ frame_needed = 0, uses_anonymous_args = 0
  34              	.LVL0:
  35 0000 2DE9F04F 		push	{r4, r5, r6, r7, r8, r9, r10, fp, lr}
  36              		.cfi_def_cfa_offset 36
  37              		.cfi_offset 4, -36
  38              		.cfi_offset 5, -32
  39              		.cfi_offset 6, -28
  40              		.cfi_offset 7, -24
  41              		.cfi_offset 8, -20
  42              		.cfi_offset 9, -16
  43              		.cfi_offset 10, -12
  44              		.cfi_offset 11, -8
  45              		.cfi_offset 14, -4
  46              	.LBB56:
  47              	.LBB57:
  48              		.file 2 "ChibiOS_3.0.2/os/rt/include/chregistry.h"
  49              		.loc 2 135 0
  50 0004 D24B     		ldr	r3, .L221
  51 0006 D349     		ldr	r1, .L221+4
  52 0008 9A69     		ldr	r2, [r3, #24]
  53              	.LBE57:
  54              	.LBE56:
  55              		.loc 1 89 0
  56 000a D34B     		ldr	r3, .L221+8
  57              		.loc 1 83 0
ARM GAS  C:\Users\euanm\AppData\Local\Temp\cc8LfcOk.s 			page 2


  58 000c 2DED0A8B 		vpush.64	{d8, d9, d10, d11, d12}
  59              		.cfi_def_cfa_offset 76
  60              		.cfi_offset 80, -76
  61              		.cfi_offset 81, -72
  62              		.cfi_offset 82, -68
  63              		.cfi_offset 83, -64
  64              		.cfi_offset 84, -60
  65              		.cfi_offset 85, -56
  66              		.cfi_offset 86, -52
  67              		.cfi_offset 87, -48
  68              		.cfi_offset 88, -44
  69              		.cfi_offset 89, -40
  70              		.loc 1 89 0
  71 0010 1B78     		ldrb	r3, [r3]	@ zero_extendqisi2
  72              	.LBB59:
  73              	.LBB58:
  74              		.loc 2 135 0
  75 0012 9161     		str	r1, [r2, #24]
  76              	.LVL1:
  77              	.LBE58:
  78              	.LBE59:
  79              		.loc 1 83 0
  80 0014 85B0     		sub	sp, sp, #20
  81              		.cfi_def_cfa_offset 96
  82              		.loc 1 90 0
  83 0016 2022     		movs	r2, #32
  84              		.loc 1 89 0
  85 0018 002B     		cmp	r3, #0
  86 001a 00F0B884 		beq	.L2
  87              		.loc 1 90 0
  88 001e 4021     		movs	r1, #64
  89 0020 CE48     		ldr	r0, .L221+12
  90              	.LVL2:
  91 0022 FFF7FEFF 		bl	_pal_lld_setgroupmode
  92              	.LVL3:
  93              		.loc 1 91 0
  94 0026 2022     		movs	r2, #32
  95 0028 8021     		movs	r1, #128
  96 002a CC48     		ldr	r0, .L221+12
  97 002c FFF7FEFF 		bl	_pal_lld_setgroupmode
  98              	.LVL4:
  99              	.L3:
 100 0030 DFF87CA3 		ldr	r10, .L221+96
 101 0034 DFF86CB3 		ldr	fp, .L221+84
 102 0038 C94E     		ldr	r6, .L221+16
 103 003a DFF84083 		ldr	r8, .L221+44
 104              	.LBB60:
 105              		.loc 1 108 0
 106 003e 9FEDC9AA 		vldr.32	s20, .L221+20
 107              		.loc 1 114 0
 108 0042 DFEDC98A 		vldr.32	s17, .L221+24
 109 0046 9FEDC98A 		vldr.32	s16, .L221+28
 110              	.LBB61:
 111              	.LBB62:
 112              	.LBB63:
 113              		.loc 1 397 0
 114 004a DFEDC99A 		vldr.32	s19, .L221+32
ARM GAS  C:\Users\euanm\AppData\Local\Temp\cc8LfcOk.s 			page 3


 115              	.LBE63:
 116              	.LBE62:
 117              	.LBE61:
 118              		.loc 1 136 0
 119 004e B7EE009A 		vmov.f32	s18, #1.0e+0
 120              	.L4:
 121              		.loc 1 98 0
 122 0052 DAF82830 		ldr	r3, [r10, #40]
 123 0056 42F21075 		movw	r5, #10000
 124 005a B5FBF3F5 		udiv	r5, r5, r3
 125              	.LVL5:
 126              		.loc 1 102 0
 127 005e 002D     		cmp	r5, #0
 128 0060 08BF     		it	eq
 129 0062 0125     		moveq	r5, #1
 130              	.LVL6:
 131              		.loc 1 104 0
 132 0064 2846     		mov	r0, r5
 133 0066 FFF7FEFF 		bl	chThdSleep
 134              	.LVL7:
 135              		.loc 1 107 0
 136 006a FFF7FEFF 		bl	mc_interface_get_fault
 137              	.LVL8:
 138 006e 08B1     		cbz	r0, .L6
 139              		.loc 1 108 0
 140 0070 8BED00AA 		vstr.32	s20, [fp]
 141              	.L6:
 142              		.loc 1 112 0
 143 0074 B38A     		ldrh	r3, [r6, #20]
 144 0076 9BB2     		uxth	r3, r3
 145              		.loc 1 114 0
 146 0078 07EE903A 		vmov	s15, r3	@ int
 147 007c F8EE677A 		vcvt.f32.u32	s15, s15
 148              		.loc 1 116 0
 149 0080 BC4B     		ldr	r3, .L221+36
 150              		.loc 1 114 0
 151 0082 87EEA80A 		vdiv.f32	s0, s15, s17
 152 0086 20EE080A 		vmul.f32	s0, s0, s16
 153              		.loc 1 116 0
 154 008a 83ED000A 		vstr.32	s0, [r3]
 155              		.loc 1 119 0
 156 008e 9AF81030 		ldrb	r3, [r10, #16]	@ zero_extendqisi2
 157              		.loc 1 114 0
 158 0092 8DED020A 		vstr.32	s0, [sp, #8]
 159              		.loc 1 119 0
 160 0096 03B3     		cbz	r3, .L7
 161              	.LBB79:
 162              		.loc 1 123 0
 163 0098 D8F80030 		ldr	r3, [r8]
 164 009c B648     		ldr	r0, .L221+40
 165 009e B749     		ldr	r1, .L221+44
 166              	.LBE79:
 167              		.loc 1 102 0
 168 00a0 DFEDB07A 		vldr.32	s15, .L221+20
 169              	.LBB81:
 170              		.loc 1 123 0
 171 00a4 5A1C     		adds	r2, r3, #1
ARM GAS  C:\Users\euanm\AppData\Local\Temp\cc8LfcOk.s 			page 4


 172              		.loc 1 124 0
 173 00a6 042A     		cmp	r2, #4
 174              		.loc 1 123 0
 175 00a8 00EB8303 		add	r3, r0, r3, lsl #2
 176 00ac 83ED000A 		vstr.32	s0, [r3]
 177              		.loc 1 125 0
 178 00b0 C8BF     		it	gt
 179 00b2 0023     		movgt	r3, #0
 180              		.loc 1 123 0
 181 00b4 C8F80020 		str	r2, [r8]
 182              		.loc 1 125 0
 183 00b8 C8BF     		it	gt
 184 00ba 0B60     		strgt	r3, [r1]
 185              	.LVL9:
 186 00bc AE4B     		ldr	r3, .L221+40
 187 00be 03F11402 		add	r2, r3, #20
 188              	.LVL10:
 189              	.L9:
 190              	.LBB80:
 191              		.loc 1 130 0 discriminator 3
 192 00c2 B3EC017A 		vldmia.32	r3!, {s14}
 193              		.loc 1 129 0 discriminator 3
 194 00c6 9A42     		cmp	r2, r3
 195              		.loc 1 130 0 discriminator 3
 196 00c8 77EE877A 		vadd.f32	s15, s15, s14
 197              		.loc 1 129 0 discriminator 3
 198 00cc F9D1     		bne	.L9
 199              	.LBE80:
 200              		.loc 1 132 0
 201 00ce B1EE047A 		vmov.f32	s14, #5.0e+0
 202 00d2 87EE870A 		vdiv.f32	s0, s15, s14
 203 00d6 8DED020A 		vstr.32	s0, [sp, #8]
 204              	.L7:
 205              	.LBE81:
 206              		.loc 1 136 0
 207 00da DAED020A 		vldr.32	s1, [r10, #8]
 208 00de DFEDA11A 		vldr.32	s3, .L221+20
 209 00e2 9AED031A 		vldr.32	s2, [r10, #12]
 210 00e6 B7EE002A 		vmov.f32	s4, #1.0e+0
 211 00ea FFF7FEFF 		bl	utils_map
 212              	.LVL11:
 213              		.loc 1 137 0
 214 00ee F7EE000A 		vmov.f32	s1, #1.0e+0
 215              		.loc 1 136 0
 216 00f2 8DED020A 		vstr.32	s0, [sp, #8]
 217              		.loc 1 137 0
 218 00f6 02A8     		add	r0, sp, #8
 219 00f8 9FED9A0A 		vldr.32	s0, .L221+20
 220 00fc FFF7FEFF 		bl	utils_truncate_number
 221              	.LVL12:
 222              		.loc 1 140 0
 223 0100 9AF81430 		ldrb	r3, [r10, #20]	@ zero_extendqisi2
 224              		.loc 1 141 0
 225 0104 DDED027A 		vldr.32	s15, [sp, #8]
 226              		.loc 1 140 0
 227 0108 1BB1     		cbz	r3, .L11
 228              		.loc 1 141 0
ARM GAS  C:\Users\euanm\AppData\Local\Temp\cc8LfcOk.s 			page 5


 229 010a 79EE677A 		vsub.f32	s15, s18, s15
 230 010e CDED027A 		vstr.32	s15, [sp, #8]
 231              	.L11:
 232              		.loc 1 144 0
 233 0112 9B4B     		ldr	r3, .L221+48
 234 0114 C3ED007A 		vstr.32	s15, [r3]
 235              		.loc 1 148 0
 236 0118 F389     		ldrh	r3, [r6, #14]
 237 011a 9BB2     		uxth	r3, r3
 238              		.loc 1 150 0
 239 011c 07EE903A 		vmov	s15, r3	@ int
 240 0120 F8EE677A 		vcvt.f32.u32	s15, s15
 241              		.loc 1 155 0
 242 0124 974B     		ldr	r3, .L221+52
 243              		.loc 1 150 0
 244 0126 87EEA80A 		vdiv.f32	s0, s15, s17
 245 012a 20EE080A 		vmul.f32	s0, s0, s16
 246              		.loc 1 155 0
 247 012e 83ED000A 		vstr.32	s0, [r3]
 248              		.loc 1 158 0
 249 0132 9AF81030 		ldrb	r3, [r10, #16]	@ zero_extendqisi2
 250              		.loc 1 150 0
 251 0136 8DED030A 		vstr.32	s0, [sp, #12]
 252              		.loc 1 158 0
 253 013a FBB1     		cbz	r3, .L12
 254              	.LBB82:
 255              		.loc 1 162 0
 256 013c 924B     		ldr	r3, .L221+56
 257 013e 9348     		ldr	r0, .L221+60
 258 0140 1B68     		ldr	r3, [r3]
 259 0142 9149     		ldr	r1, .L221+56
 260              	.LBE82:
 261              		.loc 1 102 0
 262 0144 DFED877A 		vldr.32	s15, .L221+20
 263              	.LBB84:
 264              		.loc 1 162 0
 265 0148 5A1C     		adds	r2, r3, #1
 266              		.loc 1 163 0
 267 014a 042A     		cmp	r2, #4
 268              		.loc 1 162 0
 269 014c 00EB8303 		add	r3, r0, r3, lsl #2
 270 0150 83ED000A 		vstr.32	s0, [r3]
 271              		.loc 1 164 0
 272 0154 C8BF     		it	gt
 273 0156 0023     		movgt	r3, #0
 274              		.loc 1 162 0
 275 0158 0A60     		str	r2, [r1]
 276              		.loc 1 164 0
 277 015a C8BF     		it	gt
 278 015c 0B60     		strgt	r3, [r1]
 279              	.LVL13:
 280 015e 8B4B     		ldr	r3, .L221+60
 281 0160 03F11402 		add	r2, r3, #20
 282              	.LVL14:
 283              	.L14:
 284              	.LBB83:
 285              		.loc 1 169 0 discriminator 3
ARM GAS  C:\Users\euanm\AppData\Local\Temp\cc8LfcOk.s 			page 6


 286 0164 B3EC017A 		vldmia.32	r3!, {s14}
 287              		.loc 1 168 0 discriminator 3
 288 0168 9342     		cmp	r3, r2
 289              		.loc 1 169 0 discriminator 3
 290 016a 77EE877A 		vadd.f32	s15, s15, s14
 291              		.loc 1 168 0 discriminator 3
 292 016e F9D1     		bne	.L14
 293              	.LBE83:
 294              		.loc 1 171 0
 295 0170 B1EE047A 		vmov.f32	s14, #5.0e+0
 296 0174 87EE870A 		vdiv.f32	s0, s15, s14
 297 0178 8DED030A 		vstr.32	s0, [sp, #12]
 298              	.L12:
 299              	.LBE84:
 300              		.loc 1 175 0
 301 017c DAED020A 		vldr.32	s1, [r10, #8]
 302 0180 DFED781A 		vldr.32	s3, .L221+20
 303 0184 9AED031A 		vldr.32	s2, [r10, #12]
 304 0188 B7EE002A 		vmov.f32	s4, #1.0e+0
 305 018c FFF7FEFF 		bl	utils_map
 306              	.LVL15:
 307              		.loc 1 176 0
 308 0190 F7EE000A 		vmov.f32	s1, #1.0e+0
 309              		.loc 1 175 0
 310 0194 8DED030A 		vstr.32	s0, [sp, #12]
 311              		.loc 1 176 0
 312 0198 03A8     		add	r0, sp, #12
 313 019a 9FED720A 		vldr.32	s0, .L221+20
 314 019e FFF7FEFF 		bl	utils_truncate_number
 315              	.LVL16:
 316              		.loc 1 179 0
 317 01a2 9AF81430 		ldrb	r3, [r10, #20]	@ zero_extendqisi2
 318              		.loc 1 180 0
 319 01a6 DDED037A 		vldr.32	s15, [sp, #12]
 320              		.loc 1 179 0
 321 01aa 1BB1     		cbz	r3, .L16
 322              		.loc 1 180 0
 323 01ac 79EE677A 		vsub.f32	s15, s18, s15
 324 01b0 CDED037A 		vstr.32	s15, [sp, #12]
 325              	.L16:
 326              		.loc 1 183 0
 327 01b4 764B     		ldr	r3, .L221+64
 328 01b6 C3ED007A 		vstr.32	s15, [r3]
 329              	.LVL17:
 330              		.loc 1 189 0
 331 01ba 674B     		ldr	r3, .L221+8
 332 01bc 1A78     		ldrb	r2, [r3]	@ zero_extendqisi2
 333 01be 02F0FF03 		and	r3, r2, #255
 334 01c2 002A     		cmp	r2, #0
 335 01c4 00F0FD80 		beq	.L17
 336              		.loc 1 190 0
 337 01c8 644B     		ldr	r3, .L221+12
 338 01ca 1C69     		ldr	r4, [r3, #16]
 339              		.loc 1 191 0
 340 01cc 9AF81230 		ldrb	r3, [r10, #18]	@ zero_extendqisi2
 341              		.loc 1 190 0
 342 01d0 A409     		lsrs	r4, r4, #6
ARM GAS  C:\Users\euanm\AppData\Local\Temp\cc8LfcOk.s 			page 7


 343              	.LVL18:
 344              		.loc 1 192 0
 345 01d2 04F00104 		and	r4, r4, #1
 346              	.LVL19:
 347              		.loc 1 191 0
 348 01d6 0BB9     		cbnz	r3, .L19
 349              		.loc 1 190 0
 350 01d8 84F00104 		eor	r4, r4, #1
 351              	.LVL20:
 352              	.L19:
 353              		.loc 1 194 0
 354 01dc 5F4B     		ldr	r3, .L221+12
 355 01de 1B69     		ldr	r3, [r3, #16]
 356              		.loc 1 195 0
 357 01e0 9AF81320 		ldrb	r2, [r10, #19]	@ zero_extendqisi2
 358              		.loc 1 194 0
 359 01e4 DB09     		lsrs	r3, r3, #7
 360              	.LVL21:
 361              		.loc 1 196 0
 362 01e6 03F00103 		and	r3, r3, #1
 363              	.LVL22:
 364              		.loc 1 195 0
 365 01ea 0AB9     		cbnz	r2, .L21
 366              	.LVL23:
 367              	.L204:
 368              		.loc 1 203 0
 369 01ec 83F00103 		eor	r3, r3, #1
 370              	.L21:
 371              	.LVL24:
 372              		.loc 1 215 0
 373 01f0 9AF80020 		ldrb	r2, [r10]	@ zero_extendqisi2
 374 01f4 D2B2     		uxtb	r2, r2
 375 01f6 092A     		cmp	r2, #9
 376 01f8 17D8     		bhi	.L26
 377 01fa 0121     		movs	r1, #1
 378 01fc 01FA02F2 		lsl	r2, r1, r2
 379 0200 12F40A7F 		tst	r2, #552
 380 0204 40F06881 		bne	.L27
 381 0208 12F48A7F 		tst	r2, #276
 382 020c 40F03082 		bne	.L28
 383 0210 5306     		lsls	r3, r2, #25
 384              	.LVL25:
 385 0212 0AD5     		bpl	.L26
 386              		.loc 1 225 0
 387 0214 9FED5F7A 		vldr.32	s14, .L221+68
 388 0218 F4EEC77A 		vcmpe.f32	s15, s14
 389 021c F1EE10FA 		vmrs	APSR_nzcv, FPSCR
 390 0220 03DD     		ble	.L26
 391              	.L205:
 392              		.loc 1 236 0
 393 0222 F1EE677A 		vneg.f32	s15, s15
 394 0226 CDED027A 		vstr.32	s15, [sp, #8]
 395              	.L26:
 396              		.loc 1 245 0
 397 022a 9AED010A 		vldr.32	s0, [r10, #4]
 398 022e F7EE000A 		vmov.f32	s1, #1.0e+0
 399 0232 02A8     		add	r0, sp, #8
ARM GAS  C:\Users\euanm\AppData\Local\Temp\cc8LfcOk.s 			page 8


 400 0234 FFF7FEFF 		bl	utils_deadband
 401              	.LVL26:
 402              		.loc 1 250 0
 403 0238 FFF7FEFF 		bl	mc_interface_get_configuration
 404              	.LVL27:
 405              		.loc 1 254 0
 406 023c 9AF80030 		ldrb	r3, [r10]	@ zero_extendqisi2
 407 0240 DBB2     		uxtb	r3, r3
 408 0242 092B     		cmp	r3, #9
 409              		.loc 1 250 0
 410 0244 8146     		mov	r9, r0
 411              	.LVL28:
 412 0246 3FF604AF 		bhi	.L4
 413 024a 0122     		movs	r2, #1
 414 024c 02FA03F3 		lsl	r3, r2, r3
 415 0250 13F46071 		ands	r1, r3, #896
 416 0254 40F04681 		bne	.L32
 417 0258 13F0700F 		tst	r3, #112
 418 025c 40F01382 		bne	.L33
 419 0260 13F00E0F 		tst	r3, #14
 420 0264 3FF4F5AE 		beq	.L4
 421              	.LVL29:
 422              		.loc 1 259 0
 423 0268 DDED027A 		vldr.32	s15, [sp, #8]
 424              		.loc 1 265 0
 425 026c 9FED4A7A 		vldr.32	s14, .L221+72
 426              		.loc 1 259 0
 427 0270 F5EEC07A 		vcmpe.f32	s15, #0
 428 0274 F1EE10FA 		vmrs	APSR_nzcv, FPSCR
 429              		.loc 1 262 0
 430 0278 B6BF     		itet	lt
 431 027a D0ED02AA 		vldrlt.32	s21, [r0, #8]
 432              		.loc 1 260 0
 433 027e D0ED01AA 		vldrge.32	s21, [r0, #4]
 434              		.loc 1 262 0
 435 0282 F0EEEAAA 		vabslt.f32	s21, s21
 436 0286 6AEEA7AA 		vmul.f32	s21, s21, s15
 437              	.LVL30:
 438              		.loc 1 265 0
 439 028a F0EEE77A 		vabs.f32	s15, s15
 440 028e F4EEC77A 		vcmpe.f32	s15, s14
 441 0292 F1EE10FA 		vmrs	APSR_nzcv, FPSCR
 442 0296 40F11A83 		bpl	.L198
 443              		.loc 1 266 0
 444 029a 07EE905A 		vmov	s15, r5	@ int
 445 029e 9FED3F7A 		vldr.32	s14, .L221+76
 446 02a2 F8EEE76A 		vcvt.f32.s32	s13, s15
 447 02a6 DBED007A 		vldr.32	s15, [fp]
 448 02aa 66EE876A 		vmul.f32	s13, s13, s14
 449              		.loc 1 251 0
 450 02ae 0027     		movs	r7, #0
 451              		.loc 1 266 0
 452 02b0 86EEA97A 		vdiv.f32	s14, s13, s19
 453              		.loc 1 249 0
 454 02b4 0197     		str	r7, [sp, #4]
 455              		.loc 1 258 0
 456 02b6 0125     		movs	r5, #1
ARM GAS  C:\Users\euanm\AppData\Local\Temp\cc8LfcOk.s 			page 9


 457              	.LVL31:
 458              		.loc 1 266 0
 459 02b8 77EE277A 		vadd.f32	s15, s14, s15
 460 02bc CBED007A 		vstr.32	s15, [fp]
 461              	.LVL32:
 462              	.L37:
 463              		.loc 1 304 0
 464 02c0 9BED007A 		vldr.32	s14, [fp]
 465 02c4 DFED367A 		vldr.32	s15, .L221+80
 466 02c8 364B     		ldr	r3, .L221+84
 467 02ca B4EEE77A 		vcmpe.f32	s14, s15
 468 02ce F1EE10FA 		vmrs	APSR_nzcv, FPSCR
 469 02d2 40F19E80 		bpl	.L47
 470              		.loc 1 304 0 is_stmt 0 discriminator 1
 471 02d6 9AF81120 		ldrb	r2, [r10, #17]	@ zero_extendqisi2
 472 02da 002A     		cmp	r2, #0
 473 02dc 00F09980 		beq	.L47
 474              	.LBB85:
 475              		.loc 1 306 0 is_stmt 1
 476 02e0 314A     		ldr	r2, .L221+88
 477 02e2 93ED007A 		vldr.32	s14, [r3]
 478 02e6 1268     		ldr	r2, [r2]
 479 02e8 0092     		str	r2, [sp]
 480 02ea 07EE902A 		vmov	s15, r2	@ int
 481 02ee F8EEE77A 		vcvt.f32.s32	s15, s15
 482 02f2 F4EE477A 		vcmp.f32	s15, s14
 483 02f6 F1EE10FA 		vmrs	APSR_nzcv, FPSCR
 484              		.loc 1 307 0
 485 02fa 08BF     		it	eq
 486 02fc 83ED00AA 		vstreq.32	s20, [r3]
 487              		.loc 1 309 0
 488 0300 DBED007A 		vldr.32	s15, [fp]
 489 0304 284B     		ldr	r3, .L221+88
 490 0306 FDEEE77A 		vcvt.s32.f32	s15, s15
 491 030a C3ED007A 		vstr.32	s15, [r3]	@ int
 492              		.loc 1 310 0
 493 030e FFF7FEFF 		bl	timeout_get_brake_current
 494              	.LVL33:
 495 0312 FFF7FEFF 		bl	mc_interface_set_brake_current
 496              	.LVL34:
 497              		.loc 1 312 0
 498 0316 9AF82030 		ldrb	r3, [r10, #32]	@ zero_extendqisi2
 499 031a 002B     		cmp	r3, #0
 500 031c 3FF499AE 		beq	.L4
 501              	.LBB86:
 502              	.LBB87:
 503              		.loc 1 316 0
 504 0320 DFED22AA 		vldr.32	s21, .L221+92
 505              	.LVL35:
 506              	.LBE87:
 507              	.LBE86:
 508 0324 0024     		movs	r4, #0
 509              	.LVL36:
 510              	.L52:
 511              	.LBB99:
 512              	.LBB96:
 513              		.loc 1 314 0
ARM GAS  C:\Users\euanm\AppData\Local\Temp\cc8LfcOk.s 			page 10


 514 0326 2046     		mov	r0, r4
 515 0328 FFF7FEFF 		bl	comm_can_get_status_msg_index
 516              	.LVL37:
 517              		.loc 1 316 0
 518 032c 0568     		ldr	r5, [r0]
 519 032e 002D     		cmp	r5, #0
 520              	.LBE96:
 521              		.loc 1 313 0
 522 0330 04F10104 		add	r4, r4, #1
 523              	.LVL38:
 524              	.LBB97:
 525              		.loc 1 316 0
 526 0334 42DB     		blt	.L50
 527              	.LBB88:
 528              	.LBB89:
 529              	.LBB90:
 530              	.LBB91:
 531              		.file 3 "ChibiOS_3.0.2/os/rt/include/chvt.h"
 532              		.loc 3 231 0 discriminator 1
 533 0336 064B     		ldr	r3, .L221
 534              	.LBE91:
 535              	.LBE90:
 536              	.LBE89:
 537              	.LBE88:
 538              		.loc 1 316 0 discriminator 1
 539 0338 4268     		ldr	r2, [r0, #4]
 540              	.LBB95:
 541              	.LBB94:
 542              	.LBB93:
 543              	.LBB92:
 544              		.loc 3 231 0 discriminator 1
 545 033a 9B6A     		ldr	r3, [r3, #40]
 546              	.LVL39:
 547              	.LBE92:
 548              	.LBE93:
 549              	.LBE94:
 550              	.LBE95:
 551              		.loc 1 316 0 discriminator 1
 552 033c 9B1A     		subs	r3, r3, r2
 553 033e 07EE903A 		vmov	s15, r3	@ int
 554 0342 F8EE677A 		vcvt.f32.u32	s15, s15
 555 0346 87EEA97A 		vdiv.f32	s14, s15, s19
 556 034a B4EEEA7A 		vcmpe.f32	s14, s21
 557 034e 31E0     		b	.L222
 558              	.L223:
 559              		.align	2
 560              	.L221:
 561 0350 00000000 		.word	ch
 562 0354 00000000 		.word	.LC0
 563 0358 00000000 		.word	.LANCHOR0
 564 035c 00080240 		.word	1073874944
 565 0360 00000000 		.word	ADC_Value
 566 0364 00000000 		.word	0
 567 0368 00F07F45 		.word	1166012416
 568 036c 33335340 		.word	1079194419
 569 0370 00401C46 		.word	1176256512
 570 0374 00000000 		.word	.LANCHOR3
ARM GAS  C:\Users\euanm\AppData\Local\Temp\cc8LfcOk.s 			page 11


 571 0378 00000000 		.word	.LANCHOR5
 572 037c 00000000 		.word	.LANCHOR4
 573 0380 00000000 		.word	.LANCHOR6
 574 0384 00000000 		.word	.LANCHOR7
 575 0388 00000000 		.word	.LANCHOR8
 576 038c 00000000 		.word	.LANCHOR9
 577 0390 00000000 		.word	.LANCHOR10
 578 0394 0AD7233C 		.word	1008981770
 579 0398 6F12833A 		.word	981668463
 580 039c 00007A44 		.word	1148846080
 581 03a0 0000FA43 		.word	1140457472
 582 03a4 00000000 		.word	.LANCHOR2
 583 03a8 00000000 		.word	.LANCHOR11
 584 03ac CDCCCC3D 		.word	1036831949
 585 03b0 00000000 		.word	.LANCHOR1
 586              	.L222:
 587 03b4 F1EE10FA 		vmrs	APSR_nzcv, FPSCR
 588 03b8 00F12A82 		bmi	.L210
 589              	.LVL40:
 590              	.L50:
 591              	.LBE97:
 592              		.loc 1 313 0 discriminator 2
 593 03bc 032C     		cmp	r4, #3
 594 03be B2D1     		bne	.L52
 595 03c0 47E6     		b	.L4
 596              	.LVL41:
 597              	.L17:
 598              	.LBE99:
 599              	.LBE85:
 600              		.loc 1 200 0
 601 03c2 9AF80010 		ldrb	r1, [r10]	@ zero_extendqisi2
 602 03c6 C54A     		ldr	r2, .L224
 603 03c8 0329     		cmp	r1, #3
 604 03ca 14D0     		beq	.L22
 605              		.loc 1 201 0 discriminator 1
 606 03cc 1178     		ldrb	r1, [r2]	@ zero_extendqisi2
 607              		.loc 1 200 0 discriminator 1
 608 03ce 0529     		cmp	r1, #5
 609 03d0 11D0     		beq	.L22
 610              		.loc 1 202 0
 611 03d2 1178     		ldrb	r1, [r2]	@ zero_extendqisi2
 612              		.loc 1 201 0
 613 03d4 0929     		cmp	r1, #9
 614 03d6 0ED0     		beq	.L22
 615              		.loc 1 208 0
 616 03d8 C149     		ldr	r1, .L224+4
 617 03da 0C69     		ldr	r4, [r1, #16]
 618              		.loc 1 209 0
 619 03dc 927C     		ldrb	r2, [r2, #18]	@ zero_extendqisi2
 620              		.loc 1 208 0
 621 03de 6409     		lsrs	r4, r4, #5
 622              	.LVL42:
 623              		.loc 1 209 0
 624 03e0 02F0FF01 		and	r1, r2, #255
 625              		.loc 1 210 0
 626 03e4 04F00104 		and	r4, r4, #1
 627              	.LVL43:
ARM GAS  C:\Users\euanm\AppData\Local\Temp\cc8LfcOk.s 			page 12


 628              		.loc 1 209 0
 629 03e8 002A     		cmp	r2, #0
 630 03ea 7FF401AF 		bne	.L21
 631              		.loc 1 208 0
 632 03ee 84F00104 		eor	r4, r4, #1
 633              	.LVL44:
 634              		.loc 1 188 0
 635 03f2 0B46     		mov	r3, r1
 636 03f4 FCE6     		b	.L21
 637              	.LVL45:
 638              	.L22:
 639              		.loc 1 203 0
 640 03f6 BA4B     		ldr	r3, .L224+4
 641 03f8 1B69     		ldr	r3, [r3, #16]
 642              		.loc 1 204 0
 643 03fa 9AF81320 		ldrb	r2, [r10, #19]	@ zero_extendqisi2
 644              		.loc 1 203 0
 645 03fe 5B09     		lsrs	r3, r3, #5
 646              	.LVL46:
 647              		.loc 1 204 0
 648 0400 02F0FF04 		and	r4, r2, #255
 649              		.loc 1 205 0
 650 0404 03F00103 		and	r3, r3, #1
 651              	.LVL47:
 652              		.loc 1 204 0
 653 0408 002A     		cmp	r2, #0
 654 040a 3FF4EFAE 		beq	.L204
 655              	.LVL48:
 656              		.loc 1 187 0
 657 040e 0024     		movs	r4, #0
 658 0410 EEE6     		b	.L21
 659              	.LVL49:
 660              	.L47:
 661              		.loc 1 326 0
 662 0412 FFF7FEFF 		bl	timeout_reset
 663              	.LVL50:
 664              		.loc 1 334 0
 665 0416 B34B     		ldr	r3, .L224+8
 666 0418 1B68     		ldr	r3, [r3]
 667 041a 0093     		str	r3, [sp]
 668 041c 5A1C     		adds	r2, r3, #1
 669 041e B14B     		ldr	r3, .L224+8
 670 0420 1A60     		str	r2, [r3]
 671 0422 FFF7FEFF 		bl	mc_interface_get_rpm
 672              	.LVL51:
 673              		.loc 1 335 0
 674 0426 AF4B     		ldr	r3, .L224+8
 675              		.loc 1 334 0
 676 0428 AF49     		ldr	r1, .L224+12
 677              		.loc 1 335 0
 678 042a 1A68     		ldr	r2, [r3]
 679              		.loc 1 334 0
 680 042c 009B     		ldr	r3, [sp]
 681              		.loc 1 335 0
 682 042e 072A     		cmp	r2, #7
 683              		.loc 1 334 0
 684 0430 01EB8303 		add	r3, r1, r3, lsl #2
ARM GAS  C:\Users\euanm\AppData\Local\Temp\cc8LfcOk.s 			page 13


 685 0434 83ED000A 		vstr.32	s0, [r3]
 686              		.loc 1 335 0
 687 0438 02DD     		ble	.L53
 688              		.loc 1 336 0
 689 043a AA4A     		ldr	r2, .L224+8
 690 043c 0023     		movs	r3, #0
 691 043e 1360     		str	r3, [r2]
 692              	.L53:
 693              	.LVL52:
 694 0440 A94B     		ldr	r3, .L224+12
 695              		.loc 1 339 0
 696 0442 DFEDAA7A 		vldr.32	s15, .L224+16
 697 0446 03F12002 		add	r2, r3, #32
 698              	.LVL53:
 699              	.L54:
 700              	.LBB101:
 701              		.loc 1 341 0 discriminator 3
 702 044a B3EC017A 		vldmia.32	r3!, {s14}
 703              		.loc 1 340 0 discriminator 3
 704 044e 9342     		cmp	r3, r2
 705              		.loc 1 341 0 discriminator 3
 706 0450 77EE877A 		vadd.f32	s15, s15, s14
 707              	.LVL54:
 708              		.loc 1 340 0 discriminator 3
 709 0454 F9D1     		bne	.L54
 710              	.LVL55:
 711              	.LBE101:
 712              		.loc 1 345 0
 713 0456 002D     		cmp	r5, #0
 714 0458 74D0     		beq	.L55
 715              		.loc 1 345 0 is_stmt 0 discriminator 1
 716 045a 002C     		cmp	r4, #0
 717 045c 72D0     		beq	.L55
 718              		.loc 1 345 0 discriminator 2
 719 045e 9DED027A 		vldr.32	s14, [sp, #8]
 720 0462 DFEDA36A 		vldr.32	s13, .L224+20
 721 0466 B0EEC77A 		vabs.f32	s14, s14
 722 046a B4EEE67A 		vcmpe.f32	s14, s13
 723 046e F1EE10FA 		vmrs	APSR_nzcv, FPSCR
 724 0472 67D5     		bpl	.L55
 725              	.LBB102:
 726              		.loc 1 348 0 is_stmt 1
 727 0474 9F4B     		ldr	r3, .L224+24
 728 0476 9F4A     		ldr	r2, .L224+24
 729 0478 1B78     		ldrb	r3, [r3]	@ zero_extendqisi2
 730 047a 002B     		cmp	r3, #0
 731 047c 00F02B82 		beq	.L57
 732 0480 9D4B     		ldr	r3, .L224+28
 733 0482 93ED000A 		vldr.32	s0, [r3]
 734              	.LVL56:
 735              	.L58:
 736              		.loc 1 353 0
 737 0486 FFF7FEFF 		bl	mc_interface_set_pid_speed
 738              	.LVL57:
 739              		.loc 1 356 0
 740 048a 9AF82030 		ldrb	r3, [r10, #32]	@ zero_extendqisi2
 741 048e 002B     		cmp	r3, #0
ARM GAS  C:\Users\euanm\AppData\Local\Temp\cc8LfcOk.s 			page 14


 742 0490 3FF4DFAD 		beq	.L4
 743              	.LBB103:
 744              		.loc 1 357 0
 745 0494 FFF7FEFF 		bl	mc_interface_get_duty_cycle_now
 746              	.LVL58:
 747              	.LBB104:
 748              	.LBB105:
 749              		.loc 1 362 0
 750 0498 DFED98AA 		vldr.32	s21, .L224+32
 751              	.LVL59:
 752              	.LBE105:
 753              	.LBE104:
 754              		.loc 1 357 0
 755 049c B0EE40BA 		vmov.f32	s22, s0
 756              	.LVL60:
 757              	.LBB117:
 758              		.loc 1 359 0
 759 04a0 0024     		movs	r4, #0
 760              	.LVL61:
 761              	.L61:
 762              	.LBB114:
 763              		.loc 1 360 0
 764 04a2 2046     		mov	r0, r4
 765 04a4 FFF7FEFF 		bl	comm_can_get_status_msg_index
 766              	.LVL62:
 767              		.loc 1 362 0
 768 04a8 0268     		ldr	r2, [r0]
 769 04aa 002A     		cmp	r2, #0
 770              	.LBE114:
 771              		.loc 1 359 0
 772 04ac 04F10104 		add	r4, r4, #1
 773              	.LVL63:
 774              	.LBB115:
 775              		.loc 1 362 0
 776 04b0 0FDB     		blt	.L59
 777              	.LBB106:
 778              	.LBB107:
 779              	.LBB108:
 780              	.LBB109:
 781              		.loc 3 231 0 discriminator 1
 782 04b2 934B     		ldr	r3, .L224+36
 783              	.LBE109:
 784              	.LBE108:
 785              	.LBE107:
 786              	.LBE106:
 787              		.loc 1 362 0 discriminator 1
 788 04b4 4168     		ldr	r1, [r0, #4]
 789              	.LBB113:
 790              	.LBB112:
 791              	.LBB111:
 792              	.LBB110:
 793              		.loc 3 231 0 discriminator 1
 794 04b6 9B6A     		ldr	r3, [r3, #40]
 795              	.LVL64:
 796              	.LBE110:
 797              	.LBE111:
 798              	.LBE112:
ARM GAS  C:\Users\euanm\AppData\Local\Temp\cc8LfcOk.s 			page 15


 799              	.LBE113:
 800              		.loc 1 362 0 discriminator 1
 801 04b8 5B1A     		subs	r3, r3, r1
 802 04ba 07EE903A 		vmov	s15, r3	@ int
 803 04be F8EE677A 		vcvt.f32.u32	s15, s15
 804 04c2 87EEA97A 		vdiv.f32	s14, s15, s19
 805 04c6 B4EEEA7A 		vcmpe.f32	s14, s21
 806 04ca F1EE10FA 		vmrs	APSR_nzcv, FPSCR
 807 04ce 00F15882 		bmi	.L211
 808              	.LVL65:
 809              	.L59:
 810              	.LBE115:
 811              		.loc 1 359 0 discriminator 2
 812 04d2 032C     		cmp	r4, #3
 813 04d4 E5D1     		bne	.L61
 814 04d6 BCE5     		b	.L4
 815              	.LVL66:
 816              	.L27:
 817              	.LBE117:
 818              	.LBE103:
 819              	.LBE102:
 820              		.loc 1 235 0
 821 04d8 002B     		cmp	r3, #0
 822 04da 3FF4A6AE 		beq	.L26
 823              		.loc 1 236 0
 824 04de DDED027A 		vldr.32	s15, [sp, #8]
 825 04e2 9EE6     		b	.L205
 826              	.LVL67:
 827              	.L32:
 828              		.loc 1 289 0
 829 04e4 9DED020A 		vldr.32	s0, [sp, #8]
 830 04e8 DFED817A 		vldr.32	s15, .L224+20
 831 04ec B0EEC07A 		vabs.f32	s14, s0
 832 04f0 B4EEE77A 		vcmpe.f32	s14, s15
 833 04f4 F1EE10FA 		vmrs	APSR_nzcv, FPSCR
 834 04f8 0FD5     		bpl	.L43
 835              		.loc 1 290 0
 836 04fa 07EE905A 		vmov	s15, r5	@ int
 837 04fe B8EEE77A 		vcvt.f32.s32	s14, s15
 838 0502 DFED807A 		vldr.32	s15, .L224+40
 839 0506 DBED006A 		vldr.32	s13, [fp]
 840 050a 67EE277A 		vmul.f32	s15, s14, s15
 841 050e 87EEA97A 		vdiv.f32	s14, s15, s19
 842 0512 77EE267A 		vadd.f32	s15, s14, s13
 843 0516 CBED007A 		vstr.32	s15, [fp]
 844              	.L43:
 845              		.loc 1 293 0
 846 051a 9BED007A 		vldr.32	s14, [fp]
 847 051e DFED7A7A 		vldr.32	s15, .L224+44
 848 0522 B4EEE77A 		vcmpe.f32	s14, s15
 849 0526 F1EE10FA 		vmrs	APSR_nzcv, FPSCR
 850 052a 40F18C80 		bpl	.L45
 851              		.loc 1 293 0 is_stmt 0 discriminator 1
 852 052e 9AF81130 		ldrb	r3, [r10, #17]	@ zero_extendqisi2
 853 0532 002B     		cmp	r3, #0
 854 0534 00F08780 		beq	.L45
 855              		.loc 1 251 0 is_stmt 1
ARM GAS  C:\Users\euanm\AppData\Local\Temp\cc8LfcOk.s 			page 16


 856 0538 0027     		movs	r7, #0
 857              		.loc 1 247 0
 858 053a DFED6CAA 		vldr.32	s21, .L224+16
 859              		.loc 1 249 0
 860 053e 0197     		str	r7, [sp, #4]
 861              		.loc 1 248 0
 862 0540 3D46     		mov	r5, r7
 863              	.LVL68:
 864 0542 BDE6     		b	.L37
 865              	.LVL69:
 866              	.L55:
 867              		.loc 1 371 0
 868 0544 6B4B     		ldr	r3, .L224+24
 869 0546 0024     		movs	r4, #0
 870              	.LVL70:
 871 0548 1C70     		strb	r4, [r3]
 872              		.loc 1 374 0
 873 054a FFF7FEFF 		bl	mc_interface_get_rpm
 874              	.LVL71:
 875              		.loc 1 376 0
 876 054e 9AF82030 		ldrb	r3, [r10, #32]	@ zero_extendqisi2
 877              		.loc 1 374 0
 878 0552 F0EE40BA 		vmov.f32	s23, s0
 879              	.LVL72:
 880 0556 B0EE40BA 		vmov.f32	s22, s0
 881              		.loc 1 376 0
 882 055a 3BB3     		cbz	r3, .L62
 883              	.LBB120:
 884              	.LBB121:
 885              		.loc 1 380 0
 886 055c 9FED67CA 		vldr.32	s24, .L224+32
 887              	.LVL73:
 888              	.L65:
 889              		.loc 1 378 0
 890 0560 2046     		mov	r0, r4
 891 0562 FFF7FEFF 		bl	comm_can_get_status_msg_index
 892              	.LVL74:
 893              		.loc 1 380 0
 894 0566 0368     		ldr	r3, [r0]
 895 0568 002B     		cmp	r3, #0
 896              	.LBE121:
 897              		.loc 1 377 0
 898 056a 04F10104 		add	r4, r4, #1
 899              	.LVL75:
 900              	.LBB132:
 901              		.loc 1 380 0
 902 056e 1BDB     		blt	.L63
 903              	.LBB122:
 904              	.LBB123:
 905              	.LBB124:
 906              	.LBB125:
 907              		.loc 3 231 0 discriminator 1
 908 0570 634B     		ldr	r3, .L224+36
 909              	.LBE125:
 910              	.LBE124:
 911              	.LBE123:
 912              	.LBE122:
ARM GAS  C:\Users\euanm\AppData\Local\Temp\cc8LfcOk.s 			page 17


 913              		.loc 1 380 0 discriminator 1
 914 0572 4268     		ldr	r2, [r0, #4]
 915              	.LBB129:
 916              	.LBB128:
 917              	.LBB127:
 918              	.LBB126:
 919              		.loc 3 231 0 discriminator 1
 920 0574 9B6A     		ldr	r3, [r3, #40]
 921              	.LVL76:
 922              	.LBE126:
 923              	.LBE127:
 924              	.LBE128:
 925              	.LBE129:
 926              		.loc 1 380 0 discriminator 1
 927 0576 9B1A     		subs	r3, r3, r2
 928 0578 07EE903A 		vmov	s15, r3	@ int
 929 057c F8EE677A 		vcvt.f32.u32	s15, s15
 930              	.LBB130:
 931              		.loc 1 383 0 discriminator 1
 932 0580 F0EECB6A 		vabs.f32	s13, s22
 933              	.LBE130:
 934              		.loc 1 380 0 discriminator 1
 935 0584 87EEA97A 		vdiv.f32	s14, s15, s19
 936 0588 B4EECC7A 		vcmpe.f32	s14, s24
 937 058c F1EE10FA 		vmrs	APSR_nzcv, FPSCR
 938 0590 0AD5     		bpl	.L63
 939              	.LBB131:
 940              		.loc 1 381 0
 941 0592 D0ED027A 		vldr.32	s15, [r0, #8]
 942              	.LVL77:
 943              		.loc 1 383 0
 944 0596 B0EEE77A 		vabs.f32	s14, s15
 945              		.loc 1 384 0
 946 059a B4EE667A 		vcmp.f32	s14, s13
 947 059e F1EE10FA 		vmrs	APSR_nzcv, FPSCR
 948 05a2 48BF     		it	mi
 949 05a4 B0EE67BA 		vmovmi.f32	s22, s15
 950              	.LVL78:
 951              	.L63:
 952              	.LBE131:
 953              	.LBE132:
 954              		.loc 1 377 0 discriminator 2
 955 05a8 032C     		cmp	r4, #3
 956 05aa D9D1     		bne	.L65
 957              	.LVL79:
 958              	.L62:
 959              	.LBE120:
 960              		.loc 1 391 0
 961 05ac 17B1     		cbz	r7, .L69
 962              		.loc 1 391 0 is_stmt 0 discriminator 1
 963 05ae 9AF82030 		ldrb	r3, [r10, #32]	@ zero_extendqisi2
 964 05b2 33BB     		cbnz	r3, .L212
 965              	.L69:
 966              		.loc 1 403 0 is_stmt 1
 967 05b4 002D     		cmp	r5, #0
 968 05b6 3FF44CAD 		beq	.L4
 969              		.loc 1 404 0
ARM GAS  C:\Users\euanm\AppData\Local\Temp\cc8LfcOk.s 			page 18


 970 05ba 019B     		ldr	r3, [sp, #4]
 971 05bc 002B     		cmp	r3, #0
 972 05be 40F06481 		bne	.L213
 973              	.LBB133:
 974              		.loc 1 417 0
 975 05c2 DAED077A 		vldr.32	s15, [r10, #28]
 976 05c6 B4EEE7BA 		vcmpe.f32	s22, s15
 977 05ca F1EE10FA 		vmrs	APSR_nzcv, FPSCR
 978 05ce 40F39D80 		ble	.L78
 979              		.loc 1 417 0 is_stmt 0 discriminator 1
 980 05d2 F5EEC0AA 		vcmpe.f32	s21, #0
 981 05d6 F1EE10FA 		vmrs	APSR_nzcv, FPSCR
 982 05da 40F39780 		ble	.L78
 983              	.L206:
 984              		.loc 1 422 0 is_stmt 1
 985 05de D9ED47AA 		vldr.32	s21, [r9, #284]
 986              	.LVL80:
 987              	.L81:
 988              		.loc 1 442 0
 989 05e2 9AF82030 		ldrb	r3, [r10, #32]	@ zero_extendqisi2
 990              		.loc 1 433 0
 991 05e6 F5EEC0AA 		vcmpe.f32	s21, #0
 992 05ea F1EE10FA 		vmrs	APSR_nzcv, FPSCR
 993 05ee 00F1B080 		bmi	.L214
 994              	.L201:
 995              		.loc 1 442 0
 996 05f2 002B     		cmp	r3, #0
 997 05f4 40F0AD81 		bne	.L215
 998              	.LVL81:
 999              	.L104:
 1000              		.loc 1 480 0
 1001 05f8 B0EE6A0A 		vmov.f32	s0, s21
 1002 05fc FFF7FEFF 		bl	mc_interface_set_current
 1003              	.LVL82:
 1004 0600 27E5     		b	.L4
 1005              	.LVL83:
 1006              	.L212:
 1007              	.LBE133:
 1008              	.LBB156:
 1009              		.loc 1 392 0
 1010 0602 FFF7FEFF 		bl	mc_interface_get_duty_cycle_now
 1011              	.LVL84:
 1012              	.LBB76:
 1013              	.LBB72:
 1014              		.loc 1 397 0
 1015 0606 9FED3DCA 		vldr.32	s24, .L224+32
 1016              	.LBE72:
 1017              	.LBE76:
 1018              		.loc 1 392 0
 1019 060a F0EE40CA 		vmov.f32	s25, s0
 1020              	.LVL85:
 1021              	.LBB77:
 1022              		.loc 1 394 0
 1023 060e 0024     		movs	r4, #0
 1024              	.LVL86:
 1025              	.L72:
 1026              	.LBB73:
ARM GAS  C:\Users\euanm\AppData\Local\Temp\cc8LfcOk.s 			page 19


 1027              		.loc 1 395 0
 1028 0610 2046     		mov	r0, r4
 1029 0612 FFF7FEFF 		bl	comm_can_get_status_msg_index
 1030              	.LVL87:
 1031              		.loc 1 397 0
 1032 0616 0268     		ldr	r2, [r0]
 1033 0618 002A     		cmp	r2, #0
 1034              	.LBE73:
 1035              		.loc 1 394 0
 1036 061a 04F10104 		add	r4, r4, #1
 1037              	.LVL88:
 1038              	.LBB74:
 1039              		.loc 1 397 0
 1040 061e 0FDB     		blt	.L70
 1041              	.LBB64:
 1042              	.LBB65:
 1043              	.LBB66:
 1044              	.LBB67:
 1045              		.loc 3 231 0 discriminator 1
 1046 0620 374B     		ldr	r3, .L224+36
 1047              	.LBE67:
 1048              	.LBE66:
 1049              	.LBE65:
 1050              	.LBE64:
 1051              		.loc 1 397 0 discriminator 1
 1052 0622 4168     		ldr	r1, [r0, #4]
 1053              	.LBB71:
 1054              	.LBB70:
 1055              	.LBB69:
 1056              	.LBB68:
 1057              		.loc 3 231 0 discriminator 1
 1058 0624 9B6A     		ldr	r3, [r3, #40]
 1059              	.LVL89:
 1060              	.LBE68:
 1061              	.LBE69:
 1062              	.LBE70:
 1063              	.LBE71:
 1064              		.loc 1 397 0 discriminator 1
 1065 0626 5B1A     		subs	r3, r3, r1
 1066 0628 07EE903A 		vmov	s15, r3	@ int
 1067 062c F8EE677A 		vcvt.f32.u32	s15, s15
 1068 0630 87EEA97A 		vdiv.f32	s14, s15, s19
 1069 0634 B4EECC7A 		vcmpe.f32	s14, s24
 1070 0638 F1EE10FA 		vmrs	APSR_nzcv, FPSCR
 1071 063c 00F18381 		bmi	.L216
 1072              	.LVL90:
 1073              	.L70:
 1074              	.LBE74:
 1075              		.loc 1 394 0 discriminator 2
 1076 0640 032C     		cmp	r4, #3
 1077 0642 E5D1     		bne	.L72
 1078 0644 B6E7     		b	.L69
 1079              	.LVL91:
 1080              	.L45:
 1081              	.LBE77:
 1082              	.LBE156:
 1083              		.loc 1 294 0
ARM GAS  C:\Users\euanm\AppData\Local\Temp\cc8LfcOk.s 			page 20


 1084 0646 D9ED161A 		vldr.32	s3, [r9, #88]
 1085 064a 99ED162A 		vldr.32	s4, [r9, #88]
 1086              		.loc 1 247 0
 1087 064e DFED27AA 		vldr.32	s21, .L224+16
 1088              		.loc 1 294 0
 1089 0652 F1EE611A 		vneg.f32	s3, s3
 1090 0656 B7EE001A 		vmov.f32	s2, #1.0e+0
 1091 065a FFEE000A 		vmov.f32	s1, #-1.0e+0
 1092 065e FFF7FEFF 		bl	utils_map
 1093              	.LVL92:
 1094              		.loc 1 249 0
 1095 0662 0023     		movs	r3, #0
 1096 0664 1D46     		mov	r5, r3
 1097              	.LVL93:
 1098 0666 0193     		str	r3, [sp, #4]
 1099              		.loc 1 295 0
 1100 0668 0127     		movs	r7, #1
 1101              		.loc 1 294 0
 1102 066a FFF7FEFF 		bl	mc_interface_set_duty
 1103              	.LVL94:
 1104 066e 27E6     		b	.L37
 1105              	.LVL95:
 1106              	.L28:
 1107              		.loc 1 221 0
 1108 0670 DDED026A 		vldr.32	s13, [sp, #8]
 1109 0674 B0EE007A 		vmov.f32	s14, #2.0e+0
 1110 0678 FFEE007A 		vmov.f32	s15, #-1.0e+0
 1111 067c E6EE877A 		vfma.f32	s15, s13, s14
 1112 0680 CDED027A 		vstr.32	s15, [sp, #8]
 1113              		.loc 1 222 0
 1114 0684 D1E5     		b	.L26
 1115              	.LVL96:
 1116              	.L33:
 1117              		.loc 1 274 0
 1118 0686 DDED027A 		vldr.32	s15, [sp, #8]
 1119 068a F5EEC07A 		vcmpe.f32	s15, #0
 1120 068e F1EE10FA 		vmrs	APSR_nzcv, FPSCR
 1121 0692 C0F2F280 		blt	.L199
 1122              		.loc 1 275 0
 1123 0696 D0ED01AA 		vldr.32	s21, [r0, #4]
 1124              		.loc 1 249 0
 1125 069a 0191     		str	r1, [sp, #4]
 1126              		.loc 1 275 0
 1127 069c 67EEAAAA 		vmul.f32	s21, s15, s21
 1128              	.LVL97:
 1129              	.L41:
 1130              		.loc 1 281 0
 1131 06a0 9FED137A 		vldr.32	s14, .L224+20
 1132 06a4 F4EEC77A 		vcmpe.f32	s15, s14
 1133 06a8 F1EE10FA 		vmrs	APSR_nzcv, FPSCR
 1134 06ac 12D5     		bpl	.L200
 1135              		.loc 1 282 0
 1136 06ae 07EE905A 		vmov	s15, r5	@ int
 1137 06b2 9FED147A 		vldr.32	s14, .L224+40
 1138 06b6 F8EEE76A 		vcvt.f32.s32	s13, s15
 1139 06ba DBED007A 		vldr.32	s15, [fp]
 1140 06be 66EE876A 		vmul.f32	s13, s13, s14
ARM GAS  C:\Users\euanm\AppData\Local\Temp\cc8LfcOk.s 			page 21


 1141              		.loc 1 251 0
 1142 06c2 0027     		movs	r7, #0
 1143              		.loc 1 282 0
 1144 06c4 86EEA97A 		vdiv.f32	s14, s13, s19
 1145              		.loc 1 273 0
 1146 06c8 0125     		movs	r5, #1
 1147              	.LVL98:
 1148              		.loc 1 282 0
 1149 06ca 77EE277A 		vadd.f32	s15, s14, s15
 1150 06ce CBED007A 		vstr.32	s15, [fp]
 1151 06d2 F5E5     		b	.L37
 1152              	.LVL99:
 1153              	.L200:
 1154              		.loc 1 251 0
 1155 06d4 0027     		movs	r7, #0
 1156              		.loc 1 273 0
 1157 06d6 0125     		movs	r5, #1
 1158              	.LVL100:
 1159 06d8 F2E5     		b	.L37
 1160              	.L225:
 1161 06da 00BF     		.align	2
 1162              	.L224:
 1163 06dc 00000000 		.word	.LANCHOR1
 1164 06e0 00040240 		.word	1073873920
 1165 06e4 00000000 		.word	.LANCHOR12
 1166 06e8 00000000 		.word	.LANCHOR13
 1167 06ec 00000000 		.word	0
 1168 06f0 6F12833A 		.word	981668463
 1169 06f4 00000000 		.word	.LANCHOR14
 1170 06f8 00000000 		.word	.LANCHOR15
 1171 06fc CDCCCC3D 		.word	1036831949
 1172 0700 00000000 		.word	ch
 1173 0704 00007A44 		.word	1148846080
 1174 0708 0000FA43 		.word	1140457472
 1175              	.LVL101:
 1176              	.L78:
 1177              	.LBB157:
 1178              		.loc 1 419 0
 1179 070c DAED067A 		vldr.32	s15, [r10, #24]
 1180 0710 A64B     		ldr	r3, .L226
 1181 0712 B4EEE7BA 		vcmpe.f32	s22, s15
 1182 0716 F1EE10FA 		vmrs	APSR_nzcv, FPSCR
 1183 071a 7FDD     		ble	.L82
 1184              		.loc 1 419 0 is_stmt 0 discriminator 1
 1185 071c F5EEC0AA 		vcmpe.f32	s21, #0
 1186 0720 F1EE10FA 		vmrs	APSR_nzcv, FPSCR
 1187 0724 7ADD     		ble	.L82
 1188              		.loc 1 420 0 is_stmt 1
 1189 0726 D3ED060A 		vldr.32	s1, [r3, #24]
 1190 072a 93ED071A 		vldr.32	s2, [r3, #28]
 1191 072e 99ED472A 		vldr.32	s4, [r9, #284]
 1192 0732 F0EE6A1A 		vmov.f32	s3, s21
 1193 0736 B0EE4B0A 		vmov.f32	s0, s22
 1194 073a FFF7FEFF 		bl	utils_map
 1195              	.LVL102:
 1196 073e F0EE40AA 		vmov.f32	s21, s0
 1197              	.LVL103:
ARM GAS  C:\Users\euanm\AppData\Local\Temp\cc8LfcOk.s 			page 22


 1198              		.loc 1 433 0
 1199 0742 F5EEC0AA 		vcmpe.f32	s21, #0
 1200 0746 F1EE10FA 		vmrs	APSR_nzcv, FPSCR
 1201              		.loc 1 442 0
 1202 074a 9AF82030 		ldrb	r3, [r10, #32]	@ zero_extendqisi2
 1203              		.loc 1 433 0
 1204 074e 7FF550AF 		bpl	.L201
 1205              	.LVL104:
 1206              	.L214:
 1207              		.loc 1 435 0
 1208 0752 F1EE6AAA 		vneg.f32	s21, s21
 1209              	.LVL105:
 1210              		.loc 1 437 0
 1211 0756 F1EE6BBA 		vneg.f32	s23, s23
 1212              	.LVL106:
 1213              		.loc 1 438 0
 1214 075a B1EE4BBA 		vneg.f32	s22, s22
 1215              	.LVL107:
 1216              		.loc 1 442 0
 1217 075e 002B     		cmp	r3, #0
 1218 0760 00F02081 		beq	.L114
 1219              		.loc 1 434 0
 1220 0764 0124     		movs	r4, #1
 1221              	.LVL108:
 1222              	.L106:
 1223              	.LBB134:
 1224              	.LBB135:
 1225              		.loc 1 446 0 discriminator 1
 1226 0766 DFED92CA 		vldr.32	s25, .L226+4
 1227              		.loc 1 447 0 discriminator 1
 1228 076a 904D     		ldr	r5, .L226
 1229              	.LVL109:
 1230              	.LBE135:
 1231              	.LBE134:
 1232              		.loc 1 434 0 discriminator 1
 1233 076c B0EE6ACA 		vmov.f32	s24, s21
 1234 0770 0027     		movs	r7, #0
 1235              	.LVL110:
 1236              	.L102:
 1237              	.LBB151:
 1238              	.LBB147:
 1239              		.loc 1 444 0
 1240 0772 3846     		mov	r0, r7
 1241 0774 FFF7FEFF 		bl	comm_can_get_status_msg_index
 1242              	.LVL111:
 1243              		.loc 1 446 0
 1244 0778 0168     		ldr	r1, [r0]
 1245 077a 0029     		cmp	r1, #0
 1246 077c 38DB     		blt	.L93
 1247              	.LVL112:
 1248              	.LBB136:
 1249              	.LBB137:
 1250              	.LBB138:
 1251              	.LBB139:
 1252              		.loc 3 231 0 discriminator 1
 1253 077e 8D4B     		ldr	r3, .L226+8
 1254              	.LBE139:
ARM GAS  C:\Users\euanm\AppData\Local\Temp\cc8LfcOk.s 			page 23


 1255              	.LBE138:
 1256              	.LBE137:
 1257              	.LBE136:
 1258              		.loc 1 446 0 discriminator 1
 1259 0780 4268     		ldr	r2, [r0, #4]
 1260              	.LBB143:
 1261              	.LBB142:
 1262              	.LBB141:
 1263              	.LBB140:
 1264              		.loc 3 231 0 discriminator 1
 1265 0782 9B6A     		ldr	r3, [r3, #40]
 1266              	.LVL113:
 1267              	.LBE140:
 1268              	.LBE141:
 1269              	.LBE142:
 1270              	.LBE143:
 1271              		.loc 1 446 0 discriminator 1
 1272 0784 9B1A     		subs	r3, r3, r2
 1273 0786 07EE903A 		vmov	s15, r3	@ int
 1274 078a F8EE677A 		vcvt.f32.u32	s15, s15
 1275 078e 87EEA97A 		vdiv.f32	s14, s15, s19
 1276 0792 B4EEEC7A 		vcmpe.f32	s14, s25
 1277 0796 F1EE10FA 		vmrs	APSR_nzcv, FPSCR
 1278 079a 29D5     		bpl	.L93
 1279              		.loc 1 447 0
 1280 079c 9AF82130 		ldrb	r3, [r10, #33]	@ zero_extendqisi2
 1281 07a0 002B     		cmp	r3, #0
 1282 07a2 00F0C180 		beq	.L95
 1283              	.LBB144:
 1284              		.loc 1 448 0
 1285 07a6 90ED020A 		vldr.32	s0, [r0, #8]
 1286              	.LVL114:
 1287 07aa 0090     		str	r0, [sp]
 1288              		.loc 1 454 0
 1289 07ac 95ED091A 		vldr.32	s2, [r5, #36]
 1290 07b0 9FED812A 		vldr.32	s4, .L226+12
 1291              		.loc 1 449 0
 1292 07b4 002C     		cmp	r4, #0
 1293 07b6 00F0CE80 		beq	.L96
 1294              		.loc 1 454 0
 1295 07ba B1EE400A 		vneg.f32	s0, s0
 1296              	.LVL115:
 1297 07be 30EE4B0A 		vsub.f32	s0, s0, s22
 1298              	.LVL116:
 1299 07c2 F0EE420A 		vmov.f32	s1, s4
 1300 07c6 F0EE6A1A 		vmov.f32	s3, s21
 1301 07ca FFF7FEFF 		bl	utils_map
 1302              	.LVL117:
 1303              		.loc 1 455 0
 1304 07ce D9ED477A 		vldr.32	s15, [r9, #284]
 1305 07d2 0098     		ldr	r0, [sp]
 1306 07d4 B4EEE70A 		vcmpe.f32	s0, s15
 1307 07d8 F1EE10FA 		vmrs	APSR_nzcv, FPSCR
 1308              		.loc 1 454 0
 1309 07dc B0EE40CA 		vmov.f32	s24, s0
 1310              	.LVL118:
 1311 07e0 0168     		ldr	r1, [r0]
ARM GAS  C:\Users\euanm\AppData\Local\Temp\cc8LfcOk.s 			page 24


 1312              		.loc 1 455 0
 1313 07e2 00F1DA80 		bmi	.L217
 1314              	.LVL119:
 1315              	.L100:
 1316 07e6 B1EE4C0A 		vneg.f32	s0, s24
 1317              	.LVL120:
 1318              	.L99:
 1319              	.LBE144:
 1320              		.loc 1 461 0
 1321 07ea C8B2     		uxtb	r0, r1
 1322 07ec FFF7FEFF 		bl	comm_can_set_current
 1323              	.LVL121:
 1324              	.L93:
 1325              	.LBE147:
 1326              		.loc 1 443 0 discriminator 2
 1327 07f0 0137     		adds	r7, r7, #1
 1328              	.LVL122:
 1329 07f2 032F     		cmp	r7, #3
 1330 07f4 BDD1     		bne	.L102
 1331              	.LBE151:
 1332              		.loc 1 468 0
 1333 07f6 9AF82130 		ldrb	r3, [r10, #33]	@ zero_extendqisi2
 1334 07fa 6C4A     		ldr	r2, .L226
 1335 07fc 002B     		cmp	r3, #0
 1336 07fe 76D1     		bne	.L218
 1337              		.loc 1 477 0
 1338 0800 002C     		cmp	r4, #0
 1339 0802 00F08E80 		beq	.L219
 1340              	.LVL123:
 1341              	.L92:
 1342              		.loc 1 478 0
 1343 0806 B1EE4C0A 		vneg.f32	s0, s24
 1344 080a FFF7FEFF 		bl	mc_interface_set_current
 1345              	.LVL124:
 1346 080e 20E4     		b	.L4
 1347              	.LVL125:
 1348              	.L210:
 1349              	.LBE157:
 1350              	.LBB158:
 1351              	.LBB100:
 1352              	.LBB98:
 1353              		.loc 1 317 0
 1354 0810 FFF7FEFF 		bl	timeout_get_brake_current
 1355              	.LVL126:
 1356 0814 E8B2     		uxtb	r0, r5
 1357 0816 FFF7FEFF 		bl	comm_can_set_current_brake
 1358              	.LVL127:
 1359 081a CFE5     		b	.L50
 1360              	.LVL128:
 1361              	.L82:
 1362              	.LBE98:
 1363              	.LBE100:
 1364              	.LBE158:
 1365              	.LBB159:
 1366              		.loc 1 421 0
 1367 081c DAED077A 		vldr.32	s15, [r10, #28]
 1368 0820 F1EE677A 		vneg.f32	s15, s15
ARM GAS  C:\Users\euanm\AppData\Local\Temp\cc8LfcOk.s 			page 25


 1369 0824 B4EEE7BA 		vcmpe.f32	s22, s15
 1370 0828 F1EE10FA 		vmrs	APSR_nzcv, FPSCR
 1371 082c 05D5     		bpl	.L85
 1372              		.loc 1 421 0 is_stmt 0 discriminator 1
 1373 082e F5EEC0AA 		vcmpe.f32	s21, #0
 1374 0832 F1EE10FA 		vmrs	APSR_nzcv, FPSCR
 1375 0836 3FF5D2AE 		bmi	.L206
 1376              	.L85:
 1377              		.loc 1 423 0 is_stmt 1
 1378 083a DAED067A 		vldr.32	s15, [r10, #24]
 1379 083e 5B4B     		ldr	r3, .L226
 1380 0840 F1EE677A 		vneg.f32	s15, s15
 1381 0844 B4EEE7BA 		vcmpe.f32	s22, s15
 1382 0848 F1EE10FA 		vmrs	APSR_nzcv, FPSCR
 1383 084c 7FF5C9AE 		bpl	.L81
 1384              		.loc 1 423 0 is_stmt 0 discriminator 1
 1385 0850 F5EEC0AA 		vcmpe.f32	s21, #0
 1386 0854 F1EE10FA 		vmrs	APSR_nzcv, FPSCR
 1387 0858 7FF5C3AE 		bpl	.L81
 1388              	.LVL129:
 1389              		.loc 1 426 0 is_stmt 1
 1390 085c D3ED060A 		vldr.32	s1, [r3, #24]
 1391 0860 93ED071A 		vldr.32	s2, [r3, #28]
 1392 0864 99ED472A 		vldr.32	s4, [r9, #284]
 1393 0868 F1EE6A1A 		vneg.f32	s3, s21
 1394              	.LVL130:
 1395 086c B1EE4B0A 		vneg.f32	s0, s22
 1396              	.LVL131:
 1397 0870 FFF7FEFF 		bl	utils_map
 1398              	.LVL132:
 1399              		.loc 1 427 0
 1400 0874 F1EE40AA 		vneg.f32	s21, s0
 1401              	.LVL133:
 1402 0878 B3E6     		b	.L81
 1403              	.LVL134:
 1404              	.L199:
 1405              	.LBE159:
 1406              		.loc 1 277 0
 1407 087a D0ED02AA 		vldr.32	s21, [r0, #8]
 1408              		.loc 1 278 0
 1409 087e 0192     		str	r2, [sp, #4]
 1410              		.loc 1 277 0
 1411 0880 67EEAAAA 		vmul.f32	s21, s15, s21
 1412 0884 F0EEEAAA 		vabs.f32	s21, s21
 1413              	.LVL135:
 1414 0888 0AE7     		b	.L41
 1415              	.LVL136:
 1416              	.L213:
 1417              		.loc 1 405 0
 1418 088a B0EE6A0A 		vmov.f32	s0, s21
 1419 088e FFF7FEFF 		bl	mc_interface_set_brake_current
 1420              	.LVL137:
 1421              	.LBB160:
 1422              	.LBB161:
 1423              		.loc 1 411 0
 1424 0892 9FED47BA 		vldr.32	s22, .L226+4
 1425              	.LVL138:
ARM GAS  C:\Users\euanm\AppData\Local\Temp\cc8LfcOk.s 			page 26


 1426              	.LBE161:
 1427              		.loc 1 408 0
 1428 0896 0024     		movs	r4, #0
 1429              	.LVL139:
 1430              	.L77:
 1431              	.LBB170:
 1432              		.loc 1 409 0
 1433 0898 2046     		mov	r0, r4
 1434 089a FFF7FEFF 		bl	comm_can_get_status_msg_index
 1435              	.LVL140:
 1436              		.loc 1 411 0
 1437 089e 0268     		ldr	r2, [r0]
 1438 08a0 002A     		cmp	r2, #0
 1439              	.LBE170:
 1440              		.loc 1 408 0
 1441 08a2 04F10104 		add	r4, r4, #1
 1442              	.LVL141:
 1443              	.LBB171:
 1444              		.loc 1 411 0
 1445 08a6 0EDB     		blt	.L75
 1446              	.LBB162:
 1447              	.LBB163:
 1448              	.LBB164:
 1449              	.LBB165:
 1450              		.loc 3 231 0 discriminator 1
 1451 08a8 424B     		ldr	r3, .L226+8
 1452              	.LBE165:
 1453              	.LBE164:
 1454              	.LBE163:
 1455              	.LBE162:
 1456              		.loc 1 411 0 discriminator 1
 1457 08aa 4168     		ldr	r1, [r0, #4]
 1458              	.LBB169:
 1459              	.LBB168:
 1460              	.LBB167:
 1461              	.LBB166:
 1462              		.loc 3 231 0 discriminator 1
 1463 08ac 9B6A     		ldr	r3, [r3, #40]
 1464              	.LVL142:
 1465              	.LBE166:
 1466              	.LBE167:
 1467              	.LBE168:
 1468              	.LBE169:
 1469              		.loc 1 411 0 discriminator 1
 1470 08ae 5B1A     		subs	r3, r3, r1
 1471 08b0 07EE903A 		vmov	s15, r3	@ int
 1472 08b4 F8EE677A 		vcvt.f32.u32	s15, s15
 1473 08b8 87EEA97A 		vdiv.f32	s14, s15, s19
 1474 08bc B4EECB7A 		vcmpe.f32	s14, s22
 1475 08c0 F1EE10FA 		vmrs	APSR_nzcv, FPSCR
 1476 08c4 39D4     		bmi	.L220
 1477              	.LVL143:
 1478              	.L75:
 1479              	.LBE171:
 1480              		.loc 1 408 0 discriminator 2
 1481 08c6 032C     		cmp	r4, #3
 1482 08c8 E6D1     		bne	.L77
ARM GAS  C:\Users\euanm\AppData\Local\Temp\cc8LfcOk.s 			page 27


 1483 08ca FFF7C2BB 		b	.L4
 1484              	.LVL144:
 1485              	.L198:
 1486              	.LBE160:
 1487              		.loc 1 251 0
 1488 08ce 0027     		movs	r7, #0
 1489              		.loc 1 249 0
 1490 08d0 0197     		str	r7, [sp, #4]
 1491              		.loc 1 258 0
 1492 08d2 0125     		movs	r5, #1
 1493              	.LVL145:
 1494 08d4 F4E4     		b	.L37
 1495              	.LVL146:
 1496              	.L57:
 1497              		.loc 1 343 0
 1498 08d6 B4EE007A 		vmov.f32	s14, #1.25e-1
 1499 08da 67EE877A 		vmul.f32	s15, s15, s14
 1500              	.LVL147:
 1501              	.LBB173:
 1502              		.loc 1 350 0
 1503 08de 3749     		ldr	r1, .L226+16
 1504              		.loc 1 349 0
 1505 08e0 0123     		movs	r3, #1
 1506              		.loc 1 350 0
 1507 08e2 B0EE670A 		vmov.f32	s0, s15
 1508 08e6 C1ED007A 		vstr.32	s15, [r1]
 1509              		.loc 1 349 0
 1510 08ea 1370     		strb	r3, [r2]
 1511 08ec CBE5     		b	.L58
 1512              	.LVL148:
 1513              	.L218:
 1514              	.LBE173:
 1515              	.LBB174:
 1516              	.LBB152:
 1517              		.loc 1 470 0
 1518 08ee 9FED322A 		vldr.32	s4, .L226+12
 1519 08f2 92ED091A 		vldr.32	s2, [r2, #36]
 1520 08f6 F0EE6A1A 		vmov.f32	s3, s21
 1521 08fa 3BEECB0A 		vsub.f32	s0, s23, s22
 1522              	.LVL149:
 1523 08fe F0EE420A 		vmov.f32	s1, s4
 1524 0902 FFF7FEFF 		bl	utils_map
 1525              	.LVL150:
 1526              		.loc 1 471 0
 1527 0906 D9ED477A 		vldr.32	s15, [r9, #284]
 1528              		.loc 1 472 0
 1529 090a B4EE670A 		vcmp.f32	s0, s15
 1530              		.loc 1 470 0
 1531 090e B0EE40CA 		vmov.f32	s24, s0
 1532              	.LVL151:
 1533              		.loc 1 472 0
 1534 0912 F1EE10FA 		vmrs	APSR_nzcv, FPSCR
 1535 0916 48BF     		it	mi
 1536 0918 B0EE4ACA 		vmovmi.f32	s24, s20
 1537              	.LVL152:
 1538              	.LBE152:
 1539              		.loc 1 477 0
ARM GAS  C:\Users\euanm\AppData\Local\Temp\cc8LfcOk.s 			page 28


 1540 091c 002C     		cmp	r4, #0
 1541 091e 7FF472AF 		bne	.L92
 1542              	.LVL153:
 1543              	.L219:
 1544 0922 F0EE4CAA 		vmov.f32	s21, s24
 1545              	.LVL154:
 1546 0926 67E6     		b	.L104
 1547              	.LVL155:
 1548              	.L95:
 1549              	.LBB153:
 1550              	.LBB148:
 1551              		.loc 1 460 0
 1552 0928 002C     		cmp	r4, #0
 1553 092a 7FF45CAF 		bne	.L100
 1554              	.LVL156:
 1555              	.L101:
 1556              		.loc 1 463 0
 1557 092e C8B2     		uxtb	r0, r1
 1558 0930 B0EE4C0A 		vmov.f32	s0, s24
 1559 0934 FFF7FEFF 		bl	comm_can_set_current
 1560              	.LVL157:
 1561 0938 5AE7     		b	.L93
 1562              	.LVL158:
 1563              	.L220:
 1564              	.LBE148:
 1565              	.LBE153:
 1566              	.LBE174:
 1567              	.LBB175:
 1568              	.LBB172:
 1569              		.loc 1 412 0
 1570 093a D0B2     		uxtb	r0, r2
 1571              	.LVL159:
 1572 093c B0EE6A0A 		vmov.f32	s0, s21
 1573 0940 FFF7FEFF 		bl	comm_can_set_current_brake
 1574              	.LVL160:
 1575 0944 BFE7     		b	.L75
 1576              	.LVL161:
 1577              	.L216:
 1578              	.LBE172:
 1579              	.LBE175:
 1580              	.LBB176:
 1581              	.LBB78:
 1582              	.LBB75:
 1583              		.loc 1 398 0
 1584 0946 D0B2     		uxtb	r0, r2
 1585              	.LVL162:
 1586 0948 B0EE6C0A 		vmov.f32	s0, s25
 1587 094c FFF7FEFF 		bl	comm_can_set_duty
 1588              	.LVL163:
 1589 0950 76E6     		b	.L70
 1590              	.LVL164:
 1591              	.L215:
 1592              	.LBE75:
 1593              	.LBE78:
 1594              	.LBE176:
 1595              	.LBB177:
 1596              		.loc 1 432 0
ARM GAS  C:\Users\euanm\AppData\Local\Temp\cc8LfcOk.s 			page 29


 1597 0952 0024     		movs	r4, #0
 1598 0954 07E7     		b	.L106
 1599              	.LVL165:
 1600              	.L96:
 1601              	.LBB154:
 1602              	.LBB149:
 1603              	.LBB145:
 1604              		.loc 1 454 0
 1605 0956 30EE4B0A 		vsub.f32	s0, s0, s22
 1606              	.LVL166:
 1607 095a F0EE420A 		vmov.f32	s1, s4
 1608 095e F0EE6A1A 		vmov.f32	s3, s21
 1609 0962 FFF7FEFF 		bl	utils_map
 1610              	.LVL167:
 1611              		.loc 1 455 0
 1612 0966 D9ED477A 		vldr.32	s15, [r9, #284]
 1613 096a 0098     		ldr	r0, [sp]
 1614 096c F4EEC07A 		vcmpe.f32	s15, s0
 1615 0970 F1EE10FA 		vmrs	APSR_nzcv, FPSCR
 1616              		.loc 1 454 0
 1617 0974 B0EE40CA 		vmov.f32	s24, s0
 1618              	.LVL168:
 1619 0978 0168     		ldr	r1, [r0]
 1620              		.loc 1 455 0
 1621 097a D8DD     		ble	.L101
 1622              		.loc 1 456 0
 1623 097c 9FED0ECA 		vldr.32	s24, .L226+12
 1624 0980 D5E7     		b	.L101
 1625              	.LVL169:
 1626              	.L211:
 1627              	.LBE145:
 1628              	.LBE149:
 1629              	.LBE154:
 1630              	.LBE177:
 1631              	.LBB178:
 1632              	.LBB119:
 1633              	.LBB118:
 1634              	.LBB116:
 1635              		.loc 1 363 0
 1636 0982 D0B2     		uxtb	r0, r2
 1637              	.LVL170:
 1638 0984 B0EE4B0A 		vmov.f32	s0, s22
 1639 0988 FFF7FEFF 		bl	comm_can_set_duty
 1640              	.LVL171:
 1641 098c A1E5     		b	.L59
 1642              	.LVL172:
 1643              	.L2:
 1644              	.LBE116:
 1645              	.LBE118:
 1646              	.LBE119:
 1647              	.LBE178:
 1648              	.LBE60:
 1649              		.loc 1 93 0
 1650 098e 1146     		mov	r1, r2
 1651 0990 0B48     		ldr	r0, .L226+20
 1652              	.LVL173:
 1653 0992 FFF7FEFF 		bl	_pal_lld_setgroupmode
ARM GAS  C:\Users\euanm\AppData\Local\Temp\cc8LfcOk.s 			page 30


 1654              	.LVL174:
 1655 0996 FFF74BBB 		b	.L3
 1656              	.LVL175:
 1657              	.L217:
 1658              	.LBB180:
 1659              	.LBB179:
 1660              	.LBB155:
 1661              	.LBB150:
 1662              	.LBB146:
 1663              		.loc 1 455 0
 1664 099a 9FED0A0A 		vldr.32	s0, .L226+24
 1665              	.LVL176:
 1666              		.loc 1 456 0
 1667 099e 9FED06CA 		vldr.32	s24, .L226+12
 1668              	.LVL177:
 1669 09a2 22E7     		b	.L99
 1670              	.LVL178:
 1671              	.L114:
 1672              	.LBE146:
 1673              	.LBE150:
 1674              	.LBE155:
 1675              		.loc 1 436 0
 1676 09a4 B0EE6ACA 		vmov.f32	s24, s21
 1677 09a8 2DE7     		b	.L92
 1678              	.L227:
 1679 09aa 00BF     		.align	2
 1680              	.L226:
 1681 09ac 00000000 		.word	.LANCHOR1
 1682 09b0 CDCCCC3D 		.word	1036831949
 1683 09b4 00000000 		.word	ch
 1684 09b8 00000000 		.word	0
 1685 09bc 00000000 		.word	.LANCHOR15
 1686 09c0 00040240 		.word	1073873920
 1687 09c4 00000080 		.word	-2147483648
 1688              	.LBE179:
 1689              	.LBE180:
 1690              		.cfi_endproc
 1691              	.LFE262:
 1692              		.size	adc_thread, .-adc_thread
 1693              		.section	.text.app_adc_configure,"ax",%progbits
 1694              		.align	2
 1695              		.p2align 4,,15
 1696              		.global	app_adc_configure
 1697              		.thumb
 1698              		.thumb_func
 1699              		.type	app_adc_configure, %function
 1700              	app_adc_configure:
 1701              	.LFB256:
 1702              		.loc 1 56 0
 1703              		.cfi_startproc
 1704              		@ args = 0, pretend = 0, frame = 0
 1705              		@ frame_needed = 0, uses_anonymous_args = 0
 1706              		@ link register save eliminated.
 1707              	.LVL179:
 1708 0000 F0B4     		push	{r4, r5, r6, r7}
 1709              		.cfi_def_cfa_offset 16
 1710              		.cfi_offset 4, -16
ARM GAS  C:\Users\euanm\AppData\Local\Temp\cc8LfcOk.s 			page 31


 1711              		.cfi_offset 5, -12
 1712              		.cfi_offset 6, -8
 1713              		.cfi_offset 7, -4
 1714              		.loc 1 57 0
 1715 0002 0546     		mov	r5, r0
 1716 0004 0FCD     		ldmia	r5!, {r0, r1, r2, r3}
 1717              	.LVL180:
 1718 0006 064C     		ldr	r4, .L230
 1719              		.loc 1 58 0
 1720 0008 064E     		ldr	r6, .L230+4
 1721              		.loc 1 57 0
 1722 000a 0FC4     		stmia	r4!, {r0, r1, r2, r3}
 1723 000c 0FCD     		ldmia	r5!, {r0, r1, r2, r3}
 1724              	.LVL181:
 1725 000e 0FC4     		stmia	r4!, {r0, r1, r2, r3}
 1726 0010 95E80700 		ldmia	r5, {r0, r1, r2}
 1727              		.loc 1 58 0
 1728 0014 0027     		movs	r7, #0
 1729              		.loc 1 57 0
 1730 0016 84E80700 		stmia	r4, {r0, r1, r2}
 1731              		.loc 1 58 0
 1732 001a 3760     		str	r7, [r6]	@ float
 1733              		.loc 1 59 0
 1734 001c F0BC     		pop	{r4, r5, r6, r7}
 1735              		.cfi_restore 7
 1736              		.cfi_restore 6
 1737              		.cfi_restore 5
 1738              		.cfi_restore 4
 1739              		.cfi_def_cfa_offset 0
 1740              	.LVL182:
 1741 001e 7047     		bx	lr
 1742              	.L231:
 1743              		.align	2
 1744              	.L230:
 1745 0020 00000000 		.word	.LANCHOR1
 1746 0024 00000000 		.word	.LANCHOR2
 1747              		.cfi_endproc
 1748              	.LFE256:
 1749              		.size	app_adc_configure, .-app_adc_configure
 1750              		.section	.text.app_adc_start,"ax",%progbits
 1751              		.align	2
 1752              		.p2align 4,,15
 1753              		.global	app_adc_start
 1754              		.thumb
 1755              		.thumb_func
 1756              		.type	app_adc_start, %function
 1757              	app_adc_start:
 1758              	.LFB257:
 1759              		.loc 1 61 0
 1760              		.cfi_startproc
 1761              		@ args = 0, pretend = 0, frame = 0
 1762              		@ frame_needed = 0, uses_anonymous_args = 0
 1763              	.LVL183:
 1764 0000 30B5     		push	{r4, r5, lr}
 1765              		.cfi_def_cfa_offset 12
 1766              		.cfi_offset 4, -12
 1767              		.cfi_offset 5, -8
ARM GAS  C:\Users\euanm\AppData\Local\Temp\cc8LfcOk.s 			page 32


 1768              		.cfi_offset 14, -4
 1769 0002 83B0     		sub	sp, sp, #12
 1770              		.cfi_def_cfa_offset 24
 1771              		.loc 1 62 0
 1772 0004 064C     		ldr	r4, .L234
 1773              		.loc 1 63 0
 1774 0006 074B     		ldr	r3, .L234+4
 1775 0008 0022     		movs	r2, #0
 1776              		.loc 1 61 0
 1777 000a 0546     		mov	r5, r0
 1778              		.loc 1 63 0
 1779 000c 0092     		str	r2, [sp]
 1780 000e 4FF4B361 		mov	r1, #1432
 1781 0012 4022     		movs	r2, #64
 1782 0014 0448     		ldr	r0, .L234+8
 1783              	.LVL184:
 1784              		.loc 1 62 0
 1785 0016 2570     		strb	r5, [r4]
 1786              		.loc 1 63 0
 1787 0018 FFF7FEFF 		bl	chThdCreateStatic
 1788              	.LVL185:
 1789              		.loc 1 64 0
 1790 001c 03B0     		add	sp, sp, #12
 1791              		.cfi_def_cfa_offset 12
 1792              		@ sp needed
 1793 001e 30BD     		pop	{r4, r5, pc}
 1794              	.L235:
 1795              		.align	2
 1796              	.L234:
 1797 0020 00000000 		.word	.LANCHOR0
 1798 0024 00000000 		.word	adc_thread
 1799 0028 00000000 		.word	.LANCHOR16
 1800              		.cfi_endproc
 1801              	.LFE257:
 1802              		.size	app_adc_start, .-app_adc_start
 1803              		.section	.text.app_adc_get_decoded_level,"ax",%progbits
 1804              		.align	2
 1805              		.p2align 4,,15
 1806              		.global	app_adc_get_decoded_level
 1807              		.thumb
 1808              		.thumb_func
 1809              		.type	app_adc_get_decoded_level, %function
 1810              	app_adc_get_decoded_level:
 1811              	.LFB258:
 1812              		.loc 1 66 0
 1813              		.cfi_startproc
 1814              		@ args = 0, pretend = 0, frame = 0
 1815              		@ frame_needed = 0, uses_anonymous_args = 0
 1816              		@ link register save eliminated.
 1817              		.loc 1 67 0
 1818 0000 014B     		ldr	r3, .L237
 1819 0002 93ED000A 		vldr.32	s0, [r3]
 1820              		.loc 1 68 0
 1821 0006 7047     		bx	lr
 1822              	.L238:
 1823              		.align	2
 1824              	.L237:
ARM GAS  C:\Users\euanm\AppData\Local\Temp\cc8LfcOk.s 			page 33


 1825 0008 00000000 		.word	.LANCHOR6
 1826              		.cfi_endproc
 1827              	.LFE258:
 1828              		.size	app_adc_get_decoded_level, .-app_adc_get_decoded_level
 1829              		.section	.text.app_adc_get_voltage,"ax",%progbits
 1830              		.align	2
 1831              		.p2align 4,,15
 1832              		.global	app_adc_get_voltage
 1833              		.thumb
 1834              		.thumb_func
 1835              		.type	app_adc_get_voltage, %function
 1836              	app_adc_get_voltage:
 1837              	.LFB259:
 1838              		.loc 1 70 0
 1839              		.cfi_startproc
 1840              		@ args = 0, pretend = 0, frame = 0
 1841              		@ frame_needed = 0, uses_anonymous_args = 0
 1842              		@ link register save eliminated.
 1843              		.loc 1 71 0
 1844 0000 014B     		ldr	r3, .L240
 1845 0002 93ED000A 		vldr.32	s0, [r3]
 1846              		.loc 1 72 0
 1847 0006 7047     		bx	lr
 1848              	.L241:
 1849              		.align	2
 1850              	.L240:
 1851 0008 00000000 		.word	.LANCHOR3
 1852              		.cfi_endproc
 1853              	.LFE259:
 1854              		.size	app_adc_get_voltage, .-app_adc_get_voltage
 1855              		.section	.text.app_adc_get_decoded_level2,"ax",%progbits
 1856              		.align	2
 1857              		.p2align 4,,15
 1858              		.global	app_adc_get_decoded_level2
 1859              		.thumb
 1860              		.thumb_func
 1861              		.type	app_adc_get_decoded_level2, %function
 1862              	app_adc_get_decoded_level2:
 1863              	.LFB260:
 1864              		.loc 1 74 0
 1865              		.cfi_startproc
 1866              		@ args = 0, pretend = 0, frame = 0
 1867              		@ frame_needed = 0, uses_anonymous_args = 0
 1868              		@ link register save eliminated.
 1869              		.loc 1 75 0
 1870 0000 014B     		ldr	r3, .L243
 1871 0002 93ED000A 		vldr.32	s0, [r3]
 1872              		.loc 1 76 0
 1873 0006 7047     		bx	lr
 1874              	.L244:
 1875              		.align	2
 1876              	.L243:
 1877 0008 00000000 		.word	.LANCHOR10
 1878              		.cfi_endproc
 1879              	.LFE260:
 1880              		.size	app_adc_get_decoded_level2, .-app_adc_get_decoded_level2
 1881              		.section	.text.app_adc_get_voltage2,"ax",%progbits
ARM GAS  C:\Users\euanm\AppData\Local\Temp\cc8LfcOk.s 			page 34


 1882              		.align	2
 1883              		.p2align 4,,15
 1884              		.global	app_adc_get_voltage2
 1885              		.thumb
 1886              		.thumb_func
 1887              		.type	app_adc_get_voltage2, %function
 1888              	app_adc_get_voltage2:
 1889              	.LFB261:
 1890              		.loc 1 78 0
 1891              		.cfi_startproc
 1892              		@ args = 0, pretend = 0, frame = 0
 1893              		@ frame_needed = 0, uses_anonymous_args = 0
 1894              		@ link register save eliminated.
 1895              		.loc 1 79 0
 1896 0000 014B     		ldr	r3, .L246
 1897 0002 93ED000A 		vldr.32	s0, [r3]
 1898              		.loc 1 80 0
 1899 0006 7047     		bx	lr
 1900              	.L247:
 1901              		.align	2
 1902              	.L246:
 1903 0008 00000000 		.word	.LANCHOR7
 1904              		.cfi_endproc
 1905              	.LFE261:
 1906              		.size	app_adc_get_voltage2, .-app_adc_get_voltage2
 1907              		.section	.bss.pulses_without_power_before.10234,"aw",%nobits
 1908              		.align	2
 1909              		.set	.LANCHOR11,. + 0
 1910              		.type	pulses_without_power_before.10234, %object
 1911              		.size	pulses_without_power_before.10234, 4
 1912              	pulses_without_power_before.10234:
 1913 0000 00000000 		.space	4
 1914              		.section	.bss.filter_ptr.10194,"aw",%nobits
 1915              		.align	2
 1916              		.set	.LANCHOR4,. + 0
 1917              		.type	filter_ptr.10194, %object
 1918              		.size	filter_ptr.10194, 4
 1919              	filter_ptr.10194:
 1920 0000 00000000 		.space	4
 1921              		.section	.bss.read_voltage2,"aw",%nobits
 1922              		.align	2
 1923              		.set	.LANCHOR7,. + 0
 1924              		.type	read_voltage2, %object
 1925              		.size	read_voltage2, 4
 1926              	read_voltage2:
 1927 0000 00000000 		.space	4
 1928              		.section	.bss.read_voltage,"aw",%nobits
 1929              		.align	2
 1930              		.set	.LANCHOR3,. + 0
 1931              		.type	read_voltage, %object
 1932              		.size	read_voltage, 4
 1933              	read_voltage:
 1934 0000 00000000 		.space	4
 1935              		.section	.bss.pid_rpm.10248,"aw",%nobits
 1936              		.align	2
 1937              		.set	.LANCHOR15,. + 0
 1938              		.type	pid_rpm.10248, %object
ARM GAS  C:\Users\euanm\AppData\Local\Temp\cc8LfcOk.s 			page 35


 1939              		.size	pid_rpm.10248, 4
 1940              	pid_rpm.10248:
 1941 0000 00000000 		.space	4
 1942              		.section	.bss.was_pid.10240,"aw",%nobits
 1943              		.set	.LANCHOR14,. + 0
 1944              		.type	was_pid.10240, %object
 1945              		.size	was_pid.10240, 1
 1946              	was_pid.10240:
 1947 0000 00       		.space	1
 1948              		.section	.bss.ms_without_power,"aw",%nobits
 1949              		.align	2
 1950              		.set	.LANCHOR2,. + 0
 1951              		.type	ms_without_power, %object
 1952              		.size	ms_without_power, 4
 1953              	ms_without_power:
 1954 0000 00000000 		.space	4
 1955              		.section	.bss.filter_ptr2.10201,"aw",%nobits
 1956              		.align	2
 1957              		.set	.LANCHOR8,. + 0
 1958              		.type	filter_ptr2.10201, %object
 1959              		.size	filter_ptr2.10201, 4
 1960              	filter_ptr2.10201:
 1961 0000 00000000 		.space	4
 1962              		.section	.bss.adc_thread_wa,"aw",%nobits
 1963              		.align	3
 1964              		.set	.LANCHOR16,. + 0
 1965              		.type	adc_thread_wa, %object
 1966              		.size	adc_thread_wa, 1432
 1967              	adc_thread_wa:
 1968 0000 00000000 		.space	1432
 1968      00000000 
 1968      00000000 
 1968      00000000 
 1968      00000000 
 1969              		.section	.bss.decoded_level2,"aw",%nobits
 1970              		.align	2
 1971              		.set	.LANCHOR10,. + 0
 1972              		.type	decoded_level2, %object
 1973              		.size	decoded_level2, 4
 1974              	decoded_level2:
 1975 0000 00000000 		.space	4
 1976              		.section	.rodata.str1.4,"aMS",%progbits,1
 1977              		.align	2
 1978              	.LC0:
 1979 0000 4150505F 		.ascii	"APP_ADC\000"
 1979      41444300 
 1980              		.section	.bss.config,"aw",%nobits
 1981              		.align	2
 1982              		.set	.LANCHOR1,. + 0
 1983              		.type	config, %object
 1984              		.size	config, 44
 1985              	config:
 1986 0000 00000000 		.space	44
 1986      00000000 
 1986      00000000 
 1986      00000000 
 1986      00000000 
ARM GAS  C:\Users\euanm\AppData\Local\Temp\cc8LfcOk.s 			page 36


 1987              		.section	.bss.filter_buffer.10193,"aw",%nobits
 1988              		.align	2
 1989              		.set	.LANCHOR5,. + 0
 1990              		.type	filter_buffer.10193, %object
 1991              		.size	filter_buffer.10193, 20
 1992              	filter_buffer.10193:
 1993 0000 00000000 		.space	20
 1993      00000000 
 1993      00000000 
 1993      00000000 
 1993      00000000 
 1994              		.section	.bss.use_rx_tx_as_buttons,"aw",%nobits
 1995              		.set	.LANCHOR0,. + 0
 1996              		.type	use_rx_tx_as_buttons, %object
 1997              		.size	use_rx_tx_as_buttons, 1
 1998              	use_rx_tx_as_buttons:
 1999 0000 00       		.space	1
 2000              		.section	.bss.filter_buffer.10241,"aw",%nobits
 2001              		.align	2
 2002              		.set	.LANCHOR13,. + 0
 2003              		.type	filter_buffer.10241, %object
 2004              		.size	filter_buffer.10241, 32
 2005              	filter_buffer.10241:
 2006 0000 00000000 		.space	32
 2006      00000000 
 2006      00000000 
 2006      00000000 
 2006      00000000 
 2007              		.section	.bss.filter_buffer2.10200,"aw",%nobits
 2008              		.align	2
 2009              		.set	.LANCHOR9,. + 0
 2010              		.type	filter_buffer2.10200, %object
 2011              		.size	filter_buffer2.10200, 20
 2012              	filter_buffer2.10200:
 2013 0000 00000000 		.space	20
 2013      00000000 
 2013      00000000 
 2013      00000000 
 2013      00000000 
 2014              		.section	.bss.decoded_level,"aw",%nobits
 2015              		.align	2
 2016              		.set	.LANCHOR6,. + 0
 2017              		.type	decoded_level, %object
 2018              		.size	decoded_level, 4
 2019              	decoded_level:
 2020 0000 00000000 		.space	4
 2021              		.section	.bss.filter_ptr.10242,"aw",%nobits
 2022              		.align	2
 2023              		.set	.LANCHOR12,. + 0
 2024              		.type	filter_ptr.10242, %object
 2025              		.size	filter_ptr.10242, 4
 2026              	filter_ptr.10242:
 2027 0000 00000000 		.space	4
 2028              		.text
 2029              	.Letext0:
 2030              		.file 4 "c:\\program files (x86)\\gnu tools arm embedded\\5.4 2016q3\\arm-none-eabi\\include\\mach
 2031              		.file 5 "c:\\program files (x86)\\gnu tools arm embedded\\5.4 2016q3\\arm-none-eabi\\include\\sys\
ARM GAS  C:\Users\euanm\AppData\Local\Temp\cc8LfcOk.s 			page 37


 2032              		.file 6 "c:\\program files (x86)\\gnu tools arm embedded\\5.4 2016q3\\lib\\gcc\\arm-none-eabi\\5.4
 2033              		.file 7 "ChibiOS_3.0.2/os/rt/ports/ARMCMx/compilers/GCC/chtypes.h"
 2034              		.file 8 "ChibiOS_3.0.2/os/rt/include/chsystypes.h"
 2035              		.file 9 "ChibiOS_3.0.2/os/rt/include/chschd.h"
 2036              		.file 10 "ChibiOS_3.0.2/os/rt/ports/ARMCMx/chcore.h"
 2037              		.file 11 "ChibiOS_3.0.2/os/rt/ports/ARMCMx/chcore_v7m.h"
 2038              		.file 12 "ChibiOS_3.0.2/os/rt/include/chtm.h"
 2039              		.file 13 "ChibiOS_3.0.2/os/rt/include/chsem.h"
 2040              		.file 14 "ChibiOS_3.0.2/os/rt/include/chmtx.h"
 2041              		.file 15 "./datatypes.h"
 2042              		.file 16 "ChibiOS_3.0.2/os/hal/ports/STM32/LLD/GPIOv2/pal_lld.h"
 2043              		.file 17 "ChibiOS_3.0.2/os/ext/CMSIS/include/core_cm4.h"
 2044              		.file 18 "./mc_interface.h"
 2045              		.file 19 "./comm_can.h"
 2046              		.file 20 "./timeout.h"
 2047              		.file 21 "./utils.h"
 2048              		.file 22 "ChibiOS_3.0.2/os/rt/include/chthreads.h"