ARM GAS  C:\Users\euanm\AppData\Local\Temp\ccqDYIgF.s 			page 1


   1              		.syntax unified
   2              		.cpu cortex-m4
   3              		.eabi_attribute 27, 1
   4              		.eabi_attribute 28, 1
   5              		.fpu fpv4-sp-d16
   6              		.eabi_attribute 20, 1
   7              		.eabi_attribute 21, 1
   8              		.eabi_attribute 23, 3
   9              		.eabi_attribute 24, 1
  10              		.eabi_attribute 25, 1
  11              		.eabi_attribute 26, 1
  12              		.eabi_attribute 30, 2
  13              		.eabi_attribute 34, 1
  14              		.eabi_attribute 18, 4
  15              		.thumb
  16              		.syntax unified
  17              		.file	"app_uartcomm.c"
  18              		.text
  19              	.Ltext0:
  20              		.cfi_sections	.debug_frame
  21              		.section	.text.rxerr,"ax",%progbits
  22              		.align	2
  23              		.p2align 4,,15
  24              		.thumb
  25              		.thumb_func
  26              		.type	rxerr, %function
  27              	rxerr:
  28              	.LFB258:
  29              		.file 1 "applications/app_uartcomm.c"
  30              		.loc 1 74 0
  31              		.cfi_startproc
  32              		@ args = 0, pretend = 0, frame = 0
  33              		@ frame_needed = 0, uses_anonymous_args = 0
  34              		@ link register save eliminated.
  35              	.LVL0:
  36 0000 7047     		bx	lr
  37              		.cfi_endproc
  38              	.LFE258:
  39              		.size	rxerr, .-rxerr
  40 0002 00BF     		.section	.text.rxend,"ax",%progbits
  41              		.align	2
  42              		.p2align 4,,15
  43              		.thumb
  44              		.thumb_func
  45              		.type	rxend, %function
  46              	rxend:
  47              	.LFB260:
  48              		.loc 1 99 0
  49              		.cfi_startproc
  50              		@ args = 0, pretend = 0, frame = 0
  51              		@ frame_needed = 0, uses_anonymous_args = 0
  52              		@ link register save eliminated.
  53              	.LVL1:
  54 0000 7047     		bx	lr
  55              		.cfi_endproc
  56              	.LFE260:
  57              		.size	rxend, .-rxend
ARM GAS  C:\Users\euanm\AppData\Local\Temp\ccqDYIgF.s 			page 2


  58 0002 00BF     		.section	.text.packet_process_thread,"ax",%progbits
  59              		.align	2
  60              		.p2align 4,,15
  61              		.thumb
  62              		.thumb_func
  63              		.type	packet_process_thread, %function
  64              	packet_process_thread:
  65              	.LFB266:
  66              		.loc 1 165 0
  67              		.cfi_startproc
  68              		@ Volatile: function does not return.
  69              		@ args = 0, pretend = 0, frame = 0
  70              		@ frame_needed = 0, uses_anonymous_args = 0
  71              	.LVL2:
  72              	.LBB40:
  73              	.LBB41:
  74              		.file 2 "ChibiOS_3.0.2/os/rt/include/chregistry.h"
  75              		.loc 2 135 0
  76 0000 114B     		ldr	r3, .L11
  77              	.LBE41:
  78              	.LBE40:
  79              		.loc 1 170 0
  80 0002 124A     		ldr	r2, .L11+4
  81              	.LBB44:
  82              	.LBB42:
  83              		.loc 2 135 0
  84 0004 9B69     		ldr	r3, [r3, #24]
  85 0006 124C     		ldr	r4, .L11+8
  86 0008 1249     		ldr	r1, .L11+12
  87 000a 134E     		ldr	r6, .L11+16
  88              	.LBE42:
  89              	.LBE44:
  90              		.loc 1 165 0
  91 000c 80B5     		push	{r7, lr}
  92              		.cfi_def_cfa_offset 8
  93              		.cfi_offset 7, -8
  94              		.cfi_offset 14, -4
  95 000e 134F     		ldr	r7, .L11+20
  96              	.LBB45:
  97              	.LBB43:
  98              		.loc 2 135 0
  99 0010 9961     		str	r1, [r3, #24]
 100              	.LVL3:
 101              	.LBE43:
 102              	.LBE45:
 103              		.loc 1 170 0
 104 0012 1360     		str	r3, [r2]
 105              		.loc 1 176 0
 106 0014 A146     		mov	r9, r4
 107              		.loc 1 179 0
 108 0016 4FF00008 		mov	r8, #0
 109              	.LVL4:
 110              	.L7:
 111              		.loc 1 173 0
 112 001a 0120     		movs	r0, #1
 113 001c FFF7FEFF 		bl	chEvtWaitAny
 114              	.LVL5:
ARM GAS  C:\Users\euanm\AppData\Local\Temp\ccqDYIgF.s 			page 3


 115              	.L4:
 116 0020 2368     		ldr	r3, [r4]
 117              	.L5:
 118              		.loc 1 175 0
 119 0022 3268     		ldr	r2, [r6]
 120 0024 9A42     		cmp	r2, r3
 121              		.loc 1 176 0
 122 0026 03F10105 		add	r5, r3, #1
 123 002a 4FF00101 		mov	r1, #1
 124              		.loc 1 175 0
 125 002e F4D0     		beq	.L7
 126              		.loc 1 176 0
 127 0030 F85C     		ldrb	r0, [r7, r3]	@ zero_extendqisi2
 128 0032 2560     		str	r5, [r4]
 129 0034 FFF7FEFF 		bl	packet_process_byte
 130              	.LVL6:
 131              		.loc 1 178 0
 132 0038 2368     		ldr	r3, [r4]
 133 003a B3F5806F 		cmp	r3, #1024
 134 003e F0D1     		bne	.L5
 135              		.loc 1 179 0
 136 0040 C9F80080 		str	r8, [r9]
 137 0044 ECE7     		b	.L4
 138              	.L12:
 139 0046 00BF     		.align	2
 140              	.L11:
 141 0048 00000000 		.word	ch
 142 004c 00000000 		.word	.LANCHOR0
 143 0050 00000000 		.word	.LANCHOR1
 144 0054 00000000 		.word	.LC0
 145 0058 00000000 		.word	.LANCHOR3
 146 005c 00000000 		.word	.LANCHOR2
 147              		.cfi_endproc
 148              	.LFE266:
 149              		.size	packet_process_thread, .-packet_process_thread
 150              		.section	.text.rxchar,"ax",%progbits
 151              		.align	2
 152              		.p2align 4,,15
 153              		.thumb
 154              		.thumb_func
 155              		.type	rxchar, %function
 156              	rxchar:
 157              	.LFB259:
 158              		.loc 1 83 0
 159              		.cfi_startproc
 160              		@ args = 0, pretend = 0, frame = 0
 161              		@ frame_needed = 0, uses_anonymous_args = 0
 162              	.LVL7:
 163              		.loc 1 85 0
 164 0000 0B4B     		ldr	r3, .L16
 165 0002 1868     		ldr	r0, [r3]
 166              	.LVL8:
 167 0004 421C     		adds	r2, r0, #1
 168              		.loc 1 83 0
 169 0006 10B5     		push	{r4, lr}
 170              		.cfi_def_cfa_offset 8
 171              		.cfi_offset 4, -8
ARM GAS  C:\Users\euanm\AppData\Local\Temp\ccqDYIgF.s 			page 4


 172              		.cfi_offset 14, -4
 173              		.loc 1 87 0
 174 0008 B2F5806F 		cmp	r2, #1024
 175              		.loc 1 85 0
 176 000c 094C     		ldr	r4, .L16+4
 177 000e 1A60     		str	r2, [r3]
 178              		.loc 1 88 0
 179 0010 04BF     		itt	eq
 180 0012 0022     		moveq	r2, #0
 181 0014 1A60     		streq	r2, [r3]
 182              		.loc 1 85 0
 183 0016 2154     		strb	r1, [r4, r0]
 184              	.LBB46:
 185              	.LBB47:
 186              	.LBB48:
 187              	.LBB49:
 188              	.LBB50:
 189              		.file 3 "ChibiOS_3.0.2/os/ext/CMSIS/include/core_cmFunc.h"
 190              		.loc 3 546 0
 191 0018 2023     		movs	r3, #32
 192              		.syntax unified
 193              	@ 546 "ChibiOS_3.0.2/os/ext/CMSIS/include/core_cmFunc.h" 1
 194 001a 83F31188 		MSR basepri, r3
 195              	@ 0 "" 2
 196              	.LVL9:
 197              		.thumb
 198              		.syntax unified
 199              	.LBE50:
 200              	.LBE49:
 201              	.LBE48:
 202              	.LBE47:
 203              	.LBE46:
 204              		.loc 1 92 0
 205 001e 064B     		ldr	r3, .L16+8
 206 0020 0121     		movs	r1, #1
 207              	.LVL10:
 208 0022 1868     		ldr	r0, [r3]
 209 0024 FFF7FEFF 		bl	chEvtSignalI
 210              	.LVL11:
 211              	.LBB51:
 212              	.LBB52:
 213              	.LBB53:
 214              	.LBB54:
 215              	.LBB55:
 216              		.loc 3 546 0
 217 0028 0023     		movs	r3, #0
 218              		.syntax unified
 219              	@ 546 "ChibiOS_3.0.2/os/ext/CMSIS/include/core_cmFunc.h" 1
 220 002a 83F31188 		MSR basepri, r3
 221              	@ 0 "" 2
 222              	.LVL12:
 223              		.thumb
 224              		.syntax unified
 225 002e 10BD     		pop	{r4, pc}
 226              	.L17:
 227              		.align	2
 228              	.L16:
ARM GAS  C:\Users\euanm\AppData\Local\Temp\ccqDYIgF.s 			page 5


 229 0030 00000000 		.word	.LANCHOR3
 230 0034 00000000 		.word	.LANCHOR2
 231 0038 00000000 		.word	.LANCHOR0
 232              	.LBE55:
 233              	.LBE54:
 234              	.LBE53:
 235              	.LBE52:
 236              	.LBE51:
 237              		.cfi_endproc
 238              	.LFE259:
 239              		.size	rxchar, .-rxchar
 240              		.section	.text.process_packet,"ax",%progbits
 241              		.align	2
 242              		.p2align 4,,15
 243              		.thumb
 244              		.thumb_func
 245              		.type	process_packet, %function
 246              	process_packet:
 247              	.LFB261:
 248              		.loc 1 118 0
 249              		.cfi_startproc
 250              		@ args = 0, pretend = 0, frame = 0
 251              		@ frame_needed = 0, uses_anonymous_args = 0
 252              	.LVL13:
 253 0000 38B5     		push	{r3, r4, r5, lr}
 254              		.cfi_def_cfa_offset 16
 255              		.cfi_offset 3, -16
 256              		.cfi_offset 4, -12
 257              		.cfi_offset 5, -8
 258              		.cfi_offset 14, -4
 259              		.loc 1 118 0
 260 0002 0446     		mov	r4, r0
 261 0004 0D46     		mov	r5, r1
 262              		.loc 1 119 0
 263 0006 0448     		ldr	r0, .L20
 264              	.LVL14:
 265 0008 FFF7FEFF 		bl	commands_set_send_func
 266              	.LVL15:
 267              		.loc 1 120 0
 268 000c 2946     		mov	r1, r5
 269 000e 2046     		mov	r0, r4
 270              		.loc 1 121 0
 271 0010 BDE83840 		pop	{r3, r4, r5, lr}
 272              		.cfi_restore 14
 273              		.cfi_restore 5
 274              		.cfi_restore 4
 275              		.cfi_restore 3
 276              		.cfi_def_cfa_offset 0
 277              	.LVL16:
 278              		.loc 1 120 0
 279 0014 FFF7FEBF 		b	commands_process_packet
 280              	.LVL17:
 281              	.L21:
 282              		.align	2
 283              	.L20:
 284 0018 00000000 		.word	send_packet_wrapper
 285              		.cfi_endproc
ARM GAS  C:\Users\euanm\AppData\Local\Temp\ccqDYIgF.s 			page 6


 286              	.LFE261:
 287              		.size	process_packet, .-process_packet
 288              		.section	.text.send_packet_wrapper,"ax",%progbits
 289              		.align	2
 290              		.p2align 4,,15
 291              		.thumb
 292              		.thumb_func
 293              		.type	send_packet_wrapper, %function
 294              	send_packet_wrapper:
 295              	.LFB262:
 296              		.loc 1 123 0
 297              		.cfi_startproc
 298              		@ args = 0, pretend = 0, frame = 0
 299              		@ frame_needed = 0, uses_anonymous_args = 0
 300              		@ link register save eliminated.
 301              	.LVL18:
 302              		.loc 1 124 0
 303 0000 0122     		movs	r2, #1
 304 0002 FFF7FEBF 		b	packet_send_packet
 305              	.LVL19:
 306              		.cfi_endproc
 307              	.LFE262:
 308              		.size	send_packet_wrapper, .-send_packet_wrapper
 309 0006 00BF     		.section	.text.send_packet,"ax",%progbits
 310              		.align	2
 311              		.p2align 4,,15
 312              		.thumb
 313              		.thumb_func
 314              		.type	send_packet, %function
 315              	send_packet:
 316              	.LFB263:
 317              		.loc 1 127 0
 318              		.cfi_startproc
 319              		@ args = 0, pretend = 0, frame = 0
 320              		@ frame_needed = 0, uses_anonymous_args = 0
 321              	.LVL20:
 322 0000 70B5     		push	{r4, r5, r6, lr}
 323              		.cfi_def_cfa_offset 16
 324              		.cfi_offset 4, -16
 325              		.cfi_offset 5, -12
 326              		.cfi_offset 6, -8
 327              		.cfi_offset 14, -4
 328              		.loc 1 129 0
 329 0002 0C4C     		ldr	r4, .L30
 330 0004 6378     		ldrb	r3, [r4, #1]	@ zero_extendqisi2
 331 0006 012B     		cmp	r3, #1
 332              		.loc 1 127 0
 333 0008 0646     		mov	r6, r0
 334 000a 0D46     		mov	r5, r1
 335              		.loc 1 129 0
 336 000c 05D1     		bne	.L25
 337              	.LVL21:
 338              	.L24:
 339              		.loc 1 130 0
 340 000e 0120     		movs	r0, #1
 341 0010 FFF7FEFF 		bl	chThdSleep
 342              	.LVL22:
ARM GAS  C:\Users\euanm\AppData\Local\Temp\ccqDYIgF.s 			page 7


 343              		.loc 1 129 0
 344 0014 6378     		ldrb	r3, [r4, #1]	@ zero_extendqisi2
 345 0016 012B     		cmp	r3, #1
 346 0018 F9D0     		beq	.L24
 347              	.L25:
 348              		.loc 1 136 0
 349 001a 3146     		mov	r1, r6
 350 001c 2A46     		mov	r2, r5
 351 001e 0648     		ldr	r0, .L30+4
 352 0020 FFF7FEFF 		bl	memcpy
 353              	.LVL23:
 354              		.loc 1 138 0
 355 0024 2946     		mov	r1, r5
 356 0026 044A     		ldr	r2, .L30+4
 357 0028 0248     		ldr	r0, .L30
 358              		.loc 1 139 0
 359 002a BDE87040 		pop	{r4, r5, r6, lr}
 360              		.cfi_restore 14
 361              		.cfi_restore 6
 362              		.cfi_restore 5
 363              		.cfi_restore 4
 364              		.cfi_def_cfa_offset 0
 365              	.LVL24:
 366              		.loc 1 138 0
 367 002e FFF7FEBF 		b	uartStartSend
 368              	.LVL25:
 369              	.L31:
 370 0032 00BF     		.align	2
 371              	.L30:
 372 0034 00000000 		.word	UARTD6
 373 0038 00000000 		.word	.LANCHOR4
 374              		.cfi_endproc
 375              	.LFE263:
 376              		.size	send_packet, .-send_packet
 377              		.section	.text.txend2,"ax",%progbits
 378              		.align	2
 379              		.p2align 4,,15
 380              		.thumb
 381              		.thumb_func
 382              		.type	txend2, %function
 383              	txend2:
 384              	.LFB268:
 385              		.cfi_startproc
 386              		@ args = 0, pretend = 0, frame = 0
 387              		@ frame_needed = 0, uses_anonymous_args = 0
 388              		@ link register save eliminated.
 389 0000 7047     		bx	lr
 390              		.cfi_endproc
 391              	.LFE268:
 392              		.size	txend2, .-txend2
 393 0002 00BF     		.section	.text.txend1,"ax",%progbits
 394              		.align	2
 395              		.p2align 4,,15
 396              		.thumb
 397              		.thumb_func
 398              		.type	txend1, %function
 399              	txend1:
ARM GAS  C:\Users\euanm\AppData\Local\Temp\ccqDYIgF.s 			page 8


 400              	.LFB270:
 401              		.cfi_startproc
 402              		@ args = 0, pretend = 0, frame = 0
 403              		@ frame_needed = 0, uses_anonymous_args = 0
 404              		@ link register save eliminated.
 405 0000 7047     		bx	lr
 406              		.cfi_endproc
 407              	.LFE270:
 408              		.size	txend1, .-txend1
 409 0002 00BF     		.section	.text.app_uartcomm_start,"ax",%progbits
 410              		.align	2
 411              		.p2align 4,,15
 412              		.global	app_uartcomm_start
 413              		.thumb
 414              		.thumb_func
 415              		.type	app_uartcomm_start, %function
 416              	app_uartcomm_start:
 417              	.LFB264:
 418              		.loc 1 141 0
 419              		.cfi_startproc
 420              		@ args = 0, pretend = 0, frame = 0
 421              		@ frame_needed = 0, uses_anonymous_args = 0
 422              		.loc 1 141 0
 423 0000 30B5     		push	{r4, r5, lr}
 424              		.cfi_def_cfa_offset 12
 425              		.cfi_offset 4, -12
 426              		.cfi_offset 5, -8
 427              		.cfi_offset 14, -4
 428              		.loc 1 142 0
 429 0002 0122     		movs	r2, #1
 430              		.loc 1 141 0
 431 0004 83B0     		sub	sp, sp, #12
 432              		.cfi_def_cfa_offset 24
 433              		.loc 1 145 0
 434 0006 114C     		ldr	r4, .L36
 435              		.loc 1 142 0
 436 0008 1149     		ldr	r1, .L36+4
 437 000a 1248     		ldr	r0, .L36+8
 438 000c FFF7FEFF 		bl	packet_init
 439              	.LVL26:
 440              		.loc 1 144 0
 441 0010 1149     		ldr	r1, .L36+12
 442 0012 1248     		ldr	r0, .L36+16
 443 0014 FFF7FEFF 		bl	uartStart
 444              	.LVL27:
 445              		.loc 1 145 0
 446 0018 2046     		mov	r0, r4
 447 001a 40F23A42 		movw	r2, #1082
 448 001e 4021     		movs	r1, #64
 449 0020 FFF7FEFF 		bl	_pal_lld_setgroupmode
 450              	.LVL28:
 451              		.loc 1 148 0
 452 0024 2046     		mov	r0, r4
 453 0026 40F23A42 		movw	r2, #1082
 454 002a 8021     		movs	r1, #128
 455              		.loc 1 152 0
 456 002c 0C4C     		ldr	r4, .L36+20
ARM GAS  C:\Users\euanm\AppData\Local\Temp\ccqDYIgF.s 			page 9


 457              		.loc 1 148 0
 458 002e FFF7FEFF 		bl	_pal_lld_setgroupmode
 459              	.LVL29:
 460              		.loc 1 152 0
 461 0032 0125     		movs	r5, #1
 462              		.loc 1 154 0
 463 0034 0022     		movs	r2, #0
 464 0036 0092     		str	r2, [sp]
 465 0038 0A4B     		ldr	r3, .L36+24
 466              		.loc 1 152 0
 467 003a 2560     		str	r5, [r4]
 468              		.loc 1 154 0
 469 003c 4022     		movs	r2, #64
 470 003e 41F29811 		movw	r1, #4504
 471 0042 0948     		ldr	r0, .L36+28
 472 0044 FFF7FEFF 		bl	chThdCreateStatic
 473              	.LVL30:
 474              		.loc 1 155 0
 475 0048 03B0     		add	sp, sp, #12
 476              		.cfi_def_cfa_offset 12
 477              		@ sp needed
 478 004a 30BD     		pop	{r4, r5, pc}
 479              	.L37:
 480              		.align	2
 481              	.L36:
 482 004c 00080240 		.word	1073874944
 483 0050 00000000 		.word	process_packet
 484 0054 00000000 		.word	send_packet
 485 0058 00000000 		.word	.LANCHOR5
 486 005c 00000000 		.word	UARTD6
 487 0060 00000000 		.word	.LANCHOR6
 488 0064 00000000 		.word	packet_process_thread
 489 0068 00000000 		.word	.LANCHOR7
 490              		.cfi_endproc
 491              	.LFE264:
 492              		.size	app_uartcomm_start, .-app_uartcomm_start
 493              		.section	.text.app_uartcomm_configure,"ax",%progbits
 494              		.align	2
 495              		.p2align 4,,15
 496              		.global	app_uartcomm_configure
 497              		.thumb
 498              		.thumb_func
 499              		.type	app_uartcomm_configure, %function
 500              	app_uartcomm_configure:
 501              	.LFB265:
 502              		.loc 1 157 0
 503              		.cfi_startproc
 504              		@ args = 0, pretend = 0, frame = 0
 505              		@ frame_needed = 0, uses_anonymous_args = 0
 506              		@ link register save eliminated.
 507              	.LVL31:
 508              		.loc 1 160 0
 509 0000 044B     		ldr	r3, .L41
 510              		.loc 1 158 0
 511 0002 0549     		ldr	r1, .L41+4
 512              		.loc 1 160 0
 513 0004 1B68     		ldr	r3, [r3]
ARM GAS  C:\Users\euanm\AppData\Local\Temp\ccqDYIgF.s 			page 10


 514              		.loc 1 158 0
 515 0006 4861     		str	r0, [r1, #20]
 516              		.loc 1 160 0
 517 0008 03B9     		cbnz	r3, .L40
 518 000a 7047     		bx	lr
 519              	.L40:
 520              		.loc 1 161 0
 521 000c 0348     		ldr	r0, .L41+8
 522              	.LVL32:
 523 000e FFF7FEBF 		b	uartStart
 524              	.LVL33:
 525              	.L42:
 526 0012 00BF     		.align	2
 527              	.L41:
 528 0014 00000000 		.word	.LANCHOR6
 529 0018 00000000 		.word	.LANCHOR5
 530 001c 00000000 		.word	UARTD6
 531              		.cfi_endproc
 532              	.LFE265:
 533              		.size	app_uartcomm_configure, .-app_uartcomm_configure
 534              		.section	.bss.serial_rx_write_pos,"aw",%nobits
 535              		.align	2
 536              		.set	.LANCHOR3,. + 0
 537              		.type	serial_rx_write_pos, %object
 538              		.size	serial_rx_write_pos, 4
 539              	serial_rx_write_pos:
 540 0000 00000000 		.space	4
 541              		.section	.bss.is_running,"aw",%nobits
 542              		.align	2
 543              		.set	.LANCHOR6,. + 0
 544              		.type	is_running, %object
 545              		.size	is_running, 4
 546              	is_running:
 547 0000 00000000 		.space	4
 548              		.section	.data.uart_cfg,"aw",%progbits
 549              		.align	2
 550              		.set	.LANCHOR5,. + 0
 551              		.type	uart_cfg, %object
 552              		.size	uart_cfg, 32
 553              	uart_cfg:
 554 0000 00000000 		.word	txend1
 555 0004 00000000 		.word	txend2
 556 0008 00000000 		.word	rxend
 557 000c 00000000 		.word	rxchar
 558 0010 00000000 		.word	rxerr
 559 0014 00C20100 		.word	115200
 560 0018 0000     		.short	0
 561 001a 0040     		.short	16384
 562 001c 0000     		.short	0
 563 001e 0000     		.space	2
 564              		.section	.bss.buffer.9683,"aw",%nobits
 565              		.align	2
 566              		.set	.LANCHOR4,. + 0
 567              		.type	buffer.9683, %object
 568              		.size	buffer.9683, 1029
 569              	buffer.9683:
 570 0000 00000000 		.space	1029
ARM GAS  C:\Users\euanm\AppData\Local\Temp\ccqDYIgF.s 			page 11


 570      00000000 
 570      00000000 
 570      00000000 
 570      00000000 
 571              		.section	.bss.packet_process_thread_wa,"aw",%nobits
 572              		.align	3
 573              		.set	.LANCHOR7,. + 0
 574              		.type	packet_process_thread_wa, %object
 575              		.size	packet_process_thread_wa, 4504
 576              	packet_process_thread_wa:
 577 0000 00000000 		.space	4504
 577      00000000 
 577      00000000 
 577      00000000 
 577      00000000 
 578              		.section	.bss.serial_rx_buffer,"aw",%nobits
 579              		.align	2
 580              		.set	.LANCHOR2,. + 0
 581              		.type	serial_rx_buffer, %object
 582              		.size	serial_rx_buffer, 1024
 583              	serial_rx_buffer:
 584 0000 00000000 		.space	1024
 584      00000000 
 584      00000000 
 584      00000000 
 584      00000000 
 585              		.section	.rodata.str1.4,"aMS",%progbits,1
 586              		.align	2
 587              	.LC0:
 588 0000 75617274 		.ascii	"uartcomm process\000"
 588      636F6D6D 
 588      2070726F 
 588      63657373 
 588      00
 589              		.section	.bss.serial_rx_read_pos,"aw",%nobits
 590              		.align	2
 591              		.set	.LANCHOR1,. + 0
 592              		.type	serial_rx_read_pos, %object
 593              		.size	serial_rx_read_pos, 4
 594              	serial_rx_read_pos:
 595 0000 00000000 		.space	4
 596              		.section	.bss.process_tp,"aw",%nobits
 597              		.align	2
 598              		.set	.LANCHOR0,. + 0
 599              		.type	process_tp, %object
 600              		.size	process_tp, 4
 601              	process_tp:
 602 0000 00000000 		.space	4
 603              		.text
 604              	.Letext0:
 605              		.file 4 "c:\\program files (x86)\\gnu tools arm embedded\\5.4 2016q3\\arm-none-eabi\\include\\mach
 606              		.file 5 "c:\\program files (x86)\\gnu tools arm embedded\\5.4 2016q3\\arm-none-eabi\\include\\sys\
 607              		.file 6 "c:\\program files (x86)\\gnu tools arm embedded\\5.4 2016q3\\lib\\gcc\\arm-none-eabi\\5.4
 608              		.file 7 "ChibiOS_3.0.2/os/rt/ports/ARMCMx/compilers/GCC/chtypes.h"
 609              		.file 8 "ChibiOS_3.0.2/os/rt/include/chsystypes.h"
 610              		.file 9 "ChibiOS_3.0.2/os/rt/include/chschd.h"
 611              		.file 10 "ChibiOS_3.0.2/os/ext/CMSIS/ST/stm32f407xx.h"
ARM GAS  C:\Users\euanm\AppData\Local\Temp\ccqDYIgF.s 			page 12


 612              		.file 11 "ChibiOS_3.0.2/os/rt/ports/ARMCMx/chcore.h"
 613              		.file 12 "ChibiOS_3.0.2/os/rt/ports/ARMCMx/chcore_v7m.h"
 614              		.file 13 "ChibiOS_3.0.2/os/rt/include/chtm.h"
 615              		.file 14 "ChibiOS_3.0.2/os/rt/include/chsem.h"
 616              		.file 15 "ChibiOS_3.0.2/os/rt/include/chmtx.h"
 617              		.file 16 "ChibiOS_3.0.2/os/hal/ports/STM32/STM32F4xx/stm32_dma.h"
 618              		.file 17 "ChibiOS_3.0.2/os/hal/ports/STM32/LLD/GPIOv2/pal_lld.h"
 619              		.file 18 "ChibiOS_3.0.2/os/hal/include/uart.h"
 620              		.file 19 "ChibiOS_3.0.2/os/hal/ports/STM32/LLD/USARTv1/uart_lld.h"
 621              		.file 20 "ChibiOS_3.0.2/os/rt/include/chsys.h"
 622              		.file 21 "ChibiOS_3.0.2/os/ext/CMSIS/include/core_cm4.h"
 623              		.file 22 "ChibiOS_3.0.2/os/rt/include/chevents.h"
 624              		.file 23 "./packet.h"
 625              		.file 24 "./commands.h"
 626              		.file 25 "ChibiOS_3.0.2/os/rt/include/chthreads.h"