ARM GAS  C:\Users\euanm\AppData\Local\Temp\cc7lJ0NE.s 			page 1


   1              		.syntax unified
   2              		.cpu cortex-m4
   3              		.eabi_attribute 27, 1
   4              		.eabi_attribute 28, 1
   5              		.fpu fpv4-sp-d16
   6              		.eabi_attribute 20, 1
   7              		.eabi_attribute 21, 1
   8              		.eabi_attribute 23, 3
   9              		.eabi_attribute 24, 1
  10              		.eabi_attribute 25, 1
  11              		.eabi_attribute 26, 1
  12              		.eabi_attribute 30, 2
  13              		.eabi_attribute 34, 1
  14              		.eabi_attribute 18, 4
  15              		.thumb
  16              		.syntax unified
  17              		.file	"app_nunchuk.c"
  18              		.text
  19              	.Ltext0:
  20              		.cfi_sections	.debug_frame
  21              		.section	.text.calculate_throttle_curve_chuk,"ax",%progbits
  22              		.align	2
  23              		.p2align 4,,15
  24              		.global	calculate_throttle_curve_chuk
  25              		.thumb
  26              		.thumb_func
  27              		.type	calculate_throttle_curve_chuk, %function
  28              	calculate_throttle_curve_chuk:
  29              	.LFB256:
  30              		.file 1 "applications/app_nunchuk.c"
  31              		.loc 1 65 0
  32              		.cfi_startproc
  33              		@ args = 0, pretend = 0, frame = 24
  34              		@ frame_needed = 0, uses_anonymous_args = 0
  35              		@ link register save eliminated.
  36              	.LVL0:
  37 0000 70B4     		push	{r4, r5, r6}
  38              		.cfi_def_cfa_offset 12
  39              		.cfi_offset 4, -12
  40              		.cfi_offset 5, -8
  41              		.cfi_offset 6, -4
  42              		.loc 1 68 0
  43 0002 90ED017A 		vldr.32	s14, [r0, #4]
  44 0006 B4EEE07A 		vcmpe.f32	s14, s1
  45 000a F1EE10FA 		vmrs	APSR_nzcv, FPSCR
  46              		.loc 1 65 0
  47 000e 87B0     		sub	sp, sp, #28
  48              		.cfi_def_cfa_offset 40
  49              		.loc 1 68 0
  50 0010 47DD     		ble	.L24
  51              		.loc 1 69 0
  52 0012 D1ED016A 		vldr.32	s13, [r1, #4]
  53 0016 C6EE877A 		vdiv.f32	s15, s13, s14
  54 001a 67EEA04A 		vmul.f32	s9, s15, s1
  55              	.LVL1:
  56              	.L4:
  57 001e 01F11404 		add	r4, r1, #20
ARM GAS  C:\Users\euanm\AppData\Local\Temp\cc7lJ0NE.s 			page 2


  58 0022 01AB     		add	r3, sp, #4
  59              	.LVL2:
  60              	.L11:
  61              	.LBB46:
  62              		.loc 1 81 0 discriminator 3
  63 0024 51F8042B 		ldr	r2, [r1], #4	@ float
  64 0028 43F8042B 		str	r2, [r3], #4	@ float
  65 002c 8C42     		cmp	r4, r1
  66 002e F9D1     		bne	.L11
  67 0030 00F11006 		add	r6, r0, #16
  68              		.loc 1 81 0 is_stmt 0
  69 0034 0125     		movs	r5, #1
  70 0036 1430     		adds	r0, r0, #20
  71              	.LVL3:
  72              	.L12:
  73 0038 06AB     		add	r3, sp, #24
  74 003a 0446     		mov	r4, r0
  75              	.LBE46:
  76              		.loc 1 65 0 is_stmt 1
  77 003c 3146     		mov	r1, r6
  78 003e 0422     		movs	r2, #4
  79              	.LVL4:
  80              	.L13:
  81              	.LBB47:
  82              	.LBB48:
  83              		.loc 1 85 0 discriminator 3
  84 0040 34ED017A 		vldmdb.32	r4!, {s14}
  85 0044 71ED016A 		vldmdb.32	r1!, {s13}
  86 0048 53ED027A 		vldr.32	s15, [r3, #-8]
  87 004c 13ED016A 		vldr.32	s12, [r3, #-4]
  88 0050 043B     		subs	r3, r3, #4
  89 0052 30EEC75A 		vsub.f32	s10, s1, s14
  90 0056 70EEE65A 		vsub.f32	s11, s1, s13
  91 005a 67EEC57A 		vnmul.f32	s15, s15, s10
  92 005e 37EE667A 		vsub.f32	s14, s14, s13
  93 0062 E5EE867A 		vfma.f32	s15, s11, s12
  94 0066 013A     		subs	r2, r2, #1
  95              	.LVL5:
  96              		.loc 1 84 0 discriminator 3
  97 0068 9542     		cmp	r5, r2
  98              		.loc 1 85 0 discriminator 3
  99 006a C7EE876A 		vdiv.f32	s13, s15, s14
 100 006e C3ED006A 		vstr.32	s13, [r3]
 101              	.LVL6:
 102              		.loc 1 84 0 discriminator 3
 103 0072 E5DD     		ble	.L13
 104              	.LBE48:
 105              		.loc 1 83 0 discriminator 2
 106 0074 0135     		adds	r5, r5, #1
 107              	.LVL7:
 108 0076 052D     		cmp	r5, #5
 109 0078 A6F10406 		sub	r6, r6, #4
 110 007c DCD1     		bne	.L12
 111              	.LBE47:
 112              		.loc 1 87 0
 113 007e 9DED057A 		vldr.32	s14, [sp, #20]
 114 0082 77EE647A 		vsub.f32	s15, s14, s9
ARM GAS  C:\Users\euanm\AppData\Local\Temp\cc7lJ0NE.s 			page 3


 115              		.loc 1 90 0
 116 0086 F7EE006A 		vmov.f32	s13, #1.0e+0
 117              		.loc 1 87 0
 118 008a A7EEC07A 		vfms.f32	s14, s15, s0
 119              	.LVL8:
 120              		.loc 1 90 0
 121 008e B4EEE67A 		vcmpe.f32	s14, s13
 122 0092 F1EE10FA 		vmrs	APSR_nzcv, FPSCR
 123 0096 3BDD     		ble	.L30
 124 0098 B0EE660A 		vmov.f32	s0, s13
 125              	.LVL9:
 126              		.loc 1 94 0
 127 009c 07B0     		add	sp, sp, #28
 128              		.cfi_remember_state
 129              		.cfi_def_cfa_offset 12
 130              		@ sp needed
 131 009e 70BC     		pop	{r4, r5, r6}
 132              		.cfi_restore 6
 133              		.cfi_restore 5
 134              		.cfi_restore 4
 135              		.cfi_def_cfa_offset 0
 136              	.LVL10:
 137 00a0 7047     		bx	lr
 138              	.LVL11:
 139              	.L24:
 140              		.cfi_restore_state
 141              		.loc 1 70 0
 142 00a2 D0ED036A 		vldr.32	s13, [r0, #12]
 143 00a6 F4EEE60A 		vcmpe.f32	s1, s13
 144 00aa F1EE10FA 		vmrs	APSR_nzcv, FPSCR
 145 00ae 12DD     		ble	.L25
 146              		.loc 1 71 0
 147 00b0 D1ED037A 		vldr.32	s15, [r1, #12]
 148 00b4 91ED046A 		vldr.32	s12, [r1, #16]
 149 00b8 90ED047A 		vldr.32	s14, [r0, #16]
 150 00bc 36EE676A 		vsub.f32	s12, s12, s15
 151 00c0 37EE667A 		vsub.f32	s14, s14, s13
 152 00c4 70EEE66A 		vsub.f32	s13, s1, s13
 153 00c8 C6EE075A 		vdiv.f32	s11, s12, s14
 154 00cc E5EEA67A 		vfma.f32	s15, s11, s13
 155 00d0 F0EE674A 		vmov.f32	s9, s15
 156              	.LVL12:
 157 00d4 A3E7     		b	.L4
 158              	.LVL13:
 159              	.L25:
 160              		.loc 1 72 0
 161 00d6 90ED026A 		vldr.32	s12, [r0, #8]
 162 00da F4EEC60A 		vcmpe.f32	s1, s12
 163 00de F1EE10FA 		vmrs	APSR_nzcv, FPSCR
 164 00e2 23DC     		bgt	.L31
 165              		.loc 1 74 0
 166 00e4 B4EEE07A 		vcmpe.f32	s14, s1
 167 00e8 F1EE10FA 		vmrs	APSR_nzcv, FPSCR
 168 00ec 2FD5     		bpl	.L27
 169              		.loc 1 75 0
 170 00ee D1ED017A 		vldr.32	s15, [r1, #4]
 171 00f2 D1ED026A 		vldr.32	s13, [r1, #8]
ARM GAS  C:\Users\euanm\AppData\Local\Temp\cc7lJ0NE.s 			page 4


 172 00f6 36EE476A 		vsub.f32	s12, s12, s14
 173 00fa 76EEE76A 		vsub.f32	s13, s13, s15
 174 00fe 30EEC77A 		vsub.f32	s14, s1, s14
 175 0102 C6EE865A 		vdiv.f32	s11, s13, s12
 176 0106 E5EE877A 		vfma.f32	s15, s11, s14
 177 010a F0EE674A 		vmov.f32	s9, s15
 178              	.LVL14:
 179 010e 86E7     		b	.L4
 180              	.LVL15:
 181              	.L30:
 182              		.loc 1 93 0
 183 0110 B5EEC07A 		vcmpe.f32	s14, #0
 184 0114 DFED0F6A 		vldr.32	s13, .L32
 185 0118 F1EE10FA 		vmrs	APSR_nzcv, FPSCR
 186 011c 54BF     		ite	pl
 187 011e B0EE470A 		vmovpl.f32	s0, s14
 188 0122 B0EE660A 		vmovmi.f32	s0, s13
 189              	.LVL16:
 190              		.loc 1 94 0
 191 0126 07B0     		add	sp, sp, #28
 192              		.cfi_remember_state
 193              		.cfi_def_cfa_offset 12
 194              		@ sp needed
 195 0128 70BC     		pop	{r4, r5, r6}
 196              		.cfi_restore 4
 197              		.cfi_restore 5
 198              		.cfi_restore 6
 199              		.cfi_def_cfa_offset 0
 200              	.LVL17:
 201 012a 7047     		bx	lr
 202              	.LVL18:
 203              	.L31:
 204              		.cfi_restore_state
 205              		.loc 1 73 0
 206 012c D1ED027A 		vldr.32	s15, [r1, #8]
 207 0130 91ED037A 		vldr.32	s14, [r1, #12]
 208 0134 76EEC66A 		vsub.f32	s13, s13, s12
 209 0138 37EE677A 		vsub.f32	s14, s14, s15
 210 013c 30EEC66A 		vsub.f32	s12, s1, s12
 211 0140 C7EE265A 		vdiv.f32	s11, s14, s13
 212 0144 E5EE867A 		vfma.f32	s15, s11, s12
 213 0148 F0EE674A 		vmov.f32	s9, s15
 214              	.LVL19:
 215 014c 67E7     		b	.L4
 216              	.LVL20:
 217              	.L27:
 218              		.loc 1 77 0
 219 014e D1ED014A 		vldr.32	s9, [r1, #4]
 220              	.LVL21:
 221 0152 64E7     		b	.L4
 222              	.L33:
 223              		.align	2
 224              	.L32:
 225 0154 00000000 		.word	0
 226              		.cfi_endproc
 227              	.LFE256:
 228              		.size	calculate_throttle_curve_chuk, .-calculate_throttle_curve_chuk
ARM GAS  C:\Users\euanm\AppData\Local\Temp\cc7lJ0NE.s 			page 5


 229              		.section	.text.output_thread,"ax",%progbits
 230              		.align	2
 231              		.p2align 4,,15
 232              		.thumb
 233              		.thumb_func
 234              		.type	output_thread, %function
 235              	output_thread:
 236              	.LFB262:
 237              		.loc 1 233 0
 238              		.cfi_startproc
 239              		@ args = 0, pretend = 0, frame = 24
 240              		@ frame_needed = 0, uses_anonymous_args = 0
 241              	.LVL22:
 242 0000 2DE9F04F 		push	{r4, r5, r6, r7, r8, r9, r10, fp, lr}
 243              		.cfi_def_cfa_offset 36
 244              		.cfi_offset 4, -36
 245              		.cfi_offset 5, -32
 246              		.cfi_offset 6, -28
 247              		.cfi_offset 7, -24
 248              		.cfi_offset 8, -20
 249              		.cfi_offset 9, -16
 250              		.cfi_offset 10, -12
 251              		.cfi_offset 11, -8
 252              		.cfi_offset 14, -4
 253              	.LBB49:
 254              	.LBB50:
 255              		.file 2 "ChibiOS_3.0.2/os/rt/include/chregistry.h"
 256              		.loc 2 135 0
 257 0004 814B     		ldr	r3, .L266
 258 0006 824A     		ldr	r2, .L266+4
 259 0008 9B69     		ldr	r3, [r3, #24]
 260 000a 824D     		ldr	r5, .L266+8
 261 000c 824C     		ldr	r4, .L266+12
 262 000e 834E     		ldr	r6, .L266+16
 263 0010 834F     		ldr	r7, .L266+20
 264 0012 DFF850A2 		ldr	r10, .L266+88
 265 0016 DFF83882 		ldr	r8, .L266+68
 266              	.LBE50:
 267              	.LBE49:
 268              		.loc 1 233 0
 269 001a 2DED0C8B 		vpush.64	{d8, d9, d10, d11, d12, d13}
 270              		.cfi_def_cfa_offset 84
 271              		.cfi_offset 80, -84
 272              		.cfi_offset 81, -80
 273              		.cfi_offset 82, -76
 274              		.cfi_offset 83, -72
 275              		.cfi_offset 84, -68
 276              		.cfi_offset 85, -64
 277              		.cfi_offset 86, -60
 278              		.cfi_offset 87, -56
 279              		.cfi_offset 88, -52
 280              		.cfi_offset 89, -48
 281              		.cfi_offset 90, -44
 282              		.cfi_offset 91, -40
 283              	.LBB52:
 284              		.loc 1 268 0
 285 001e 9FED819A 		vldr.32	s18, .L266+24
ARM GAS  C:\Users\euanm\AppData\Local\Temp\cc7lJ0NE.s 			page 6


 286 0022 DFED818A 		vldr.32	s17, .L266+28
 287              	.LBB53:
 288              	.LBB54:
 289              	.LBB55:
 290              		.loc 1 544 0
 291 0026 9FED81AA 		vldr.32	s20, .L266+32
 292 002a DFED819A 		vldr.32	s19, .L266+36
 293              	.LBE55:
 294              	.LBE54:
 295              	.LBE53:
 296              	.LBE52:
 297              	.LBB137:
 298              	.LBB51:
 299              		.loc 2 135 0
 300 002e 9A61     		str	r2, [r3, #24]
 301              	.LBE51:
 302              	.LBE137:
 303              		.loc 1 233 0
 304 0030 87B0     		sub	sp, sp, #28
 305              		.cfi_def_cfa_offset 112
 306              	.LVL23:
 307              	.L35:
 308              	.LBB138:
 309              		.loc 1 239 0
 310 0032 0A20     		movs	r0, #10
 311 0034 FFF7FEFF 		bl	chThdSleep
 312              	.LVL24:
 313              		.loc 1 241 0
 314 0038 FFF7FEFF 		bl	timeout_has_timeout
 315              	.LVL25:
 316 003c 0028     		cmp	r0, #0
 317 003e F8D1     		bne	.L35
 318              		.loc 1 241 0 is_stmt 0 discriminator 1
 319 0040 2B68     		ldr	r3, [r5]
 320 0042 002B     		cmp	r3, #0
 321 0044 F5D1     		bne	.L35
 322              		.loc 1 241 0 discriminator 2
 323 0046 2378     		ldrb	r3, [r4]	@ zero_extendqisi2
 324 0048 002B     		cmp	r3, #0
 325 004a F2D0     		beq	.L35
 326              		.loc 1 247 0 is_stmt 1
 327 004c FFF7FEFF 		bl	mc_interface_get_tot_current_directional_filtered
 328              	.LVL26:
 329              		.loc 1 250 0
 330 0050 337D     		ldrb	r3, [r6, #20]	@ zero_extendqisi2
 331 0052 724A     		ldr	r2, .L266+16
 332              		.loc 1 247 0
 333 0054 B0EE408A 		vmov.f32	s16, s0
 334              	.LVL27:
 335              		.loc 1 250 0
 336 0058 1BB1     		cbz	r3, .L37
 337              		.loc 1 250 0 is_stmt 0 discriminator 1
 338 005a 537D     		ldrb	r3, [r2, #21]	@ zero_extendqisi2
 339 005c 002B     		cmp	r3, #0
 340 005e 40F0EA82 		bne	.L255
 341              	.L37:
 342              		.loc 1 255 0 is_stmt 1
ARM GAS  C:\Users\euanm\AppData\Local\Temp\cc7lJ0NE.s 			page 7


 343 0062 94F82830 		ldrb	r3, [r4, #40]	@ zero_extendqisi2
 344 0066 002B     		cmp	r3, #0
 345 0068 00F08682 		beq	.L39
 346              		.loc 1 255 0 is_stmt 0 discriminator 1
 347 006c 307D     		ldrb	r0, [r6, #20]	@ zero_extendqisi2
 348 006e C0B2     		uxtb	r0, r0
 349              	.L40:
 350              		.loc 1 255 0 discriminator 4
 351 0070 58B1     		cbz	r0, .L43
 352              		.loc 1 255 0 discriminator 5
 353 0072 9AF80030 		ldrb	r3, [r10]	@ zero_extendqisi2
 354 0076 43B9     		cbnz	r3, .L43
 355              		.loc 1 255 0 discriminator 6
 356 0078 2378     		ldrb	r3, [r4]	@ zero_extendqisi2
 357 007a 674A     		ldr	r2, .L266+12
 358 007c 012B     		cmp	r3, #1
 359 007e 00F06E83 		beq	.L44
 360              		.loc 1 255 0 discriminator 8
 361 0082 1378     		ldrb	r3, [r2]	@ zero_extendqisi2
 362 0084 032B     		cmp	r3, #3
 363 0086 00F06A83 		beq	.L44
 364              	.L43:
 365 008a 3878     		ldrb	r0, [r7]	@ zero_extendqisi2
 366              	.L42:
 367              		.loc 1 264 0 is_stmt 1
 368 008c 94F82830 		ldrb	r3, [r4, #40]	@ zero_extendqisi2
 369 0090 002B     		cmp	r3, #0
 370 0092 00F08482 		beq	.L47
 371              		.loc 1 264 0 is_stmt 0 discriminator 1
 372 0096 337D     		ldrb	r3, [r6, #20]	@ zero_extendqisi2
 373 0098 DBB2     		uxtb	r3, r3
 374              	.L48:
 375              		.loc 1 264 0 discriminator 4
 376 009a 8AF80030 		strb	r3, [r10]
 377              		.loc 1 266 0 is_stmt 1 discriminator 4
 378 009e FFF7FEFF 		bl	led_external_set_reversed
 379              	.LVL28:
 380              	.LBB75:
 381              	.LBB76:
 382              		.loc 1 129 0 discriminator 4
 383 00a2 D6ED017A 		vldr.32	s15, [r6, #4]	@ int
 384              	.LBE76:
 385              	.LBE75:
 386              		.loc 1 269 0 discriminator 4
 387 00a6 94ED010A 		vldr.32	s0, [r4, #4]
 388              		.loc 1 268 0 discriminator 4
 389 00aa F8EEE77A 		vcvt.f32.s32	s15, s15
 390              		.loc 1 269 0 discriminator 4
 391 00ae F7EE000A 		vmov.f32	s1, #1.0e+0
 392              		.loc 1 268 0 discriminator 4
 393 00b2 77EEC97A 		vsub.f32	s15, s15, s18
 394              		.loc 1 269 0 discriminator 4
 395 00b6 03A8     		add	r0, sp, #12
 396              		.loc 1 268 0 discriminator 4
 397 00b8 67EEA87A 		vmul.f32	s15, s15, s17
 398 00bc CDED037A 		vstr.32	s15, [sp, #12]
 399              		.loc 1 269 0 discriminator 4
ARM GAS  C:\Users\euanm\AppData\Local\Temp\cc7lJ0NE.s 			page 8


 400 00c0 FFF7FEFF 		bl	utils_deadband
 401              	.LVL29:
 402              		.loc 1 271 0 discriminator 4
 403 00c4 5B4B     		ldr	r3, .L266+40
 404 00c6 5B4A     		ldr	r2, .L266+40
 405 00c8 1B78     		ldrb	r3, [r3]	@ zero_extendqisi2
 406 00ca DDED030A 		vldr.32	s1, [sp, #12]
 407 00ce A3B1     		cbz	r3, .L50
 408              		.loc 1 271 0 is_stmt 0 discriminator 1
 409 00d0 F5EE400A 		vcmp.f32	s1, #0
 410 00d4 F1EE10FA 		vmrs	APSR_nzcv, FPSCR
 411 00d8 0FD0     		beq	.L50
 412              		.loc 1 272 0 is_stmt 1
 413 00da F5EEC00A 		vcmpe.f32	s1, #0
 414 00de F1EE10FA 		vmrs	APSR_nzcv, FPSCR
 415 00e2 40F39083 		ble	.L235
 416              		.loc 1 273 0
 417 00e6 92ED070A 		vldr.32	s0, [r2, #28]
 418 00ea 5349     		ldr	r1, .L266+44
 419 00ec 5348     		ldr	r0, .L266+48
 420 00ee FFF7FEFF 		bl	calculate_throttle_curve_chuk
 421              	.LVL30:
 422 00f2 F0EE400A 		vmov.f32	s1, s0
 423 00f6 8DED030A 		vstr.32	s0, [sp, #12]
 424              	.L50:
 425              		.loc 1 280 0
 426 00fa D6ED007A 		vldr.32	s15, [r6]	@ int
 427              		.loc 1 281 0
 428 00fe 9FED507A 		vldr.32	s14, .L266+52
 429              		.loc 1 280 0
 430 0102 F8EEE77A 		vcvt.f32.s32	s15, s15
 431              		.loc 1 281 0
 432 0106 F4EEC70A 		vcmpe.f32	s1, s14
 433              		.loc 1 280 0
 434 010a 77EEC97A 		vsub.f32	s15, s15, s18
 435              		.loc 1 282 0
 436 010e 9FED4D7A 		vldr.32	s14, .L266+56
 437              		.loc 1 280 0
 438 0112 67EEA87A 		vmul.f32	s15, s15, s17
 439              	.LVL31:
 440              		.loc 1 281 0
 441 0116 F1EE10FA 		vmrs	APSR_nzcv, FPSCR
 442              		.loc 1 282 0
 443 011a F4EEC77A 		vcmpe.f32	s15, s14
 444              		.loc 1 281 0
 445 011e 40F12E82 		bpl	.L236
 446              		.loc 1 282 0
 447 0122 F1EE10FA 		vmrs	APSR_nzcv, FPSCR
 448 0126 00F1CA82 		bmi	.L256
 449              		.loc 1 284 0
 450 012a 9FED477A 		vldr.32	s14, .L266+60
 451 012e F4EEC77A 		vcmpe.f32	s15, s14
 452 0132 F1EE10FA 		vmrs	APSR_nzcv, FPSCR
 453              		.loc 1 285 0
 454 0136 CCBF     		ite	gt
 455 0138 0620     		movgt	r0, #6
 456              		.loc 1 287 0
ARM GAS  C:\Users\euanm\AppData\Local\Temp\cc7lJ0NE.s 			page 9


 457 013a 0220     		movle	r0, #2
 458 013c FFF7FEFF 		bl	led_external_set_state
 459              	.LVL32:
 460              	.L57:
 461              		.loc 1 301 0
 462 0140 FFF7FEFF 		bl	mc_interface_get_configuration
 463              	.LVL33:
 464              		.loc 1 306 0
 465 0144 D8F800B0 		ldr	fp, [r8]
 466 0148 0BF10102 		add	r2, fp, #1
 467 014c C8F80020 		str	r2, [r8]
 468              		.loc 1 301 0
 469 0150 8146     		mov	r9, r0
 470              	.LVL34:
 471              		.loc 1 306 0
 472 0152 FFF7FEFF 		bl	mc_interface_get_rpm
 473              	.LVL35:
 474              		.loc 1 307 0
 475 0156 D8F80020 		ldr	r2, [r8]
 476              		.loc 1 306 0
 477 015a 3C4B     		ldr	r3, .L266+64
 478              		.loc 1 307 0
 479 015c 072A     		cmp	r2, #7
 480              		.loc 1 306 0
 481 015e 03EB8B03 		add	r3, r3, fp, lsl #2
 482 0162 83ED000A 		vstr.32	s0, [r3]
 483              		.loc 1 307 0
 484 0166 02DD     		ble	.L64
 485              		.loc 1 308 0
 486 0168 394A     		ldr	r2, .L266+68
 487 016a 0023     		movs	r3, #0
 488 016c 1360     		str	r3, [r2]
 489              	.L64:
 490              	.LVL36:
 491 016e 374B     		ldr	r3, .L266+64
 492              		.loc 1 311 0
 493 0170 DFED387A 		vldr.32	s15, .L266+72
 494 0174 03F12002 		add	r2, r3, #32
 495              	.LVL37:
 496              	.L65:
 497              	.LBB77:
 498              		.loc 1 313 0 discriminator 3
 499 0178 B3EC017A 		vldmia.32	r3!, {s14}
 500              		.loc 1 312 0 discriminator 3
 501 017c 9A42     		cmp	r2, r3
 502              		.loc 1 313 0 discriminator 3
 503 017e 77EE877A 		vadd.f32	s15, s15, s14
 504              	.LVL38:
 505              		.loc 1 312 0 discriminator 3
 506 0182 F9D1     		bne	.L65
 507              	.LVL39:
 508              	.LBE77:
 509              		.loc 1 317 0
 510 0184 94F82830 		ldrb	r3, [r4, #40]	@ zero_extendqisi2
 511 0188 002B     		cmp	r3, #0
 512 018a 00F0F281 		beq	.L66
 513              		.loc 1 317 0 is_stmt 0 discriminator 1
ARM GAS  C:\Users\euanm\AppData\Local\Temp\cc7lJ0NE.s 			page 10


 514 018e 737D     		ldrb	r3, [r6, #21]	@ zero_extendqisi2
 515 0190 DBB2     		uxtb	r3, r3
 516              	.L67:
 517              		.loc 1 317 0 discriminator 4
 518 0192 6BB3     		cbz	r3, .L68
 519              	.LBB78:
 520              		.loc 1 320 0 is_stmt 1
 521 0194 304B     		ldr	r3, .L266+76
 522 0196 1B78     		ldrb	r3, [r3]	@ zero_extendqisi2
 523 0198 002B     		cmp	r3, #0
 524 019a 40F01B82 		bne	.L69
 525              	.LBE78:
 526              		.loc 1 315 0
 527 019e B4EE007A 		vmov.f32	s14, #1.25e-1
 528 01a2 67EE877A 		vmul.f32	s15, s15, s14
 529              	.LVL40:
 530              	.LBB95:
 531              		.loc 1 321 0
 532 01a6 2D4A     		ldr	r2, .L266+80
 533              		.loc 1 323 0
 534 01a8 3B78     		ldrb	r3, [r7]	@ zero_extendqisi2
 535              		.loc 1 321 0
 536 01aa C2ED007A 		vstr.32	s15, [r2]
 537              		.loc 1 323 0
 538 01ae F5EEC07A 		vcmpe.f32	s15, #0
 539 01b2 002B     		cmp	r3, #0
 540 01b4 40F0AC82 		bne	.L257
 541              		.loc 1 323 0 is_stmt 0 discriminator 4
 542 01b8 F1EE10FA 		vmrs	APSR_nzcv, FPSCR
 543 01bc 00F1AC82 		bmi	.L71
 544              	.L72:
 545              		.loc 1 332 0 is_stmt 1
 546 01c0 254A     		ldr	r2, .L266+76
 547 01c2 0123     		movs	r3, #1
 548 01c4 1370     		strb	r3, [r2]
 549              	.L74:
 550              		.loc 1 350 0
 551 01c6 2378     		ldrb	r3, [r4]	@ zero_extendqisi2
 552 01c8 013B     		subs	r3, r3, #1
 553 01ca 032B     		cmp	r3, #3
 554 01cc 08D8     		bhi	.L78
 555 01ce DFE803F0 		tbb	[pc, r3]
 556              	.L80:
 557 01d2 02       		.byte	(.L81-.L80)/2
 558 01d3 02       		.byte	(.L81-.L80)/2
 559 01d4 02       		.byte	(.L81-.L80)/2
 560 01d5 02       		.byte	(.L81-.L80)/2
 561              		.p2align 1
 562              	.L81:
 563              		.loc 1 357 0
 564 01d6 214B     		ldr	r3, .L266+80
 565 01d8 93ED000A 		vldr.32	s0, [r3]
 566 01dc FFF7FEFF 		bl	mc_interface_set_pid_speed
 567              	.LVL41:
 568              	.L78:
 569              		.loc 1 365 0
 570 01e0 237F     		ldrb	r3, [r4, #28]	@ zero_extendqisi2
ARM GAS  C:\Users\euanm\AppData\Local\Temp\cc7lJ0NE.s 			page 11


 571 01e2 002B     		cmp	r3, #0
 572 01e4 40F07382 		bne	.L82
 573              	.LVL42:
 574              	.L86:
 575              		.loc 1 379 0
 576 01e8 1D4B     		ldr	r3, .L266+84
 577 01ea 83ED008A 		vstr.32	s16, [r3]
 578              		.loc 1 381 0
 579 01ee 20E7     		b	.L35
 580              	.LVL43:
 581              	.L68:
 582              	.LBE95:
 583              		.loc 1 389 0
 584 01f0 2278     		ldrb	r2, [r4]	@ zero_extendqisi2
 585              		.loc 1 384 0
 586 01f2 1949     		ldr	r1, .L266+76
 587 01f4 0B70     		strb	r3, [r1]
 588              	.LVL44:
 589              		.loc 1 389 0
 590 01f6 531E     		subs	r3, r2, #1
 591 01f8 032B     		cmp	r3, #3
 592 01fa 00F2D483 		bhi	.L159
 593 01fe DFE813F0 		tbh	[pc, r3, lsl #1]
 594              	.L89:
 595 0202 A901     		.2byte	(.L88-.L89)/2
 596 0204 A901     		.2byte	(.L88-.L89)/2
 597 0206 3300     		.2byte	(.L90-.L89)/2
 598 0208 3300     		.2byte	(.L90-.L89)/2
 599              		.p2align 1
 600              	.L267:
 601 020a 00BF     		.align	2
 602              	.L266:
 603 020c 00000000 		.word	ch
 604 0210 00000000 		.word	.LC0
 605 0214 00000000 		.word	.LANCHOR0
 606 0218 00000000 		.word	.LANCHOR1
 607 021c 00000000 		.word	.LANCHOR2
 608 0220 00000000 		.word	.LANCHOR3
 609 0224 00000043 		.word	1124073472
 610 0228 0000003C 		.word	1006632960
 611 022c 00401C46 		.word	1176256512
 612 0230 CDCCCC3D 		.word	1036831949
 613 0234 00000000 		.word	.LANCHOR5
 614 0238 00000000 		.word	.LANCHOR6
 615 023c 00000000 		.word	.LANCHOR7
 616 0240 6F1283BA 		.word	-1165815185
 617 0244 CDCCCCBE 		.word	-1093874483
 618 0248 CDCCCC3E 		.word	1053609165
 619 024c 00000000 		.word	.LANCHOR11
 620 0250 00000000 		.word	.LANCHOR10
 621 0254 00000000 		.word	0
 622 0258 00000000 		.word	.LANCHOR12
 623 025c 00000000 		.word	.LANCHOR13
 624 0260 00000000 		.word	.LANCHOR14
 625 0264 00000000 		.word	.LANCHOR4
 626              	.L90:
 627              		.loc 1 400 0
ARM GAS  C:\Users\euanm\AppData\Local\Temp\cc7lJ0NE.s 			page 12


 628 0268 DDED037A 		vldr.32	s15, [sp, #12]
 629              	.LVL45:
 630 026c F5EEC07A 		vcmpe.f32	s15, #0
 631 0270 F1EE10FA 		vmrs	APSR_nzcv, FPSCR
 632 0274 C0F2B882 		blt	.L242
 633              		.loc 1 401 0
 634 0278 99F81830 		ldrb	r3, [r9, #24]	@ zero_extendqisi2
 635 027c 002B     		cmp	r3, #0
 636 027e 00F03683 		beq	.L95
 637              		.loc 1 403 0
 638 0282 C84B     		ldr	r3, .L268
 639              		.loc 1 402 0
 640 0284 D9ED01AA 		vldr.32	s21, [r9, #4]
 641              		.loc 1 403 0
 642 0288 D9ED075A 		vldr.32	s11, [r9, #28]
 643 028c 1B8A     		ldrh	r3, [r3, #16]
 644 028e DFEDC66A 		vldr.32	s13, .L268+4
 645 0292 9FEDC67A 		vldr.32	s14, .L268+8
 646 0296 9BB2     		uxth	r3, r3
 647 0298 06EE103A 		vmov	s12, r3	@ int
 648 029c B8EE466A 		vcvt.f32.u32	s12, s12
 649              		.loc 1 402 0
 650 02a0 67EEAAAA 		vmul.f32	s21, s15, s21
 651              		.loc 1 403 0
 652 02a4 66EE267A 		vmul.f32	s15, s12, s13
 653 02a8 67EE877A 		vmul.f32	s15, s15, s14
 654 02ac 85EEA7BA 		vdiv.f32	s22, s11, s15
 655 02b0 FFF7FEFF 		bl	mc_interface_get_duty_cycle_for_watt_calculation
 656              	.LVL46:
 657              		.loc 1 402 0
 658 02b4 DDED037A 		vldr.32	s15, [sp, #12]
 659 02b8 CBEE000A 		vdiv.f32	s1, s22, s0
 660 02bc B0EE6A0A 		vmov.f32	s0, s21
 661 02c0 60EEA70A 		vmul.f32	s1, s1, s15
 662 02c4 FFF7FEFF 		bl	utils_smallest_of_2
 663              	.LVL47:
 664 02c8 F0EE40AA 		vmov.f32	s21, s0
 665              	.LVL48:
 666 02cc B0EEC0CA 		vabs.f32	s24, s0
 667              	.LVL49:
 668              	.L87:
 669              		.loc 1 418 0
 670 02d0 FFF7FEFF 		bl	mc_interface_get_rpm
 671              	.LVL50:
 672              		.loc 1 419 0
 673 02d4 3B78     		ldrb	r3, [r7]	@ zero_extendqisi2
 674              		.loc 1 418 0
 675 02d6 F0EE40BA 		vmov.f32	s23, s0
 676              	.LVL51:
 677              		.loc 1 419 0
 678 02da 0BB1     		cbz	r3, .L96
 679              		.loc 1 420 0
 680 02dc F1EE40BA 		vneg.f32	s23, s0
 681              	.LVL52:
 682              	.L96:
 683              		.loc 1 426 0
 684 02e0 237F     		ldrb	r3, [r4, #28]	@ zero_extendqisi2
ARM GAS  C:\Users\euanm\AppData\Local\Temp\cc7lJ0NE.s 			page 13


 685 02e2 B0EE6BBA 		vmov.f32	s22, s23
 686 02e6 002B     		cmp	r3, #0
 687 02e8 3BD0     		beq	.L97
 688              	.LVL53:
 689 02ea 4FF0000B 		mov	fp, #0
 690              	.LVL54:
 691              	.L103:
 692              	.LBB96:
 693              	.LBB97:
 694              		.loc 1 428 0
 695 02ee 5846     		mov	r0, fp
 696 02f0 FFF7FEFF 		bl	comm_can_get_status_msg_index
 697              	.LVL55:
 698              		.loc 1 430 0
 699 02f4 0368     		ldr	r3, [r0]
 700 02f6 002B     		cmp	r3, #0
 701              	.LBE97:
 702              		.loc 1 427 0
 703 02f8 0BF1010B 		add	fp, fp, #1
 704              	.LVL56:
 705              	.LBB108:
 706              		.loc 1 430 0
 707 02fc 2EDB     		blt	.L98
 708              	.LBB98:
 709              	.LBB99:
 710              	.LBB100:
 711              	.LBB101:
 712              		.file 3 "ChibiOS_3.0.2/os/rt/include/chvt.h"
 713              		.loc 3 231 0 discriminator 1
 714 02fe AC4B     		ldr	r3, .L268+12
 715              	.LBE101:
 716              	.LBE100:
 717              	.LBE99:
 718              	.LBE98:
 719              		.loc 1 430 0 discriminator 1
 720 0300 4268     		ldr	r2, [r0, #4]
 721              	.LBB105:
 722              	.LBB104:
 723              	.LBB103:
 724              	.LBB102:
 725              		.loc 3 231 0 discriminator 1
 726 0302 9B6A     		ldr	r3, [r3, #40]
 727              	.LVL57:
 728              	.LBE102:
 729              	.LBE103:
 730              	.LBE104:
 731              	.LBE105:
 732              		.loc 1 430 0 discriminator 1
 733 0304 9B1A     		subs	r3, r3, r2
 734 0306 07EE903A 		vmov	s15, r3	@ int
 735 030a F8EE677A 		vcvt.f32.u32	s15, s15
 736              	.LBB106:
 737              		.loc 1 446 0 discriminator 1
 738 030e F0EEC86A 		vabs.f32	s13, s16
 739              	.LBE106:
 740              		.loc 1 430 0 discriminator 1
 741 0312 87EE8A7A 		vdiv.f32	s14, s15, s20
ARM GAS  C:\Users\euanm\AppData\Local\Temp\cc7lJ0NE.s 			page 14


 742 0316 B4EEE97A 		vcmpe.f32	s14, s19
 743 031a F1EE10FA 		vmrs	APSR_nzcv, FPSCR
 744 031e 1DD5     		bpl	.L98
 745              	.LBB107:
 746              		.loc 1 432 0
 747 0320 3B78     		ldrb	r3, [r7]	@ zero_extendqisi2
 748              		.loc 1 431 0
 749 0322 D0ED027A 		vldr.32	s15, [r0, #8]
 750              	.LVL58:
 751              		.loc 1 432 0
 752 0326 0BB1     		cbz	r3, .L100
 753              		.loc 1 433 0
 754 0328 F1EE677A 		vneg.f32	s15, s15
 755              	.LVL59:
 756              	.L100:
 757              		.loc 1 437 0
 758 032c F4EE4B7A 		vcmp.f32	s15, s22
 759              		.loc 1 442 0
 760 0330 90F91030 		ldrsb	r3, [r0, #16]
 761              		.loc 1 441 0
 762 0334 90ED037A 		vldr.32	s14, [r0, #12]
 763              		.loc 1 437 0
 764 0338 F1EE10FA 		vmrs	APSR_nzcv, FPSCR
 765 033c 48BF     		it	mi
 766 033e B0EE67BA 		vmovmi.f32	s22, s15
 767              	.LVL60:
 768              		.loc 1 442 0
 769 0342 002B     		cmp	r3, #0
 770              		.loc 1 443 0
 771 0344 B8BF     		it	lt
 772 0346 B1EE477A 		vneglt.f32	s14, s14
 773              	.LVL61:
 774              		.loc 1 446 0
 775 034a F0EEC77A 		vabs.f32	s15, s14
 776              	.LVL62:
 777              		.loc 1 447 0
 778 034e F4EE667A 		vcmp.f32	s15, s13
 779 0352 F1EE10FA 		vmrs	APSR_nzcv, FPSCR
 780 0356 C8BF     		it	gt
 781 0358 B0EE478A 		vmovgt.f32	s16, s14
 782              	.LVL63:
 783              	.L98:
 784              	.LBE107:
 785              	.LBE108:
 786              		.loc 1 427 0 discriminator 2
 787 035c BBF1030F 		cmp	fp, #3
 788 0360 C5D1     		bne	.L103
 789              	.LVL64:
 790              	.L97:
 791              	.LBE96:
 792              		.loc 1 455 0
 793 0362 944B     		ldr	r3, .L268+16
 794              		.loc 1 454 0
 795 0364 D9ED017A 		vldr.32	s15, [r9, #4]
 796              		.loc 1 455 0
 797 0368 D3ED00CA 		vldr.32	s25, [r3]
 798              		.loc 1 454 0
ARM GAS  C:\Users\euanm\AppData\Local\Temp\cc7lJ0NE.s 			page 15


 799 036c 99ED027A 		vldr.32	s14, [r9, #8]
 800              	.LVL65:
 801              		.loc 1 457 0
 802 0370 9FED916A 		vldr.32	s12, .L268+20
 803              		.loc 1 455 0
 804 0374 F0EEEC6A 		vabs.f32	s13, s25
 805 0378 F4EECC6A 		vcmpe.f32	s13, s24
 806 037c F1EE10FA 		vmrs	APSR_nzcv, FPSCR
 807 0380 4CBF     		ite	mi
 808 0382 D4ED046A 		vldrmi.32	s13, [r4, #16]
 809 0386 D4ED056A 		vldrpl.32	s13, [r4, #20]
 810              	.LVL66:
 811              		.loc 1 457 0
 812 038a F4EEC66A 		vcmpe.f32	s13, s12
 813 038e F1EE10FA 		vmrs	APSR_nzcv, FPSCR
 814 0392 52DD     		ble	.L107
 815              		.loc 1 457 0 is_stmt 0 discriminator 1
 816 0394 9FED896A 		vldr.32	s12, .L268+24
 817 0398 F4EE46AA 		vcmp.f32	s21, s12
 818 039c F1EE10FA 		vmrs	APSR_nzcv, FPSCR
 819 03a0 4BD0     		beq	.L107
 820              	.LBB109:
 821              		.loc 1 459 0 is_stmt 1
 822 03a2 6AEEAC5A 		vmul.f32	s11, s21, s25
 823 03a6 F4EEC65A 		vcmpe.f32	s11, s12
 824 03aa F1EE10FA 		vmrs	APSR_nzcv, FPSCR
 825 03ae 00F1B682 		bmi	.L258
 826              	.L109:
 827              		.loc 1 463 0
 828 03b2 9FED876A 		vldr.32	s12, .L268+44
 829              		.loc 1 465 0
 830 03b6 CDED04CA 		vstr.32	s25, [sp, #16]
 831              		.loc 1 463 0
 832 03ba B0EEC77A 		vabs.f32	s14, s14
 833              	.LVL67:
 834 03be 77EE277A 		vadd.f32	s15, s14, s15
 835 03c2 66EE866A 		vmul.f32	s13, s13, s12
 836              	.LVL68:
 837              		.loc 1 467 0
 838 03c6 B0EE6A0A 		vmov.f32	s0, s21
 839              		.loc 1 463 0
 840 03ca 87EEA6DA 		vdiv.f32	s26, s15, s13
 841              	.LVL69:
 842              		.loc 1 467 0
 843 03ce 04A8     		add	r0, sp, #16
 844 03d0 F0EE4D0A 		vmov.f32	s1, s26
 845 03d4 FFF7FEFF 		bl	utils_step_towards
 846              	.LVL70:
 847              		.loc 1 468 0
 848 03d8 9DED04CA 		vldr.32	s24, [sp, #16]
 849              		.loc 1 473 0
 850 03dc 3B78     		ldrb	r3, [r7]	@ zero_extendqisi2
 851              		.loc 1 472 0
 852 03de 8DED05CA 		vstr.32	s24, [sp, #20]
 853              		.loc 1 468 0
 854 03e2 F0EE4C7A 		vmov.f32	s15, s24
 855              	.LVL71:
ARM GAS  C:\Users\euanm\AppData\Local\Temp\cc7lJ0NE.s 			page 16


 856              		.loc 1 473 0
 857 03e6 002B     		cmp	r3, #0
 858 03e8 00F05D82 		beq	.L111
 859              		.loc 1 474 0
 860 03ec 38EE0C7A 		vadd.f32	s14, s16, s24
 861 03f0 F1EE046A 		vmov.f32	s13, #5.0e+0
 862 03f4 B0EEC77A 		vabs.f32	s14, s14
 863 03f8 B4EEE67A 		vcmpe.f32	s14, s13
 864 03fc F1EE10FA 		vmrs	APSR_nzcv, FPSCR
 865 0400 00F3C982 		bgt	.L259
 866              	.L112:
 867              	.LVL72:
 868              		.loc 1 485 0
 869 0404 F4EEE7CA 		vcmpe.f32	s25, s15
 870 0408 F1EE10FA 		vmrs	APSR_nzcv, FPSCR
 871 040c 00F38D82 		bgt	.L252
 872              	.LVL73:
 873              	.L116:
 874              		.loc 1 485 0 is_stmt 0 discriminator 3
 875 0410 DDED036A 		vldr.32	s13, [sp, #12]
 876 0414 9FED6A7A 		vldr.32	s14, .L268+28
 877 0418 B0EEE66A 		vabs.f32	s12, s13
 878 041c B4EEC76A 		vcmpe.f32	s12, s14
 879 0420 F1EE10FA 		vmrs	APSR_nzcv, FPSCR
 880 0424 C8BF     		it	gt
 881 0426 F0EE4C7A 		vmovgt.f32	s15, s24
 882              	.L118:
 883              		.loc 1 489 0 is_stmt 1
 884 042a 86EEAA7A 		vdiv.f32	s14, s13, s21
 885              		.loc 1 491 0
 886 042e F0EE67AA 		vmov.f32	s21, s15
 887              	.LVL74:
 888              		.loc 1 489 0
 889 0432 67EE277A 		vmul.f32	s15, s14, s15
 890 0436 CDED037A 		vstr.32	s15, [sp, #12]
 891              	.LVL75:
 892              	.L107:
 893              	.LBE109:
 894              		.loc 1 494 0
 895 043a 5E4B     		ldr	r3, .L268+16
 896              		.loc 1 496 0
 897 043c F5EEC0AA 		vcmpe.f32	s21, #0
 898 0440 F1EE10FA 		vmrs	APSR_nzcv, FPSCR
 899              		.loc 1 494 0
 900 0444 C3ED00AA 		vstr.32	s21, [r3]
 901              		.loc 1 496 0
 902 0448 00F1EA81 		bmi	.L260
 903              	.LVL76:
 904              	.LBB110:
 905              		.loc 1 518 0
 906 044c D4ED037A 		vldr.32	s15, [r4, #12]
 907 0450 5C4B     		ldr	r3, .L268+32
 908 0452 B4EEE7BA 		vcmpe.f32	s22, s15
 909 0456 F1EE10FA 		vmrs	APSR_nzcv, FPSCR
 910 045a 40F3DA80 		ble	.L246
 911              		.loc 1 519 0
 912 045e DDED037A 		vldr.32	s15, [sp, #12]
ARM GAS  C:\Users\euanm\AppData\Local\Temp\cc7lJ0NE.s 			page 17


 913 0462 F5EEC07A 		vcmpe.f32	s15, #0
 914 0466 F1EE10FA 		vmrs	APSR_nzcv, FPSCR
 915              	.LVL77:
 916              		.loc 1 521 0
 917 046a C8BF     		it	gt
 918 046c DFED567A 		vldrgt.32	s15, .L268+36
 919              		.loc 1 523 0
 920 0470 F5EEC0AA 		vcmpe.f32	s21, #0
 921              		.loc 1 520 0
 922 0474 C6BF     		itte	gt
 923 0476 4FF0010B 		movgt	fp, #1
 924              		.loc 1 521 0
 925 047a CDED037A 		vstrgt.32	s15, [sp, #12]
 926              		.loc 1 516 0
 927 047e 4FF0000B 		movle	fp, #0
 928              	.LVL78:
 929              		.loc 1 523 0
 930 0482 F1EE10FA 		vmrs	APSR_nzcv, FPSCR
 931              		.loc 1 524 0
 932 0486 B0EE678A 		vmov.f32	s16, s15
 933              	.LVL79:
 934              		.loc 1 523 0
 935 048a 01DD     		ble	.L133
 936              		.loc 1 524 0
 937 048c D9ED47AA 		vldr.32	s21, [r9, #284]
 938              	.LVL80:
 939              	.L133:
 940              		.loc 1 540 0
 941 0490 237F     		ldrb	r3, [r4, #28]	@ zero_extendqisi2
 942 0492 002B     		cmp	r3, #0
 943 0494 56D0     		beq	.L139
 944 0496 B0EE6ACA 		vmov.f32	s24, s21
 945 049a 4FF00009 		mov	r9, #0
 946              	.LVL81:
 947              	.L152:
 948              	.LBB69:
 949              	.LBB66:
 950              		.loc 1 542 0
 951 049e 4846     		mov	r0, r9
 952 04a0 FFF7FEFF 		bl	comm_can_get_status_msg_index
 953              	.LVL82:
 954              		.loc 1 544 0
 955 04a4 0168     		ldr	r1, [r0]
 956 04a6 0029     		cmp	r1, #0
 957 04a8 38DB     		blt	.L140
 958              	.LVL83:
 959              	.LBB56:
 960              	.LBB57:
 961              	.LBB58:
 962              	.LBB59:
 963              		.loc 3 231 0 discriminator 1
 964 04aa 414B     		ldr	r3, .L268+12
 965              	.LBE59:
 966              	.LBE58:
 967              	.LBE57:
 968              	.LBE56:
 969              		.loc 1 544 0 discriminator 1
ARM GAS  C:\Users\euanm\AppData\Local\Temp\cc7lJ0NE.s 			page 18


 970 04ac 4268     		ldr	r2, [r0, #4]
 971              	.LBB63:
 972              	.LBB62:
 973              	.LBB61:
 974              	.LBB60:
 975              		.loc 3 231 0 discriminator 1
 976 04ae 9B6A     		ldr	r3, [r3, #40]
 977              	.LVL84:
 978              	.LBE60:
 979              	.LBE61:
 980              	.LBE62:
 981              	.LBE63:
 982              		.loc 1 544 0 discriminator 1
 983 04b0 9B1A     		subs	r3, r3, r2
 984 04b2 07EE903A 		vmov	s15, r3	@ int
 985 04b6 F8EE677A 		vcvt.f32.u32	s15, s15
 986 04ba 87EE8A7A 		vdiv.f32	s14, s15, s20
 987 04be B4EEE97A 		vcmpe.f32	s14, s19
 988 04c2 F1EE10FA 		vmrs	APSR_nzcv, FPSCR
 989 04c6 29D5     		bpl	.L140
 990              		.loc 1 545 0
 991 04c8 637F     		ldrb	r3, [r4, #29]	@ zero_extendqisi2
 992 04ca 002B     		cmp	r3, #0
 993 04cc 00F0E480 		beq	.L254
 994              	.LBB64:
 995              		.loc 1 547 0
 996 04d0 3B78     		ldrb	r3, [r7]	@ zero_extendqisi2
 997              		.loc 1 546 0
 998 04d2 D0ED027A 		vldr.32	s15, [r0, #8]
 999              	.LVL85:
 1000              		.loc 1 547 0
 1001 04d6 0BB1     		cbz	r3, .L144
 1002              		.loc 1 548 0
 1003 04d8 F1EE677A 		vneg.f32	s15, s15
 1004              	.LVL86:
 1005              	.L144:
 1006              		.loc 1 551 0
 1007 04dc 37EECB8A 		vsub.f32	s16, s15, s22
 1008              	.LVL87:
 1009              		.loc 1 553 0
 1010 04e0 D4ED097A 		vldr.32	s15, [r4, #36]
 1011              	.LVL88:
 1012 04e4 374A     		ldr	r2, .L268+32
 1013 04e6 B4EEE78A 		vcmpe.f32	s16, s15
 1014 04ea F1EE10FA 		vmrs	APSR_nzcv, FPSCR
 1015 04ee 00F3A680 		bgt	.L261
 1016              	.LVL89:
 1017              		.loc 1 558 0
 1018 04f2 9DED038A 		vldr.32	s16, [sp, #12]
 1019              	.LVL90:
 1020              		.loc 1 557 0
 1021 04f6 B0EE6ACA 		vmov.f32	s24, s21
 1022              	.LBE64:
 1023              		.loc 1 562 0
 1024 04fa 002B     		cmp	r3, #0
 1025 04fc 00F0D080 		beq	.L147
 1026              	.LVL91:
ARM GAS  C:\Users\euanm\AppData\Local\Temp\cc7lJ0NE.s 			page 19


 1027              	.L264:
 1028              		.loc 1 563 0
 1029 0500 2378     		ldrb	r3, [r4]	@ zero_extendqisi2
 1030 0502 304A     		ldr	r2, .L268+32
 1031 0504 032B     		cmp	r3, #3
 1032              		.loc 1 564 0
 1033 0506 C8B2     		uxtb	r0, r1
 1034              		.loc 1 563 0
 1035 0508 00F0C781 		beq	.L148
 1036              		.loc 1 563 0 is_stmt 0 discriminator 1
 1037 050c 1378     		ldrb	r3, [r2]	@ zero_extendqisi2
 1038 050e 042B     		cmp	r3, #4
 1039 0510 00F0C381 		beq	.L148
 1040              		.loc 1 566 0 is_stmt 1
 1041 0514 B1EE4C0A 		vneg.f32	s0, s24
 1042 0518 FFF7FEFF 		bl	comm_can_set_current
 1043              	.LVL92:
 1044              	.L140:
 1045              	.LBE66:
 1046              		.loc 1 541 0 discriminator 2
 1047 051c 09F10109 		add	r9, r9, #1
 1048              	.LVL93:
 1049 0520 B9F1030F 		cmp	r9, #3
 1050 0524 BBD1     		bne	.L152
 1051              	.LBE69:
 1052              		.loc 1 578 0
 1053 0526 637F     		ldrb	r3, [r4, #29]	@ zero_extendqisi2
 1054 0528 264A     		ldr	r2, .L268+32
 1055 052a 002B     		cmp	r3, #0
 1056 052c 00F02981 		beq	.L169
 1057              	.LBB70:
 1058              		.loc 1 579 0
 1059 0530 3BEECBBA 		vsub.f32	s22, s23, s22
 1060              	.LVL94:
 1061              		.loc 1 581 0
 1062 0534 D2ED097A 		vldr.32	s15, [r2, #36]
 1063 0538 B4EEE7BA 		vcmpe.f32	s22, s15
 1064 053c F1EE10FA 		vmrs	APSR_nzcv, FPSCR
 1065 0540 00F3F681 		bgt	.L262
 1066              	.LVL95:
 1067              	.L139:
 1068              	.LBE70:
 1069              		.loc 1 589 0
 1070 0544 3B78     		ldrb	r3, [r7]	@ zero_extendqisi2
 1071 0546 002B     		cmp	r3, #0
 1072 0548 70D0     		beq	.L154
 1073              		.loc 1 590 0
 1074 054a B1EE6A0A 		vneg.f32	s0, s21
 1075 054e FFF7FEFF 		bl	mc_interface_set_current
 1076              	.LVL96:
 1077 0552 6EE5     		b	.L35
 1078              	.LVL97:
 1079              	.L88:
 1080              	.LBE110:
 1081              		.loc 1 392 0
 1082 0554 DDED037A 		vldr.32	s15, [sp, #12]
 1083              	.LVL98:
ARM GAS  C:\Users\euanm\AppData\Local\Temp\cc7lJ0NE.s 			page 20


 1084 0558 F5EEC07A 		vcmpe.f32	s15, #0
 1085 055c F1EE10FA 		vmrs	APSR_nzcv, FPSCR
 1086 0560 C0F24281 		blt	.L242
 1087              		.loc 1 393 0
 1088 0564 D9ED01AA 		vldr.32	s21, [r9, #4]
 1089 0568 67EEAAAA 		vmul.f32	s21, s15, s21
 1090              	.LVL99:
 1091 056c B0EEEACA 		vabs.f32	s24, s21
 1092 0570 AEE6     		b	.L87
 1093              	.LVL100:
 1094              	.L66:
 1095              		.loc 1 317 0 discriminator 2
 1096 0572 337D     		ldrb	r3, [r6, #20]	@ zero_extendqisi2
 1097 0574 DBB2     		uxtb	r3, r3
 1098 0576 0CE6     		b	.L67
 1099              	.LVL101:
 1100              	.L39:
 1101              		.loc 1 255 0 discriminator 2
 1102 0578 707D     		ldrb	r0, [r6, #21]	@ zero_extendqisi2
 1103 057a C0B2     		uxtb	r0, r0
 1104 057c 78E5     		b	.L40
 1105              	.LVL102:
 1106              	.L236:
 1107              		.loc 1 290 0
 1108 057e F1EE10FA 		vmrs	APSR_nzcv, FPSCR
 1109 0582 00F1A080 		bmi	.L263
 1110              		.loc 1 292 0
 1111 0586 9FED117A 		vldr.32	s14, .L268+40
 1112 058a F4EEC77A 		vcmpe.f32	s15, s14
 1113 058e F1EE10FA 		vmrs	APSR_nzcv, FPSCR
 1114              		.loc 1 293 0
 1115 0592 CCBF     		ite	gt
 1116 0594 0420     		movgt	r0, #4
 1117              		.loc 1 295 0
 1118 0596 0120     		movle	r0, #1
 1119 0598 FFF7FEFF 		bl	led_external_set_state
 1120              	.LVL103:
 1121 059c D0E5     		b	.L57
 1122              	.LVL104:
 1123              	.L47:
 1124              		.loc 1 264 0 discriminator 2
 1125 059e 737D     		ldrb	r3, [r6, #21]	@ zero_extendqisi2
 1126 05a0 DBB2     		uxtb	r3, r3
 1127 05a2 7AE5     		b	.L48
 1128              	.L269:
 1129              		.align	2
 1130              	.L268:
 1131 05a4 00000000 		.word	ADC_Value
 1132 05a8 6740533A 		.word	978534503
 1133 05ac D145FF41 		.word	1107248593
 1134 05b0 00000000 		.word	ch
 1135 05b4 00000000 		.word	.LANCHOR14
 1136 05b8 0AD7233C 		.word	1008981770
 1137 05bc 00000000 		.word	0
 1138 05c0 6F12833A 		.word	981668463
 1139 05c4 00000000 		.word	.LANCHOR1
 1140 05c8 BD378635 		.word	897988541
ARM GAS  C:\Users\euanm\AppData\Local\Temp\cc7lJ0NE.s 			page 21


 1141 05cc CDCCCC3E 		.word	1053609165
 1142 05d0 00007A44 		.word	1148846080
 1143              	.LVL105:
 1144              	.L69:
 1145              	.LBB111:
 1146              		.loc 1 334 0
 1147 05d4 3B78     		ldrb	r3, [r7]	@ zero_extendqisi2
 1148              		.loc 1 339 0
 1149 05d6 D4ED066A 		vldr.32	s13, [r4, #24]
 1150 05da 9DED037A 		vldr.32	s14, [sp, #12]
 1151 05de 5FED045A 		vldr.32	s11, .L268+44
 1152              		.loc 1 334 0
 1153 05e2 002B     		cmp	r3, #0
 1154 05e4 00F0A680 		beq	.L75
 1155              		.loc 1 339 0
 1156 05e8 66EE876A 		vmul.f32	s13, s13, s14
 1157              		.loc 1 335 0
 1158 05ec DB4B     		ldr	r3, .L270
 1159 05ee 9FEDDC6A 		vldr.32	s12, .L270+4
 1160 05f2 D3ED007A 		vldr.32	s15, [r3]
 1161              	.LVL106:
 1162              		.loc 1 339 0
 1163 05f6 86EEA57A 		vdiv.f32	s14, s13, s11
 1164 05fa F4EE467A 		vcmp.f32	s15, s12
 1165 05fe F1EE10FA 		vmrs	APSR_nzcv, FPSCR
 1166 0602 C8BF     		it	gt
 1167 0604 F0EE467A 		vmovgt.f32	s15, s12
 1168 0608 77EEC77A 		vsub.f32	s15, s15, s14
 1169 060c C3ED007A 		vstr.32	s15, [r3]
 1170 0610 D9E5     		b	.L74
 1171              	.LVL107:
 1172              	.L246:
 1173              	.LBE111:
 1174              	.LBB112:
 1175              		.loc 1 526 0
 1176 0612 D3ED027A 		vldr.32	s15, [r3, #8]
 1177 0616 B4EEE7BA 		vcmpe.f32	s22, s15
 1178 061a F1EE10FA 		vmrs	APSR_nzcv, FPSCR
 1179 061e 00F3B380 		bgt	.L135
 1180 0622 9DED038A 		vldr.32	s16, [sp, #12]
 1181              	.LVL108:
 1182              		.loc 1 516 0
 1183 0626 4FF0000B 		mov	fp, #0
 1184 062a 31E7     		b	.L133
 1185              	.LVL109:
 1186              	.L154:
 1187              		.loc 1 592 0
 1188 062c B0EE6A0A 		vmov.f32	s0, s21
 1189 0630 FFF7FEFF 		bl	mc_interface_set_current
 1190              	.LVL110:
 1191 0634 FDE4     		b	.L35
 1192              	.LVL111:
 1193              	.L255:
 1194              	.LBE112:
 1195              		.loc 1 251 0
 1196 0636 0720     		movs	r0, #7
 1197 0638 FFF7FEFF 		bl	led_external_set_state
ARM GAS  C:\Users\euanm\AppData\Local\Temp\cc7lJ0NE.s 			page 22


 1198              	.LVL112:
 1199              		.loc 1 252 0
 1200 063c F9E4     		b	.L35
 1201              	.LVL113:
 1202              	.L261:
 1203              	.LBB113:
 1204              	.LBB71:
 1205              	.LBB67:
 1206              	.LBB65:
 1207              		.loc 1 554 0
 1208 063e 92ED090A 		vldr.32	s0, [r2, #36]
 1209 0642 9FEDC72A 		vldr.32	s4, .L270+4
 1210 0646 92ED081A 		vldr.32	s2, [r2, #32]
 1211 064a D2ED097A 		vldr.32	s15, [r2, #36]
 1212 064e 0190     		str	r0, [sp, #4]
 1213 0650 31EE671A 		vsub.f32	s2, s2, s15
 1214 0654 F0EE420A 		vmov.f32	s1, s4
 1215 0658 38EE400A 		vsub.f32	s0, s16, s0
 1216 065c F0EE6A1A 		vmov.f32	s3, s21
 1217 0660 0092     		str	r2, [sp]
 1218 0662 FFF7FEFF 		bl	utils_map
 1219              	.LVL114:
 1220              		.loc 1 555 0
 1221 0666 009A     		ldr	r2, [sp]
 1222 0668 9FEDBD2A 		vldr.32	s4, .L270+4
 1223 066c DDED031A 		vldr.32	s3, [sp, #12]
 1224              		.loc 1 554 0
 1225 0670 B0EE40CA 		vmov.f32	s24, s0
 1226              	.LVL115:
 1227              		.loc 1 555 0
 1228 0674 92ED090A 		vldr.32	s0, [r2, #36]
 1229              	.LVL116:
 1230 0678 92ED081A 		vldr.32	s2, [r2, #32]
 1231 067c D2ED097A 		vldr.32	s15, [r2, #36]
 1232 0680 38EE400A 		vsub.f32	s0, s16, s0
 1233 0684 31EE671A 		vsub.f32	s2, s2, s15
 1234 0688 F0EE420A 		vmov.f32	s1, s4
 1235 068c FFF7FEFF 		bl	utils_map
 1236              	.LVL117:
 1237 0690 0198     		ldr	r0, [sp, #4]
 1238 0692 0168     		ldr	r1, [r0]
 1239 0694 B0EE408A 		vmov.f32	s16, s0
 1240              	.LVL118:
 1241              	.L254:
 1242 0698 3B78     		ldrb	r3, [r7]	@ zero_extendqisi2
 1243              	.LBE65:
 1244              		.loc 1 562 0
 1245 069a 002B     		cmp	r3, #0
 1246 069c 7FF430AF 		bne	.L264
 1247              	.L147:
 1248              		.loc 1 569 0
 1249 06a0 2378     		ldrb	r3, [r4]	@ zero_extendqisi2
 1250 06a2 B04A     		ldr	r2, .L270+8
 1251 06a4 032B     		cmp	r3, #3
 1252              		.loc 1 570 0
 1253 06a6 C8B2     		uxtb	r0, r1
 1254              		.loc 1 569 0
ARM GAS  C:\Users\euanm\AppData\Local\Temp\cc7lJ0NE.s 			page 23


 1255 06a8 00F0F180 		beq	.L150
 1256              		.loc 1 569 0 is_stmt 0 discriminator 1
 1257 06ac 1378     		ldrb	r3, [r2]	@ zero_extendqisi2
 1258 06ae 042B     		cmp	r3, #4
 1259 06b0 00F0ED80 		beq	.L150
 1260              		.loc 1 572 0 is_stmt 1
 1261 06b4 B0EE4C0A 		vmov.f32	s0, s24
 1262 06b8 FFF7FEFF 		bl	comm_can_set_current
 1263              	.LVL119:
 1264 06bc 2EE7     		b	.L140
 1265              	.LVL120:
 1266              	.L256:
 1267              	.LBE67:
 1268              	.LBE71:
 1269              	.LBE113:
 1270              		.loc 1 283 0
 1271 06be 0520     		movs	r0, #5
 1272 06c0 FFF7FEFF 		bl	led_external_set_state
 1273              	.LVL121:
 1274 06c4 3CE5     		b	.L57
 1275              	.LVL122:
 1276              	.L263:
 1277              		.loc 1 291 0
 1278 06c6 0320     		movs	r0, #3
 1279 06c8 FFF7FEFF 		bl	led_external_set_state
 1280              	.LVL123:
 1281 06cc 38E5     		b	.L57
 1282              	.LVL124:
 1283              	.L82:
 1284              	.LBB114:
 1285              	.LBB79:
 1286              		.loc 1 366 0
 1287 06ce FFF7FEFF 		bl	mc_interface_get_duty_cycle_now
 1288              	.LVL125:
 1289              	.LBB80:
 1290              		.loc 1 368 0
 1291 06d2 4FF00009 		mov	r9, #0
 1292              	.LVL126:
 1293              	.LBE80:
 1294              		.loc 1 366 0
 1295 06d6 F0EE40AA 		vmov.f32	s21, s0
 1296              	.LVL127:
 1297              	.L85:
 1298              	.LBB92:
 1299              	.LBB81:
 1300              		.loc 1 369 0
 1301 06da 4846     		mov	r0, r9
 1302 06dc FFF7FEFF 		bl	comm_can_get_status_msg_index
 1303              	.LVL128:
 1304              		.loc 1 371 0
 1305 06e0 0268     		ldr	r2, [r0]
 1306 06e2 002A     		cmp	r2, #0
 1307              	.LBE81:
 1308              		.loc 1 368 0
 1309 06e4 09F10109 		add	r9, r9, #1
 1310              	.LVL129:
 1311              	.LBB90:
ARM GAS  C:\Users\euanm\AppData\Local\Temp\cc7lJ0NE.s 			page 24


 1312              		.loc 1 371 0
 1313 06e8 0EDB     		blt	.L83
 1314              	.LBB82:
 1315              	.LBB83:
 1316              	.LBB84:
 1317              	.LBB85:
 1318              		.loc 3 231 0 discriminator 1
 1319 06ea 9F4B     		ldr	r3, .L270+12
 1320              	.LBE85:
 1321              	.LBE84:
 1322              	.LBE83:
 1323              	.LBE82:
 1324              		.loc 1 371 0 discriminator 1
 1325 06ec 4168     		ldr	r1, [r0, #4]
 1326              	.LBB89:
 1327              	.LBB88:
 1328              	.LBB87:
 1329              	.LBB86:
 1330              		.loc 3 231 0 discriminator 1
 1331 06ee 9B6A     		ldr	r3, [r3, #40]
 1332              	.LVL130:
 1333              	.LBE86:
 1334              	.LBE87:
 1335              	.LBE88:
 1336              	.LBE89:
 1337              		.loc 1 371 0 discriminator 1
 1338 06f0 5B1A     		subs	r3, r3, r1
 1339 06f2 07EE903A 		vmov	s15, r3	@ int
 1340 06f6 F8EE677A 		vcvt.f32.u32	s15, s15
 1341 06fa 87EE8A7A 		vdiv.f32	s14, s15, s20
 1342 06fe B4EEE97A 		vcmpe.f32	s14, s19
 1343 0702 F1EE10FA 		vmrs	APSR_nzcv, FPSCR
 1344 0706 78D4     		bmi	.L265
 1345              	.LVL131:
 1346              	.L83:
 1347              	.LBE90:
 1348              		.loc 1 368 0 discriminator 2
 1349 0708 B9F1030F 		cmp	r9, #3
 1350 070c E5D1     		bne	.L85
 1351 070e 6BE5     		b	.L86
 1352              	.LVL132:
 1353              	.L257:
 1354              	.LBE92:
 1355              	.LBE79:
 1356              		.loc 1 323 0 discriminator 1
 1357 0710 F1EE10FA 		vmrs	APSR_nzcv, FPSCR
 1358 0714 7FF754AD 		ble	.L72
 1359              	.L71:
 1360              		.loc 1 324 0
 1361 0718 99ED407A 		vldr.32	s14, [r9, #256]
 1362 071c F0EEE77A 		vabs.f32	s15, s15
 1363 0720 F4EEC77A 		vcmpe.f32	s15, s14
 1364 0724 F1EE10FA 		vmrs	APSR_nzcv, FPSCR
 1365 0728 3FF783AC 		bgt	.L35
 1366              		.loc 1 328 0
 1367 072c 8B4A     		ldr	r2, .L270
 1368 072e 0023     		movs	r3, #0
ARM GAS  C:\Users\euanm\AppData\Local\Temp\cc7lJ0NE.s 			page 25


 1369 0730 1360     		str	r3, [r2]	@ float
 1370 0732 45E5     		b	.L72
 1371              	.LVL133:
 1372              	.L75:
 1373              		.loc 1 345 0
 1374 0734 66EE876A 		vmul.f32	s13, s13, s14
 1375              		.loc 1 341 0
 1376 0738 884B     		ldr	r3, .L270
 1377 073a 9FED896A 		vldr.32	s12, .L270+4
 1378 073e D3ED007A 		vldr.32	s15, [r3]
 1379              	.LVL134:
 1380              		.loc 1 345 0
 1381 0742 86EEA57A 		vdiv.f32	s14, s13, s11
 1382 0746 F4EE467A 		vcmp.f32	s15, s12
 1383 074a F1EE10FA 		vmrs	APSR_nzcv, FPSCR
 1384 074e 48BF     		it	mi
 1385 0750 F0EE467A 		vmovmi.f32	s15, s12
 1386 0754 77EE277A 		vadd.f32	s15, s14, s15
 1387 0758 C3ED007A 		vstr.32	s15, [r3]
 1388 075c 33E5     		b	.L74
 1389              	.LVL135:
 1390              	.L44:
 1391              	.LBE114:
 1392              		.loc 1 255 0 discriminator 9
 1393 075e F0EEC87A 		vabs.f32	s15, s16
 1394 0762 B1EE047A 		vmov.f32	s14, #5.0e+0
 1395 0766 F4EEC77A 		vcmpe.f32	s15, s14
 1396 076a F1EE10FA 		vmrs	APSR_nzcv, FPSCR
 1397 076e 7FF58CAC 		bpl	.L43
 1398              		.loc 1 257 0
 1399 0772 3B78     		ldrb	r3, [r7]	@ zero_extendqisi2
 1400 0774 7D4A     		ldr	r2, .L270+16
 1401 0776 002B     		cmp	r3, #0
 1402 0778 00F00481 		beq	.L46
 1403              		.loc 1 258 0
 1404 077c 0020     		movs	r0, #0
 1405 077e 1070     		strb	r0, [r2]
 1406 0780 84E4     		b	.L42
 1407              	.LVL136:
 1408              	.L169:
 1409              	.LBB115:
 1410              	.LBB72:
 1411 0782 F0EE4CAA 		vmov.f32	s21, s24
 1412              	.LVL137:
 1413 0786 DDE6     		b	.L139
 1414              	.LVL138:
 1415              	.L135:
 1416              	.LBE72:
 1417              		.loc 1 527 0
 1418 0788 DDED031A 		vldr.32	s3, [sp, #12]
 1419 078c F5EEC01A 		vcmpe.f32	s3, #0
 1420 0790 F1EE10FA 		vmrs	APSR_nzcv, FPSCR
 1421 0794 40F3C080 		ble	.L249
 1422              	.LVL139:
 1423              		.loc 1 529 0
 1424 0798 D3ED020A 		vldr.32	s1, [r3, #8]
 1425 079c 9FED742A 		vldr.32	s4, .L270+20
ARM GAS  C:\Users\euanm\AppData\Local\Temp\cc7lJ0NE.s 			page 26


 1426 07a0 93ED031A 		vldr.32	s2, [r3, #12]
 1427 07a4 B0EE4B0A 		vmov.f32	s0, s22
 1428 07a8 FFF7FEFF 		bl	utils_map
 1429              	.LVL140:
 1430              		.loc 1 528 0
 1431 07ac 4FF0010B 		mov	fp, #1
 1432              		.loc 1 529 0
 1433 07b0 8DED030A 		vstr.32	s0, [sp, #12]
 1434              	.LVL141:
 1435              	.L136:
 1436              		.loc 1 531 0
 1437 07b4 F5EEC0AA 		vcmpe.f32	s21, #0
 1438 07b8 F1EE10FA 		vmrs	APSR_nzcv, FPSCR
 1439 07bc 11DD     		ble	.L253
 1440              		.loc 1 532 0
 1441 07be D4ED020A 		vldr.32	s1, [r4, #8]
 1442 07c2 9FED672A 		vldr.32	s4, .L270+4
 1443 07c6 94ED031A 		vldr.32	s2, [r4, #12]
 1444 07ca F0EE6A1A 		vmov.f32	s3, s21
 1445 07ce B0EE4B0A 		vmov.f32	s0, s22
 1446 07d2 FFF7FEFF 		bl	utils_map
 1447              	.LVL142:
 1448 07d6 D9ED470A 		vldr.32	s1, [r9, #284]
 1449 07da FFF7FEFF 		bl	utils_highest_of_2
 1450              	.LVL143:
 1451 07de F0EE40AA 		vmov.f32	s21, s0
 1452              	.LVL144:
 1453              	.L253:
 1454 07e2 9DED038A 		vldr.32	s16, [sp, #12]
 1455              	.LVL145:
 1456 07e6 53E6     		b	.L133
 1457              	.LVL146:
 1458              	.L242:
 1459              	.LBE115:
 1460              		.loc 1 409 0
 1461 07e8 D9ED02AA 		vldr.32	s21, [r9, #8]
 1462 07ec F0EEEAAA 		vabs.f32	s21, s21
 1463 07f0 6AEEA7AA 		vmul.f32	s21, s21, s15
 1464              	.LVL147:
 1465 07f4 B0EEEACA 		vabs.f32	s24, s21
 1466 07f8 6AE5     		b	.L87
 1467              	.LVL148:
 1468              	.L265:
 1469              	.LBB116:
 1470              	.LBB94:
 1471              	.LBB93:
 1472              	.LBB91:
 1473              		.loc 1 372 0
 1474 07fa D0B2     		uxtb	r0, r2
 1475              	.LVL149:
 1476 07fc B0EE6A0A 		vmov.f32	s0, s21
 1477 0800 FFF7FEFF 		bl	comm_can_set_duty
 1478              	.LVL150:
 1479 0804 80E7     		b	.L83
 1480              	.LVL151:
 1481              	.L235:
 1482              	.LBE91:
ARM GAS  C:\Users\euanm\AppData\Local\Temp\cc7lJ0NE.s 			page 27


 1483              	.LBE93:
 1484              	.LBE94:
 1485              	.LBE116:
 1486              		.loc 1 275 0
 1487 0806 F1EE600A 		vneg.f32	s1, s1
 1488 080a 92ED0E0A 		vldr.32	s0, [r2, #56]
 1489 080e 5949     		ldr	r1, .L270+24
 1490 0810 5948     		ldr	r0, .L270+28
 1491 0812 FFF7FEFF 		bl	calculate_throttle_curve_chuk
 1492              	.LVL152:
 1493 0816 F1EE400A 		vneg.f32	s1, s0
 1494 081a CDED030A 		vstr.32	s1, [sp, #12]
 1495 081e 6CE4     		b	.L50
 1496              	.LVL153:
 1497              	.L260:
 1498              		.loc 1 498 0
 1499 0820 B0EE6A0A 		vmov.f32	s0, s21
 1500 0824 FFF7FEFF 		bl	mc_interface_set_brake_current
 1501              	.LVL154:
 1502              		.loc 1 500 0
 1503 0828 237F     		ldrb	r3, [r4, #28]	@ zero_extendqisi2
 1504 082a 002B     		cmp	r3, #0
 1505 082c 3FF401AC 		beq	.L35
 1506              	.LBB117:
 1507              	.LBB118:
 1508              		.loc 1 506 0
 1509 0830 DFF830B1 		ldr	fp, .L270+8
 1510              	.LBE118:
 1511              	.LBE117:
 1512 0834 4FF00009 		mov	r9, #0
 1513              	.LVL155:
 1514              	.L127:
 1515              	.LBB129:
 1516              	.LBB127:
 1517              		.loc 1 503 0
 1518 0838 4846     		mov	r0, r9
 1519 083a FFF7FEFF 		bl	comm_can_get_status_msg_index
 1520              	.LVL156:
 1521              		.loc 1 505 0
 1522 083e 0268     		ldr	r2, [r0]
 1523 0840 002A     		cmp	r2, #0
 1524 0842 1DDB     		blt	.L123
 1525              	.LBB119:
 1526              	.LBB120:
 1527              	.LBB121:
 1528              	.LBB122:
 1529              		.loc 3 231 0 discriminator 1
 1530 0844 484B     		ldr	r3, .L270+12
 1531              	.LBE122:
 1532              	.LBE121:
 1533              	.LBE120:
 1534              	.LBE119:
 1535              		.loc 1 505 0 discriminator 1
 1536 0846 4168     		ldr	r1, [r0, #4]
 1537              	.LBB126:
 1538              	.LBB125:
 1539              	.LBB124:
ARM GAS  C:\Users\euanm\AppData\Local\Temp\cc7lJ0NE.s 			page 28


 1540              	.LBB123:
 1541              		.loc 3 231 0 discriminator 1
 1542 0848 9B6A     		ldr	r3, [r3, #40]
 1543              	.LVL157:
 1544              	.LBE123:
 1545              	.LBE124:
 1546              	.LBE125:
 1547              	.LBE126:
 1548              		.loc 1 505 0 discriminator 1
 1549 084a 5B1A     		subs	r3, r3, r1
 1550 084c 07EE903A 		vmov	s15, r3	@ int
 1551 0850 F8EE677A 		vcvt.f32.u32	s15, s15
 1552 0854 87EE8A7A 		vdiv.f32	s14, s15, s20
 1553 0858 B4EEE97A 		vcmpe.f32	s14, s19
 1554 085c F1EE10FA 		vmrs	APSR_nzcv, FPSCR
 1555 0860 0ED5     		bpl	.L123
 1556              		.loc 1 506 0
 1557 0862 2378     		ldrb	r3, [r4]	@ zero_extendqisi2
 1558 0864 032B     		cmp	r3, #3
 1559              		.loc 1 507 0
 1560 0866 D0B2     		uxtb	r0, r2
 1561              	.LVL158:
 1562              		.loc 1 509 0
 1563 0868 B0EE6A0A 		vmov.f32	s0, s21
 1564              		.loc 1 506 0
 1565 086c 00F08E80 		beq	.L125
 1566              	.LVL159:
 1567              		.loc 1 506 0 is_stmt 0 discriminator 1
 1568 0870 9BF80030 		ldrb	r3, [fp]	@ zero_extendqisi2
 1569 0874 042B     		cmp	r3, #4
 1570 0876 00F08980 		beq	.L125
 1571              		.loc 1 509 0 is_stmt 1
 1572 087a D0B2     		uxtb	r0, r2
 1573 087c FFF7FEFF 		bl	comm_can_set_current_brake
 1574              	.LVL160:
 1575              	.L123:
 1576              	.LBE127:
 1577              		.loc 1 502 0 discriminator 2
 1578 0880 09F10109 		add	r9, r9, #1
 1579              	.LVL161:
 1580 0884 B9F1030F 		cmp	r9, #3
 1581 0888 D6D1     		bne	.L127
 1582 088a FFF7D2BB 		b	.L35
 1583              	.LVL162:
 1584              	.L150:
 1585              	.LBE129:
 1586              	.LBB130:
 1587              	.LBB73:
 1588              	.LBB68:
 1589              		.loc 1 570 0
 1590 088e 5946     		mov	r1, fp
 1591 0890 B0EE480A 		vmov.f32	s0, s16
 1592 0894 FFF7FEFF 		bl	comm_can_set_servo
 1593              	.LVL163:
 1594 0898 40E6     		b	.L140
 1595              	.L148:
 1596              		.loc 1 564 0
ARM GAS  C:\Users\euanm\AppData\Local\Temp\cc7lJ0NE.s 			page 29


 1597 089a 5946     		mov	r1, fp
 1598 089c B1EE480A 		vneg.f32	s0, s16
 1599 08a0 FFF7FEFF 		bl	comm_can_set_servo
 1600              	.LVL164:
 1601 08a4 3AE6     		b	.L140
 1602              	.LVL165:
 1603              	.L111:
 1604              	.LBE68:
 1605              	.LBE73:
 1606              	.LBE130:
 1607              	.LBB131:
 1608              		.loc 1 478 0
 1609 08a6 3CEE487A 		vsub.f32	s14, s24, s16
 1610 08aa F1EE046A 		vmov.f32	s13, #5.0e+0
 1611 08ae B0EEC77A 		vabs.f32	s14, s14
 1612 08b2 B4EEE67A 		vcmpe.f32	s14, s13
 1613 08b6 F1EE10FA 		vmrs	APSR_nzcv, FPSCR
 1614 08ba 7FF7A3AD 		ble	.L112
 1615              		.loc 1 479 0
 1616 08be 7DEE0D0A 		vadd.f32	s1, s26, s26
 1617 08c2 B0EE480A 		vmov.f32	s0, s16
 1618 08c6 05A8     		add	r0, sp, #20
 1619 08c8 FFF7FEFF 		bl	utils_step_towards
 1620              	.LVL166:
 1621              	.L114:
 1622              		.loc 1 485 0
 1623 08cc F4EECCCA 		vcmpe.f32	s25, s24
 1624 08d0 F1EE10FA 		vmrs	APSR_nzcv, FPSCR
 1625              		.loc 1 484 0
 1626 08d4 9DED057A 		vldr.32	s14, [sp, #20]
 1627 08d8 DDED047A 		vldr.32	s15, [sp, #16]
 1628              	.LVL167:
 1629              		.loc 1 485 0
 1630 08dc 04DD     		ble	.L164
 1631              		.loc 1 485 0 is_stmt 0 discriminator 2
 1632 08de B4EEE77A 		vcmpe.f32	s14, s15
 1633 08e2 F1EE10FA 		vmrs	APSR_nzcv, FPSCR
 1634 08e6 20D5     		bpl	.L252
 1635              	.L164:
 1636              		.loc 1 484 0 is_stmt 1
 1637 08e8 B0EE47CA 		vmov.f32	s24, s14
 1638 08ec 90E5     		b	.L116
 1639              	.LVL168:
 1640              	.L95:
 1641              	.LBE131:
 1642              		.loc 1 405 0
 1643 08ee 99ED01BA 		vldr.32	s22, [r9, #4]
 1644              		.loc 1 406 0
 1645 08f2 D9ED03AA 		vldr.32	s21, [r9, #12]
 1646              		.loc 1 405 0
 1647 08f6 27EE8BBA 		vmul.f32	s22, s15, s22
 1648              		.loc 1 406 0
 1649 08fa 67EEAAAA 		vmul.f32	s21, s15, s21
 1650 08fe FFF7FEFF 		bl	mc_interface_get_duty_cycle_for_watt_calculation
 1651              	.LVL169:
 1652              		.loc 1 405 0
 1653 0902 CAEE800A 		vdiv.f32	s1, s21, s0
ARM GAS  C:\Users\euanm\AppData\Local\Temp\cc7lJ0NE.s 			page 30


 1654 0906 B0EE4B0A 		vmov.f32	s0, s22
 1655 090a FFF7FEFF 		bl	utils_smallest_of_2
 1656              	.LVL170:
 1657 090e F0EE40AA 		vmov.f32	s21, s0
 1658              	.LVL171:
 1659 0912 B0EEC0CA 		vabs.f32	s24, s0
 1660 0916 DBE4     		b	.L87
 1661              	.LVL172:
 1662              	.L249:
 1663              	.LBB132:
 1664              		.loc 1 516 0
 1665 0918 4FF0000B 		mov	fp, #0
 1666 091c 4AE7     		b	.L136
 1667              	.LVL173:
 1668              	.L258:
 1669              	.LBE132:
 1670              	.LBB133:
 1671              		.loc 1 460 0
 1672 091e 174B     		ldr	r3, .L270+32
 1673 0920 F0EE46CA 		vmov.f32	s25, s12
 1674 0924 83ED006A 		vstr.32	s12, [r3]
 1675 0928 43E5     		b	.L109
 1676              	.LVL174:
 1677              	.L252:
 1678 092a DDED036A 		vldr.32	s13, [sp, #12]
 1679 092e 7CE5     		b	.L118
 1680              	.LVL175:
 1681              	.L262:
 1682              	.LBE133:
 1683              	.LBB134:
 1684              	.LBB74:
 1685              		.loc 1 582 0
 1686 0930 92ED090A 		vldr.32	s0, [r2, #36]
 1687 0934 9FED0A2A 		vldr.32	s4, .L270+4
 1688 0938 92ED081A 		vldr.32	s2, [r2, #32]
 1689 093c D2ED097A 		vldr.32	s15, [r2, #36]
 1690 0940 F0EE6A1A 		vmov.f32	s3, s21
 1691 0944 3BEE400A 		vsub.f32	s0, s22, s0
 1692 0948 31EE671A 		vsub.f32	s2, s2, s15
 1693 094c F0EE420A 		vmov.f32	s1, s4
 1694 0950 FFF7FEFF 		bl	utils_map
 1695              	.LVL176:
 1696 0954 F0EE40AA 		vmov.f32	s21, s0
 1697              	.LVL177:
 1698 0958 F4E5     		b	.L139
 1699              	.L271:
 1700 095a 00BF     		.align	2
 1701              	.L270:
 1702 095c 00000000 		.word	.LANCHOR13
 1703 0960 00000000 		.word	0
 1704 0964 00000000 		.word	.LANCHOR1
 1705 0968 00000000 		.word	ch
 1706 096c 00000000 		.word	.LANCHOR3
 1707 0970 BD378635 		.word	897988541
 1708 0974 00000000 		.word	.LANCHOR8
 1709 0978 00000000 		.word	.LANCHOR9
 1710 097c 00000000 		.word	.LANCHOR14
ARM GAS  C:\Users\euanm\AppData\Local\Temp\cc7lJ0NE.s 			page 31


 1711 0980 00000000 		.word	0
 1712              	.LVL178:
 1713              	.L46:
 1714              	.LBE74:
 1715              	.LBE134:
 1716              		.loc 1 260 0
 1717 0984 0123     		movs	r3, #1
 1718 0986 1370     		strb	r3, [r2]
 1719 0988 FFF780BB 		b	.L42
 1720              	.LVL179:
 1721              	.L125:
 1722              	.LBB135:
 1723              	.LBB128:
 1724              		.loc 1 507 0
 1725 098c 9DED030A 		vldr.32	s0, [sp, #12]
 1726              	.LVL180:
 1727 0990 FFF7FEFF 		bl	comm_can_set_brake_servo
 1728              	.LVL181:
 1729 0994 74E7     		b	.L123
 1730              	.LVL182:
 1731              	.L259:
 1732              	.LBE128:
 1733              	.LBE135:
 1734              	.LBB136:
 1735              		.loc 1 475 0
 1736 0996 7DEE0D0A 		vadd.f32	s1, s26, s26
 1737 099a B1EE480A 		vneg.f32	s0, s16
 1738 099e 05A8     		add	r0, sp, #20
 1739 09a0 FFF7FEFF 		bl	utils_step_towards
 1740              	.LVL183:
 1741 09a4 92E7     		b	.L114
 1742              	.LVL184:
 1743              	.L159:
 1744              	.LBE136:
 1745              		.loc 1 389 0
 1746 09a6 1FED0ACA 		vldr.32	s24, .L270+36
 1747              		.loc 1 386 0
 1748 09aa F0EE4CAA 		vmov.f32	s21, s24
 1749 09ae 8FE4     		b	.L87
 1750              	.LBE138:
 1751              		.cfi_endproc
 1752              	.LFE262:
 1753              		.size	output_thread, .-output_thread
 1754              		.section	.text.app_nunchuk_configure,"ax",%progbits
 1755              		.align	2
 1756              		.p2align 4,,15
 1757              		.global	app_nunchuk_configure
 1758              		.thumb
 1759              		.thumb_func
 1760              		.type	app_nunchuk_configure, %function
 1761              	app_nunchuk_configure:
 1762              	.LFB257:
 1763              		.loc 1 96 0
 1764              		.cfi_startproc
 1765              		@ args = 0, pretend = 0, frame = 0
 1766              		@ frame_needed = 0, uses_anonymous_args = 0
 1767              	.LVL185:
ARM GAS  C:\Users\euanm\AppData\Local\Temp\cc7lJ0NE.s 			page 32


 1768 0000 F0B5     		push	{r4, r5, r6, r7, lr}
 1769              		.cfi_def_cfa_offset 20
 1770              		.cfi_offset 4, -20
 1771              		.cfi_offset 5, -16
 1772              		.cfi_offset 6, -12
 1773              		.cfi_offset 7, -8
 1774              		.cfi_offset 14, -4
 1775              		.loc 1 97 0
 1776 0002 0646     		mov	r6, r0
 1777              		.loc 1 96 0
 1778 0004 0C46     		mov	r4, r1
 1779              		.loc 1 97 0
 1780 0006 0FCE     		ldmia	r6!, {r0, r1, r2, r3}
 1781              	.LVL186:
 1782 0008 1E4D     		ldr	r5, .L274
 1783              		.loc 1 98 0
 1784 000a 1F4F     		ldr	r7, .L274+4
 1785              		.loc 1 97 0
 1786 000c 0FC5     		stmia	r5!, {r0, r1, r2, r3}
 1787 000e 0FCE     		ldmia	r6!, {r0, r1, r2, r3}
 1788              	.LVL187:
 1789 0010 0FC5     		stmia	r5!, {r0, r1, r2, r3}
 1790 0012 96E80700 		ldmia	r6, {r0, r1, r2}
 1791 0016 85E80700 		stmia	r5, {r0, r1, r2}
 1792              		.loc 1 98 0
 1793 001a 0FCC     		ldmia	r4!, {r0, r1, r2, r3}
 1794              	.LVL188:
 1795 001c 3D46     		mov	r5, r7
 1796 001e 0FC5     		stmia	r5!, {r0, r1, r2, r3}
 1797 0020 0FCC     		ldmia	r4!, {r0, r1, r2, r3}
 1798              	.LVL189:
 1799 0022 0FC5     		stmia	r5!, {r0, r1, r2, r3}
 1800 0024 0FCC     		ldmia	r4!, {r0, r1, r2, r3}
 1801              	.LVL190:
 1802 0026 0FC5     		stmia	r5!, {r0, r1, r2, r3}
 1803 0028 94E80700 		ldmia	r4, {r0, r1, r2}
 1804 002c 85E80700 		stmia	r5, {r0, r1, r2}
 1805              		.loc 1 100 0
 1806 0030 164B     		ldr	r3, .L274+8
 1807              		.loc 1 101 0
 1808 0032 3D69     		ldr	r5, [r7, #16]	@ float
 1809              		.loc 1 105 0
 1810 0034 1649     		ldr	r1, .L274+12
 1811              		.loc 1 102 0
 1812 0036 7869     		ldr	r0, [r7, #20]	@ float
 1813 0038 9860     		str	r0, [r3, #8]	@ float
 1814              		.loc 1 103 0
 1815 003a BE69     		ldr	r6, [r7, #24]	@ float
 1816              	.LVL191:
 1817              		.loc 1 106 0
 1818 003c 7A68     		ldr	r2, [r7, #4]	@ float
 1819              		.loc 1 101 0
 1820 003e 5D60     		str	r5, [r3, #4]	@ float
 1821              		.loc 1 100 0
 1822 0040 0024     		movs	r4, #0
 1823              	.LVL192:
 1824              		.loc 1 104 0
ARM GAS  C:\Users\euanm\AppData\Local\Temp\cc7lJ0NE.s 			page 33


 1825 0042 4FF07E50 		mov	r0, #1065353216
 1826              		.loc 1 107 0
 1827 0046 BD68     		ldr	r5, [r7, #8]	@ float
 1828              		.loc 1 103 0
 1829 0048 DE60     		str	r6, [r3, #12]	@ float
 1830              		.loc 1 106 0
 1831 004a 4A60     		str	r2, [r1, #4]	@ float
 1832              		.loc 1 100 0
 1833 004c 1C60     		str	r4, [r3]	@ float
 1834              		.loc 1 111 0
 1835 004e 114A     		ldr	r2, .L274+16
 1836              		.loc 1 105 0
 1837 0050 0C60     		str	r4, [r1]	@ float
 1838              		.loc 1 104 0
 1839 0052 1861     		str	r0, [r3, #16]	@ float
 1840              		.loc 1 108 0
 1841 0054 FE68     		ldr	r6, [r7, #12]	@ float
 1842              		.loc 1 116 0
 1843 0056 104B     		ldr	r3, .L274+20
 1844              		.loc 1 107 0
 1845 0058 8D60     		str	r5, [r1, #8]	@ float
 1846              		.loc 1 108 0
 1847 005a CE60     		str	r6, [r1, #12]	@ float
 1848              		.loc 1 112 0
 1849 005c FD6A     		ldr	r5, [r7, #44]	@ float
 1850              		.loc 1 109 0
 1851 005e 0861     		str	r0, [r1, #16]	@ float
 1852              		.loc 1 113 0
 1853 0060 396B     		ldr	r1, [r7, #48]	@ float
 1854              		.loc 1 112 0
 1855 0062 5560     		str	r5, [r2, #4]	@ float
 1856              		.loc 1 114 0
 1857 0064 D7F834E0 		ldr	lr, [r7, #52]	@ float
 1858              		.loc 1 113 0
 1859 0068 9160     		str	r1, [r2, #8]	@ float
 1860              		.loc 1 117 0
 1861 006a 3E6A     		ldr	r6, [r7, #32]	@ float
 1862              		.loc 1 118 0
 1863 006c 7D6A     		ldr	r5, [r7, #36]	@ float
 1864              		.loc 1 119 0
 1865 006e B96A     		ldr	r1, [r7, #40]	@ float
 1866              		.loc 1 111 0
 1867 0070 1460     		str	r4, [r2]	@ float
 1868              		.loc 1 115 0
 1869 0072 1061     		str	r0, [r2, #16]	@ float
 1870              		.loc 1 114 0
 1871 0074 C2F80CE0 		str	lr, [r2, #12]	@ float
 1872              		.loc 1 116 0
 1873 0078 1C60     		str	r4, [r3]	@ float
 1874              		.loc 1 120 0
 1875 007a 1861     		str	r0, [r3, #16]	@ float
 1876              		.loc 1 117 0
 1877 007c 5E60     		str	r6, [r3, #4]	@ float
 1878              		.loc 1 118 0
 1879 007e 9D60     		str	r5, [r3, #8]	@ float
 1880              		.loc 1 119 0
 1881 0080 D960     		str	r1, [r3, #12]	@ float
ARM GAS  C:\Users\euanm\AppData\Local\Temp\cc7lJ0NE.s 			page 34


 1882 0082 F0BD     		pop	{r4, r5, r6, r7, pc}
 1883              	.L275:
 1884              		.align	2
 1885              	.L274:
 1886 0084 00000000 		.word	.LANCHOR1
 1887 0088 00000000 		.word	.LANCHOR5
 1888 008c 00000000 		.word	.LANCHOR7
 1889 0090 00000000 		.word	.LANCHOR6
 1890 0094 00000000 		.word	.LANCHOR9
 1891 0098 00000000 		.word	.LANCHOR8
 1892              		.cfi_endproc
 1893              	.LFE257:
 1894              		.size	app_nunchuk_configure, .-app_nunchuk_configure
 1895              		.section	.text.app_nunchuk_start,"ax",%progbits
 1896              		.align	2
 1897              		.p2align 4,,15
 1898              		.global	app_nunchuk_start
 1899              		.thumb
 1900              		.thumb_func
 1901              		.type	app_nunchuk_start, %function
 1902              	app_nunchuk_start:
 1903              	.LFB258:
 1904              		.loc 1 123 0
 1905              		.cfi_startproc
 1906              		@ args = 0, pretend = 0, frame = 0
 1907              		@ frame_needed = 0, uses_anonymous_args = 0
 1908 0000 30B5     		push	{r4, r5, lr}
 1909              		.cfi_def_cfa_offset 12
 1910              		.cfi_offset 4, -12
 1911              		.cfi_offset 5, -8
 1912              		.cfi_offset 14, -4
 1913 0002 83B0     		sub	sp, sp, #12
 1914              		.cfi_def_cfa_offset 24
 1915              		.loc 1 124 0
 1916 0004 064C     		ldr	r4, .L278
 1917              		.loc 1 125 0
 1918 0006 074B     		ldr	r3, .L278+4
 1919 0008 0748     		ldr	r0, .L278+8
 1920 000a 0022     		movs	r2, #0
 1921 000c 0092     		str	r2, [sp]
 1922              		.loc 1 124 0
 1923 000e 8025     		movs	r5, #128
 1924              		.loc 1 125 0
 1925 0010 4022     		movs	r2, #64
 1926 0012 4FF4B361 		mov	r1, #1432
 1927              		.loc 1 124 0
 1928 0016 6560     		str	r5, [r4, #4]
 1929              		.loc 1 125 0
 1930 0018 FFF7FEFF 		bl	chThdCreateStatic
 1931              	.LVL193:
 1932              		.loc 1 126 0
 1933 001c 03B0     		add	sp, sp, #12
 1934              		.cfi_def_cfa_offset 12
 1935              		@ sp needed
 1936 001e 30BD     		pop	{r4, r5, pc}
 1937              	.L279:
 1938              		.align	2
ARM GAS  C:\Users\euanm\AppData\Local\Temp\cc7lJ0NE.s 			page 35


 1939              	.L278:
 1940 0020 00000000 		.word	.LANCHOR2
 1941 0024 00000000 		.word	chuk_thread
 1942 0028 00000000 		.word	.LANCHOR15
 1943              		.cfi_endproc
 1944              	.LFE258:
 1945              		.size	app_nunchuk_start, .-app_nunchuk_start
 1946              		.section	.text.app_nunchuk_get_decoded_chuk,"ax",%progbits
 1947              		.align	2
 1948              		.p2align 4,,15
 1949              		.global	app_nunchuk_get_decoded_chuk
 1950              		.thumb
 1951              		.thumb_func
 1952              		.type	app_nunchuk_get_decoded_chuk, %function
 1953              	app_nunchuk_get_decoded_chuk:
 1954              	.LFB259:
 1955              		.loc 1 128 0
 1956              		.cfi_startproc
 1957              		@ args = 0, pretend = 0, frame = 0
 1958              		@ frame_needed = 0, uses_anonymous_args = 0
 1959              		@ link register save eliminated.
 1960              		.loc 1 129 0
 1961 0000 064B     		ldr	r3, .L281
 1962 0002 9FED077A 		vldr.32	s14, .L281+4
 1963 0006 D3ED017A 		vldr.32	s15, [r3, #4]	@ int
 1964 000a 9FED060A 		vldr.32	s0, .L281+8
 1965 000e F8EEE77A 		vcvt.f32.s32	s15, s15
 1966 0012 77EEC77A 		vsub.f32	s15, s15, s14
 1967              		.loc 1 130 0
 1968 0016 27EE800A 		vmul.f32	s0, s15, s0
 1969 001a 7047     		bx	lr
 1970              	.L282:
 1971              		.align	2
 1972              	.L281:
 1973 001c 00000000 		.word	.LANCHOR2
 1974 0020 00000043 		.word	1124073472
 1975 0024 0000003C 		.word	1006632960
 1976              		.cfi_endproc
 1977              	.LFE259:
 1978              		.size	app_nunchuk_get_decoded_chuk, .-app_nunchuk_get_decoded_chuk
 1979              		.section	.text.app_nunchuk_update_output,"ax",%progbits
 1980              		.align	2
 1981              		.p2align 4,,15
 1982              		.global	app_nunchuk_update_output
 1983              		.thumb
 1984              		.thumb_func
 1985              		.type	app_nunchuk_update_output, %function
 1986              	app_nunchuk_update_output:
 1987              	.LFB260:
 1988              		.loc 1 132 0
 1989              		.cfi_startproc
 1990              		@ args = 0, pretend = 0, frame = 0
 1991              		@ frame_needed = 0, uses_anonymous_args = 0
 1992              	.LVL194:
 1993 0000 70B5     		push	{r4, r5, r6, lr}
 1994              		.cfi_def_cfa_offset 16
 1995              		.cfi_offset 4, -16
ARM GAS  C:\Users\euanm\AppData\Local\Temp\cc7lJ0NE.s 			page 36


 1996              		.cfi_offset 5, -12
 1997              		.cfi_offset 6, -8
 1998              		.cfi_offset 14, -4
 1999              		.loc 1 133 0
 2000 0002 104A     		ldr	r2, .L287
 2001 0004 1378     		ldrb	r3, [r2]	@ zero_extendqisi2
 2002              		.loc 1 132 0
 2003 0006 82B0     		sub	sp, sp, #8
 2004              		.cfi_def_cfa_offset 24
 2005              		.loc 1 132 0
 2006 0008 0446     		mov	r4, r0
 2007              		.loc 1 133 0
 2008 000a 73B9     		cbnz	r3, .L284
 2009 000c 03F0FF01 		and	r1, r3, #255
 2010              		.loc 1 136 0
 2011 0010 0091     		str	r1, [sp]
 2012              		.loc 1 135 0
 2013 0012 0D4D     		ldr	r5, .L287+4
 2014              		.loc 1 136 0
 2015 0014 0D4B     		ldr	r3, .L287+8
 2016 0016 0E48     		ldr	r0, .L287+12
 2017              	.LVL195:
 2018              		.loc 1 134 0
 2019 0018 0121     		movs	r1, #1
 2020 001a 1170     		strb	r1, [r2]
 2021              		.loc 1 135 0
 2022 001c 8026     		movs	r6, #128
 2023              		.loc 1 136 0
 2024 001e 4022     		movs	r2, #64
 2025 0020 4FF4B361 		mov	r1, #1432
 2026              		.loc 1 135 0
 2027 0024 6E60     		str	r6, [r5, #4]
 2028              		.loc 1 136 0
 2029 0026 FFF7FEFF 		bl	chThdCreateStatic
 2030              	.LVL196:
 2031              	.L284:
 2032              		.loc 1 139 0
 2033 002a 0FCC     		ldmia	r4!, {r0, r1, r2, r3}
 2034              	.LVL197:
 2035 002c 064D     		ldr	r5, .L287+4
 2036 002e 0FC5     		stmia	r5!, {r0, r1, r2, r3}
 2037 0030 94E80300 		ldmia	r4, {r0, r1}
 2038 0034 85E80300 		stmia	r5, {r0, r1}
 2039              		.loc 1 141 0
 2040 0038 02B0     		add	sp, sp, #8
 2041              		.cfi_def_cfa_offset 16
 2042              		@ sp needed
 2043 003a BDE87040 		pop	{r4, r5, r6, lr}
 2044              		.cfi_restore 14
 2045              		.cfi_restore 6
 2046              		.cfi_restore 5
 2047              		.cfi_restore 4
 2048              		.cfi_def_cfa_offset 0
 2049              	.LVL198:
 2050              		.loc 1 140 0
 2051 003e FFF7FEBF 		b	timeout_reset
 2052              	.LVL199:
ARM GAS  C:\Users\euanm\AppData\Local\Temp\cc7lJ0NE.s 			page 37


 2053              	.L288:
 2054 0042 00BF     		.align	2
 2055              	.L287:
 2056 0044 00000000 		.word	.LANCHOR16
 2057 0048 00000000 		.word	.LANCHOR2
 2058 004c 00000000 		.word	output_thread
 2059 0050 00000000 		.word	.LANCHOR17
 2060              		.cfi_endproc
 2061              	.LFE260:
 2062              		.size	app_nunchuk_update_output, .-app_nunchuk_update_output
 2063              		.section	.text.chuk_thread,"ax",%progbits
 2064              		.align	2
 2065              		.p2align 4,,15
 2066              		.thumb
 2067              		.thumb_func
 2068              		.type	chuk_thread, %function
 2069              	chuk_thread:
 2070              	.LFB261:
 2071              		.loc 1 143 0
 2072              		.cfi_startproc
 2073              		@ args = 0, pretend = 0, frame = 48
 2074              		@ frame_needed = 0, uses_anonymous_args = 0
 2075              	.LVL200:
 2076 0000 2DE9F04F 		push	{r4, r5, r6, r7, r8, r9, r10, fp, lr}
 2077              		.cfi_def_cfa_offset 36
 2078              		.cfi_offset 4, -36
 2079              		.cfi_offset 5, -32
 2080              		.cfi_offset 6, -28
 2081              		.cfi_offset 7, -24
 2082              		.cfi_offset 8, -20
 2083              		.cfi_offset 9, -16
 2084              		.cfi_offset 10, -12
 2085              		.cfi_offset 11, -8
 2086              		.cfi_offset 14, -4
 2087              	.LBB139:
 2088              	.LBB140:
 2089              		.loc 2 135 0
 2090 0004 654B     		ldr	r3, .L303
 2091 0006 6649     		ldr	r1, .L303+4
 2092 0008 9A69     		ldr	r2, [r3, #24]
 2093              	.LBE140:
 2094              	.LBE139:
 2095              		.loc 1 147 0
 2096 000a 664B     		ldr	r3, .L303+8
 2097              	.LBB142:
 2098              	.LBB141:
 2099              		.loc 2 135 0
 2100 000c 9161     		str	r1, [r2, #24]
 2101              	.LVL201:
 2102              	.LBE141:
 2103              	.LBE142:
 2104              		.loc 1 143 0
 2105 000e 91B0     		sub	sp, sp, #68
 2106              		.cfi_def_cfa_offset 104
 2107              		.loc 1 147 0
 2108 0010 0122     		movs	r2, #1
 2109 0012 DFF89C81 		ldr	r8, .L303+20
ARM GAS  C:\Users\euanm\AppData\Local\Temp\cc7lJ0NE.s 			page 38


 2110 0016 1A70     		strb	r2, [r3]
 2111              	.LVL202:
 2112              		.loc 1 156 0
 2113 0018 FFF7FEFF 		bl	hw_start_i2c
 2114              	.LVL203:
 2115              		.loc 1 157 0
 2116 001c 6420     		movs	r0, #100
 2117 001e FFF7FEFF 		bl	chThdSleep
 2118              	.LVL204:
 2119 0022 614D     		ldr	r5, .L303+12
 2120 0024 08F10409 		add	r9, r8, #4
 2121 0028 04AC     		add	r4, sp, #16
 2122              	.LBB143:
 2123              		.loc 1 162 0
 2124 002a F027     		movs	r7, #240
 2125              		.loc 1 163 0
 2126 002c 5526     		movs	r6, #85
 2127 002e 0AE0     		b	.L296
 2128              	.LVL205:
 2129              	.L291:
 2130              		.loc 1 224 0
 2131 0030 0223     		movs	r3, #2
 2132 0032 2B60     		str	r3, [r5]
 2133              		.loc 1 225 0
 2134 0034 FFF7FEFF 		bl	hw_try_restore_i2c
 2135              	.LVL206:
 2136              		.loc 1 226 0
 2137 0038 4FF47A70 		mov	r0, #1000
 2138 003c FFF7FEFF 		bl	chThdSleep
 2139              	.LVL207:
 2140              	.L295:
 2141              		.loc 1 229 0
 2142 0040 6420     		movs	r0, #100
 2143 0042 FFF7FEFF 		bl	chThdSleep
 2144              	.LVL208:
 2145              	.L296:
 2146              		.loc 1 164 0
 2147 0046 5948     		ldr	r0, .L303+16
 2148              		.loc 1 162 0
 2149 0048 8DF81C70 		strb	r7, [sp, #28]
 2150              		.loc 1 163 0
 2151 004c 8DF81D60 		strb	r6, [sp, #29]
 2152              		.loc 1 165 0
 2153 0050 4FF0320A 		mov	r10, #50
 2154              		.loc 1 164 0
 2155 0054 FFF7FEFF 		bl	i2cAcquireBus
 2156              	.LVL209:
 2157              		.loc 1 165 0
 2158 0058 0023     		movs	r3, #0
 2159 005a 0193     		str	r3, [sp, #4]
 2160 005c 0094     		str	r4, [sp]
 2161 005e CDF808A0 		str	r10, [sp, #8]
 2162 0062 0223     		movs	r3, #2
 2163 0064 07AA     		add	r2, sp, #28
 2164 0066 5221     		movs	r1, #82
 2165 0068 5048     		ldr	r0, .L303+16
 2166 006a FFF7FEFF 		bl	i2cMasterTransmitTimeout
ARM GAS  C:\Users\euanm\AppData\Local\Temp\cc7lJ0NE.s 			page 39


 2167              	.LVL210:
 2168 006e 8346     		mov	fp, r0
 2169              	.LVL211:
 2170              		.loc 1 166 0
 2171 0070 4E48     		ldr	r0, .L303+16
 2172              	.LVL212:
 2173 0072 FFF7FEFF 		bl	i2cReleaseBus
 2174              	.LVL213:
 2175              		.loc 1 169 0
 2176 0076 BBF1000F 		cmp	fp, #0
 2177 007a D9D1     		bne	.L291
 2178              		.loc 1 170 0
 2179 007c FB23     		movs	r3, #251
 2180              		.loc 1 172 0
 2181 007e 4B48     		ldr	r0, .L303+16
 2182              		.loc 1 171 0
 2183 0080 8DF81DB0 		strb	fp, [sp, #29]
 2184              		.loc 1 170 0
 2185 0084 8DF81C30 		strb	r3, [sp, #28]
 2186              		.loc 1 172 0
 2187 0088 FFF7FEFF 		bl	i2cAcquireBus
 2188              	.LVL214:
 2189              		.loc 1 173 0
 2190 008c 8DE81008 		stmia	sp, {r4, fp}
 2191 0090 CDF808A0 		str	r10, [sp, #8]
 2192 0094 0223     		movs	r3, #2
 2193 0096 07AA     		add	r2, sp, #28
 2194 0098 5221     		movs	r1, #82
 2195 009a 4448     		ldr	r0, .L303+16
 2196 009c FFF7FEFF 		bl	i2cMasterTransmitTimeout
 2197              	.LVL215:
 2198 00a0 8346     		mov	fp, r0
 2199              	.LVL216:
 2200              		.loc 1 174 0
 2201 00a2 4248     		ldr	r0, .L303+16
 2202              	.LVL217:
 2203 00a4 FFF7FEFF 		bl	i2cReleaseBus
 2204              	.LVL218:
 2205              		.loc 1 178 0
 2206 00a8 BBF1000F 		cmp	fp, #0
 2207 00ac C0D1     		bne	.L291
 2208              		.loc 1 180 0
 2209 00ae 3F48     		ldr	r0, .L303+16
 2210              		.loc 1 179 0
 2211 00b0 8DF81CB0 		strb	fp, [sp, #28]
 2212              		.loc 1 180 0
 2213 00b4 FFF7FEFF 		bl	i2cAcquireBus
 2214              	.LVL219:
 2215              		.loc 1 181 0
 2216 00b8 8DE81008 		stmia	sp, {r4, fp}
 2217 00bc CDF808A0 		str	r10, [sp, #8]
 2218 00c0 0123     		movs	r3, #1
 2219 00c2 07AA     		add	r2, sp, #28
 2220 00c4 5221     		movs	r1, #82
 2221 00c6 3948     		ldr	r0, .L303+16
 2222 00c8 FFF7FEFF 		bl	i2cMasterTransmitTimeout
 2223              	.LVL220:
ARM GAS  C:\Users\euanm\AppData\Local\Temp\cc7lJ0NE.s 			page 40


 2224 00cc 8346     		mov	fp, r0
 2225              	.LVL221:
 2226              		.loc 1 182 0
 2227 00ce 3748     		ldr	r0, .L303+16
 2228              	.LVL222:
 2229 00d0 FFF7FEFF 		bl	i2cReleaseBus
 2230              	.LVL223:
 2231              		.loc 1 186 0
 2232 00d4 BBF1000F 		cmp	fp, #0
 2233 00d8 AAD1     		bne	.L291
 2234              		.loc 1 187 0
 2235 00da 1E20     		movs	r0, #30
 2236 00dc FFF7FEFF 		bl	chThdSleep
 2237              	.LVL224:
 2238              		.loc 1 189 0
 2239 00e0 3248     		ldr	r0, .L303+16
 2240 00e2 FFF7FEFF 		bl	i2cAcquireBus
 2241              	.LVL225:
 2242              		.loc 1 190 0
 2243 00e6 CDF800A0 		str	r10, [sp]
 2244 00ea 0623     		movs	r3, #6
 2245 00ec 2246     		mov	r2, r4
 2246 00ee 5221     		movs	r1, #82
 2247 00f0 2E48     		ldr	r0, .L303+16
 2248 00f2 FFF7FEFF 		bl	i2cMasterReceiveTimeout
 2249              	.LVL226:
 2250 00f6 8246     		mov	r10, r0
 2251              	.LVL227:
 2252              		.loc 1 191 0
 2253 00f8 2C48     		ldr	r0, .L303+16
 2254              	.LVL228:
 2255 00fa FFF7FEFF 		bl	i2cReleaseBus
 2256              	.LVL229:
 2257              		.loc 1 195 0
 2258 00fe BAF1000F 		cmp	r10, #0
 2259 0102 95D1     		bne	.L291
 2260 0104 2A4B     		ldr	r3, .L303+20
 2261 0106 2146     		mov	r1, r4
 2262 0108 03F1060C 		add	ip, r3, #6
 2263 010c 0122     		movs	r2, #1
 2264              	.L293:
 2265              	.LVL230:
 2266              	.LBB144:
 2267              	.LBB145:
 2268              		.loc 1 200 0
 2269 010e 13F801EB 		ldrb	lr, [r3], #1	@ zero_extendqisi2
 2270              	.LVL231:
 2271 0112 11F8010B 		ldrb	r0, [r1], #1	@ zero_extendqisi2
 2272              		.loc 1 201 0
 2273 0116 8645     		cmp	lr, r0
 2274 0118 18BF     		it	ne
 2275 011a 0022     		movne	r2, #0
 2276              	.LVL232:
 2277              		.loc 1 199 0
 2278 011c 9C45     		cmp	ip, r3
 2279 011e F6D1     		bne	.L293
 2280              	.LBE145:
ARM GAS  C:\Users\euanm\AppData\Local\Temp\cc7lJ0NE.s 			page 41


 2281              		.loc 1 205 0
 2282 0120 94E80300 		ldmia	r4, {r0, r1}
 2283 0124 C8F80000 		str	r0, [r8]
 2284 0128 A9F80010 		strh	r1, [r9]	@ movhi
 2285              		.loc 1 207 0
 2286 012c 32B1     		cbz	r2, .L302
 2287              	.LVL233:
 2288              	.L294:
 2289              		.loc 1 220 0
 2290 012e FFF7FEFF 		bl	timeout_has_timeout
 2291              	.LVL234:
 2292 0132 0028     		cmp	r0, #0
 2293 0134 84D0     		beq	.L295
 2294              		.loc 1 221 0
 2295 0136 0123     		movs	r3, #1
 2296 0138 2B60     		str	r3, [r5]
 2297 013a 81E7     		b	.L295
 2298              	.LVL235:
 2299              	.L302:
 2300              		.loc 1 211 0
 2301 013c 9DF81530 		ldrb	r3, [sp, #21]	@ zero_extendqisi2
 2302              	.LVL236:
 2303 0140 9DF812C0 		ldrb	ip, [sp, #18]	@ zero_extendqisi2
 2304              		.loc 1 212 0
 2305 0144 9DF81300 		ldrb	r0, [sp, #19]	@ zero_extendqisi2
 2306              		.loc 1 208 0
 2307 0148 2A60     		str	r2, [r5]
 2308              		.loc 1 211 0
 2309 014a C3F38102 		ubfx	r2, r3, #2, #2
 2310              	.LVL237:
 2311 014e 42EA8C0C 		orr	ip, r2, ip, lsl #2
 2312              		.loc 1 213 0
 2313 0152 9DF81410 		ldrb	r1, [sp, #20]	@ zero_extendqisi2
 2314              		.loc 1 209 0
 2315 0156 9DF810E0 		ldrb	lr, [sp, #16]	@ zero_extendqisi2
 2316              		.loc 1 211 0
 2317 015a CDF830C0 		str	ip, [sp, #48]
 2318              		.loc 1 212 0
 2319 015e C3F30112 		ubfx	r2, r3, #4, #2
 2320 0162 42EA8000 		orr	r0, r2, r0, lsl #2
 2321              		.loc 1 213 0
 2322 0166 9A09     		lsrs	r2, r3, #6
 2323 0168 42EA8101 		orr	r1, r2, r1, lsl #2
 2324              		.loc 1 214 0
 2325 016c 03F00102 		and	r2, r3, #1
 2326              		.loc 1 215 0
 2327 0170 C3F34003 		ubfx	r3, r3, #1, #1
 2328              		.loc 1 214 0
 2329 0174 82F00102 		eor	r2, r2, #1
 2330              		.loc 1 215 0
 2331 0178 83F00103 		eor	r3, r3, #1
 2332              		.loc 1 210 0
 2333 017c 9DF811C0 		ldrb	ip, [sp, #17]	@ zero_extendqisi2
 2334              		.loc 1 212 0
 2335 0180 0D90     		str	r0, [sp, #52]
 2336              		.loc 1 217 0
 2337 0182 0AA8     		add	r0, sp, #40
ARM GAS  C:\Users\euanm\AppData\Local\Temp\cc7lJ0NE.s 			page 42


 2338              		.loc 1 213 0
 2339 0184 0E91     		str	r1, [sp, #56]
 2340              		.loc 1 214 0
 2341 0186 8DF83D20 		strb	r2, [sp, #61]
 2342              		.loc 1 215 0
 2343 018a 8DF83C30 		strb	r3, [sp, #60]
 2344              		.loc 1 209 0
 2345 018e CDF828E0 		str	lr, [sp, #40]
 2346              		.loc 1 210 0
 2347 0192 CDF82CC0 		str	ip, [sp, #44]
 2348              		.loc 1 217 0
 2349 0196 FFF7FEFF 		bl	app_nunchuk_update_output
 2350              	.LVL238:
 2351 019a C8E7     		b	.L294
 2352              	.L304:
 2353              		.align	2
 2354              	.L303:
 2355 019c 00000000 		.word	ch
 2356 01a0 10000000 		.word	.LC1
 2357 01a4 00000000 		.word	.LANCHOR18
 2358 01a8 00000000 		.word	.LANCHOR0
 2359 01ac 00000000 		.word	I2CD2
 2360 01b0 00000000 		.word	.LANCHOR19
 2361              	.LBE144:
 2362              	.LBE143:
 2363              		.cfi_endproc
 2364              	.LFE261:
 2365              		.size	chuk_thread, .-chuk_thread
 2366              		.section	.bss.filter_buffer.10456,"aw",%nobits
 2367              		.align	2
 2368              		.set	.LANCHOR11,. + 0
 2369              		.type	filter_buffer.10456, %object
 2370              		.size	filter_buffer.10456, 32
 2371              	filter_buffer.10456:
 2372 0000 00000000 		.space	32
 2372      00000000 
 2372      00000000 
 2372      00000000 
 2372      00000000 
 2373              		.section	.bss.is_reverse.10448,"aw",%nobits
 2374              		.set	.LANCHOR3,. + 0
 2375              		.type	is_reverse.10448, %object
 2376              		.size	is_reverse.10448, 1
 2377              	is_reverse.10448:
 2378 0000 00       		.space	1
 2379              		.section	.bss.throt_config,"aw",%nobits
 2380              		.align	2
 2381              		.set	.LANCHOR5,. + 0
 2382              		.type	throt_config, %object
 2383              		.size	throt_config, 60
 2384              	throt_config:
 2385 0000 00000000 		.space	60
 2385      00000000 
 2385      00000000 
 2385      00000000 
 2385      00000000 
 2386              		.section	.bss.prev_current.10451,"aw",%nobits
ARM GAS  C:\Users\euanm\AppData\Local\Temp\cc7lJ0NE.s 			page 43


 2387              		.align	2
 2388              		.set	.LANCHOR14,. + 0
 2389              		.type	prev_current.10451, %object
 2390              		.size	prev_current.10451, 4
 2391              	prev_current.10451:
 2392 0000 00000000 		.space	4
 2393              		.section	.bss.nx,"aw",%nobits
 2394              		.align	2
 2395              		.set	.LANCHOR9,. + 0
 2396              		.type	nx, %object
 2397              		.size	nx, 20
 2398              	nx:
 2399 0000 00000000 		.space	20
 2399      00000000 
 2399      00000000 
 2399      00000000 
 2399      00000000 
 2400              		.section	.bss.was_pid.10454,"aw",%nobits
 2401              		.set	.LANCHOR12,. + 0
 2402              		.type	was_pid.10454, %object
 2403              		.size	was_pid.10454, 1
 2404              	was_pid.10454:
 2405 0000 00       		.space	1
 2406              		.section	.bss.output_thread_wa,"aw",%nobits
 2407              		.align	3
 2408              		.set	.LANCHOR17,. + 0
 2409              		.type	output_thread_wa, %object
 2410              		.size	output_thread_wa, 1432
 2411              	output_thread_wa:
 2412 0000 00000000 		.space	1432
 2412      00000000 
 2412      00000000 
 2412      00000000 
 2412      00000000 
 2413              		.section	.bss.pid_rpm.10463,"aw",%nobits
 2414              		.align	2
 2415              		.set	.LANCHOR13,. + 0
 2416              		.type	pid_rpm.10463, %object
 2417              		.size	pid_rpm.10463, 4
 2418              	pid_rpm.10463:
 2419 0000 00000000 		.space	4
 2420              		.section	.bss.was_z.10449,"aw",%nobits
 2421              		.set	.LANCHOR4,. + 0
 2422              		.type	was_z.10449, %object
 2423              		.size	was_z.10449, 1
 2424              	was_z.10449:
 2425 0000 00       		.space	1
 2426              		.section	.bss.chuk_thread_wa,"aw",%nobits
 2427              		.align	3
 2428              		.set	.LANCHOR15,. + 0
 2429              		.type	chuk_thread_wa, %object
 2430              		.size	chuk_thread_wa, 1432
 2431              	chuk_thread_wa:
 2432 0000 00000000 		.space	1432
 2432      00000000 
 2432      00000000 
 2432      00000000 
ARM GAS  C:\Users\euanm\AppData\Local\Temp\cc7lJ0NE.s 			page 44


 2432      00000000 
 2433              		.section	.bss.chuck_d,"aw",%nobits
 2434              		.align	2
 2435              		.set	.LANCHOR2,. + 0
 2436              		.type	chuck_d, %object
 2437              		.size	chuck_d, 24
 2438              	chuck_d:
 2439 0000 00000000 		.space	24
 2439      00000000 
 2439      00000000 
 2439      00000000 
 2439      00000000 
 2440              		.section	.bss.last_buffer.10437,"aw",%nobits
 2441              		.align	2
 2442              		.set	.LANCHOR19,. + 0
 2443              		.type	last_buffer.10437, %object
 2444              		.size	last_buffer.10437, 6
 2445              	last_buffer.10437:
 2446 0000 00000000 		.space	6
 2446      0000
 2447              		.section	.rodata.str1.4,"aMS",%progbits,1
 2448              		.align	2
 2449              	.LC0:
 2450 0000 4E756E63 		.ascii	"Nunchuk output\000"
 2450      68756B20 
 2450      6F757470 
 2450      757400
 2451 000f 00       		.space	1
 2452              	.LC1:
 2453 0010 4E756E63 		.ascii	"Nunchuk i2c\000"
 2453      68756B20 
 2453      69326300 
 2454              		.section	.bss.ny,"aw",%nobits
 2455              		.align	2
 2456              		.set	.LANCHOR8,. + 0
 2457              		.type	ny, %object
 2458              		.size	ny, 20
 2459              	ny:
 2460 0000 00000000 		.space	20
 2460      00000000 
 2460      00000000 
 2460      00000000 
 2460      00000000 
 2461              		.section	.bss.is_running,"aw",%nobits
 2462              		.set	.LANCHOR18,. + 0
 2463              		.type	is_running, %object
 2464              		.size	is_running, 1
 2465              	is_running:
 2466 0000 00       		.space	1
 2467              		.section	.bss.chuck_error,"aw",%nobits
 2468              		.align	2
 2469              		.set	.LANCHOR0,. + 0
 2470              		.type	chuck_error, %object
 2471              		.size	chuck_error, 4
 2472              	chuck_error:
 2473 0000 00000000 		.space	4
 2474              		.section	.bss.config,"aw",%nobits
ARM GAS  C:\Users\euanm\AppData\Local\Temp\cc7lJ0NE.s 			page 45


 2475              		.align	2
 2476              		.set	.LANCHOR1,. + 0
 2477              		.type	config, %object
 2478              		.size	config, 44
 2479              	config:
 2480 0000 00000000 		.space	44
 2480      00000000 
 2480      00000000 
 2480      00000000 
 2480      00000000 
 2481              		.section	.bss.output_running,"aw",%nobits
 2482              		.set	.LANCHOR16,. + 0
 2483              		.type	output_running, %object
 2484              		.size	output_running, 1
 2485              	output_running:
 2486 0000 00       		.space	1
 2487              		.section	.bss.filter_ptr.10457,"aw",%nobits
 2488              		.align	2
 2489              		.set	.LANCHOR10,. + 0
 2490              		.type	filter_ptr.10457, %object
 2491              		.size	filter_ptr.10457, 4
 2492              	filter_ptr.10457:
 2493 0000 00000000 		.space	4
 2494              		.section	.bss.px,"aw",%nobits
 2495              		.align	2
 2496              		.set	.LANCHOR7,. + 0
 2497              		.type	px, %object
 2498              		.size	px, 20
 2499              	px:
 2500 0000 00000000 		.space	20
 2500      00000000 
 2500      00000000 
 2500      00000000 
 2500      00000000 
 2501              		.section	.bss.py,"aw",%nobits
 2502              		.align	2
 2503              		.set	.LANCHOR6,. + 0
 2504              		.type	py, %object
 2505              		.size	py, 20
 2506              	py:
 2507 0000 00000000 		.space	20
 2507      00000000 
 2507      00000000 
 2507      00000000 
 2507      00000000 
 2508              		.text
 2509              	.Letext0:
 2510              		.file 4 "c:\\program files (x86)\\gnu tools arm embedded\\5.4 2016q3\\arm-none-eabi\\include\\mach
 2511              		.file 5 "c:\\program files (x86)\\gnu tools arm embedded\\5.4 2016q3\\arm-none-eabi\\include\\sys\
 2512              		.file 6 "c:\\program files (x86)\\gnu tools arm embedded\\5.4 2016q3\\lib\\gcc\\arm-none-eabi\\5.4
 2513              		.file 7 "ChibiOS_3.0.2/os/rt/ports/ARMCMx/compilers/GCC/chtypes.h"
 2514              		.file 8 "ChibiOS_3.0.2/os/rt/include/chsystypes.h"
 2515              		.file 9 "ChibiOS_3.0.2/os/rt/include/chschd.h"
 2516              		.file 10 "ChibiOS_3.0.2/os/ext/CMSIS/ST/stm32f407xx.h"
 2517              		.file 11 "ChibiOS_3.0.2/os/rt/ports/ARMCMx/chcore.h"
 2518              		.file 12 "ChibiOS_3.0.2/os/rt/ports/ARMCMx/chcore_v7m.h"
 2519              		.file 13 "ChibiOS_3.0.2/os/rt/include/chtm.h"
ARM GAS  C:\Users\euanm\AppData\Local\Temp\cc7lJ0NE.s 			page 46


 2520              		.file 14 "ChibiOS_3.0.2/os/rt/include/chsem.h"
 2521              		.file 15 "ChibiOS_3.0.2/os/rt/include/chmtx.h"
 2522              		.file 16 "./datatypes.h"
 2523              		.file 17 "ChibiOS_3.0.2/os/hal/ports/STM32/STM32F4xx/stm32_dma.h"
 2524              		.file 18 "ChibiOS_3.0.2/os/hal/include/i2c.h"
 2525              		.file 19 "ChibiOS_3.0.2/os/hal/ports/STM32/LLD/I2Cv1/i2c_lld.h"
 2526              		.file 20 "ChibiOS_3.0.2/os/ext/CMSIS/include/core_cm4.h"
 2527              		.file 21 "./mc_interface.h"
 2528              		.file 22 "./utils.h"
 2529              		.file 23 "./comm_can.h"
 2530              		.file 24 "ChibiOS_3.0.2/os/rt/include/chthreads.h"
 2531              		.file 25 "./timeout.h"
 2532              		.file 26 "./led_external.h"
 2533              		.file 27 "hwconf/hw.h"