ARM GAS  C:\Users\euanm\AppData\Local\Temp\ccyPGXTD.s 			page 1


   1              		.syntax unified
   2              		.cpu cortex-m4
   3              		.eabi_attribute 27, 1
   4              		.eabi_attribute 28, 1
   5              		.fpu fpv4-sp-d16
   6              		.eabi_attribute 20, 1
   7              		.eabi_attribute 21, 1
   8              		.eabi_attribute 23, 3
   9              		.eabi_attribute 24, 1
  10              		.eabi_attribute 25, 1
  11              		.eabi_attribute 26, 1
  12              		.eabi_attribute 30, 2
  13              		.eabi_attribute 34, 1
  14              		.eabi_attribute 18, 4
  15              		.thumb
  16              		.syntax unified
  17              		.file	"comm_can.c"
  18              		.text
  19              	.Ltext0:
  20              		.cfi_sections	.debug_frame
  21              		.section	.text.cancom_process_thread,"ax",%progbits
  22              		.align	2
  23              		.p2align 4,,15
  24              		.thumb
  25              		.thumb_func
  26              		.type	cancom_process_thread, %function
  27              	cancom_process_thread:
  28              	.LFB258:
  29              		.file 1 "comm_can.c"
  30              		.loc 1 137 0
  31              		.cfi_startproc
  32              		@ args = 0, pretend = 0, frame = 32
  33              		@ frame_needed = 0, uses_anonymous_args = 0
  34              	.LVL0:
  35 0000 2DE9F04F 		push	{r4, r5, r6, r7, r8, r9, r10, fp, lr}
  36              		.cfi_def_cfa_offset 36
  37              		.cfi_offset 4, -36
  38              		.cfi_offset 5, -32
  39              		.cfi_offset 6, -28
  40              		.cfi_offset 7, -24
  41              		.cfi_offset 8, -20
  42              		.cfi_offset 9, -16
  43              		.cfi_offset 10, -12
  44              		.cfi_offset 11, -8
  45              		.cfi_offset 14, -4
  46              	.LBB65:
  47              	.LBB66:
  48              		.file 2 "ChibiOS_3.0.2/os/rt/include/chregistry.h"
  49              		.loc 2 135 0
  50 0004 DFF800B3 		ldr	fp, .L40+40
  51 0008 B54A     		ldr	r2, .L40
  52 000a DBF81830 		ldr	r3, [fp, #24]
  53              	.LBE66:
  54              	.LBE65:
  55              		.loc 1 141 0
  56 000e B549     		ldr	r1, .L40+4
  57 0010 B54C     		ldr	r4, .L40+8
ARM GAS  C:\Users\euanm\AppData\Local\Temp\ccyPGXTD.s 			page 2


  58 0012 B64D     		ldr	r5, .L40+12
  59 0014 B64E     		ldr	r6, .L40+16
  60 0016 DFF8F492 		ldr	r9, .L40+44
  61 001a B64F     		ldr	r7, .L40+20
  62              		.loc 1 137 0
  63 001c 2DED048B 		vpush.64	{d8, d9}
  64              		.cfi_def_cfa_offset 52
  65              		.cfi_offset 80, -52
  66              		.cfi_offset 81, -48
  67              		.cfi_offset 82, -44
  68              		.cfi_offset 83, -40
  69 0020 89B0     		sub	sp, sp, #36
  70              		.cfi_def_cfa_offset 88
  71              	.LBB68:
  72              	.LBB67:
  73              		.loc 2 135 0
  74 0022 9A61     		str	r2, [r3, #24]
  75              	.LVL1:
  76              	.LBE67:
  77              	.LBE68:
  78              	.LBB69:
  79              	.LBB70:
  80              		.loc 1 201 0
  81 0024 9FEDB48A 		vldr.32	s16, .L40+24
  82              		.loc 1 177 0
  83 0028 DFEDB48A 		vldr.32	s17, .L40+28
  84              		.loc 1 165 0
  85 002c 9FEDB49A 		vldr.32	s18, .L40+32
  86              	.LBE70:
  87              	.LBE69:
  88              		.loc 1 141 0
  89 0030 0B60     		str	r3, [r1]
  90              		.loc 1 143 0
  91 0032 0022     		movs	r2, #0
  92 0034 0292     		str	r2, [sp, #8]
  93              	.LVL2:
  94              	.L3:
  95              		.loc 1 151 0
  96 0036 0120     		movs	r0, #1
  97 0038 FFF7FEFF 		bl	chEvtWaitAny
  98              	.LVL3:
  99              		.loc 1 153 0
 100 003c D4F800C0 		ldr	ip, [r4]
 101              	.L38:
 102 0040 2B68     		ldr	r3, [r5]
 103 0042 6345     		cmp	r3, ip
 104 0044 F7D0     		beq	.L3
 105              	.LBB88:
 106              		.loc 1 154 0
 107 0046 0CEB8C0E 		add	lr, ip, ip, lsl #2
 108 004a 06EB8E0E 		add	lr, r6, lr, lsl #2
 109 004e BEE80F00 		ldmia	lr!, {r0, r1, r2, r3}
 110 0052 0DF10C08 		add	r8, sp, #12
 111 0056 A8E80F00 		stmia	r8!, {r0, r1, r2, r3}
 112              		.loc 1 156 0
 113 005a 9DF81020 		ldrb	r2, [sp, #16]	@ zero_extendqisi2
 114              		.loc 1 154 0
ARM GAS  C:\Users\euanm\AppData\Local\Temp\ccyPGXTD.s 			page 3


 115 005e DEF80030 		ldr	r3, [lr]
 116 0062 C8F80030 		str	r3, [r8]
 117              		.loc 1 156 0
 118 0066 9206     		lsls	r2, r2, #26
 119              		.loc 1 154 0
 120 0068 0CF10103 		add	r3, ip, #1
 121 006c 2360     		str	r3, [r4]
 122              		.loc 1 156 0
 123 006e 29D5     		bpl	.L33
 124              	.LBB86:
 125              		.loc 1 157 0
 126 0070 059B     		ldr	r3, [sp, #20]
 127 0072 C3F31C03 		ubfx	r3, r3, #0, #29
 128 0076 5FFA83FA 		uxtb	r10, r3
 129              	.LVL4:
 130              		.loc 1 161 0
 131 007a BAF1FF0F 		cmp	r10, #255
 132              		.loc 1 158 0
 133 007e 4FEA2328 		asr	r8, r3, #8
 134              	.LVL5:
 135              		.loc 1 161 0
 136 0082 21D0     		beq	.L19
 137              		.loc 1 161 0 is_stmt 0 discriminator 1
 138 0084 FFF7FEFF 		bl	app_get_configuration
 139              	.LVL6:
 140 0088 0378     		ldrb	r3, [r0]	@ zero_extendqisi2
 141 008a 5345     		cmp	r3, r10
 142 008c 1CD0     		beq	.L19
 143 008e 5FFA88F3 		uxtb	r3, r8
 144              	.L6:
 145              		.loc 1 262 0 is_stmt 1
 146 0092 092B     		cmp	r3, #9
 147 0094 0DD1     		bne	.L21
 148 0096 0023     		movs	r3, #0
 149 0098 1A46     		mov	r2, r3
 150              	.L29:
 151              	.LVL7:
 152              	.LBB71:
 153              		.loc 1 266 0
 154 009a F958     		ldr	r1, [r7, r3]
 155 009c 8A45     		cmp	r10, r1
 156 009e 03F11403 		add	r3, r3, #20
 157 00a2 00F03581 		beq	.L27
 158              		.loc 1 266 0 is_stmt 0 discriminator 1
 159 00a6 0131     		adds	r1, r1, #1
 160 00a8 00F03281 		beq	.L27
 161              		.loc 1 264 0 is_stmt 1 discriminator 2
 162 00ac 0132     		adds	r2, r2, #1
 163              	.LVL8:
 164 00ae 032A     		cmp	r2, #3
 165 00b0 F3D1     		bne	.L29
 166              	.LVL9:
 167              	.L21:
 168 00b2 D4F800C0 		ldr	ip, [r4]
 169              	.L4:
 170              	.LBE71:
 171              	.LBE86:
ARM GAS  C:\Users\euanm\AppData\Local\Temp\ccyPGXTD.s 			page 4


 172              		.loc 1 284 0
 173 00b6 BCF1640F 		cmp	ip, #100
 174 00ba C1D1     		bne	.L38
 175              		.loc 1 285 0
 176 00bc 0023     		movs	r3, #0
 177 00be 2360     		str	r3, [r4]
 178 00c0 9C46     		mov	ip, r3
 179 00c2 BDE7     		b	.L38
 180              	.L33:
 181              	.LBB87:
 182 00c4 9C46     		mov	ip, r3
 183 00c6 F6E7     		b	.L4
 184              	.LVL10:
 185              	.L19:
 186 00c8 5FFA88F3 		uxtb	r3, r8
 187              		.loc 1 162 0
 188 00cc 0B2B     		cmp	r3, #11
 189 00ce E0D8     		bhi	.L6
 190 00d0 01A2     		adr	r2, .L8
 191 00d2 52F823F0 		ldr	pc, [r2, r3, lsl #2]
 192 00d6 00BF     		.p2align 2
 193              	.L8:
 194 00d8 9B020000 		.word	.L7+1
 195 00dc BD020000 		.word	.L9+1
 196 00e0 0F020000 		.word	.L10+1
 197 00e4 53020000 		.word	.L11+1
 198 00e8 31020000 		.word	.L12+1
 199 00ec 7F020000 		.word	.L13+1
 200 00f0 E7010000 		.word	.L14+1
 201 00f4 8D010000 		.word	.L15+1
 202 00f8 63010000 		.word	.L16+1
 203 00fc 93000000 		.word	.L6+1
 204 0100 2B010000 		.word	.L17+1
 205 0104 09010000 		.word	.L18+1
 206              		.p2align 1
 207              	.L18:
 208              		.loc 1 194 0
 209 0108 0023     		movs	r3, #0
 210              		.loc 1 195 0
 211 010a 02A9     		add	r1, sp, #8
 212 010c 06A8     		add	r0, sp, #24
 213              		.loc 1 194 0
 214 010e 0293     		str	r3, [sp, #8]
 215              		.loc 1 195 0
 216 0110 FFF7FEFF 		bl	buffer_get_int32
 217              	.LVL11:
 218 0114 07EE900A 		vmov	s15, r0	@ int
 219 0118 B8EEE70A 		vcvt.f32.s32	s0, s15
 220 011c 80EE080A 		vdiv.f32	s0, s0, s16
 221 0120 FFF7FEFF 		bl	mc_interface_set_brake_servo
 222              	.LVL12:
 223              		.loc 1 196 0
 224 0124 FFF7FEFF 		bl	timeout_reset
 225              	.LVL13:
 226              		.loc 1 197 0
 227 0128 C3E7     		b	.L21
 228              	.L17:
ARM GAS  C:\Users\euanm\AppData\Local\Temp\ccyPGXTD.s 			page 5


 229              		.loc 1 188 0
 230 012a 0023     		movs	r3, #0
 231              		.loc 1 189 0
 232 012c 02A9     		add	r1, sp, #8
 233 012e 06A8     		add	r0, sp, #24
 234              		.loc 1 188 0
 235 0130 0293     		str	r3, [sp, #8]
 236              		.loc 1 189 0
 237 0132 FFF7FEFF 		bl	buffer_get_int32
 238              	.LVL14:
 239 0136 029B     		ldr	r3, [sp, #8]
 240 0138 08AA     		add	r2, sp, #32
 241 013a 1A44     		add	r2, r2, r3
 242 013c 07EE900A 		vmov	s15, r0	@ int
 243 0140 12F8080C 		ldrb	r0, [r2, #-8]	@ zero_extendqisi2
 244 0144 B8EEE70A 		vcvt.f32.s32	s0, s15
 245 0148 0030     		adds	r0, r0, #0
 246 014a 03F10103 		add	r3, r3, #1
 247 014e 80EE080A 		vdiv.f32	s0, s0, s16
 248 0152 18BF     		it	ne
 249 0154 0120     		movne	r0, #1
 250 0156 0293     		str	r3, [sp, #8]
 251 0158 FFF7FEFF 		bl	mc_interface_set_servo
 252              	.LVL15:
 253              		.loc 1 190 0
 254 015c FFF7FEFF 		bl	timeout_reset
 255              	.LVL16:
 256              		.loc 1 191 0
 257 0160 A7E7     		b	.L21
 258              	.L16:
 259              		.loc 1 246 0
 260 0162 9DF81820 		ldrb	r2, [sp, #24]	@ zero_extendqisi2
 261              		.loc 1 249 0
 262 0166 9DF81930 		ldrb	r3, [sp, #25]	@ zero_extendqisi2
 263              		.loc 1 246 0
 264 016a C9F80020 		str	r2, [r9]
 265              		.loc 1 247 0
 266 016e 0222     		movs	r2, #2
 267 0170 0292     		str	r2, [sp, #8]
 268              	.LVL17:
 269              		.loc 1 249 0
 270 0172 002B     		cmp	r3, #0
 271 0174 00F00581 		beq	.L24
 272              		.loc 1 250 0
 273 0178 9DF81010 		ldrb	r1, [sp, #16]	@ zero_extendqisi2
 274 017c 01F00F01 		and	r1, r1, #15
 275 0180 0239     		subs	r1, r1, #2
 276 0182 0DF11A00 		add	r0, sp, #26
 277 0186 FFF7FEFF 		bl	commands_send_packet
 278              	.LVL18:
 279 018a 92E7     		b	.L21
 280              	.L15:
 281              		.loc 1 222 0
 282 018c 9DF81B30 		ldrb	r3, [sp, #27]	@ zero_extendqisi2
 283              		.loc 1 221 0
 284 0190 9DF81A80 		ldrb	r8, [sp, #26]	@ zero_extendqisi2
 285              	.LVL19:
ARM GAS  C:\Users\euanm\AppData\Local\Temp\ccyPGXTD.s 			page 6


 286              		.loc 1 219 0
 287 0194 9DF81820 		ldrb	r2, [sp, #24]	@ zero_extendqisi2
 288 0198 C9F80020 		str	r2, [r9]
 289              		.loc 1 222 0
 290 019c 43EA0828 		orr	r8, r3, r8, lsl #8
 291              		.loc 1 224 0
 292 01a0 B8F5806F 		cmp	r8, #1024
 293              		.loc 1 222 0
 294 01a4 4FF00403 		mov	r3, #4
 295 01a8 0293     		str	r3, [sp, #8]
 296              		.loc 1 220 0
 297 01aa 9DF81930 		ldrb	r3, [sp, #25]	@ zero_extendqisi2
 298              	.LVL20:
 299              		.loc 1 224 0
 300 01ae 80D8     		bhi	.L21
 301              		.loc 1 229 0
 302 01b0 0622     		movs	r2, #6
 303 01b2 0292     		str	r2, [sp, #8]
 304              		.loc 1 231 0
 305 01b4 4146     		mov	r1, r8
 306              		.loc 1 228 0
 307 01b6 9DF81C20 		ldrb	r2, [sp, #28]	@ zero_extendqisi2
 308              		.loc 1 231 0
 309 01ba 5248     		ldr	r0, .L40+36
 310 01bc 0193     		str	r3, [sp, #4]
 311              		.loc 1 228 0
 312 01be 0092     		str	r2, [sp]
 313              	.LVL21:
 314              		.loc 1 229 0
 315 01c0 9DF81DA0 		ldrb	r10, [sp, #29]	@ zero_extendqisi2
 316              	.LVL22:
 317              		.loc 1 231 0
 318 01c4 FFF7FEFF 		bl	crc16
 319              	.LVL23:
 320 01c8 009A     		ldr	r2, [sp]
 321 01ca 019B     		ldr	r3, [sp, #4]
 322 01cc 4AEA022A 		orr	r10, r10, r2, lsl #8
 323              	.LVL24:
 324 01d0 5045     		cmp	r0, r10
 325 01d2 7FF46EAF 		bne	.L21
 326              		.loc 1 235 0
 327 01d6 002B     		cmp	r3, #0
 328 01d8 00F0E180 		beq	.L23
 329              		.loc 1 236 0
 330 01dc 4146     		mov	r1, r8
 331 01de 4948     		ldr	r0, .L40+36
 332 01e0 FFF7FEFF 		bl	commands_send_packet
 333              	.LVL25:
 334 01e4 65E7     		b	.L21
 335              	.LVL26:
 336              	.L14:
 337 01e6 BDF81800 		ldrh	r0, [sp, #24]
 338 01ea 40BA     		rev16	r0, r0
 339 01ec 80B2     		uxth	r0, r0
 340              	.LVL27:
 341              		.loc 1 212 0
 342 01ee B0F5806F 		cmp	r0, #1024
ARM GAS  C:\Users\euanm\AppData\Local\Temp\ccyPGXTD.s 			page 7


 343 01f2 BFF45EAF 		bcs	.L21
 344              		.loc 1 213 0
 345 01f6 9DF81020 		ldrb	r2, [sp, #16]	@ zero_extendqisi2
 346 01fa 424B     		ldr	r3, .L40+36
 347 01fc 02F00F02 		and	r2, r2, #15
 348 0200 1844     		add	r0, r0, r3
 349 0202 023A     		subs	r2, r2, #2
 350 0204 0DF11A01 		add	r1, sp, #26
 351 0208 FFF7FEFF 		bl	memcpy
 352              	.LVL28:
 353 020c 51E7     		b	.L21
 354              	.L10:
 355              		.loc 1 176 0
 356 020e 0023     		movs	r3, #0
 357              		.loc 1 177 0
 358 0210 02A9     		add	r1, sp, #8
 359 0212 06A8     		add	r0, sp, #24
 360              		.loc 1 176 0
 361 0214 0293     		str	r3, [sp, #8]
 362              		.loc 1 177 0
 363 0216 FFF7FEFF 		bl	buffer_get_int32
 364              	.LVL29:
 365 021a 07EE900A 		vmov	s15, r0	@ int
 366 021e B8EEE70A 		vcvt.f32.s32	s0, s15
 367 0222 80EE280A 		vdiv.f32	s0, s0, s17
 368 0226 FFF7FEFF 		bl	mc_interface_set_brake_current
 369              	.LVL30:
 370              		.loc 1 178 0
 371 022a FFF7FEFF 		bl	timeout_reset
 372              	.LVL31:
 373              		.loc 1 179 0
 374 022e 40E7     		b	.L21
 375              	.L12:
 376              		.loc 1 200 0
 377 0230 0023     		movs	r3, #0
 378              		.loc 1 201 0
 379 0232 02A9     		add	r1, sp, #8
 380 0234 06A8     		add	r0, sp, #24
 381              		.loc 1 200 0
 382 0236 0293     		str	r3, [sp, #8]
 383              		.loc 1 201 0
 384 0238 FFF7FEFF 		bl	buffer_get_int32
 385              	.LVL32:
 386 023c 07EE900A 		vmov	s15, r0	@ int
 387 0240 B8EEE70A 		vcvt.f32.s32	s0, s15
 388 0244 80EE080A 		vdiv.f32	s0, s0, s16
 389 0248 FFF7FEFF 		bl	mc_interface_set_pid_pos
 390              	.LVL33:
 391              		.loc 1 202 0
 392 024c FFF7FEFF 		bl	timeout_reset
 393              	.LVL34:
 394              		.loc 1 203 0
 395 0250 2FE7     		b	.L21
 396              	.L11:
 397              		.loc 1 182 0
 398 0252 0023     		movs	r3, #0
 399              		.loc 1 183 0
ARM GAS  C:\Users\euanm\AppData\Local\Temp\ccyPGXTD.s 			page 8


 400 0254 02A9     		add	r1, sp, #8
 401 0256 06A8     		add	r0, sp, #24
 402              		.loc 1 182 0
 403 0258 0293     		str	r3, [sp, #8]
 404              		.loc 1 183 0
 405 025a FFF7FEFF 		bl	buffer_get_int32
 406              	.LVL35:
 407 025e 029B     		ldr	r3, [sp, #8]
 408 0260 08AA     		add	r2, sp, #32
 409 0262 07EE900A 		vmov	s15, r0	@ int
 410 0266 1A44     		add	r2, r2, r3
 411 0268 B8EEE70A 		vcvt.f32.s32	s0, s15
 412 026c 0133     		adds	r3, r3, #1
 413 026e 12F8080C 		ldrb	r0, [r2, #-8]	@ zero_extendqisi2
 414 0272 0293     		str	r3, [sp, #8]
 415 0274 FFF7FEFF 		bl	mc_interface_set_pid_speed_with_cruise_status
 416              	.LVL36:
 417              		.loc 1 184 0
 418 0278 FFF7FEFF 		bl	timeout_reset
 419              	.LVL37:
 420              		.loc 1 185 0
 421 027c 19E7     		b	.L21
 422              	.L13:
 423              		.loc 1 206 0
 424 027e 9DF81020 		ldrb	r2, [sp, #16]	@ zero_extendqisi2
 425 0282 9DF81800 		ldrb	r0, [sp, #24]	@ zero_extendqisi2
 426 0286 1F4B     		ldr	r3, .L40+36
 427 0288 02F00F02 		and	r2, r2, #15
 428 028c 013A     		subs	r2, r2, #1
 429 028e 1844     		add	r0, r0, r3
 430 0290 0DF11901 		add	r1, sp, #25
 431 0294 FFF7FEFF 		bl	memcpy
 432              	.LVL38:
 433              		.loc 1 207 0
 434 0298 0BE7     		b	.L21
 435              	.L7:
 436              		.loc 1 164 0
 437 029a 0023     		movs	r3, #0
 438              		.loc 1 165 0
 439 029c 02A9     		add	r1, sp, #8
 440 029e 06A8     		add	r0, sp, #24
 441              		.loc 1 164 0
 442 02a0 0293     		str	r3, [sp, #8]
 443              		.loc 1 165 0
 444 02a2 FFF7FEFF 		bl	buffer_get_int32
 445              	.LVL39:
 446 02a6 07EE900A 		vmov	s15, r0	@ int
 447 02aa B8EEE70A 		vcvt.f32.s32	s0, s15
 448 02ae 80EE090A 		vdiv.f32	s0, s0, s18
 449 02b2 FFF7FEFF 		bl	mc_interface_set_duty
 450              	.LVL40:
 451              		.loc 1 166 0
 452 02b6 FFF7FEFF 		bl	timeout_reset
 453              	.LVL41:
 454              		.loc 1 167 0
 455 02ba FAE6     		b	.L21
 456              	.L9:
ARM GAS  C:\Users\euanm\AppData\Local\Temp\ccyPGXTD.s 			page 9


 457              		.loc 1 170 0
 458 02bc 0023     		movs	r3, #0
 459              		.loc 1 171 0
 460 02be 02A9     		add	r1, sp, #8
 461 02c0 06A8     		add	r0, sp, #24
 462              		.loc 1 170 0
 463 02c2 0293     		str	r3, [sp, #8]
 464              		.loc 1 171 0
 465 02c4 FFF7FEFF 		bl	buffer_get_int32
 466              	.LVL42:
 467 02c8 07EE900A 		vmov	s15, r0	@ int
 468 02cc B8EEE70A 		vcvt.f32.s32	s0, s15
 469 02d0 80EE280A 		vdiv.f32	s0, s0, s17
 470 02d4 FFF7FEFF 		bl	mc_interface_set_current
 471              	.LVL43:
 472              		.loc 1 172 0
 473 02d8 FFF7FEFF 		bl	timeout_reset
 474              	.LVL44:
 475              		.loc 1 173 0
 476 02dc E9E6     		b	.L21
 477              	.L41:
 478 02de 00BF     		.align	2
 479              	.L40:
 480 02e0 00000000 		.word	.LC0
 481 02e4 00000000 		.word	.LANCHOR0
 482 02e8 00000000 		.word	.LANCHOR1
 483 02ec 00000000 		.word	.LANCHOR2
 484 02f0 00000000 		.word	.LANCHOR3
 485 02f4 00000000 		.word	.LANCHOR6
 486 02f8 00247449 		.word	1232348160
 487 02fc 00007A44 		.word	1148846080
 488 0300 0050C347 		.word	1203982336
 489 0304 00000000 		.word	.LANCHOR4
 490 0308 00000000 		.word	ch
 491 030c 00000000 		.word	.LANCHOR5
 492              	.LVL45:
 493              	.L27:
 494              	.LBB85:
 495              		.loc 1 268 0
 496 0310 02EB8202 		add	r2, r2, r2, lsl #2
 497              	.LVL46:
 498              		.loc 1 267 0
 499 0314 0023     		movs	r3, #0
 500              		.loc 1 268 0
 501 0316 47F822A0 		str	r10, [r7, r2, lsl #2]
 502              	.LVL47:
 503 031a 07EB8208 		add	r8, r7, r2, lsl #2
 504              	.LVL48:
 505              		.loc 1 267 0
 506 031e 0293     		str	r3, [sp, #8]
 507              	.LBB72:
 508              	.LBB73:
 509              	.LBB74:
 510              	.LBB75:
 511              	.LBB76:
 512              	.LBB77:
 513              		.file 3 "ChibiOS_3.0.2/os/ext/CMSIS/include/core_cmFunc.h"
ARM GAS  C:\Users\euanm\AppData\Local\Temp\ccyPGXTD.s 			page 10


 514              		.loc 3 546 0
 515 0320 2022     		movs	r2, #32
 516              		.syntax unified
 517              	@ 546 "ChibiOS_3.0.2/os/ext/CMSIS/include/core_cmFunc.h" 1
 518 0322 82F31188 		MSR basepri, r2
 519              	@ 0 "" 2
 520              	.LVL49:
 521              		.thumb
 522              		.syntax unified
 523              	.LBE77:
 524              	.LBE76:
 525              	.LBE75:
 526              	.LBE74:
 527              	.LBB78:
 528              	.LBB79:
 529              		.file 4 "ChibiOS_3.0.2/os/rt/include/chvt.h"
 530              		.loc 4 231 0
 531 0326 DBF82820 		ldr	r2, [fp, #40]
 532              	.LVL50:
 533              	.LBE79:
 534              	.LBE78:
 535              	.LBB80:
 536              	.LBB81:
 537              	.LBB82:
 538              	.LBB83:
 539              	.LBB84:
 540              		.loc 3 546 0
 541              		.syntax unified
 542              	@ 546 "ChibiOS_3.0.2/os/ext/CMSIS/include/core_cmFunc.h" 1
 543 032a 83F31188 		MSR basepri, r3
 544              	@ 0 "" 2
 545              	.LVL51:
 546              		.thumb
 547              		.syntax unified
 548              	.LBE84:
 549              	.LBE83:
 550              	.LBE82:
 551              	.LBE81:
 552              	.LBE80:
 553              	.LBE73:
 554              	.LBE72:
 555              		.loc 1 269 0
 556 032e C8F80420 		str	r2, [r8, #4]
 557              		.loc 1 270 0
 558 0332 02A9     		add	r1, sp, #8
 559 0334 06A8     		add	r0, sp, #24
 560 0336 FFF7FEFF 		bl	buffer_get_int32
 561              	.LVL52:
 562 033a 07EE900A 		vmov	s15, r0	@ int
 563 033e F8EEE77A 		vcvt.f32.s32	s15, s15
 564              		.loc 1 271 0
 565 0342 02A9     		add	r1, sp, #8
 566              		.loc 1 270 0
 567 0344 C8ED027A 		vstr.32	s15, [r8, #8]
 568              		.loc 1 271 0
 569 0348 06A8     		add	r0, sp, #24
 570 034a FFF7FEFF 		bl	buffer_get_int16
ARM GAS  C:\Users\euanm\AppData\Local\Temp\ccyPGXTD.s 			page 11


 571              	.LVL53:
 572 034e 07EE900A 		vmov	s15, r0	@ int
 573 0352 F8EEE76A 		vcvt.f32.s32	s13, s15
 574 0356 B2EE047A 		vmov.f32	s14, #1.0e+1
 575 035a C6EE877A 		vdiv.f32	s15, s13, s14
 576              		.loc 1 272 0
 577 035e 029B     		ldr	r3, [sp, #8]
 578 0360 D4F800C0 		ldr	ip, [r4]
 579 0364 08AA     		add	r2, sp, #32
 580 0366 1A44     		add	r2, r2, r3
 581              		.loc 1 273 0
 582 0368 0233     		adds	r3, r3, #2
 583 036a 0293     		str	r3, [sp, #8]
 584              		.loc 1 272 0
 585 036c 12F8081C 		ldrb	r1, [r2, #-8]	@ zero_extendqisi2
 586              		.loc 1 273 0
 587 0370 12F8073C 		ldrb	r3, [r2, #-7]	@ zero_extendqisi2
 588              		.loc 1 272 0
 589 0374 88F81010 		strb	r1, [r8, #16]
 590              		.loc 1 273 0
 591 0378 88F81130 		strb	r3, [r8, #17]
 592              		.loc 1 271 0
 593 037c C8ED037A 		vstr.32	s15, [r8, #12]
 594              		.loc 1 274 0
 595 0380 99E6     		b	.L4
 596              	.LVL54:
 597              	.L24:
 598              	.LBE85:
 599              		.loc 1 252 0
 600 0382 0B48     		ldr	r0, .L42
 601 0384 FFF7FEFF 		bl	commands_set_send_func
 602              	.LVL55:
 603              		.loc 1 253 0
 604 0388 9DF81010 		ldrb	r1, [sp, #16]	@ zero_extendqisi2
 605 038c 0298     		ldr	r0, [sp, #8]
 606 038e 06AB     		add	r3, sp, #24
 607 0390 01F00F01 		and	r1, r1, #15
 608 0394 091A     		subs	r1, r1, r0
 609 0396 1844     		add	r0, r0, r3
 610 0398 FFF7FEFF 		bl	commands_process_packet
 611              	.LVL56:
 612 039c 89E6     		b	.L21
 613              	.LVL57:
 614              	.L23:
 615              		.loc 1 238 0
 616 039e 0448     		ldr	r0, .L42
 617 03a0 FFF7FEFF 		bl	commands_set_send_func
 618              	.LVL58:
 619              		.loc 1 239 0
 620 03a4 4146     		mov	r1, r8
 621 03a6 0348     		ldr	r0, .L42+4
 622 03a8 FFF7FEFF 		bl	commands_process_packet
 623              	.LVL59:
 624 03ac 81E6     		b	.L21
 625              	.L43:
 626 03ae 00BF     		.align	2
 627              	.L42:
ARM GAS  C:\Users\euanm\AppData\Local\Temp\ccyPGXTD.s 			page 12


 628 03b0 00000000 		.word	send_packet_wrapper
 629 03b4 00000000 		.word	.LANCHOR4
 630              	.LBE87:
 631              	.LBE88:
 632              		.cfi_endproc
 633              	.LFE258:
 634              		.size	cancom_process_thread, .-cancom_process_thread
 635              		.section	.text.cancom_read_thread,"ax",%progbits
 636              		.align	2
 637              		.p2align 4,,15
 638              		.thumb
 639              		.thumb_func
 640              		.type	cancom_read_thread, %function
 641              	cancom_read_thread:
 642              	.LFB257:
 643              		.loc 1 106 0
 644              		.cfi_startproc
 645              		@ args = 0, pretend = 0, frame = 40
 646              		@ frame_needed = 0, uses_anonymous_args = 0
 647              	.LVL60:
 648 0000 2DE9F043 		push	{r4, r5, r6, r7, r8, r9, lr}
 649              		.cfi_def_cfa_offset 28
 650              		.cfi_offset 4, -28
 651              		.cfi_offset 5, -24
 652              		.cfi_offset 6, -20
 653              		.cfi_offset 7, -16
 654              		.cfi_offset 8, -12
 655              		.cfi_offset 9, -8
 656              		.cfi_offset 14, -4
 657              	.LBB89:
 658              	.LBB90:
 659              		.loc 2 135 0
 660 0004 DFF8B890 		ldr	r9, .L55+24
 661 0008 274A     		ldr	r2, .L55
 662 000a D9F81830 		ldr	r3, [r9, #24]
 663              	.LBE90:
 664              	.LBE89:
 665              	.LBB92:
 666              	.LBB93:
 667              	.LBB94:
 668              		.file 5 "ChibiOS_3.0.2/os/rt/include/chevents.h"
 669              		.loc 5 193 0
 670 000e 2748     		ldr	r0, .L55+4
 671              	.LVL61:
 672              	.LBE94:
 673              	.LBE93:
 674              	.LBE92:
 675              	.LBB97:
 676              	.LBB91:
 677              		.loc 2 135 0
 678 0010 9A61     		str	r2, [r3, #24]
 679              	.LVL62:
 680              	.LBE91:
 681              	.LBE97:
 682              		.loc 1 106 0
 683 0012 8BB0     		sub	sp, sp, #44
 684              		.cfi_def_cfa_offset 72
ARM GAS  C:\Users\euanm\AppData\Local\Temp\ccyPGXTD.s 			page 13


 685              	.LVL63:
 686              	.LBB98:
 687              	.LBB96:
 688              	.LBB95:
 689              		.loc 5 193 0
 690 0014 6946     		mov	r1, sp
 691 0016 4FF0FF33 		mov	r3, #-1
 692 001a 0122     		movs	r2, #1
 693 001c FFF7FEFF 		bl	chEvtRegisterMaskWithFlags
 694              	.LVL64:
 695 0020 234D     		ldr	r5, .L55+8
 696              	.L45:
 697              	.LBE95:
 698              	.LBE96:
 699              	.LBE98:
 700              	.LBB99:
 701              	.LBB100:
 702              		.file 6 "ChibiOS_3.0.2/os/rt/include/chthreads.h"
 703              		.loc 6 233 0
 704 0022 D9F81830 		ldr	r3, [r9, #24]
 705              	.LBE100:
 706              	.LBE99:
 707              		.loc 1 115 0
 708 0026 5B7F     		ldrb	r3, [r3, #29]	@ zero_extendqisi2
 709 0028 03F00403 		and	r3, r3, #4
 710 002c 03F0FF04 		and	r4, r3, #255
 711 0030 002B     		cmp	r3, #0
 712 0032 32D1     		bne	.L54
 713              	.LBB101:
 714              		.loc 1 116 0
 715 0034 6421     		movs	r1, #100
 716 0036 4FF0FF30 		mov	r0, #-1
 717 003a FFF7FEFF 		bl	chEvtWaitAnyTimeout
 718              	.LVL65:
 719 003e 0028     		cmp	r0, #0
 720 0040 EFD0     		beq	.L45
 721              		.loc 1 120 0
 722 0042 05AA     		add	r2, sp, #20
 723 0044 2346     		mov	r3, r4
 724 0046 2146     		mov	r1, r4
 725 0048 1A48     		ldr	r0, .L55+12
 726 004a FFF7FEFF 		bl	canReceive
 727              	.LVL66:
 728              		.loc 1 122 0
 729 004e 0028     		cmp	r0, #0
 730 0050 E7D1     		bne	.L45
 731 0052 194F     		ldr	r7, .L55+16
 732 0054 194E     		ldr	r6, .L55+20
 733              		.loc 1 125 0
 734 0056 8046     		mov	r8, r0
 735              	.L49:
 736              	.LVL67:
 737              		.loc 1 123 0
 738 0058 05AC     		add	r4, sp, #20
 739 005a 0FCC     		ldmia	r4!, {r0, r1, r2, r3}
 740 005c D5F800E0 		ldr	lr, [r5]
 741 0060 D4F800C0 		ldr	ip, [r4]
ARM GAS  C:\Users\euanm\AppData\Local\Temp\ccyPGXTD.s 			page 14


 742 0064 0EEB8E04 		add	r4, lr, lr, lsl #2
 743 0068 07EB8404 		add	r4, r7, r4, lsl #2
 744 006c 0FC4     		stmia	r4!, {r0, r1, r2, r3}
 745              		.loc 1 128 0
 746 006e 0121     		movs	r1, #1
 747              		.loc 1 123 0
 748 0070 0EEB0103 		add	r3, lr, r1
 749              		.loc 1 124 0
 750 0074 642B     		cmp	r3, #100
 751              		.loc 1 128 0
 752 0076 3068     		ldr	r0, [r6]
 753              		.loc 1 123 0
 754 0078 2B60     		str	r3, [r5]
 755 007a C4F800C0 		str	ip, [r4]
 756              		.loc 1 125 0
 757 007e 08BF     		it	eq
 758 0080 C5F80080 		streq	r8, [r5]
 759              		.loc 1 128 0
 760 0084 FFF7FEFF 		bl	chEvtSignal
 761              	.LVL68:
 762              		.loc 1 130 0
 763 0088 0023     		movs	r3, #0
 764 008a 1946     		mov	r1, r3
 765 008c 05AA     		add	r2, sp, #20
 766 008e 0948     		ldr	r0, .L55+12
 767 0090 FFF7FEFF 		bl	canReceive
 768              	.LVL69:
 769              		.loc 1 122 0
 770 0094 0028     		cmp	r0, #0
 771 0096 DFD0     		beq	.L49
 772 0098 C3E7     		b	.L45
 773              	.LVL70:
 774              	.L54:
 775              	.LBE101:
 776              		.loc 1 134 0
 777 009a 6946     		mov	r1, sp
 778 009c 0348     		ldr	r0, .L55+4
 779              	.LVL71:
 780 009e FFF7FEFF 		bl	chEvtUnregister
 781              	.LVL72:
 782              		.loc 1 135 0
 783 00a2 0BB0     		add	sp, sp, #44
 784              		.cfi_def_cfa_offset 28
 785              	.LVL73:
 786              		@ sp needed
 787 00a4 BDE8F083 		pop	{r4, r5, r6, r7, r8, r9, pc}
 788              	.LVL74:
 789              	.L56:
 790              		.align	2
 791              	.L55:
 792 00a8 10000000 		.word	.LC1
 793 00ac 18000000 		.word	CAND1+24
 794 00b0 00000000 		.word	.LANCHOR2
 795 00b4 00000000 		.word	CAND1
 796 00b8 00000000 		.word	.LANCHOR3
 797 00bc 00000000 		.word	.LANCHOR0
 798 00c0 00000000 		.word	ch
ARM GAS  C:\Users\euanm\AppData\Local\Temp\ccyPGXTD.s 			page 15


 799              		.cfi_endproc
 800              	.LFE257:
 801              		.size	cancom_read_thread, .-cancom_read_thread
 802              		.section	.text.comm_can_init,"ax",%progbits
 803              		.align	2
 804              		.p2align 4,,15
 805              		.global	comm_can_init
 806              		.thumb
 807              		.thumb_func
 808              		.type	comm_can_init, %function
 809              	comm_can_init:
 810              	.LFB256:
 811              		.loc 1 77 0
 812              		.cfi_startproc
 813              		@ args = 0, pretend = 0, frame = 0
 814              		@ frame_needed = 0, uses_anonymous_args = 0
 815              	.LVL75:
 816 0000 70B5     		push	{r4, r5, r6, lr}
 817              		.cfi_def_cfa_offset 16
 818              		.cfi_offset 4, -16
 819              		.cfi_offset 5, -12
 820              		.cfi_offset 6, -8
 821              		.cfi_offset 14, -4
 822              	.LBB102:
 823              		.loc 1 79 0
 824 0002 1E4B     		ldr	r3, .L59
 825              	.LBE102:
 826              		.loc 1 83 0
 827 0004 1E49     		ldr	r1, .L59+4
 828              		.loc 1 87 0
 829 0006 1F4D     		ldr	r5, .L59+8
 830              		.loc 1 82 0
 831 0008 1F4E     		ldr	r6, .L59+12
 832              		.loc 1 85 0
 833 000a 2048     		ldr	r0, .L59+16
 834              	.LBB103:
 835              		.loc 1 79 0
 836 000c 4FF0FF32 		mov	r2, #-1
 837              	.LBE103:
 838              		.loc 1 77 0
 839 0010 82B0     		sub	sp, sp, #8
 840              		.cfi_def_cfa_offset 24
 841              		.loc 1 82 0
 842 0012 0024     		movs	r4, #0
 843              	.LBB104:
 844              		.loc 1 79 0
 845 0014 1A60     		str	r2, [r3]
 846              	.LVL76:
 847 0016 5A61     		str	r2, [r3, #20]
 848              	.LVL77:
 849 0018 9A62     		str	r2, [r3, #40]
 850              	.LVL78:
 851              	.LBE104:
 852              		.loc 1 83 0
 853 001a 0C60     		str	r4, [r1]
 854              		.loc 1 82 0
 855 001c 3460     		str	r4, [r6]
ARM GAS  C:\Users\euanm\AppData\Local\Temp\ccyPGXTD.s 			page 16


 856              		.loc 1 85 0
 857 001e FFF7FEFF 		bl	chMtxObjectInit
 858              	.LVL79:
 859              		.loc 1 87 0
 860 0022 2846     		mov	r0, r5
 861 0024 40F28A42 		movw	r2, #1162
 862 0028 4FF48071 		mov	r1, #256
 863 002c FFF7FEFF 		bl	_pal_lld_setgroupmode
 864              	.LVL80:
 865              		.loc 1 91 0
 866 0030 2846     		mov	r0, r5
 867 0032 40F28A42 		movw	r2, #1162
 868 0036 4FF40071 		mov	r1, #512
 869 003a FFF7FEFF 		bl	_pal_lld_setgroupmode
 870              	.LVL81:
 871              		.loc 1 96 0
 872 003e 1449     		ldr	r1, .L59+20
 873 0040 1448     		ldr	r0, .L59+24
 874 0042 FFF7FEFF 		bl	canStart
 875              	.LVL82:
 876              		.loc 1 98 0
 877 0046 0094     		str	r4, [sp]
 878 0048 134B     		ldr	r3, .L59+28
 879 004a 1448     		ldr	r0, .L59+32
 880 004c 4122     		movs	r2, #65
 881 004e 4FF46671 		mov	r1, #920
 882 0052 FFF7FEFF 		bl	chThdCreateStatic
 883              	.LVL83:
 884              		.loc 1 100 0
 885 0056 0094     		str	r4, [sp]
 886 0058 114B     		ldr	r3, .L59+36
 887 005a 1248     		ldr	r0, .L59+40
 888 005c 4022     		movs	r2, #64
 889 005e 4FF4B361 		mov	r1, #1432
 890 0062 FFF7FEFF 		bl	chThdCreateStatic
 891              	.LVL84:
 892              		.loc 1 102 0
 893 0066 0094     		str	r4, [sp]
 894 0068 0F4B     		ldr	r3, .L59+44
 895 006a 1048     		ldr	r0, .L59+48
 896 006c 4022     		movs	r2, #64
 897 006e 41F29811 		movw	r1, #4504
 898 0072 FFF7FEFF 		bl	chThdCreateStatic
 899              	.LVL85:
 900              		.loc 1 104 0
 901 0076 02B0     		add	sp, sp, #8
 902              		.cfi_def_cfa_offset 16
 903              		@ sp needed
 904 0078 70BD     		pop	{r4, r5, r6, pc}
 905              	.L60:
 906 007a 00BF     		.align	2
 907              	.L59:
 908 007c 00000000 		.word	.LANCHOR6
 909 0080 00000000 		.word	.LANCHOR2
 910 0084 00040240 		.word	1073873920
 911 0088 00000000 		.word	.LANCHOR1
 912 008c 00000000 		.word	.LANCHOR7
ARM GAS  C:\Users\euanm\AppData\Local\Temp\ccyPGXTD.s 			page 17


 913 0090 00000000 		.word	.LANCHOR8
 914 0094 00000000 		.word	CAND1
 915 0098 00000000 		.word	cancom_read_thread
 916 009c 00000000 		.word	.LANCHOR9
 917 00a0 00000000 		.word	cancom_status_thread
 918 00a4 00000000 		.word	.LANCHOR10
 919 00a8 00000000 		.word	cancom_process_thread
 920 00ac 00000000 		.word	.LANCHOR11
 921              		.cfi_endproc
 922              	.LFE256:
 923              		.size	comm_can_init, .-comm_can_init
 924              		.section	.text.comm_can_transmit,"ax",%progbits
 925              		.align	2
 926              		.p2align 4,,15
 927              		.global	comm_can_transmit
 928              		.thumb
 929              		.thumb_func
 930              		.type	comm_can_transmit, %function
 931              	comm_can_transmit:
 932              	.LFB260:
 933              		.loc 1 317 0
 934              		.cfi_startproc
 935              		@ args = 0, pretend = 0, frame = 16
 936              		@ frame_needed = 0, uses_anonymous_args = 0
 937              	.LVL86:
 938 0000 70B5     		push	{r4, r5, r6, lr}
 939              		.cfi_def_cfa_offset 16
 940              		.cfi_offset 4, -16
 941              		.cfi_offset 5, -12
 942              		.cfi_offset 6, -8
 943              		.cfi_offset 14, -4
 944 0002 84B0     		sub	sp, sp, #16
 945              		.cfi_def_cfa_offset 32
 946              		.loc 1 323 0
 947 0004 04AC     		add	r4, sp, #16
 948              		.loc 1 320 0
 949 0006 9DF80030 		ldrb	r3, [sp]	@ zero_extendqisi2
 950              		.loc 1 321 0
 951 000a 019E     		ldr	r6, [sp, #4]
 952              		.loc 1 326 0
 953 000c 0E4D     		ldr	r5, .L63
 954              		.loc 1 322 0
 955 000e 43F02003 		orr	r3, r3, #32
 956              		.loc 1 323 0
 957 0012 03F0EF03 		and	r3, r3, #239
 958 0016 62F30303 		bfi	r3, r2, #0, #4
 959 001a 04F8103D 		strb	r3, [r4, #-16]!
 960              		.loc 1 321 0
 961 001e 60F31C06 		bfi	r6, r0, #0, #29
 962              		.loc 1 324 0
 963 0022 02A8     		add	r0, sp, #8
 964              	.LVL87:
 965              		.loc 1 321 0
 966 0024 0196     		str	r6, [sp, #4]
 967              		.loc 1 324 0
 968 0026 FFF7FEFF 		bl	memcpy
 969              	.LVL88:
ARM GAS  C:\Users\euanm\AppData\Local\Temp\ccyPGXTD.s 			page 18


 970              		.loc 1 326 0
 971 002a 2846     		mov	r0, r5
 972 002c FFF7FEFF 		bl	chMtxLock
 973              	.LVL89:
 974              		.loc 1 327 0
 975 0030 2246     		mov	r2, r4
 976 0032 C823     		movs	r3, #200
 977 0034 0021     		movs	r1, #0
 978 0036 0548     		ldr	r0, .L63+4
 979 0038 FFF7FEFF 		bl	canTransmit
 980              	.LVL90:
 981              		.loc 1 328 0
 982 003c 2846     		mov	r0, r5
 983 003e FFF7FEFF 		bl	chMtxUnlock
 984              	.LVL91:
 985              		.loc 1 335 0
 986 0042 04B0     		add	sp, sp, #16
 987              		.cfi_def_cfa_offset 16
 988              		@ sp needed
 989 0044 70BD     		pop	{r4, r5, r6, pc}
 990              	.L64:
 991 0046 00BF     		.align	2
 992              	.L63:
 993 0048 00000000 		.word	.LANCHOR7
 994 004c 00000000 		.word	CAND1
 995              		.cfi_endproc
 996              	.LFE260:
 997              		.size	comm_can_transmit, .-comm_can_transmit
 998              		.global	__aeabi_f2d
 999              		.global	__aeabi_d2iz
 1000              		.section	.text.cancom_status_thread,"ax",%progbits
 1001              		.align	2
 1002              		.p2align 4,,15
 1003              		.thumb
 1004              		.thumb_func
 1005              		.type	cancom_status_thread, %function
 1006              	cancom_status_thread:
 1007              	.LFB259:
 1008              		.loc 1 291 0
 1009              		.cfi_startproc
 1010              		@ args = 0, pretend = 0, frame = 24
 1011              		@ frame_needed = 0, uses_anonymous_args = 0
 1012              	.LVL92:
 1013 0000 70B5     		push	{r4, r5, r6, lr}
 1014              		.cfi_def_cfa_offset 16
 1015              		.cfi_offset 4, -16
 1016              		.cfi_offset 5, -12
 1017              		.cfi_offset 6, -8
 1018              		.cfi_offset 14, -4
 1019              	.LBB105:
 1020              	.LBB106:
 1021              		.loc 2 135 0
 1022 0002 314B     		ldr	r3, .L73
 1023 0004 314A     		ldr	r2, .L73+4
 1024 0006 9B69     		ldr	r3, [r3, #24]
 1025              	.LBE106:
 1026              	.LBE105:
ARM GAS  C:\Users\euanm\AppData\Local\Temp\ccyPGXTD.s 			page 19


 1027              		.loc 1 291 0
 1028 0008 2DED028B 		vpush.64	{d8}
 1029              		.cfi_def_cfa_offset 24
 1030              		.cfi_offset 80, -24
 1031              		.cfi_offset 81, -20
 1032              	.LBB108:
 1033              	.LBB109:
 1034              		.loc 1 298 0
 1035 000c 0026     		movs	r6, #0
 1036              	.LBE109:
 1037              	.LBE108:
 1038              		.loc 1 291 0
 1039 000e 86B0     		sub	sp, sp, #24
 1040              		.cfi_def_cfa_offset 48
 1041              	.LBB113:
 1042              	.LBB110:
 1043              		.loc 1 302 0
 1044 0010 DFED2F8A 		vldr.32	s17, .L73+8
 1045              	.LBE110:
 1046              	.LBE113:
 1047              	.LBB114:
 1048              	.LBB107:
 1049              		.loc 2 135 0
 1050 0014 9A61     		str	r2, [r3, #24]
 1051              	.LBE107:
 1052              	.LBE114:
 1053              	.LBB115:
 1054              	.LBB111:
 1055              		.loc 1 301 0
 1056 0016 B2EE048A 		vmov.f32	s16, #1.0e+1
 1057 001a 0BE0     		b	.L68
 1058              	.LVL93:
 1059              	.L66:
 1060              	.LBE111:
 1061              		.loc 1 308 0
 1062 001c FFF7FEFF 		bl	app_get_configuration
 1063              	.LVL94:
 1064 0020 42F21073 		movw	r3, #10000
 1065 0024 0069     		ldr	r0, [r0, #16]
 1066 0026 B3FBF0F0 		udiv	r0, r3, r0
 1067              	.LVL95:
 1068              		.loc 1 310 0
 1069 002a 0028     		cmp	r0, #0
 1070              	.LVL96:
 1071              		.loc 1 313 0
 1072 002c 08BF     		it	eq
 1073 002e 0120     		moveq	r0, #1
 1074              	.LVL97:
 1075 0030 FFF7FEFF 		bl	chThdSleep
 1076              	.LVL98:
 1077              	.L68:
 1078              		.loc 1 296 0
 1079 0034 FFF7FEFF 		bl	app_get_configuration
 1080              	.LVL99:
 1081 0038 037B     		ldrb	r3, [r0, #12]	@ zero_extendqisi2
 1082 003a 002B     		cmp	r3, #0
 1083 003c EED0     		beq	.L66
ARM GAS  C:\Users\euanm\AppData\Local\Temp\ccyPGXTD.s 			page 20


 1084              	.LBB112:
 1085              		.loc 1 298 0
 1086 003e 0396     		str	r6, [sp, #12]
 1087              		.loc 1 300 0
 1088 0040 FFF7FEFF 		bl	mc_interface_get_rpm
 1089              	.LVL100:
 1090 0044 FDEEC07A 		vcvt.s32.f32	s15, s0
 1091 0048 03AA     		add	r2, sp, #12
 1092 004a 17EE901A 		vmov	r1, s15	@ int
 1093 004e 04A8     		add	r0, sp, #16
 1094 0050 FFF7FEFF 		bl	buffer_append_int32
 1095              	.LVL101:
 1096              		.loc 1 301 0
 1097 0054 FFF7FEFF 		bl	mc_interface_get_tot_current
 1098              	.LVL102:
 1099 0058 20EE080A 		vmul.f32	s0, s0, s16
 1100 005c 03AA     		add	r2, sp, #12
 1101 005e FDEEC07A 		vcvt.s32.f32	s15, s0
 1102 0062 04A8     		add	r0, sp, #16
 1103 0064 CDED017A 		vstr.32	s15, [sp, #4]	@ int
 1104 0068 BDF90410 		ldrsh	r1, [sp, #4]
 1105 006c FFF7FEFF 		bl	buffer_append_int16
 1106              	.LVL103:
 1107              		.loc 1 302 0
 1108 0070 039D     		ldr	r5, [sp, #12]
 1109 0072 6B1C     		adds	r3, r5, #1
 1110 0074 0393     		str	r3, [sp, #12]
 1111 0076 FFF7FEFF 		bl	mc_interface_get_duty_cycle_now
 1112              	.LVL104:
 1113 007a 60EE287A 		vmul.f32	s15, s0, s17
 1114 007e 17EE900A 		vmov	r0, s15
 1115 0082 FFF7FEFF 		bl	__aeabi_f2d
 1116              	.LVL105:
 1117 0086 41EC100B 		vmov	d0, r0, r1
 1118 008a FFF7FEFF 		bl	floor
 1119              	.LVL106:
 1120 008e 51EC100B 		vmov	r0, r1, d0
 1121 0092 FFF7FEFF 		bl	__aeabi_d2iz
 1122              	.LVL107:
 1123              		.loc 1 303 0
 1124 0096 039C     		ldr	r4, [sp, #12]
 1125              		.loc 1 302 0
 1126 0098 06AB     		add	r3, sp, #24
 1127 009a 1D44     		add	r5, r5, r3
 1128              		.loc 1 303 0
 1129 009c 631C     		adds	r3, r4, #1
 1130 009e 0393     		str	r3, [sp, #12]
 1131              		.loc 1 302 0
 1132 00a0 05F8080C 		strb	r0, [r5, #-8]
 1133              		.loc 1 303 0
 1134 00a4 FFF7FEFF 		bl	mc_interface_get_cruise_control_status
 1135              	.LVL108:
 1136 00a8 06AB     		add	r3, sp, #24
 1137 00aa 1C44     		add	r4, r4, r3
 1138 00ac 04F8080C 		strb	r0, [r4, #-8]
 1139              		.loc 1 305 0
 1140 00b0 FFF7FEFF 		bl	app_get_configuration
ARM GAS  C:\Users\euanm\AppData\Local\Temp\ccyPGXTD.s 			page 21


 1141              	.LVL109:
 1142 00b4 0078     		ldrb	r0, [r0]	@ zero_extendqisi2
 1143 00b6 9DF80C20 		ldrb	r2, [sp, #12]	@ zero_extendqisi2
 1144 00ba 40F41060 		orr	r0, r0, #2304
 1145 00be 04A9     		add	r1, sp, #16
 1146 00c0 FFF7FEFF 		bl	comm_can_transmit
 1147              	.LVL110:
 1148 00c4 AAE7     		b	.L66
 1149              	.L74:
 1150 00c6 00BF     		.align	2
 1151              	.L73:
 1152 00c8 00000000 		.word	ch
 1153 00cc 14000000 		.word	.LC2
 1154 00d0 0000C842 		.word	1120403456
 1155              	.LBE112:
 1156              	.LBE115:
 1157              		.cfi_endproc
 1158              	.LFE259:
 1159              		.size	cancom_status_thread, .-cancom_status_thread
 1160              		.section	.text.comm_can_send_buffer,"ax",%progbits
 1161              		.align	2
 1162              		.p2align 4,,15
 1163              		.global	comm_can_send_buffer
 1164              		.thumb
 1165              		.thumb_func
 1166              		.type	comm_can_send_buffer, %function
 1167              	comm_can_send_buffer:
 1168              	.LFB261:
 1169              		.loc 1 355 0
 1170              		.cfi_startproc
 1171              		@ args = 0, pretend = 0, frame = 24
 1172              		@ frame_needed = 0, uses_anonymous_args = 0
 1173              	.LVL111:
 1174 0000 2DE9F04F 		push	{r4, r5, r6, r7, r8, r9, r10, fp, lr}
 1175              		.cfi_def_cfa_offset 36
 1176              		.cfi_offset 4, -36
 1177              		.cfi_offset 5, -32
 1178              		.cfi_offset 6, -28
 1179              		.cfi_offset 7, -24
 1180              		.cfi_offset 8, -20
 1181              		.cfi_offset 9, -16
 1182              		.cfi_offset 10, -12
 1183              		.cfi_offset 11, -8
 1184              		.cfi_offset 14, -4
 1185 0004 87B0     		sub	sp, sp, #28
 1186              		.cfi_def_cfa_offset 64
 1187              		.loc 1 358 0
 1188 0006 062A     		cmp	r2, #6
 1189              		.loc 1 355 0
 1190 0008 1646     		mov	r6, r2
 1191 000a 0190     		str	r0, [sp, #4]
 1192 000c 8B46     		mov	fp, r1
 1193 000e 0293     		str	r3, [sp, #8]
 1194              		.loc 1 358 0
 1195 0010 7CD9     		bls	.L76
 1196 0012 4FF00009 		mov	r9, #0
 1197 0016 D3B2     		uxtb	r3, r2
ARM GAS  C:\Users\euanm\AppData\Local\Temp\ccyPGXTD.s 			page 22


 1198              	.LVL112:
 1199 0018 4C46     		mov	r4, r9
 1200 001a 40F4A067 		orr	r7, r0, #1280
 1201 001e 0393     		str	r3, [sp, #12]
 1202 0020 0D46     		mov	r5, r1
 1203              	.LBB116:
 1204              	.LBB117:
 1205              	.LBB118:
 1206              		.loc 1 368 0
 1207 0022 40F20318 		movw	r8, #259
 1208 0026 01E0     		b	.L77
 1209              	.LVL113:
 1210              	.L82:
 1211 0028 4445     		cmp	r4, r8
 1212 002a 3FD0     		beq	.L79
 1213              	.LVL114:
 1214              	.L77:
 1215              		.loc 1 372 0
 1216 002c 0734     		adds	r4, r4, #7
 1217              	.LVL115:
 1218              		.loc 1 375 0
 1219 002e 5FFA89F3 		uxtb	r3, r9
 1220              		.loc 1 377 0
 1221 0032 A642     		cmp	r6, r4
 1222              		.loc 1 375 0
 1223 0034 8DF81030 		strb	r3, [sp, #16]
 1224              		.loc 1 377 0
 1225 0038 C0F08280 		bcc	.L80
 1226              		.loc 1 378 0
 1227 003c 2B68     		ldr	r3, [r5]	@ unaligned
 1228 003e AA88     		ldrh	r2, [r5, #4]	@ unaligned
 1229 0040 CDF81130 		str	r3, [sp, #17]	@ unaligned
 1230 0044 AB79     		ldrb	r3, [r5, #6]	@ zero_extendqisi2
 1231 0046 ADF81520 		strh	r2, [sp, #21]	@ unaligned
 1232 004a 8DF81730 		strb	r3, [sp, #23]
 1233 004e 0822     		movs	r2, #8
 1234              	.LVL116:
 1235              	.L81:
 1236              		.loc 1 384 0 discriminator 2
 1237 0050 04A9     		add	r1, sp, #16
 1238 0052 3846     		mov	r0, r7
 1239 0054 FFF7FEFF 		bl	comm_can_transmit
 1240              	.LVL117:
 1241              	.LBE118:
 1242              		.loc 1 367 0 discriminator 2
 1243 0058 A642     		cmp	r6, r4
 1244 005a 09F10709 		add	r9, r9, #7
 1245 005e 05F10705 		add	r5, r5, #7
 1246 0062 E1D8     		bhi	.L82
 1247              	.LVL118:
 1248              	.L86:
 1249              	.LBE117:
 1250              		.loc 1 403 0
 1251 0064 FFF7FEFF 		bl	app_get_configuration
 1252              	.LVL119:
 1253 0068 0278     		ldrb	r2, [r0]	@ zero_extendqisi2
 1254 006a 8DF81020 		strb	r2, [sp, #16]
ARM GAS  C:\Users\euanm\AppData\Local\Temp\ccyPGXTD.s 			page 23


 1255              	.LVL120:
 1256              		.loc 1 404 0
 1257 006e 9DF80820 		ldrb	r2, [sp, #8]	@ zero_extendqisi2
 1258 0072 8DF81120 		strb	r2, [sp, #17]
 1259              	.LVL121:
 1260              		.loc 1 405 0
 1261 0076 330A     		lsrs	r3, r6, #8
 1262              		.loc 1 406 0
 1263 0078 9DF80C20 		ldrb	r2, [sp, #12]	@ zero_extendqisi2
 1264 007c 8DF81320 		strb	r2, [sp, #19]
 1265              		.loc 1 407 0
 1266 0080 3146     		mov	r1, r6
 1267 0082 5846     		mov	r0, fp
 1268              		.loc 1 405 0
 1269 0084 8DF81230 		strb	r3, [sp, #18]
 1270              	.LVL122:
 1271              		.loc 1 407 0
 1272 0088 FFF7FEFF 		bl	crc16
 1273              	.LVL123:
 1274              		.loc 1 411 0
 1275 008c 019A     		ldr	r2, [sp, #4]
 1276              		.loc 1 407 0
 1277 008e 0346     		mov	r3, r0
 1278              	.LVL124:
 1279              		.loc 1 408 0
 1280 0090 040A     		lsrs	r4, r0, #8
 1281              		.loc 1 411 0
 1282 0092 04A9     		add	r1, sp, #16
 1283 0094 42F4E060 		orr	r0, r2, #1792
 1284              	.LVL125:
 1285 0098 0622     		movs	r2, #6
 1286              		.loc 1 409 0
 1287 009a 8DF81530 		strb	r3, [sp, #21]
 1288              		.loc 1 408 0
 1289 009e 8DF81440 		strb	r4, [sp, #20]
 1290              	.LVL126:
 1291              		.loc 1 411 0
 1292 00a2 FFF7FEFF 		bl	comm_can_transmit
 1293              	.LVL127:
 1294              	.LBE116:
 1295              		.loc 1 413 0
 1296 00a6 07B0     		add	sp, sp, #28
 1297              		.cfi_remember_state
 1298              		.cfi_def_cfa_offset 36
 1299              		@ sp needed
 1300 00a8 BDE8F08F 		pop	{r4, r5, r6, r7, r8, r9, r10, fp, pc}
 1301              	.LVL128:
 1302              	.L79:
 1303              		.cfi_restore_state
 1304 00ac 019B     		ldr	r3, [sp, #4]
 1305 00ae 43F4C068 		orr	r8, r3, #1536
 1306              	.LBB124:
 1307              	.LBB120:
 1308              	.LBB121:
 1309              		.loc 1 396 0
 1310 00b2 039B     		ldr	r3, [sp, #12]
 1311 00b4 0BF2031A 		addw	r10, fp, #259
ARM GAS  C:\Users\euanm\AppData\Local\Temp\ccyPGXTD.s 			page 24


 1312 00b8 9F1D     		adds	r7, r3, #6
 1313 00ba 03F10809 		add	r9, r3, #8
 1314 00be 10E0     		b	.L85
 1315              	.LVL129:
 1316              	.L89:
 1317              		.loc 1 393 0
 1318 00c0 DAF80020 		ldr	r2, [r10]	@ unaligned
 1319 00c4 BAF80430 		ldrh	r3, [r10, #4]	@ unaligned
 1320 00c8 CDF81220 		str	r2, [sp, #18]	@ unaligned
 1321 00cc ADF81630 		strh	r3, [sp, #22]	@ unaligned
 1322 00d0 0822     		movs	r2, #8
 1323              	.L84:
 1324              		.loc 1 399 0 discriminator 2
 1325 00d2 04A9     		add	r1, sp, #16
 1326 00d4 4046     		mov	r0, r8
 1327 00d6 FFF7FEFF 		bl	comm_can_transmit
 1328              	.LVL130:
 1329              	.LBE121:
 1330              		.loc 1 387 0 discriminator 2
 1331 00da A642     		cmp	r6, r4
 1332 00dc 0AF1060A 		add	r10, r10, #6
 1333 00e0 C0D9     		bls	.L86
 1334              	.LVL131:
 1335              	.L85:
 1336              	.LBB122:
 1337              		.loc 1 389 0
 1338 00e2 230A     		lsrs	r3, r4, #8
 1339              		.loc 1 390 0
 1340 00e4 8DF81140 		strb	r4, [sp, #17]
 1341              		.loc 1 392 0
 1342 00e8 0634     		adds	r4, r4, #6
 1343              	.LVL132:
 1344 00ea E5B2     		uxtb	r5, r4
 1345              	.LVL133:
 1346 00ec A642     		cmp	r6, r4
 1347              		.loc 1 389 0
 1348 00ee 8DF81030 		strb	r3, [sp, #16]
 1349              		.loc 1 396 0
 1350 00f2 A7EB0502 		sub	r2, r7, r5
 1351              		.loc 1 392 0
 1352 00f6 E3D2     		bcs	.L89
 1353              		.loc 1 396 0
 1354 00f8 D2B2     		uxtb	r2, r2
 1355 00fa 5146     		mov	r1, r10
 1356 00fc 0DF11200 		add	r0, sp, #18
 1357 0100 FFF7FEFF 		bl	memcpy
 1358              	.LVL134:
 1359 0104 C5EB0902 		rsb	r2, r5, r9
 1360 0108 D2B2     		uxtb	r2, r2
 1361 010a E2E7     		b	.L84
 1362              	.LVL135:
 1363              	.L76:
 1364              	.LBE122:
 1365              	.LBE120:
 1366              	.LBE124:
 1367              	.LBB125:
 1368              		.loc 1 360 0
ARM GAS  C:\Users\euanm\AppData\Local\Temp\ccyPGXTD.s 			page 25


 1369 010c FFF7FEFF 		bl	app_get_configuration
 1370              	.LVL136:
 1371 0110 0378     		ldrb	r3, [r0]	@ zero_extendqisi2
 1372 0112 8DF81030 		strb	r3, [sp, #16]
 1373              	.LVL137:
 1374              		.loc 1 362 0
 1375 0116 5946     		mov	r1, fp
 1376              		.loc 1 361 0
 1377 0118 9DF80830 		ldrb	r3, [sp, #8]	@ zero_extendqisi2
 1378 011c 8DF81130 		strb	r3, [sp, #17]
 1379              		.loc 1 362 0
 1380 0120 3246     		mov	r2, r6
 1381 0122 0DF11200 		add	r0, sp, #18
 1382 0126 FFF7FEFF 		bl	memcpy
 1383              	.LVL138:
 1384              		.loc 1 364 0
 1385 012a 019B     		ldr	r3, [sp, #4]
 1386 012c B21C     		adds	r2, r6, #2
 1387              	.LVL139:
 1388 012e D2B2     		uxtb	r2, r2
 1389              	.LVL140:
 1390 0130 43F40060 		orr	r0, r3, #2048
 1391 0134 04A9     		add	r1, sp, #16
 1392 0136 FFF7FEFF 		bl	comm_can_transmit
 1393              	.LVL141:
 1394              	.LBE125:
 1395              		.loc 1 413 0
 1396 013a 07B0     		add	sp, sp, #28
 1397              		.cfi_remember_state
 1398              		.cfi_def_cfa_offset 36
 1399              		@ sp needed
 1400 013c BDE8F08F 		pop	{r4, r5, r6, r7, r8, r9, r10, fp, pc}
 1401              	.LVL142:
 1402              	.L80:
 1403              		.cfi_restore_state
 1404              	.LBB126:
 1405              	.LBB123:
 1406              	.LBB119:
 1407              		.loc 1 381 0
 1408 0140 039A     		ldr	r2, [sp, #12]
 1409 0142 D21A     		subs	r2, r2, r3
 1410 0144 D2B2     		uxtb	r2, r2
 1411 0146 2946     		mov	r1, r5
 1412 0148 0DF11100 		add	r0, sp, #17
 1413 014c FFF7FEFF 		bl	memcpy
 1414              	.LVL143:
 1415 0150 039B     		ldr	r3, [sp, #12]
 1416 0152 C4F10802 		rsb	r2, r4, #8
 1417 0156 1A44     		add	r2, r2, r3
 1418 0158 D2B2     		uxtb	r2, r2
 1419 015a 79E7     		b	.L81
 1420              	.LBE119:
 1421              	.LBE123:
 1422              	.LBE126:
 1423              		.cfi_endproc
 1424              	.LFE261:
 1425              		.size	comm_can_send_buffer, .-comm_can_send_buffer
ARM GAS  C:\Users\euanm\AppData\Local\Temp\ccyPGXTD.s 			page 26


 1426              		.section	.text.send_packet_wrapper,"ax",%progbits
 1427              		.align	2
 1428              		.p2align 4,,15
 1429              		.thumb
 1430              		.thumb_func
 1431              		.type	send_packet_wrapper, %function
 1432              	send_packet_wrapper:
 1433              	.LFB271:
 1434              		.loc 1 503 0
 1435              		.cfi_startproc
 1436              		@ args = 0, pretend = 0, frame = 0
 1437              		@ frame_needed = 0, uses_anonymous_args = 0
 1438              		@ link register save eliminated.
 1439              	.LVL144:
 1440 0000 10B4     		push	{r4}
 1441              		.cfi_def_cfa_offset 4
 1442              		.cfi_offset 4, -4
 1443              		.loc 1 504 0
 1444 0002 044C     		ldr	r4, .L92
 1445 0004 0A46     		mov	r2, r1
 1446 0006 0123     		movs	r3, #1
 1447 0008 0146     		mov	r1, r0
 1448              	.LVL145:
 1449 000a 2078     		ldrb	r0, [r4]	@ zero_extendqisi2
 1450              	.LVL146:
 1451              		.loc 1 505 0
 1452 000c 5DF8044B 		ldr	r4, [sp], #4
 1453              		.cfi_restore 4
 1454              		.cfi_def_cfa_offset 0
 1455              		.loc 1 504 0
 1456 0010 FFF7FEBF 		b	comm_can_send_buffer
 1457              	.LVL147:
 1458              	.L93:
 1459              		.align	2
 1460              	.L92:
 1461 0014 00000000 		.word	.LANCHOR5
 1462              		.cfi_endproc
 1463              	.LFE271:
 1464              		.size	send_packet_wrapper, .-send_packet_wrapper
 1465              		.section	.text.comm_can_set_duty,"ax",%progbits
 1466              		.align	2
 1467              		.p2align 4,,15
 1468              		.global	comm_can_set_duty
 1469              		.thumb
 1470              		.thumb_func
 1471              		.type	comm_can_set_duty, %function
 1472              	comm_can_set_duty:
 1473              	.LFB262:
 1474              		.loc 1 415 0
 1475              		.cfi_startproc
 1476              		@ args = 0, pretend = 0, frame = 8
 1477              		@ frame_needed = 0, uses_anonymous_args = 0
 1478              	.LVL148:
 1479 0000 10B5     		push	{r4, lr}
 1480              		.cfi_def_cfa_offset 8
 1481              		.cfi_offset 4, -8
 1482              		.cfi_offset 14, -4
ARM GAS  C:\Users\euanm\AppData\Local\Temp\ccyPGXTD.s 			page 27


 1483              		.loc 1 418 0
 1484 0002 DFED0C7A 		vldr.32	s15, .L96
 1485 0006 20EE270A 		vmul.f32	s0, s0, s15
 1486              	.LVL149:
 1487              		.loc 1 415 0
 1488 000a 82B0     		sub	sp, sp, #8
 1489              		.cfi_def_cfa_offset 16
 1490              		.loc 1 416 0
 1491 000c 02AA     		add	r2, sp, #8
 1492              		.loc 1 418 0
 1493 000e FDEEC07A 		vcvt.s32.f32	s15, s0
 1494              		.loc 1 416 0
 1495 0012 0023     		movs	r3, #0
 1496 0014 42F8083D 		str	r3, [r2, #-8]!
 1497              		.loc 1 418 0
 1498 0018 17EE901A 		vmov	r1, s15	@ int
 1499              		.loc 1 415 0
 1500 001c 0446     		mov	r4, r0
 1501              		.loc 1 418 0
 1502 001e 01A8     		add	r0, sp, #4
 1503              	.LVL150:
 1504 0020 FFF7FEFF 		bl	buffer_append_int32
 1505              	.LVL151:
 1506              		.loc 1 419 0
 1507 0024 01A9     		add	r1, sp, #4
 1508 0026 2046     		mov	r0, r4
 1509 0028 9DF80020 		ldrb	r2, [sp]	@ zero_extendqisi2
 1510 002c FFF7FEFF 		bl	comm_can_transmit
 1511              	.LVL152:
 1512              		.loc 1 420 0
 1513 0030 02B0     		add	sp, sp, #8
 1514              		.cfi_def_cfa_offset 8
 1515              		@ sp needed
 1516 0032 10BD     		pop	{r4, pc}
 1517              	.L97:
 1518              		.align	2
 1519              	.L96:
 1520 0034 0050C347 		.word	1203982336
 1521              		.cfi_endproc
 1522              	.LFE262:
 1523              		.size	comm_can_set_duty, .-comm_can_set_duty
 1524              		.section	.text.comm_can_set_current,"ax",%progbits
 1525              		.align	2
 1526              		.p2align 4,,15
 1527              		.global	comm_can_set_current
 1528              		.thumb
 1529              		.thumb_func
 1530              		.type	comm_can_set_current, %function
 1531              	comm_can_set_current:
 1532              	.LFB263:
 1533              		.loc 1 422 0
 1534              		.cfi_startproc
 1535              		@ args = 0, pretend = 0, frame = 8
 1536              		@ frame_needed = 0, uses_anonymous_args = 0
 1537              	.LVL153:
 1538 0000 10B5     		push	{r4, lr}
 1539              		.cfi_def_cfa_offset 8
ARM GAS  C:\Users\euanm\AppData\Local\Temp\ccyPGXTD.s 			page 28


 1540              		.cfi_offset 4, -8
 1541              		.cfi_offset 14, -4
 1542              		.loc 1 425 0
 1543 0002 DFED0D7A 		vldr.32	s15, .L100
 1544 0006 20EE270A 		vmul.f32	s0, s0, s15
 1545              	.LVL154:
 1546              		.loc 1 422 0
 1547 000a 82B0     		sub	sp, sp, #8
 1548              		.cfi_def_cfa_offset 16
 1549              		.loc 1 423 0
 1550 000c 02AA     		add	r2, sp, #8
 1551              		.loc 1 425 0
 1552 000e FDEEC07A 		vcvt.s32.f32	s15, s0
 1553              		.loc 1 423 0
 1554 0012 0023     		movs	r3, #0
 1555 0014 42F8083D 		str	r3, [r2, #-8]!
 1556              		.loc 1 425 0
 1557 0018 17EE901A 		vmov	r1, s15	@ int
 1558              		.loc 1 422 0
 1559 001c 0446     		mov	r4, r0
 1560              		.loc 1 425 0
 1561 001e 01A8     		add	r0, sp, #4
 1562              	.LVL155:
 1563 0020 FFF7FEFF 		bl	buffer_append_int32
 1564              	.LVL156:
 1565              		.loc 1 426 0
 1566 0024 01A9     		add	r1, sp, #4
 1567 0026 44F48070 		orr	r0, r4, #256
 1568 002a 9DF80020 		ldrb	r2, [sp]	@ zero_extendqisi2
 1569 002e FFF7FEFF 		bl	comm_can_transmit
 1570              	.LVL157:
 1571              		.loc 1 427 0
 1572 0032 02B0     		add	sp, sp, #8
 1573              		.cfi_def_cfa_offset 8
 1574              		@ sp needed
 1575 0034 10BD     		pop	{r4, pc}
 1576              	.L101:
 1577 0036 00BF     		.align	2
 1578              	.L100:
 1579 0038 00007A44 		.word	1148846080
 1580              		.cfi_endproc
 1581              	.LFE263:
 1582              		.size	comm_can_set_current, .-comm_can_set_current
 1583              		.section	.text.comm_can_set_servo,"ax",%progbits
 1584              		.align	2
 1585              		.p2align 4,,15
 1586              		.global	comm_can_set_servo
 1587              		.thumb
 1588              		.thumb_func
 1589              		.type	comm_can_set_servo, %function
 1590              	comm_can_set_servo:
 1591              	.LFB264:
 1592              		.loc 1 429 0
 1593              		.cfi_startproc
 1594              		@ args = 0, pretend = 0, frame = 16
 1595              		@ frame_needed = 0, uses_anonymous_args = 0
 1596              	.LVL158:
ARM GAS  C:\Users\euanm\AppData\Local\Temp\ccyPGXTD.s 			page 29


 1597 0000 70B5     		push	{r4, r5, r6, lr}
 1598              		.cfi_def_cfa_offset 16
 1599              		.cfi_offset 4, -16
 1600              		.cfi_offset 5, -12
 1601              		.cfi_offset 6, -8
 1602              		.cfi_offset 14, -4
 1603              		.loc 1 432 0
 1604 0002 DFED107A 		vldr.32	s15, .L104
 1605 0006 20EE270A 		vmul.f32	s0, s0, s15
 1606              	.LVL159:
 1607              		.loc 1 429 0
 1608 000a 84B0     		sub	sp, sp, #16
 1609              		.cfi_def_cfa_offset 32
 1610              		.loc 1 430 0
 1611 000c 04AA     		add	r2, sp, #16
 1612              		.loc 1 432 0
 1613 000e FDEEC07A 		vcvt.s32.f32	s15, s0
 1614              		.loc 1 430 0
 1615 0012 0023     		movs	r3, #0
 1616 0014 42F80C3D 		str	r3, [r2, #-12]!
 1617              		.loc 1 429 0
 1618 0018 0646     		mov	r6, r0
 1619 001a 0D46     		mov	r5, r1
 1620              		.loc 1 432 0
 1621 001c 02A8     		add	r0, sp, #8
 1622              	.LVL160:
 1623 001e 17EE901A 		vmov	r1, s15	@ int
 1624              	.LVL161:
 1625 0022 FFF7FEFF 		bl	buffer_append_int32
 1626              	.LVL162:
 1627              		.loc 1 433 0
 1628 0026 019B     		ldr	r3, [sp, #4]
 1629 0028 04AA     		add	r2, sp, #16
 1630 002a D418     		adds	r4, r2, r3
 1631 002c 0133     		adds	r3, r3, #1
 1632              		.loc 1 434 0
 1633 002e 02A9     		add	r1, sp, #8
 1634 0030 46F42060 		orr	r0, r6, #2560
 1635 0034 DAB2     		uxtb	r2, r3
 1636              		.loc 1 433 0
 1637 0036 04F8085C 		strb	r5, [r4, #-8]
 1638 003a 0193     		str	r3, [sp, #4]
 1639              		.loc 1 434 0
 1640 003c FFF7FEFF 		bl	comm_can_transmit
 1641              	.LVL163:
 1642              		.loc 1 435 0
 1643 0040 04B0     		add	sp, sp, #16
 1644              		.cfi_def_cfa_offset 16
 1645              		@ sp needed
 1646 0042 70BD     		pop	{r4, r5, r6, pc}
 1647              	.L105:
 1648              		.align	2
 1649              	.L104:
 1650 0044 00247449 		.word	1232348160
 1651              		.cfi_endproc
 1652              	.LFE264:
 1653              		.size	comm_can_set_servo, .-comm_can_set_servo
ARM GAS  C:\Users\euanm\AppData\Local\Temp\ccyPGXTD.s 			page 30


 1654              		.section	.text.comm_can_set_brake_servo,"ax",%progbits
 1655              		.align	2
 1656              		.p2align 4,,15
 1657              		.global	comm_can_set_brake_servo
 1658              		.thumb
 1659              		.thumb_func
 1660              		.type	comm_can_set_brake_servo, %function
 1661              	comm_can_set_brake_servo:
 1662              	.LFB265:
 1663              		.loc 1 437 0
 1664              		.cfi_startproc
 1665              		@ args = 0, pretend = 0, frame = 8
 1666              		@ frame_needed = 0, uses_anonymous_args = 0
 1667              	.LVL164:
 1668 0000 10B5     		push	{r4, lr}
 1669              		.cfi_def_cfa_offset 8
 1670              		.cfi_offset 4, -8
 1671              		.cfi_offset 14, -4
 1672              		.loc 1 440 0
 1673 0002 DFED0D7A 		vldr.32	s15, .L108
 1674 0006 20EE270A 		vmul.f32	s0, s0, s15
 1675              	.LVL165:
 1676              		.loc 1 437 0
 1677 000a 82B0     		sub	sp, sp, #8
 1678              		.cfi_def_cfa_offset 16
 1679              		.loc 1 438 0
 1680 000c 02AA     		add	r2, sp, #8
 1681              		.loc 1 440 0
 1682 000e FDEEC07A 		vcvt.s32.f32	s15, s0
 1683              		.loc 1 438 0
 1684 0012 0023     		movs	r3, #0
 1685 0014 42F8083D 		str	r3, [r2, #-8]!
 1686              		.loc 1 440 0
 1687 0018 17EE901A 		vmov	r1, s15	@ int
 1688              		.loc 1 437 0
 1689 001c 0446     		mov	r4, r0
 1690              		.loc 1 440 0
 1691 001e 01A8     		add	r0, sp, #4
 1692              	.LVL166:
 1693 0020 FFF7FEFF 		bl	buffer_append_int32
 1694              	.LVL167:
 1695              		.loc 1 441 0
 1696 0024 01A9     		add	r1, sp, #4
 1697 0026 44F43060 		orr	r0, r4, #2816
 1698 002a 9DF80020 		ldrb	r2, [sp]	@ zero_extendqisi2
 1699 002e FFF7FEFF 		bl	comm_can_transmit
 1700              	.LVL168:
 1701              		.loc 1 442 0
 1702 0032 02B0     		add	sp, sp, #8
 1703              		.cfi_def_cfa_offset 8
 1704              		@ sp needed
 1705 0034 10BD     		pop	{r4, pc}
 1706              	.L109:
 1707 0036 00BF     		.align	2
 1708              	.L108:
 1709 0038 00247449 		.word	1232348160
 1710              		.cfi_endproc
ARM GAS  C:\Users\euanm\AppData\Local\Temp\ccyPGXTD.s 			page 31


 1711              	.LFE265:
 1712              		.size	comm_can_set_brake_servo, .-comm_can_set_brake_servo
 1713              		.section	.text.comm_can_set_current_brake,"ax",%progbits
 1714              		.align	2
 1715              		.p2align 4,,15
 1716              		.global	comm_can_set_current_brake
 1717              		.thumb
 1718              		.thumb_func
 1719              		.type	comm_can_set_current_brake, %function
 1720              	comm_can_set_current_brake:
 1721              	.LFB266:
 1722              		.loc 1 444 0
 1723              		.cfi_startproc
 1724              		@ args = 0, pretend = 0, frame = 8
 1725              		@ frame_needed = 0, uses_anonymous_args = 0
 1726              	.LVL169:
 1727 0000 10B5     		push	{r4, lr}
 1728              		.cfi_def_cfa_offset 8
 1729              		.cfi_offset 4, -8
 1730              		.cfi_offset 14, -4
 1731              		.loc 1 447 0
 1732 0002 DFED0D7A 		vldr.32	s15, .L112
 1733 0006 20EE270A 		vmul.f32	s0, s0, s15
 1734              	.LVL170:
 1735              		.loc 1 444 0
 1736 000a 82B0     		sub	sp, sp, #8
 1737              		.cfi_def_cfa_offset 16
 1738              		.loc 1 445 0
 1739 000c 02AA     		add	r2, sp, #8
 1740              		.loc 1 447 0
 1741 000e FDEEC07A 		vcvt.s32.f32	s15, s0
 1742              		.loc 1 445 0
 1743 0012 0023     		movs	r3, #0
 1744 0014 42F8083D 		str	r3, [r2, #-8]!
 1745              		.loc 1 447 0
 1746 0018 17EE901A 		vmov	r1, s15	@ int
 1747              		.loc 1 444 0
 1748 001c 0446     		mov	r4, r0
 1749              		.loc 1 447 0
 1750 001e 01A8     		add	r0, sp, #4
 1751              	.LVL171:
 1752 0020 FFF7FEFF 		bl	buffer_append_int32
 1753              	.LVL172:
 1754              		.loc 1 448 0
 1755 0024 01A9     		add	r1, sp, #4
 1756 0026 44F40070 		orr	r0, r4, #512
 1757 002a 9DF80020 		ldrb	r2, [sp]	@ zero_extendqisi2
 1758 002e FFF7FEFF 		bl	comm_can_transmit
 1759              	.LVL173:
 1760              		.loc 1 449 0
 1761 0032 02B0     		add	sp, sp, #8
 1762              		.cfi_def_cfa_offset 8
 1763              		@ sp needed
 1764 0034 10BD     		pop	{r4, pc}
 1765              	.L113:
 1766 0036 00BF     		.align	2
 1767              	.L112:
ARM GAS  C:\Users\euanm\AppData\Local\Temp\ccyPGXTD.s 			page 32


 1768 0038 00007A44 		.word	1148846080
 1769              		.cfi_endproc
 1770              	.LFE266:
 1771              		.size	comm_can_set_current_brake, .-comm_can_set_current_brake
 1772              		.section	.text.comm_can_set_rpm,"ax",%progbits
 1773              		.align	2
 1774              		.p2align 4,,15
 1775              		.global	comm_can_set_rpm
 1776              		.thumb
 1777              		.thumb_func
 1778              		.type	comm_can_set_rpm, %function
 1779              	comm_can_set_rpm:
 1780              	.LFB267:
 1781              		.loc 1 451 0
 1782              		.cfi_startproc
 1783              		@ args = 0, pretend = 0, frame = 16
 1784              		@ frame_needed = 0, uses_anonymous_args = 0
 1785              	.LVL174:
 1786 0000 70B5     		push	{r4, r5, r6, lr}
 1787              		.cfi_def_cfa_offset 16
 1788              		.cfi_offset 4, -16
 1789              		.cfi_offset 5, -12
 1790              		.cfi_offset 6, -8
 1791              		.cfi_offset 14, -4
 1792 0002 84B0     		sub	sp, sp, #16
 1793              		.cfi_def_cfa_offset 32
 1794              		.loc 1 452 0
 1795 0004 04AA     		add	r2, sp, #16
 1796              		.loc 1 454 0
 1797 0006 FDEEC07A 		vcvt.s32.f32	s15, s0
 1798              		.loc 1 452 0
 1799 000a 0023     		movs	r3, #0
 1800 000c 42F80C3D 		str	r3, [r2, #-12]!
 1801              		.loc 1 451 0
 1802 0010 0646     		mov	r6, r0
 1803 0012 0D46     		mov	r5, r1
 1804              		.loc 1 454 0
 1805 0014 02A8     		add	r0, sp, #8
 1806              	.LVL175:
 1807 0016 17EE901A 		vmov	r1, s15	@ int
 1808              	.LVL176:
 1809 001a FFF7FEFF 		bl	buffer_append_int32
 1810              	.LVL177:
 1811              		.loc 1 455 0
 1812 001e 019B     		ldr	r3, [sp, #4]
 1813 0020 04AA     		add	r2, sp, #16
 1814 0022 D418     		adds	r4, r2, r3
 1815 0024 0133     		adds	r3, r3, #1
 1816              		.loc 1 457 0
 1817 0026 02A9     		add	r1, sp, #8
 1818 0028 46F44070 		orr	r0, r6, #768
 1819 002c DAB2     		uxtb	r2, r3
 1820              		.loc 1 455 0
 1821 002e 04F8085C 		strb	r5, [r4, #-8]
 1822 0032 0193     		str	r3, [sp, #4]
 1823              		.loc 1 457 0
 1824 0034 FFF7FEFF 		bl	comm_can_transmit
ARM GAS  C:\Users\euanm\AppData\Local\Temp\ccyPGXTD.s 			page 33


 1825              	.LVL178:
 1826              		.loc 1 458 0
 1827 0038 04B0     		add	sp, sp, #16
 1828              		.cfi_def_cfa_offset 16
 1829              		@ sp needed
 1830 003a 70BD     		pop	{r4, r5, r6, pc}
 1831              		.cfi_endproc
 1832              	.LFE267:
 1833              		.size	comm_can_set_rpm, .-comm_can_set_rpm
 1834              		.section	.text.comm_can_set_pos,"ax",%progbits
 1835              		.align	2
 1836              		.p2align 4,,15
 1837              		.global	comm_can_set_pos
 1838              		.thumb
 1839              		.thumb_func
 1840              		.type	comm_can_set_pos, %function
 1841              	comm_can_set_pos:
 1842              	.LFB268:
 1843              		.loc 1 460 0
 1844              		.cfi_startproc
 1845              		@ args = 0, pretend = 0, frame = 8
 1846              		@ frame_needed = 0, uses_anonymous_args = 0
 1847              	.LVL179:
 1848 0000 10B5     		push	{r4, lr}
 1849              		.cfi_def_cfa_offset 8
 1850              		.cfi_offset 4, -8
 1851              		.cfi_offset 14, -4
 1852              		.loc 1 463 0
 1853 0002 DFED0D7A 		vldr.32	s15, .L118
 1854 0006 20EE270A 		vmul.f32	s0, s0, s15
 1855              	.LVL180:
 1856              		.loc 1 460 0
 1857 000a 82B0     		sub	sp, sp, #8
 1858              		.cfi_def_cfa_offset 16
 1859              		.loc 1 461 0
 1860 000c 02AA     		add	r2, sp, #8
 1861              		.loc 1 463 0
 1862 000e FDEEC07A 		vcvt.s32.f32	s15, s0
 1863              		.loc 1 461 0
 1864 0012 0023     		movs	r3, #0
 1865 0014 42F8083D 		str	r3, [r2, #-8]!
 1866              		.loc 1 463 0
 1867 0018 17EE901A 		vmov	r1, s15	@ int
 1868              		.loc 1 460 0
 1869 001c 0446     		mov	r4, r0
 1870              		.loc 1 463 0
 1871 001e 01A8     		add	r0, sp, #4
 1872              	.LVL181:
 1873 0020 FFF7FEFF 		bl	buffer_append_int32
 1874              	.LVL182:
 1875              		.loc 1 464 0
 1876 0024 01A9     		add	r1, sp, #4
 1877 0026 44F48060 		orr	r0, r4, #1024
 1878 002a 9DF80020 		ldrb	r2, [sp]	@ zero_extendqisi2
 1879 002e FFF7FEFF 		bl	comm_can_transmit
 1880              	.LVL183:
 1881              		.loc 1 465 0
ARM GAS  C:\Users\euanm\AppData\Local\Temp\ccyPGXTD.s 			page 34


 1882 0032 02B0     		add	sp, sp, #8
 1883              		.cfi_def_cfa_offset 8
 1884              		@ sp needed
 1885 0034 10BD     		pop	{r4, pc}
 1886              	.L119:
 1887 0036 00BF     		.align	2
 1888              	.L118:
 1889 0038 00247449 		.word	1232348160
 1890              		.cfi_endproc
 1891              	.LFE268:
 1892              		.size	comm_can_set_pos, .-comm_can_set_pos
 1893              		.section	.text.comm_can_get_status_msg_index,"ax",%progbits
 1894              		.align	2
 1895              		.p2align 4,,15
 1896              		.global	comm_can_get_status_msg_index
 1897              		.thumb
 1898              		.thumb_func
 1899              		.type	comm_can_get_status_msg_index, %function
 1900              	comm_can_get_status_msg_index:
 1901              	.LFB269:
 1902              		.loc 1 476 0
 1903              		.cfi_startproc
 1904              		@ args = 0, pretend = 0, frame = 0
 1905              		@ frame_needed = 0, uses_anonymous_args = 0
 1906              		@ link register save eliminated.
 1907              	.LVL184:
 1908              		.loc 1 477 0
 1909 0000 0228     		cmp	r0, #2
 1910              		.loc 1 478 0
 1911 0002 DDBF     		ittte	le
 1912 0004 034B     		ldrle	r3, .L123
 1913 0006 00EB8000 		addle	r0, r0, r0, lsl #2
 1914              	.LVL185:
 1915 000a 03EB8000 		addle	r0, r3, r0, lsl #2
 1916              		.loc 1 480 0
 1917 000e 0020     		movgt	r0, #0
 1918              		.loc 1 482 0
 1919 0010 7047     		bx	lr
 1920              	.L124:
 1921 0012 00BF     		.align	2
 1922              	.L123:
 1923 0014 00000000 		.word	.LANCHOR6
 1924              		.cfi_endproc
 1925              	.LFE269:
 1926              		.size	comm_can_get_status_msg_index, .-comm_can_get_status_msg_index
 1927              		.section	.text.comm_can_get_status_msg_id,"ax",%progbits
 1928              		.align	2
 1929              		.p2align 4,,15
 1930              		.global	comm_can_get_status_msg_id
 1931              		.thumb
 1932              		.thumb_func
 1933              		.type	comm_can_get_status_msg_id, %function
 1934              	comm_can_get_status_msg_id:
 1935              	.LFB270:
 1936              		.loc 1 493 0
 1937              		.cfi_startproc
 1938              		@ args = 0, pretend = 0, frame = 0
ARM GAS  C:\Users\euanm\AppData\Local\Temp\ccyPGXTD.s 			page 35


 1939              		@ frame_needed = 0, uses_anonymous_args = 0
 1940              		@ link register save eliminated.
 1941              	.LVL186:
 1942              	.LBB127:
 1943              		.loc 1 495 0
 1944 0000 0A4B     		ldr	r3, .L131
 1945 0002 1A68     		ldr	r2, [r3]
 1946 0004 9042     		cmp	r0, r2
 1947 0006 0FD0     		beq	.L128
 1948              	.LVL187:
 1949 0008 5A69     		ldr	r2, [r3, #20]
 1950 000a 9042     		cmp	r0, r2
 1951 000c 06D0     		beq	.L129
 1952              	.LVL188:
 1953 000e 9A6A     		ldr	r2, [r3, #40]
 1954 0010 8242     		cmp	r2, r0
 1955              		.loc 1 494 0
 1956 0012 08BF     		it	eq
 1957 0014 0220     		moveq	r0, #2
 1958              	.LVL189:
 1959              		.loc 1 495 0
 1960 0016 02D0     		beq	.L126
 1961              	.LBE127:
 1962              		.loc 1 500 0
 1963 0018 0020     		movs	r0, #0
 1964              		.loc 1 501 0
 1965 001a 7047     		bx	lr
 1966              	.LVL190:
 1967              	.L129:
 1968              	.LBB128:
 1969              		.loc 1 494 0
 1970 001c 0120     		movs	r0, #1
 1971              	.LVL191:
 1972              	.L126:
 1973              		.loc 1 496 0
 1974 001e 00EB8000 		add	r0, r0, r0, lsl #2
 1975 0022 03EB8000 		add	r0, r3, r0, lsl #2
 1976 0026 7047     		bx	lr
 1977              	.LVL192:
 1978              	.L128:
 1979              		.loc 1 494 0
 1980 0028 0020     		movs	r0, #0
 1981              	.LVL193:
 1982 002a F8E7     		b	.L126
 1983              	.L132:
 1984              		.align	2
 1985              	.L131:
 1986 002c 00000000 		.word	.LANCHOR6
 1987              	.LBE128:
 1988              		.cfi_endproc
 1989              	.LFE270:
 1990              		.size	comm_can_get_status_msg_id, .-comm_can_get_status_msg_id
 1991              		.section	.bss.cancom_process_thread_wa,"aw",%nobits
 1992              		.align	3
 1993              		.set	.LANCHOR11,. + 0
 1994              		.type	cancom_process_thread_wa, %object
 1995              		.size	cancom_process_thread_wa, 4504
ARM GAS  C:\Users\euanm\AppData\Local\Temp\ccyPGXTD.s 			page 36


 1996              	cancom_process_thread_wa:
 1997 0000 00000000 		.space	4504
 1997      00000000 
 1997      00000000 
 1997      00000000 
 1997      00000000 
 1998              		.section	.bss.rx_frame_read,"aw",%nobits
 1999              		.align	2
 2000              		.set	.LANCHOR1,. + 0
 2001              		.type	rx_frame_read, %object
 2002              		.size	rx_frame_read, 4
 2003              	rx_frame_read:
 2004 0000 00000000 		.space	4
 2005              		.section	.rodata.cancfg,"a",%progbits
 2006              		.align	2
 2007              		.set	.LANCHOR8,. + 0
 2008              		.type	cancfg, %object
 2009              		.size	cancfg, 8
 2010              	cancfg:
 2011 0000 64000000 		.word	100
 2012 0004 06001800 		.word	1572870
 2013              		.section	.bss.rx_buffer,"aw",%nobits
 2014              		.align	2
 2015              		.set	.LANCHOR4,. + 0
 2016              		.type	rx_buffer, %object
 2017              		.size	rx_buffer, 1024
 2018              	rx_buffer:
 2019 0000 00000000 		.space	1024
 2019      00000000 
 2019      00000000 
 2019      00000000 
 2019      00000000 
 2020              		.section	.bss.cancom_status_thread_wa,"aw",%nobits
 2021              		.align	3
 2022              		.set	.LANCHOR10,. + 0
 2023              		.type	cancom_status_thread_wa, %object
 2024              		.size	cancom_status_thread_wa, 1432
 2025              	cancom_status_thread_wa:
 2026 0000 00000000 		.space	1432
 2026      00000000 
 2026      00000000 
 2026      00000000 
 2026      00000000 
 2027              		.section	.bss.stat_msgs,"aw",%nobits
 2028              		.align	2
 2029              		.set	.LANCHOR6,. + 0
 2030              		.type	stat_msgs, %object
 2031              		.size	stat_msgs, 60
 2032              	stat_msgs:
 2033 0000 00000000 		.space	60
 2033      00000000 
 2033      00000000 
 2033      00000000 
 2033      00000000 
 2034              		.section	.bss.rx_frames,"aw",%nobits
 2035              		.align	2
 2036              		.set	.LANCHOR3,. + 0
ARM GAS  C:\Users\euanm\AppData\Local\Temp\ccyPGXTD.s 			page 37


 2037              		.type	rx_frames, %object
 2038              		.size	rx_frames, 2000
 2039              	rx_frames:
 2040 0000 00000000 		.space	2000
 2040      00000000 
 2040      00000000 
 2040      00000000 
 2040      00000000 
 2041              		.section	.rodata.str1.4,"aMS",%progbits,1
 2042              		.align	2
 2043              	.LC0:
 2044 0000 43616E63 		.ascii	"Cancom process\000"
 2044      6F6D2070 
 2044      726F6365 
 2044      737300
 2045 000f 00       		.space	1
 2046              	.LC1:
 2047 0010 43414E00 		.ascii	"CAN\000"
 2048              	.LC2:
 2049 0014 43414E20 		.ascii	"CAN status\000"
 2049      73746174 
 2049      757300
 2050              		.section	.bss.can_mtx,"aw",%nobits
 2051              		.align	2
 2052              		.set	.LANCHOR7,. + 0
 2053              		.type	can_mtx, %object
 2054              		.size	can_mtx, 16
 2055              	can_mtx:
 2056 0000 00000000 		.space	16
 2056      00000000 
 2056      00000000 
 2056      00000000 
 2057              		.section	.bss.cancom_read_thread_wa,"aw",%nobits
 2058              		.align	3
 2059              		.set	.LANCHOR9,. + 0
 2060              		.type	cancom_read_thread_wa, %object
 2061              		.size	cancom_read_thread_wa, 920
 2062              	cancom_read_thread_wa:
 2063 0000 00000000 		.space	920
 2063      00000000 
 2063      00000000 
 2063      00000000 
 2063      00000000 
 2064              		.section	.bss.process_tp,"aw",%nobits
 2065              		.align	2
 2066              		.set	.LANCHOR0,. + 0
 2067              		.type	process_tp, %object
 2068              		.size	process_tp, 4
 2069              	process_tp:
 2070 0000 00000000 		.space	4
 2071              		.section	.bss.rx_buffer_last_id,"aw",%nobits
 2072              		.align	2
 2073              		.set	.LANCHOR5,. + 0
 2074              		.type	rx_buffer_last_id, %object
 2075              		.size	rx_buffer_last_id, 4
 2076              	rx_buffer_last_id:
 2077 0000 00000000 		.space	4
ARM GAS  C:\Users\euanm\AppData\Local\Temp\ccyPGXTD.s 			page 38


 2078              		.section	.bss.rx_frame_write,"aw",%nobits
 2079              		.align	2
 2080              		.set	.LANCHOR2,. + 0
 2081              		.type	rx_frame_write, %object
 2082              		.size	rx_frame_write, 4
 2083              	rx_frame_write:
 2084 0000 00000000 		.space	4
 2085              		.text
 2086              	.Letext0:
 2087              		.file 7 "c:\\program files (x86)\\gnu tools arm embedded\\5.4 2016q3\\lib\\gcc\\arm-none-eabi\\5.4
 2088              		.file 8 "c:\\program files (x86)\\gnu tools arm embedded\\5.4 2016q3\\arm-none-eabi\\include\\mach
 2089              		.file 9 "c:\\program files (x86)\\gnu tools arm embedded\\5.4 2016q3\\arm-none-eabi\\include\\sys\
 2090              		.file 10 "ChibiOS_3.0.2/os/rt/ports/ARMCMx/compilers/GCC/chtypes.h"
 2091              		.file 11 "ChibiOS_3.0.2/os/rt/include/chsystypes.h"
 2092              		.file 12 "ChibiOS_3.0.2/os/rt/include/chschd.h"
 2093              		.file 13 "ChibiOS_3.0.2/os/ext/CMSIS/ST/stm32f407xx.h"
 2094              		.file 14 "ChibiOS_3.0.2/os/rt/ports/ARMCMx/chcore.h"
 2095              		.file 15 "ChibiOS_3.0.2/os/rt/ports/ARMCMx/chcore_v7m.h"
 2096              		.file 16 "ChibiOS_3.0.2/os/rt/include/chtm.h"
 2097              		.file 17 "ChibiOS_3.0.2/os/rt/include/chsem.h"
 2098              		.file 18 "ChibiOS_3.0.2/os/rt/include/chmtx.h"
 2099              		.file 19 "datatypes.h"
 2100              		.file 20 "ChibiOS_3.0.2/os/hal/ports/STM32/LLD/GPIOv2/pal_lld.h"
 2101              		.file 21 "ChibiOS_3.0.2/os/hal/include/can.h"
 2102              		.file 22 "ChibiOS_3.0.2/os/hal/ports/STM32/LLD/can_lld.h"
 2103              		.file 23 "ChibiOS_3.0.2/os/rt/include/chsys.h"
 2104              		.file 24 "ChibiOS_3.0.2/os/ext/CMSIS/include/core_cm4.h"
 2105              		.file 25 "buffer.h"
 2106              		.file 26 "applications/app.h"
 2107              		.file 27 "mc_interface.h"
 2108              		.file 28 "timeout.h"
 2109              		.file 29 "commands.h"
 2110              		.file 30 "crc.h"
 2111              		.file 31 "c:\\program files (x86)\\gnu tools arm embedded\\5.4 2016q3\\arm-none-eabi\\include\\mat