ARM GAS  C:\Users\euanm\AppData\Local\Temp\ccyKTXNK.s 			page 1


   1              		.syntax unified
   2              		.cpu cortex-m4
   3              		.eabi_attribute 27, 1
   4              		.eabi_attribute 28, 1
   5              		.fpu fpv4-sp-d16
   6              		.eabi_attribute 20, 1
   7              		.eabi_attribute 21, 1
   8              		.eabi_attribute 23, 3
   9              		.eabi_attribute 24, 1
  10              		.eabi_attribute 25, 1
  11              		.eabi_attribute 26, 1
  12              		.eabi_attribute 30, 2
  13              		.eabi_attribute 34, 1
  14              		.eabi_attribute 18, 4
  15              		.thumb
  16              		.syntax unified
  17              		.file	"commands.c"
  18              		.text
  19              	.Ltext0:
  20              		.cfi_sections	.debug_frame
  21              		.section	.text.detect_thread,"ax",%progbits
  22              		.align	2
  23              		.p2align 4,,15
  24              		.thumb
  25              		.thumb_func
  26              		.type	detect_thread, %function
  27              	detect_thread:
  28              	.LFB268:
  29              		.file 1 "commands.c"
  30              		.loc 1 1449 0
  31              		.cfi_startproc
  32              		@ args = 0, pretend = 0, frame = 16
  33              		@ frame_needed = 0, uses_anonymous_args = 0
  34              	.LVL0:
  35 0000 2DE9F04F 		push	{r4, r5, r6, r7, r8, r9, r10, fp, lr}
  36              		.cfi_def_cfa_offset 36
  37              		.cfi_offset 4, -36
  38              		.cfi_offset 5, -32
  39              		.cfi_offset 6, -28
  40              		.cfi_offset 7, -24
  41              		.cfi_offset 8, -20
  42              		.cfi_offset 9, -16
  43              		.cfi_offset 10, -12
  44              		.cfi_offset 11, -8
  45              		.cfi_offset 14, -4
  46              	.LBB111:
  47              	.LBB112:
  48              		.file 2 "ChibiOS_3.0.2/os/rt/include/chregistry.h"
  49              		.loc 2 135 0
  50 0004 2E4B     		ldr	r3, .L11
  51              	.LBE112:
  52              	.LBE111:
  53              		.loc 1 1454 0
  54 0006 2F4A     		ldr	r2, .L11+4
  55              	.LBB115:
  56              	.LBB113:
  57              		.loc 2 135 0
ARM GAS  C:\Users\euanm\AppData\Local\Temp\ccyKTXNK.s 			page 2


  58 0008 9B69     		ldr	r3, [r3, #24]
  59 000a 2F49     		ldr	r1, .L11+8
  60 000c DFF8CCB0 		ldr	fp, .L11+28
  61 0010 DFF8D8A0 		ldr	r10, .L11+44
  62 0014 DFF8D890 		ldr	r9, .L11+48
  63 0018 DFF8D880 		ldr	r8, .L11+52
  64 001c 2B4C     		ldr	r4, .L11+12
  65 001e 2C4F     		ldr	r7, .L11+16
  66              	.LBE113:
  67              	.LBE115:
  68              		.loc 1 1449 0
  69 0020 2DED028B 		vpush.64	{d8}
  70              		.cfi_def_cfa_offset 44
  71              		.cfi_offset 80, -44
  72              		.cfi_offset 81, -40
  73 0024 9FED2B8A 		vldr.32	s16, .L11+20
  74              	.LBB116:
  75              		.loc 1 1462 0
  76 0028 DFED2B8A 		vldr.32	s17, .L11+24
  77              	.LBE116:
  78              	.LBB127:
  79              	.LBB114:
  80              		.loc 2 135 0
  81 002c 9961     		str	r1, [r3, #24]
  82              	.LVL1:
  83              	.LBE114:
  84              	.LBE127:
  85              		.loc 1 1449 0
  86 002e 85B0     		sub	sp, sp, #20
  87              		.cfi_def_cfa_offset 64
  88              		.loc 1 1454 0
  89 0030 1360     		str	r3, [r2]
  90              	.LVL2:
  91              	.L5:
  92              	.LBB128:
  93              		.loc 1 1459 0
  94 0032 2A4E     		ldr	r6, .L11+28
  95 0034 2A4D     		ldr	r5, .L11+32
  96              		.loc 1 1457 0
  97 0036 0120     		movs	r0, #1
  98 0038 FFF7FEFF 		bl	chEvtWaitAny
  99              	.LVL3:
 100              		.loc 1 1459 0
 101 003c 3146     		mov	r1, r6
 102 003e 2846     		mov	r0, r5
 103 0040 234B     		ldr	r3, .L11+16
 104 0042 284A     		ldr	r2, .L11+36
 105 0044 9AED001A 		vldr.32	s2, [r10]
 106 0048 D9ED000A 		vldr.32	s1, [r9]
 107 004c 98ED000A 		vldr.32	s0, [r8]
 108 0050 FFF7FEFF 		bl	conf_general_detect_motor_param
 109              	.LVL4:
 110 0054 70B3     		cbz	r0, .L2
 111 0056 D5ED007A 		vldr.32	s15, [r5]
 112 005a 67EE887A 		vmul.f32	s15, s15, s16
 113 005e FDEEE77A 		vcvt.s32.f32	s15, s15
 114 0062 CDED017A 		vstr.32	s15, [sp, #4]	@ int
ARM GAS  C:\Users\euanm\AppData\Local\Temp\ccyKTXNK.s 			page 3


 115              	.L3:
 116              		.loc 1 1467 0
 117 0066 1723     		movs	r3, #23
 118 0068 0125     		movs	r5, #1
 119              		.loc 1 1468 0
 120 006a 03AA     		add	r2, sp, #12
 121 006c 0199     		ldr	r1, [sp, #4]
 122 006e 1748     		ldr	r0, .L11+12
 123              		.loc 1 1467 0
 124 0070 2370     		strb	r3, [r4]
 125 0072 0395     		str	r5, [sp, #12]
 126              		.loc 1 1468 0
 127 0074 FFF7FEFF 		bl	buffer_append_int32
 128              	.LVL5:
 129              		.loc 1 1469 0
 130 0078 DBED007A 		vldr.32	s15, [fp]
 131              		.loc 1 1470 0
 132 007c 194E     		ldr	r6, .L11+36
 133              		.loc 1 1469 0
 134 007e 1348     		ldr	r0, .L11+12
 135 0080 67EE887A 		vmul.f32	s15, s15, s16
 136 0084 03AA     		add	r2, sp, #12
 137 0086 FDEEE77A 		vcvt.s32.f32	s15, s15
 138 008a 17EE901A 		vmov	r1, s15	@ int
 139 008e FFF7FEFF 		bl	buffer_append_int32
 140              	.LVL6:
 141              		.loc 1 1470 0
 142 0092 03CE     		ldmia	r6!, {r0, r1}
 143 0094 039B     		ldr	r3, [sp, #12]
 144              	.LBB117:
 145              	.LBB118:
 146              		.loc 1 97 0
 147 0096 144A     		ldr	r2, .L11+40
 148              	.LBE118:
 149              	.LBE117:
 150              		.loc 1 1470 0
 151 0098 E050     		str	r0, [r4, r3]	@ unaligned
 152 009a E618     		adds	r6, r4, r3
 153              	.LBB123:
 154              	.LBB119:
 155              		.loc 1 97 0
 156 009c 1268     		ldr	r2, [r2]
 157              	.LBE119:
 158              	.LBE123:
 159              		.loc 1 1472 0
 160 009e 3D68     		ldr	r5, [r7]
 161              		.loc 1 1470 0
 162 00a0 7160     		str	r1, [r6, #4]	@ unaligned
 163              		.loc 1 1472 0
 164 00a2 0933     		adds	r3, r3, #9
 165              	.LBB124:
 166              	.LBB120:
 167              		.loc 1 98 0
 168 00a4 0948     		ldr	r0, .L11+12
 169              	.LBE120:
 170              	.LBE124:
 171              		.loc 1 1472 0
ARM GAS  C:\Users\euanm\AppData\Local\Temp\ccyKTXNK.s 			page 4


 172 00a6 0393     		str	r3, [sp, #12]
 173              	.LBB125:
 174              	.LBB121:
 175              		.loc 1 98 0
 176 00a8 1946     		mov	r1, r3
 177              	.LBE121:
 178              	.LBE125:
 179              		.loc 1 1472 0
 180 00aa 3572     		strb	r5, [r6, #8]
 181              	.LVL7:
 182              	.LBB126:
 183              	.LBB122:
 184              		.loc 1 97 0
 185 00ac 002A     		cmp	r2, #0
 186 00ae C0D0     		beq	.L5
 187              		.loc 1 98 0
 188 00b0 9047     		blx	r2
 189              	.LVL8:
 190              	.LBE122:
 191              	.LBE126:
 192              	.LBE128:
 193              		.loc 1 1474 0
 194 00b2 BEE7     		b	.L5
 195              	.L2:
 196              	.LBB129:
 197              		.loc 1 1462 0
 198 00b4 C5ED008A 		vstr.32	s17, [r5]
 199              		.loc 1 1463 0
 200 00b8 C6ED008A 		vstr.32	s17, [r6]
 201 00bc 0190     		str	r0, [sp, #4]
 202 00be D2E7     		b	.L3
 203              	.L12:
 204              		.align	2
 205              	.L11:
 206 00c0 00000000 		.word	ch
 207 00c4 00000000 		.word	.LANCHOR0
 208 00c8 00000000 		.word	.LC0
 209 00cc 00000000 		.word	.LANCHOR8
 210 00d0 00000000 		.word	.LANCHOR1
 211 00d4 00007A44 		.word	1148846080
 212 00d8 00000000 		.word	0
 213 00dc 00000000 		.word	.LANCHOR3
 214 00e0 00000000 		.word	.LANCHOR4
 215 00e4 00000000 		.word	.LANCHOR2
 216 00e8 00000000 		.word	.LANCHOR9
 217 00ec 00000000 		.word	.LANCHOR5
 218 00f0 00000000 		.word	.LANCHOR6
 219 00f4 00000000 		.word	.LANCHOR7
 220              	.LBE129:
 221              		.cfi_endproc
 222              	.LFE268:
 223              		.size	detect_thread, .-detect_thread
 224              		.section	.text.commands_init,"ax",%progbits
 225              		.align	2
 226              		.p2align 4,,15
 227              		.global	commands_init
 228              		.thumb
ARM GAS  C:\Users\euanm\AppData\Local\Temp\ccyKTXNK.s 			page 5


 229              		.thumb_func
 230              		.type	commands_init, %function
 231              	commands_init:
 232              	.LFB257:
 233              		.loc 1 72 0
 234              		.cfi_startproc
 235              		@ args = 0, pretend = 0, frame = 0
 236              		@ frame_needed = 0, uses_anonymous_args = 0
 237 0000 10B5     		push	{r4, lr}
 238              		.cfi_def_cfa_offset 8
 239              		.cfi_offset 4, -8
 240              		.cfi_offset 14, -4
 241 0002 82B0     		sub	sp, sp, #8
 242              		.cfi_def_cfa_offset 16
 243              		.loc 1 73 0
 244 0004 0024     		movs	r4, #0
 245 0006 0094     		str	r4, [sp]
 246 0008 054B     		ldr	r3, .L15
 247 000a 0648     		ldr	r0, .L15+4
 248 000c 4022     		movs	r2, #64
 249 000e 40F69811 		movw	r1, #2456
 250 0012 FFF7FEFF 		bl	chThdCreateStatic
 251              	.LVL9:
 252              		.loc 1 74 0
 253 0016 044B     		ldr	r3, .L15+8
 254 0018 1C70     		strb	r4, [r3]
 255              		.loc 1 75 0
 256 001a 02B0     		add	sp, sp, #8
 257              		.cfi_def_cfa_offset 8
 258              		@ sp needed
 259 001c 10BD     		pop	{r4, pc}
 260              	.L16:
 261 001e 00BF     		.align	2
 262              	.L15:
 263 0020 00000000 		.word	detect_thread
 264 0024 00000000 		.word	.LANCHOR10
 265 0028 00000000 		.word	.LANCHOR11
 266              		.cfi_endproc
 267              	.LFE257:
 268              		.size	commands_init, .-commands_init
 269              		.section	.text.commands_set_send_func,"ax",%progbits
 270              		.align	2
 271              		.p2align 4,,15
 272              		.global	commands_set_send_func
 273              		.thumb
 274              		.thumb_func
 275              		.type	commands_set_send_func, %function
 276              	commands_set_send_func:
 277              	.LFB258:
 278              		.loc 1 83 0
 279              		.cfi_startproc
 280              		@ args = 0, pretend = 0, frame = 0
 281              		@ frame_needed = 0, uses_anonymous_args = 0
 282              		@ link register save eliminated.
 283              	.LVL10:
 284              		.loc 1 84 0
 285 0000 014B     		ldr	r3, .L18
ARM GAS  C:\Users\euanm\AppData\Local\Temp\ccyKTXNK.s 			page 6


 286 0002 1860     		str	r0, [r3]
 287 0004 7047     		bx	lr
 288              	.L19:
 289 0006 00BF     		.align	2
 290              	.L18:
 291 0008 00000000 		.word	.LANCHOR9
 292              		.cfi_endproc
 293              	.LFE258:
 294              		.size	commands_set_send_func, .-commands_set_send_func
 295              		.section	.text.commands_send_packet,"ax",%progbits
 296              		.align	2
 297              		.p2align 4,,15
 298              		.global	commands_send_packet
 299              		.thumb
 300              		.thumb_func
 301              		.type	commands_send_packet, %function
 302              	commands_send_packet:
 303              	.LFB259:
 304              		.loc 1 96 0
 305              		.cfi_startproc
 306              		@ args = 0, pretend = 0, frame = 0
 307              		@ frame_needed = 0, uses_anonymous_args = 0
 308              		@ link register save eliminated.
 309              	.LVL11:
 310              		.loc 1 97 0
 311 0000 024B     		ldr	r3, .L22
 312 0002 1B68     		ldr	r3, [r3]
 313 0004 03B1     		cbz	r3, .L20
 314              		.loc 1 98 0
 315 0006 1847     		bx	r3	@ indirect register sibling call
 316              	.LVL12:
 317              	.L20:
 318 0008 7047     		bx	lr
 319              	.L23:
 320 000a 00BF     		.align	2
 321              	.L22:
 322 000c 00000000 		.word	.LANCHOR9
 323              		.cfi_endproc
 324              	.LFE259:
 325              		.size	commands_send_packet, .-commands_send_packet
 326              		.section	.text.commands_process_packet,"ax",%progbits
 327              		.align	2
 328              		.p2align 4,,15
 329              		.global	commands_process_packet
 330              		.thumb
 331              		.thumb_func
 332              		.type	commands_process_packet, %function
 333              	commands_process_packet:
 334              	.LFB260:
 335              		.loc 1 111 0
 336              		.cfi_startproc
 337              		@ args = 0, pretend = 0, frame = 1928
 338              		@ frame_needed = 0, uses_anonymous_args = 0
 339              	.LVL13:
 340              		.loc 1 112 0
 341 0000 0029     		cmp	r1, #0
 342 0002 3BD0     		beq	.L307
ARM GAS  C:\Users\euanm\AppData\Local\Temp\ccyKTXNK.s 			page 7


 343              		.loc 1 111 0
 344 0004 2DE9F04F 		push	{r4, r5, r6, r7, r8, r9, r10, fp, lr}
 345              		.cfi_def_cfa_offset 36
 346              		.cfi_offset 4, -36
 347              		.cfi_offset 5, -32
 348              		.cfi_offset 6, -28
 349              		.cfi_offset 7, -24
 350              		.cfi_offset 8, -20
 351              		.cfi_offset 9, -16
 352              		.cfi_offset 10, -12
 353              		.cfi_offset 11, -8
 354              		.cfi_offset 14, -4
 355 0008 2DED108B 		vpush.64	{d8, d9, d10, d11, d12, d13, d14, d15}
 356              		.cfi_def_cfa_offset 100
 357              		.cfi_offset 80, -100
 358              		.cfi_offset 81, -96
 359              		.cfi_offset 82, -92
 360              		.cfi_offset 83, -88
 361              		.cfi_offset 84, -84
 362              		.cfi_offset 85, -80
 363              		.cfi_offset 86, -76
 364              		.cfi_offset 87, -72
 365              		.cfi_offset 88, -68
 366              		.cfi_offset 89, -64
 367              		.cfi_offset 90, -60
 368              		.cfi_offset 91, -56
 369              		.cfi_offset 92, -52
 370              		.cfi_offset 93, -48
 371              		.cfi_offset 94, -44
 372              		.cfi_offset 95, -40
 373              		.loc 1 129 0
 374 000c 0446     		mov	r4, r0
 375              		.loc 1 111 0
 376 000e ADF28C7D 		subw	sp, sp, #1932
 377              		.cfi_def_cfa_offset 2032
 378              		.loc 1 129 0
 379 0012 14F8016B 		ldrb	r6, [r4], #1	@ zero_extendqisi2
 380              		.loc 1 117 0
 381 0016 0023     		movs	r3, #0
 382 0018 8846     		mov	r8, r1
 383 001a 0746     		mov	r7, r0
 384 001c 1793     		str	r3, [sp, #92]
 385              	.LVL14:
 386              		.loc 1 131 0
 387 001e 01F1FF3A 		add	r10, r1, #-1
 388              	.LVL15:
 389              		.loc 1 133 0
 390 0022 282E     		cmp	r6, #40
 391 0024 74D8     		bhi	.L24
 392 0026 DFE816F0 		tbh	[pc, r6, lsl #1]
 393              	.L28:
 394 002a 710F     		.2byte	(.L27-.L28)/2
 395 002c 6D0F     		.2byte	(.L29-.L28)/2
 396 002e 570F     		.2byte	(.L30-.L28)/2
 397 0030 1F0F     		.2byte	(.L31-.L28)/2
 398 0032 D30D     		.2byte	(.L32-.L28)/2
 399 0034 C10D     		.2byte	(.L33-.L28)/2
ARM GAS  C:\Users\euanm\AppData\Local\Temp\ccyKTXNK.s 			page 8


 400 0036 AF0D     		.2byte	(.L34-.L28)/2
 401 0038 9D0D     		.2byte	(.L35-.L28)/2
 402 003a 8F0D     		.2byte	(.L36-.L28)/2
 403 003c C100     		.2byte	(.L37-.L28)/2
 404 003e 7900     		.2byte	(.L38-.L28)/2
 405 0040 7300     		.2byte	(.L24-.L28)/2
 406 0042 AC07     		.2byte	(.L39-.L28)/2
 407 0044 B704     		.2byte	(.L40-.L28)/2
 408 0046 B704     		.2byte	(.L40-.L28)/2
 409 0048 CF0A     		.2byte	(.L41-.L28)/2
 410 004a 1902     		.2byte	(.L42-.L28)/2
 411 004c 1902     		.2byte	(.L42-.L28)/2
 412 004e AA0A     		.2byte	(.L43-.L28)/2
 413 0050 AD04     		.2byte	(.L44-.L28)/2
 414 0052 7300     		.2byte	(.L24-.L28)/2
 415 0054 7300     		.2byte	(.L24-.L28)/2
 416 0056 7300     		.2byte	(.L24-.L28)/2
 417 0058 880A     		.2byte	(.L45-.L28)/2
 418 005a CD01     		.2byte	(.L46-.L28)/2
 419 005c 7001     		.2byte	(.L47-.L28)/2
 420 005e 1001     		.2byte	(.L48-.L28)/2
 421 0060 2A00     		.2byte	(.L49-.L28)/2
 422 0062 0E01     		.2byte	(.L50-.L28)/2
 423 0064 9000     		.2byte	(.L51-.L28)/2
 424 0066 9300     		.2byte	(.L52-.L28)/2
 425 0068 DE00     		.2byte	(.L53-.L28)/2
 426 006a D200     		.2byte	(.L54-.L28)/2
 427 006c 9D13     		.2byte	(.L55-.L28)/2
 428 006e 7713     		.2byte	(.L56-.L28)/2
 429 0070 3813     		.2byte	(.L57-.L28)/2
 430 0072 BF11     		.2byte	(.L58-.L28)/2
 431 0074 7300     		.2byte	(.L24-.L28)/2
 432 0076 E50F     		.2byte	(.L236-.L28)/2
 433 0078 810F     		.2byte	(.L60-.L28)/2
 434 007a 5113     		.2byte	(.L61-.L28)/2
 435              	.LVL16:
 436              		.p2align 1
 437              	.L307:
 438              		.cfi_def_cfa_offset 0
 439              		.cfi_restore 4
 440              		.cfi_restore 5
 441              		.cfi_restore 6
 442              		.cfi_restore 7
 443              		.cfi_restore 8
 444              		.cfi_restore 9
 445              		.cfi_restore 10
 446              		.cfi_restore 11
 447              		.cfi_restore 14
 448              		.cfi_restore 80
 449              		.cfi_restore 81
 450              		.cfi_restore 82
 451              		.cfi_restore 83
 452              		.cfi_restore 84
 453              		.cfi_restore 85
 454              		.cfi_restore 86
 455              		.cfi_restore 87
 456              		.cfi_restore 88
ARM GAS  C:\Users\euanm\AppData\Local\Temp\ccyKTXNK.s 			page 9


 457              		.cfi_restore 89
 458              		.cfi_restore 90
 459              		.cfi_restore 91
 460              		.cfi_restore 92
 461              		.cfi_restore 93
 462              		.cfi_restore 94
 463              		.cfi_restore 95
 464 007c 7047     		bx	lr
 465              	.LVL17:
 466              	.L49:
 467              		.cfi_def_cfa_offset 2032
 468              		.cfi_offset 4, -36
 469              		.cfi_offset 5, -32
 470              		.cfi_offset 6, -28
 471              		.cfi_offset 7, -24
 472              		.cfi_offset 8, -20
 473              		.cfi_offset 9, -16
 474              		.cfi_offset 10, -12
 475              		.cfi_offset 11, -8
 476              		.cfi_offset 14, -4
 477              		.cfi_offset 80, -100
 478              		.cfi_offset 81, -96
 479              		.cfi_offset 82, -92
 480              		.cfi_offset 83, -88
 481              		.cfi_offset 84, -84
 482              		.cfi_offset 85, -80
 483              		.cfi_offset 86, -76
 484              		.cfi_offset 87, -72
 485              		.cfi_offset 88, -68
 486              		.cfi_offset 89, -64
 487              		.cfi_offset 90, -60
 488              		.cfi_offset 91, -56
 489              		.cfi_offset 92, -52
 490              		.cfi_offset 93, -48
 491              		.cfi_offset 94, -44
 492              		.cfi_offset 95, -40
 493              	.LBB130:
 494              		.loc 1 774 0
 495 007e FFF7FEFF 		bl	mc_interface_get_configuration
 496              	.LVL18:
 497 0082 C44D     		ldr	r5, .L339
 498 0084 0146     		mov	r1, r0
 499 0086 4FF4A072 		mov	r2, #320
 500 008a 2846     		mov	r0, r5
 501 008c FFF7FEFF 		bl	memcpy
 502              	.LVL19:
 503              		.loc 1 776 0
 504 0090 95F83C61 		ldrb	r6, [r5, #316]	@ zero_extendqisi2
 505              	.LVL20:
 506 0094 002E     		cmp	r6, #0
 507 0096 42F0DB85 		bne	.L78
 508              	.LBB131:
 509              		.loc 1 777 0
 510 009a 4FF4A072 		mov	r2, #320
 511 009e 2946     		mov	r1, r5
 512 00a0 BD48     		ldr	r0, .L339+4
 513 00a2 FFF7FEFF 		bl	memcpy
ARM GAS  C:\Users\euanm\AppData\Local\Temp\ccyKTXNK.s 			page 10


 514              	.LVL21:
 515              		.loc 1 779 0
 516 00a6 2046     		mov	r0, r4
 517 00a8 17A9     		add	r1, sp, #92
 518 00aa 9FEDBC0A 		vldr.32	s0, .L339+8
 519              		.loc 1 778 0
 520 00ae 1796     		str	r6, [sp, #92]
 521              		.loc 1 779 0
 522 00b0 FFF7FEFF 		bl	buffer_get_float32
 523              	.LVL22:
 524              		.loc 1 782 0
 525 00b4 BA4B     		ldr	r3, .L339+12
 526              		.loc 1 783 0
 527 00b6 BB49     		ldr	r1, .L339+16
 528              		.loc 1 782 0
 529 00b8 C5F89C30 		str	r3, [r5, #156]	@ float
 530              		.loc 1 781 0
 531 00bc 0222     		movs	r2, #2
 532              		.loc 1 784 0
 533 00be BA4B     		ldr	r3, .L339+20
 534              		.loc 1 783 0
 535 00c0 C5F89410 		str	r1, [r5, #148]	@ float
 536              		.loc 1 785 0
 537 00c4 2846     		mov	r0, r5
 538              		.loc 1 779 0
 539 00c6 B0EE408A 		vmov.f32	s16, s0
 540              	.LVL23:
 541              		.loc 1 781 0
 542 00ca AA70     		strb	r2, [r5, #2]
 543              		.loc 1 784 0
 544 00cc C5F89830 		str	r3, [r5, #152]	@ float
 545              		.loc 1 785 0
 546 00d0 FFF7FEFF 		bl	mc_interface_set_configuration
 547              	.LVL24:
 548              		.loc 1 788 0
 549 00d4 B0EE480A 		vmov.f32	s0, s16
 550 00d8 E2A8     		add	r0, sp, #904
 551 00da FFF7FEFF 		bl	mcpwm_foc_hall_detect
 552              	.LVL25:
 553 00de 0446     		mov	r4, r0
 554              	.LVL26:
 555              		.loc 1 789 0
 556 00e0 AD48     		ldr	r0, .L339+4
 557              	.LBB132:
 558              	.LBB133:
 559              		.loc 1 97 0
 560 00e2 B24E     		ldr	r6, .L339+24
 561              	.LBE133:
 562              	.LBE132:
 563              		.loc 1 789 0
 564 00e4 FFF7FEFF 		bl	mc_interface_set_configuration
 565              	.LVL27:
 566              		.loc 1 792 0
 567 00e8 B14A     		ldr	r2, .L339+28
 568              		.loc 1 793 0
 569 00ea E2AB     		add	r3, sp, #904
 570 00ec 03CB     		ldmia	r3!, {r0, r1}
ARM GAS  C:\Users\euanm\AppData\Local\Temp\ccyKTXNK.s 			page 11


 571              		.loc 1 792 0
 572 00ee 1546     		mov	r5, r2
 573 00f0 1B23     		movs	r3, #27
 574 00f2 05F8013B 		strb	r3, [r5], #1
 575              	.LBB136:
 576              	.LBB134:
 577              		.loc 1 97 0
 578 00f6 3368     		ldr	r3, [r6]
 579              	.LBE134:
 580              	.LBE136:
 581              		.loc 1 793 0
 582 00f8 C2F80100 		str	r0, [r2, #1]	@ unaligned
 583              		.loc 1 795 0
 584 00fc 84F00104 		eor	r4, r4, #1
 585              	.LVL28:
 586 0100 0A20     		movs	r0, #10
 587              		.loc 1 793 0
 588 0102 6960     		str	r1, [r5, #4]	@ unaligned
 589              		.loc 1 795 0
 590 0104 1790     		str	r0, [sp, #92]
 591 0106 5472     		strb	r4, [r2, #9]
 592              	.LVL29:
 593              	.LBB137:
 594              	.LBB135:
 595              		.loc 1 97 0
 596 0108 13B1     		cbz	r3, .L24
 597              		.loc 1 98 0
 598 010a 0146     		mov	r1, r0
 599 010c 1046     		mov	r0, r2
 600 010e 9847     		blx	r3
 601              	.LVL30:
 602              	.L24:
 603              	.LBE135:
 604              	.LBE137:
 605              	.LBE131:
 606              	.LBE130:
 607              		.loc 1 1374 0
 608 0110 0DF28C7D 		addw	sp, sp, #1932
 609              		.cfi_remember_state
 610              		.cfi_def_cfa_offset 100
 611              		@ sp needed
 612 0114 BDEC108B 		vldm	sp!, {d8-d15}
 613              		.cfi_restore 94
 614              		.cfi_restore 95
 615              		.cfi_restore 92
 616              		.cfi_restore 93
 617              		.cfi_restore 90
 618              		.cfi_restore 91
 619              		.cfi_restore 88
 620              		.cfi_restore 89
 621              		.cfi_restore 86
 622              		.cfi_restore 87
 623              		.cfi_restore 84
 624              		.cfi_restore 85
 625              		.cfi_restore 82
 626              		.cfi_restore 83
 627              		.cfi_restore 80
ARM GAS  C:\Users\euanm\AppData\Local\Temp\ccyKTXNK.s 			page 12


 628              		.cfi_restore 81
 629              		.cfi_def_cfa_offset 36
 630 0118 BDE8F08F 		pop	{r4, r5, r6, r7, r8, r9, r10, fp, pc}
 631              	.LVL31:
 632              	.L38:
 633              		.cfi_restore_state
 634              	.LBB267:
 635              		.loc 1 224 0
 636 011c FFF7FEFF 		bl	mc_interface_get_configuration
 637              	.LVL32:
 638 0120 9C4B     		ldr	r3, .L339
 639 0122 0146     		mov	r1, r0
 640 0124 4FF4A072 		mov	r2, #320
 641 0128 1846     		mov	r0, r3
 642 012a FFF7FEFF 		bl	memcpy
 643              	.LVL33:
 644              		.loc 1 227 0
 645 012e A149     		ldr	r1, .L339+32
 646 0130 7B78     		ldrb	r3, [r7, #1]	@ zero_extendqisi2
 647              		.loc 1 229 0
 648 0132 8278     		ldrb	r2, [r0, #2]	@ zero_extendqisi2
 649              		.loc 1 227 0
 650 0134 0B70     		strb	r3, [r1]
 651 0136 0121     		movs	r1, #1
 652 0138 1791     		str	r1, [sp, #92]
 653              		.loc 1 229 0
 654 013a 32B9     		cbnz	r2, .L51
 655              		.loc 1 230 0
 656 013c 002B     		cmp	r3, #0
 657 013e 02F03F83 		beq	.L327
 658              		.loc 1 232 0
 659 0142 012B     		cmp	r3, #1
 660 0144 01D1     		bne	.L51
 661              		.loc 1 233 0
 662 0146 FFF7FEFF 		bl	mcpwm_set_detect
 663              	.LVL34:
 664              	.L51:
 665              		.loc 1 815 0
 666 014a FFF7FEFF 		bl	timeout_reset
 667              	.LVL35:
 668              		.loc 1 816 0
 669 014e DFE7     		b	.L24
 670              	.L52:
 671              		.loc 1 820 0
 672 0150 974C     		ldr	r4, .L339+28
 673              	.LVL36:
 674              		.loc 1 821 0
 675 0152 9FED998A 		vldr.32	s16, .L339+36
 676              		.loc 1 820 0
 677 0156 0123     		movs	r3, #1
 678 0158 1E22     		movs	r2, #30
 679              		.loc 1 821 0
 680 015a 0020     		movs	r0, #0
 681              	.LVL37:
 682              		.loc 1 820 0
 683 015c 1793     		str	r3, [sp, #92]
 684 015e 2270     		strb	r2, [r4]
ARM GAS  C:\Users\euanm\AppData\Local\Temp\ccyKTXNK.s 			page 13


 685              		.loc 1 821 0
 686 0160 FFF7FEFF 		bl	servodec_get_servo
 687              	.LVL38:
 688 0164 20EE080A 		vmul.f32	s0, s0, s16
 689 0168 2046     		mov	r0, r4
 690 016a FDEEC07A 		vcvt.s32.f32	s15, s0
 691 016e 17AA     		add	r2, sp, #92
 692 0170 17EE901A 		vmov	r1, s15	@ int
 693 0174 FFF7FEFF 		bl	buffer_append_int32
 694              	.LVL39:
 695              		.loc 1 822 0
 696 0178 0020     		movs	r0, #0
 697 017a FFF7FEFF 		bl	servodec_get_last_pulse_len
 698              	.LVL40:
 699 017e 20EE080A 		vmul.f32	s0, s0, s16
 700              	.L319:
 701              		.loc 1 839 0
 702 0182 FDEEC07A 		vcvt.s32.f32	s15, s0
 703 0186 2046     		mov	r0, r4
 704 0188 17EE901A 		vmov	r1, s15	@ int
 705 018c 17AA     		add	r2, sp, #92
 706 018e FFF7FEFF 		bl	buffer_append_int32
 707              	.LVL41:
 708              	.LBB138:
 709              	.LBB139:
 710              		.loc 1 97 0
 711 0192 864B     		ldr	r3, .L339+24
 712              	.LBE139:
 713              	.LBE138:
 714              		.loc 1 840 0
 715 0194 1799     		ldr	r1, [sp, #92]
 716              	.LVL42:
 717              	.LBB141:
 718              	.LBB140:
 719              		.loc 1 97 0
 720 0196 1B68     		ldr	r3, [r3]
 721 0198 002B     		cmp	r3, #0
 722 019a B9D0     		beq	.L24
 723              	.LVL43:
 724              	.L313:
 725              	.LBE140:
 726              	.LBE141:
 727              		.loc 1 861 0
 728 019c 2046     		mov	r0, r4
 729              	.L311:
 730 019e 9847     		blx	r3
 731              	.LVL44:
 732              	.LBE267:
 733              		.loc 1 1374 0
 734 01a0 0DF28C7D 		addw	sp, sp, #1932
 735              		.cfi_remember_state
 736              		.cfi_def_cfa_offset 100
 737              		@ sp needed
 738 01a4 BDEC108B 		vldm	sp!, {d8-d15}
 739              		.cfi_restore 80
 740              		.cfi_restore 81
 741              		.cfi_restore 82
ARM GAS  C:\Users\euanm\AppData\Local\Temp\ccyKTXNK.s 			page 14


 742              		.cfi_restore 83
 743              		.cfi_restore 84
 744              		.cfi_restore 85
 745              		.cfi_restore 86
 746              		.cfi_restore 87
 747              		.cfi_restore 88
 748              		.cfi_restore 89
 749              		.cfi_restore 90
 750              		.cfi_restore 91
 751              		.cfi_restore 92
 752              		.cfi_restore 93
 753              		.cfi_restore 94
 754              		.cfi_restore 95
 755              		.cfi_def_cfa_offset 36
 756 01a8 BDE8F08F 		pop	{r4, r5, r6, r7, r8, r9, r10, fp, pc}
 757              	.LVL45:
 758              	.L37:
 759              		.cfi_restore_state
 760              	.LBB268:
 761              		.loc 1 219 0
 762 01ac 17A9     		add	r1, sp, #92
 763 01ae 2046     		mov	r0, r4
 764 01b0 FFF7FEFF 		bl	buffer_get_int32
 765              	.LVL46:
 766 01b4 07EE100A 		vmov	s14, r0	@ int
 767 01b8 DFED7F7A 		vldr.32	s15, .L339+36
 768 01bc B8EEC70A 		vcvt.f32.s32	s0, s14
 769 01c0 80EE270A 		vdiv.f32	s0, s0, s15
 770 01c4 FFF7FEFF 		bl	mc_interface_set_pid_pos
 771              	.LVL47:
 772              		.loc 1 220 0
 773 01c8 FFF7FEFF 		bl	timeout_reset
 774              	.LVL48:
 775              		.loc 1 221 0
 776 01cc A0E7     		b	.L24
 777              	.L54:
 778              		.loc 1 838 0
 779 01ce 784C     		ldr	r4, .L339+28
 780              	.LVL49:
 781 01d0 2022     		movs	r2, #32
 782 01d2 0123     		movs	r3, #1
 783 01d4 2270     		strb	r2, [r4]
 784 01d6 1793     		str	r3, [sp, #92]
 785              		.loc 1 839 0
 786 01d8 FFF7FEFF 		bl	app_nunchuk_get_decoded_chuk
 787              	.LVL50:
 788 01dc DFED767A 		vldr.32	s15, .L339+36
 789 01e0 20EE270A 		vmul.f32	s0, s0, s15
 790 01e4 CDE7     		b	.L319
 791              	.LVL51:
 792              	.L53:
 793              		.loc 1 828 0
 794 01e6 724C     		ldr	r4, .L339+28
 795              	.LVL52:
 796              		.loc 1 829 0
 797 01e8 9FED738A 		vldr.32	s16, .L339+36
 798              		.loc 1 828 0
ARM GAS  C:\Users\euanm\AppData\Local\Temp\ccyKTXNK.s 			page 15


 799 01ec 0123     		movs	r3, #1
 800 01ee 1F22     		movs	r2, #31
 801 01f0 1793     		str	r3, [sp, #92]
 802 01f2 2270     		strb	r2, [r4]
 803              		.loc 1 829 0
 804 01f4 FFF7FEFF 		bl	app_adc_get_decoded_level
 805              	.LVL53:
 806 01f8 20EE080A 		vmul.f32	s0, s0, s16
 807 01fc 2046     		mov	r0, r4
 808 01fe FDEEC07A 		vcvt.s32.f32	s15, s0
 809 0202 17AA     		add	r2, sp, #92
 810 0204 17EE901A 		vmov	r1, s15	@ int
 811 0208 FFF7FEFF 		bl	buffer_append_int32
 812              	.LVL54:
 813              		.loc 1 830 0
 814 020c FFF7FEFF 		bl	app_adc_get_voltage
 815              	.LVL55:
 816 0210 20EE080A 		vmul.f32	s0, s0, s16
 817 0214 2046     		mov	r0, r4
 818 0216 FDEEC07A 		vcvt.s32.f32	s15, s0
 819 021a 17AA     		add	r2, sp, #92
 820 021c 17EE901A 		vmov	r1, s15	@ int
 821 0220 FFF7FEFF 		bl	buffer_append_int32
 822              	.LVL56:
 823              		.loc 1 831 0
 824 0224 FFF7FEFF 		bl	app_adc_get_decoded_level2
 825              	.LVL57:
 826 0228 20EE080A 		vmul.f32	s0, s0, s16
 827 022c 2046     		mov	r0, r4
 828 022e FDEEC07A 		vcvt.s32.f32	s15, s0
 829 0232 17AA     		add	r2, sp, #92
 830 0234 17EE901A 		vmov	r1, s15	@ int
 831 0238 FFF7FEFF 		bl	buffer_append_int32
 832              	.LVL58:
 833              		.loc 1 832 0
 834 023c FFF7FEFF 		bl	app_adc_get_voltage2
 835              	.LVL59:
 836 0240 20EE080A 		vmul.f32	s0, s0, s16
 837 0244 9DE7     		b	.L319
 838              	.LVL60:
 839              	.L50:
 840              	.LBB142:
 841              	.LBB143:
 842              		.file 3 "ChibiOS_3.0.2/os/ext/CMSIS/include/core_cmFunc.h"
 843              		.loc 3 342 0
 844              		.syntax unified
 845              	@ 342 "ChibiOS_3.0.2/os/ext/CMSIS/include/core_cmFunc.h" 1
 846 0246 72B6     		cpsid i
 847              	@ 0 "" 2
 848              		.thumb
 849              		.syntax unified
 850              	.L80:
 851 0248 FEE7     		b	.L80
 852              	.L48:
 853              	.LBE143:
 854              	.LBE142:
 855              		.loc 1 737 0
ARM GAS  C:\Users\euanm\AppData\Local\Temp\ccyKTXNK.s 			page 16


 856 024a FFF7FEFF 		bl	encoder_is_configured
 857              	.LVL61:
 858 024e 0546     		mov	r5, r0
 859 0250 0028     		cmp	r0, #0
 860 0252 02F00685 		beq	.L76
 861              	.LBB144:
 862              		.loc 1 738 0
 863 0256 FFF7FEFF 		bl	mc_interface_get_configuration
 864              	.LVL62:
 865 025a 4E4D     		ldr	r5, .L339
 866              		.loc 1 757 0
 867 025c 544E     		ldr	r6, .L339+28
 868              	.LVL63:
 869              		.loc 1 738 0
 870 025e 0146     		mov	r1, r0
 871 0260 4FF4A072 		mov	r2, #320
 872 0264 2846     		mov	r0, r5
 873 0266 FFF7FEFF 		bl	memcpy
 874              	.LVL64:
 875              		.loc 1 739 0
 876 026a 4FF4A072 		mov	r2, #320
 877 026e 2946     		mov	r1, r5
 878 0270 4948     		ldr	r0, .L339+4
 879 0272 FFF7FEFF 		bl	memcpy
 880              	.LVL65:
 881              		.loc 1 741 0
 882 0276 0027     		movs	r7, #0
 883              		.loc 1 742 0
 884 0278 2046     		mov	r0, r4
 885 027a 17A9     		add	r1, sp, #92
 886 027c 9FED470A 		vldr.32	s0, .L339+8
 887              		.loc 1 741 0
 888 0280 1797     		str	r7, [sp, #92]
 889              		.loc 1 742 0
 890 0282 FFF7FEFF 		bl	buffer_get_float32
 891              	.LVL66:
 892              		.loc 1 745 0
 893 0286 464B     		ldr	r3, .L339+12
 894              		.loc 1 746 0
 895 0288 464A     		ldr	r2, .L339+16
 896              		.loc 1 745 0
 897 028a C5F89C30 		str	r3, [r5, #156]	@ float
 898              		.loc 1 744 0
 899 028e 0221     		movs	r1, #2
 900              		.loc 1 747 0
 901 0290 454B     		ldr	r3, .L339+20
 902              		.loc 1 744 0
 903 0292 A970     		strb	r1, [r5, #2]
 904              		.loc 1 748 0
 905 0294 2846     		mov	r0, r5
 906              		.loc 1 742 0
 907 0296 B0EE408A 		vmov.f32	s16, s0
 908              	.LVL67:
 909              		.loc 1 746 0
 910 029a C5F89420 		str	r2, [r5, #148]	@ float
 911              		.loc 1 747 0
 912 029e C5F89830 		str	r3, [r5, #152]	@ float
ARM GAS  C:\Users\euanm\AppData\Local\Temp\ccyKTXNK.s 			page 17


 913              		.loc 1 748 0
 914 02a2 FFF7FEFF 		bl	mc_interface_set_configuration
 915              	.LVL68:
 916              		.loc 1 750 0
 917 02a6 0022     		movs	r2, #0
 918              		.loc 1 753 0
 919 02a8 B0EE480A 		vmov.f32	s0, s16
 920 02ac 55AB     		add	r3, sp, #340
 921 02ae 92A9     		add	r1, sp, #584
 922 02b0 3846     		mov	r0, r7
 923              		.loc 1 750 0
 924 02b2 9292     		str	r2, [sp, #584]	@ float
 925              		.loc 1 751 0
 926 02b4 E292     		str	r2, [sp, #904]	@ float
 927              		.loc 1 753 0
 928 02b6 E2AA     		add	r2, sp, #904
 929              		.loc 1 752 0
 930 02b8 8DF85471 		strb	r7, [sp, #340]
 931              		.loc 1 753 0
 932 02bc FFF7FEFF 		bl	mcpwm_foc_encoder_detect
 933              	.LVL69:
 934              		.loc 1 754 0
 935 02c0 3548     		ldr	r0, .L339+4
 936 02c2 FFF7FEFF 		bl	mc_interface_set_configuration
 937              	.LVL70:
 938              		.loc 1 757 0
 939 02c6 1A22     		movs	r2, #26
 940 02c8 0123     		movs	r3, #1
 941              		.loc 1 758 0
 942 02ca 9DED920A 		vldr.32	s0, [sp, #584]
 943 02ce DFED3A0A 		vldr.32	s1, .L339+36
 944              		.loc 1 757 0
 945 02d2 3270     		strb	r2, [r6]
 946              		.loc 1 758 0
 947 02d4 3046     		mov	r0, r6
 948 02d6 17A9     		add	r1, sp, #92
 949              		.loc 1 757 0
 950 02d8 1793     		str	r3, [sp, #92]
 951              		.loc 1 758 0
 952 02da FFF7FEFF 		bl	buffer_append_float32
 953              	.LVL71:
 954              		.loc 1 759 0
 955 02de 17A9     		add	r1, sp, #92
 956 02e0 9DEDE20A 		vldr.32	s0, [sp, #904]
 957 02e4 DFED340A 		vldr.32	s1, .L339+36
 958 02e8 3046     		mov	r0, r6
 959 02ea FFF7FEFF 		bl	buffer_append_float32
 960              	.LVL72:
 961              	.LBB145:
 962              	.LBB146:
 963              		.loc 1 97 0
 964 02ee 2F4B     		ldr	r3, .L339+24
 965              	.LBE146:
 966              	.LBE145:
 967              		.loc 1 760 0
 968 02f0 1799     		ldr	r1, [sp, #92]
 969 02f2 9DF85421 		ldrb	r2, [sp, #340]	@ zero_extendqisi2
ARM GAS  C:\Users\euanm\AppData\Local\Temp\ccyKTXNK.s 			page 18


 970              	.LBB149:
 971              	.LBB147:
 972              		.loc 1 97 0
 973 02f6 1B68     		ldr	r3, [r3]
 974              	.LBE147:
 975              	.LBE149:
 976              		.loc 1 760 0
 977 02f8 7254     		strb	r2, [r6, r1]
 978              	.LVL73:
 979 02fa 0131     		adds	r1, r1, #1
 980              	.LVL74:
 981 02fc 1791     		str	r1, [sp, #92]
 982              	.LBB150:
 983              	.LBB148:
 984              		.loc 1 97 0
 985 02fe 002B     		cmp	r3, #0
 986 0300 3FF406AF 		beq	.L24
 987              		.loc 1 98 0
 988 0304 3046     		mov	r0, r6
 989 0306 9847     		blx	r3
 990              	.LVL75:
 991 0308 02E7     		b	.L24
 992              	.LVL76:
 993              	.L47:
 994              	.LBE148:
 995              	.LBE150:
 996              	.LBE144:
 997              	.LBB151:
 998              		.loc 1 717 0
 999 030a 17A9     		add	r1, sp, #92
 1000 030c 2046     		mov	r0, r4
 1001 030e 9FED230A 		vldr.32	s0, .L339+8
 1002 0312 FFF7FEFF 		bl	buffer_get_float32
 1003              	.LVL77:
 1004              		.loc 1 718 0
 1005 0316 17A9     		add	r1, sp, #92
 1006              		.loc 1 717 0
 1007 0318 B0EE408A 		vmov.f32	s16, s0
 1008              	.LVL78:
 1009              		.loc 1 718 0
 1010 031c 2046     		mov	r0, r4
 1011 031e 9FED1F0A 		vldr.32	s0, .L339+8
 1012              	.LVL79:
 1013 0322 FFF7FEFF 		bl	buffer_get_float32
 1014              	.LVL80:
 1015              		.loc 1 719 0
 1016 0326 17A9     		add	r1, sp, #92
 1017              		.loc 1 718 0
 1018 0328 B0EE409A 		vmov.f32	s18, s0
 1019              	.LVL81:
 1020              		.loc 1 719 0
 1021 032c 2046     		mov	r0, r4
 1022 032e 9FED1B0A 		vldr.32	s0, .L339+8
 1023              	.LVL82:
 1024 0332 FFF7FEFF 		bl	buffer_get_float32
 1025              	.LVL83:
 1026              		.loc 1 720 0
ARM GAS  C:\Users\euanm\AppData\Local\Temp\ccyKTXNK.s 			page 19


 1027 0336 2046     		mov	r0, r4
 1028              		.loc 1 719 0
 1029 0338 F0EE408A 		vmov.f32	s17, s0
 1030              	.LVL84:
 1031              		.loc 1 720 0
 1032 033c 17A9     		add	r1, sp, #92
 1033 033e 9FED1E0A 		vldr.32	s0, .L339+36
 1034              	.LVL85:
 1035 0342 FFF7FEFF 		bl	buffer_get_float32
 1036              	.LVL86:
 1037              		.loc 1 723 0
 1038 0346 B0EE491A 		vmov.f32	s2, s18
 1039 034a F0EE401A 		vmov.f32	s3, s0
 1040 034e F0EE680A 		vmov.f32	s1, s17
 1041 0352 B0EE480A 		vmov.f32	s0, s16
 1042              	.LVL87:
 1043 0356 E2A8     		add	r0, sp, #904
 1044 0358 FFF7FEFF 		bl	conf_general_measure_flux_linkage
 1045              	.LVL88:
 1046              		.loc 1 725 0
 1047 035c 0028     		cmp	r0, #0
 1048 035e 42F02182 		bne	.L328
 1049              		.loc 1 726 0
 1050 0362 DFED167A 		vldr.32	s15, .L339+40
 1051 0366 B0EE670A 		vmov.f32	s0, s15
 1052 036a CDEDE27A 		vstr.32	s15, [sp, #904]
 1053              	.L74:
 1054              		.loc 1 730 0
 1055 036e 104C     		ldr	r4, .L339+28
 1056              	.LVL89:
 1057              		.loc 1 731 0
 1058 0370 DFED130A 		vldr.32	s1, .L339+44
 1059              		.loc 1 730 0
 1060 0374 1922     		movs	r2, #25
 1061 0376 0123     		movs	r3, #1
 1062              		.loc 1 731 0
 1063 0378 2046     		mov	r0, r4
 1064              	.LVL90:
 1065 037a 17A9     		add	r1, sp, #92
 1066              		.loc 1 730 0
 1067 037c 2270     		strb	r2, [r4]
 1068 037e 1793     		str	r3, [sp, #92]
 1069              	.LVL91:
 1070              	.L317:
 1071              		.loc 1 731 0
 1072 0380 FFF7FEFF 		bl	buffer_append_float32
 1073              	.LVL92:
 1074              	.LBB152:
 1075              	.LBB153:
 1076              		.loc 1 97 0
 1077 0384 094B     		ldr	r3, .L339+24
 1078              	.LBE153:
 1079              	.LBE152:
 1080              		.loc 1 732 0
 1081 0386 1799     		ldr	r1, [sp, #92]
 1082              	.LVL93:
 1083              	.LBB155:
ARM GAS  C:\Users\euanm\AppData\Local\Temp\ccyKTXNK.s 			page 20


 1084              	.LBB154:
 1085              		.loc 1 97 0
 1086 0388 1B68     		ldr	r3, [r3]
 1087 038a 002B     		cmp	r3, #0
 1088 038c 7FF406AF 		bne	.L313
 1089 0390 BEE6     		b	.L24
 1090              	.L340:
 1091 0392 00BF     		.align	2
 1092              	.L339:
 1093 0394 00000000 		.word	.LANCHOR12
 1094 0398 00000000 		.word	.LANCHOR14
 1095 039c 00007A44 		.word	1148846080
 1096 03a0 00401C46 		.word	1176256512
 1097 03a4 0AD7233C 		.word	1008981770
 1098 03a8 00002041 		.word	1092616192
 1099 03ac 00000000 		.word	.LANCHOR9
 1100 03b0 00000000 		.word	.LANCHOR8
 1101 03b4 00000000 		.word	.LANCHOR13
 1102 03b8 00247449 		.word	1232348160
 1103 03bc 00000000 		.word	0
 1104 03c0 8096184B 		.word	1259902592
 1105              	.LVL94:
 1106              	.L46:
 1107              	.LBE154:
 1108              	.LBE155:
 1109              	.LBE151:
 1110              	.LBB156:
 1111              		.loc 1 691 0
 1112 03c4 FFF7FEFF 		bl	mc_interface_get_configuration
 1113              	.LVL95:
 1114 03c8 1E4C     		ldr	r4, .L341
 1115              	.LVL96:
 1116              		.loc 1 697 0
 1117 03ca 9FED1F8A 		vldr.32	s16, .L341+4
 1118              		.loc 1 691 0
 1119 03ce 0146     		mov	r1, r0
 1120 03d0 4FF4A072 		mov	r2, #320
 1121 03d4 2046     		mov	r0, r4
 1122 03d6 FFF7FEFF 		bl	memcpy
 1123              	.LVL97:
 1124              		.loc 1 692 0
 1125 03da 2146     		mov	r1, r4
 1126 03dc 4FF4A072 		mov	r2, #320
 1127 03e0 1A48     		ldr	r0, .L341+8
 1128 03e2 FFF7FEFF 		bl	memcpy
 1129              	.LVL98:
 1130              		.loc 1 698 0
 1131 03e6 0DF5627B 		add	fp, sp, #904
 1132              		.loc 1 694 0
 1133 03ea 0223     		movs	r3, #2
 1134              		.loc 1 695 0
 1135 03ec 2046     		mov	r0, r4
 1136              		.loc 1 694 0
 1137 03ee A370     		strb	r3, [r4, #2]
 1138              		.loc 1 695 0
 1139 03f0 FFF7FEFF 		bl	mc_interface_set_configuration
 1140              	.LVL99:
ARM GAS  C:\Users\euanm\AppData\Local\Temp\ccyKTXNK.s 			page 21


 1141              		.loc 1 699 0
 1142 03f4 92A8     		add	r0, sp, #584
 1143 03f6 5946     		mov	r1, fp
 1144              		.loc 1 697 0
 1145 03f8 8DED928A 		vstr.32	s16, [sp, #584]
 1146              		.loc 1 698 0
 1147 03fc 8BED008A 		vstr.32	s16, [fp]
 1148              		.loc 1 699 0
 1149 0400 FFF7FEFF 		bl	mcpwm_foc_measure_res_ind
 1150              	.LVL100:
 1151 0404 0446     		mov	r4, r0
 1152              	.LVL101:
 1153              		.loc 1 700 0
 1154 0406 1148     		ldr	r0, .L341+8
 1155 0408 FFF7FEFF 		bl	mc_interface_set_configuration
 1156              	.LVL102:
 1157              		.loc 1 702 0
 1158 040c 002C     		cmp	r4, #0
 1159 040e 42F0C581 		bne	.L329
 1160              		.loc 1 704 0
 1161 0412 B0EE480A 		vmov.f32	s0, s16
 1162              		.loc 1 703 0
 1163 0416 8DED928A 		vstr.32	s16, [sp, #584]
 1164              		.loc 1 704 0
 1165 041a 8BED008A 		vstr.32	s16, [fp]
 1166              	.L71:
 1167              		.loc 1 708 0
 1168 041e 0C4C     		ldr	r4, .L341+12
 1169              	.LVL103:
 1170              		.loc 1 709 0
 1171 0420 DFED0C0A 		vldr.32	s1, .L341+16
 1172              		.loc 1 708 0
 1173 0424 1822     		movs	r2, #24
 1174              		.loc 1 709 0
 1175 0426 2046     		mov	r0, r4
 1176              		.loc 1 708 0
 1177 0428 0123     		movs	r3, #1
 1178              		.loc 1 709 0
 1179 042a 17A9     		add	r1, sp, #92
 1180              		.loc 1 708 0
 1181 042c 2270     		strb	r2, [r4]
 1182 042e 1793     		str	r3, [sp, #92]
 1183              		.loc 1 709 0
 1184 0430 FFF7FEFF 		bl	buffer_append_float32
 1185              	.LVL104:
 1186              		.loc 1 710 0
 1187 0434 17A9     		add	r1, sp, #92
 1188 0436 2046     		mov	r0, r4
 1189 0438 DFED070A 		vldr.32	s1, .L341+20
 1190 043c 9BED000A 		vldr.32	s0, [fp]
 1191 0440 9EE7     		b	.L317
 1192              	.L342:
 1193 0442 00BF     		.align	2
 1194              	.L341:
 1195 0444 00000000 		.word	.LANCHOR12
 1196 0448 00000000 		.word	0
 1197 044c 00000000 		.word	.LANCHOR14
ARM GAS  C:\Users\euanm\AppData\Local\Temp\ccyKTXNK.s 			page 22


 1198 0450 00000000 		.word	.LANCHOR8
 1199 0454 00247449 		.word	1232348160
 1200 0458 00007A44 		.word	1148846080
 1201              	.LVL105:
 1202              	.L42:
 1203              	.LBE156:
 1204              		.loc 1 569 0
 1205 045c 102E     		cmp	r6, #16
 1206 045e 02F0A581 		beq	.L330
 1207              		.loc 1 572 0
 1208 0462 18AD     		add	r5, sp, #96
 1209 0464 2846     		mov	r0, r5
 1210 0466 FFF7FEFF 		bl	conf_general_get_default_app_configuration
 1211              	.LVL106:
 1212              	.L69:
 1213              		.loc 1 576 0
 1214 046a E04C     		ldr	r4, .L343
 1215              	.LVL107:
 1216              		.loc 1 577 0
 1217 046c 2F78     		ldrb	r7, [r5]	@ zero_extendqisi2
 1218              	.LVL108:
 1219              		.loc 1 578 0
 1220 046e 6968     		ldr	r1, [r5, #4]
 1221              		.loc 1 579 0
 1222 0470 9FEDDF8A 		vldr.32	s16, .L343+4
 1223              		.loc 1 576 0
 1224 0474 2670     		strb	r6, [r4]
 1225              		.loc 1 577 0
 1226 0476 0223     		movs	r3, #2
 1227              		.loc 1 578 0
 1228 0478 2046     		mov	r0, r4
 1229 047a 17AA     		add	r2, sp, #92
 1230              		.loc 1 577 0
 1231 047c 1793     		str	r3, [sp, #92]
 1232 047e 6770     		strb	r7, [r4, #1]
 1233              		.loc 1 578 0
 1234 0480 FFF7FEFF 		bl	buffer_append_uint32
 1235              	.LVL109:
 1236              		.loc 1 579 0
 1237 0484 D5ED027A 		vldr.32	s15, [r5, #8]
 1238              		.loc 1 655 0
 1239 0488 DFEDDA8A 		vldr.32	s17, .L343+8
 1240              		.loc 1 579 0
 1241 048c 67EE887A 		vmul.f32	s15, s15, s16
 1242 0490 2046     		mov	r0, r4
 1243 0492 FDEEE77A 		vcvt.s32.f32	s15, s15
 1244 0496 17AA     		add	r2, sp, #92
 1245 0498 17EE901A 		vmov	r1, s15	@ int
 1246 049c FFF7FEFF 		bl	buffer_append_int32
 1247              	.LVL110:
 1248              		.loc 1 580 0
 1249 04a0 179B     		ldr	r3, [sp, #92]
 1250 04a2 2A7B     		ldrb	r2, [r5, #12]	@ zero_extendqisi2
 1251 04a4 E254     		strb	r2, [r4, r3]
 1252              		.loc 1 581 0
 1253 04a6 298A     		ldrh	r1, [r5, #16]
 1254              		.loc 1 580 0
ARM GAS  C:\Users\euanm\AppData\Local\Temp\ccyKTXNK.s 			page 23


 1255 04a8 0133     		adds	r3, r3, #1
 1256              		.loc 1 581 0
 1257 04aa 2046     		mov	r0, r4
 1258 04ac 17AA     		add	r2, sp, #92
 1259              		.loc 1 580 0
 1260 04ae 1793     		str	r3, [sp, #92]
 1261              		.loc 1 581 0
 1262 04b0 FFF7FEFF 		bl	buffer_append_uint16
 1263              	.LVL111:
 1264              		.loc 1 586 0
 1265 04b4 D5ED077A 		vldr.32	s15, [r5, #28]
 1266              		.loc 1 583 0
 1267 04b8 179B     		ldr	r3, [sp, #92]
 1268 04ba 2A7D     		ldrb	r2, [r5, #20]	@ zero_extendqisi2
 1269 04bc E254     		strb	r2, [r4, r3]
 1270              		.loc 1 586 0
 1271 04be 67EE887A 		vmul.f32	s15, s15, s16
 1272              		.loc 1 585 0
 1273 04c2 E618     		adds	r6, r4, r3
 1274              	.LVL112:
 1275              		.loc 1 586 0
 1276 04c4 FDEEE77A 		vcvt.s32.f32	s15, s15
 1277              		.loc 1 585 0
 1278 04c8 0233     		adds	r3, r3, #2
 1279 04ca 2F7E     		ldrb	r7, [r5, #24]	@ zero_extendqisi2
 1280 04cc 1793     		str	r3, [sp, #92]
 1281              		.loc 1 586 0
 1282 04ce 17EE901A 		vmov	r1, s15	@ int
 1283 04d2 2046     		mov	r0, r4
 1284 04d4 17AA     		add	r2, sp, #92
 1285              		.loc 1 585 0
 1286 04d6 7770     		strb	r7, [r6, #1]
 1287              		.loc 1 586 0
 1288 04d8 FFF7FEFF 		bl	buffer_append_int32
 1289              	.LVL113:
 1290              		.loc 1 587 0
 1291 04dc D5ED087A 		vldr.32	s15, [r5, #32]
 1292 04e0 67EE887A 		vmul.f32	s15, s15, s16
 1293 04e4 2046     		mov	r0, r4
 1294 04e6 FDEEE77A 		vcvt.s32.f32	s15, s15
 1295 04ea 17AA     		add	r2, sp, #92
 1296 04ec 17EE901A 		vmov	r1, s15	@ int
 1297 04f0 FFF7FEFF 		bl	buffer_append_int32
 1298              	.LVL114:
 1299              		.loc 1 588 0
 1300 04f4 D5ED097A 		vldr.32	s15, [r5, #36]
 1301 04f8 67EE887A 		vmul.f32	s15, s15, s16
 1302 04fc 2046     		mov	r0, r4
 1303 04fe FDEEE77A 		vcvt.s32.f32	s15, s15
 1304 0502 17AA     		add	r2, sp, #92
 1305 0504 17EE901A 		vmov	r1, s15	@ int
 1306 0508 FFF7FEFF 		bl	buffer_append_int32
 1307              	.LVL115:
 1308              		.loc 1 589 0
 1309 050c D5ED0A7A 		vldr.32	s15, [r5, #40]
 1310 0510 67EE887A 		vmul.f32	s15, s15, s16
 1311 0514 2046     		mov	r0, r4
ARM GAS  C:\Users\euanm\AppData\Local\Temp\ccyKTXNK.s 			page 24


 1312 0516 FDEEE77A 		vcvt.s32.f32	s15, s15
 1313 051a 17AA     		add	r2, sp, #92
 1314 051c 17EE901A 		vmov	r1, s15	@ int
 1315 0520 FFF7FEFF 		bl	buffer_append_int32
 1316              	.LVL116:
 1317              		.loc 1 592 0
 1318 0524 D5ED0C7A 		vldr.32	s15, [r5, #48]
 1319              		.loc 1 590 0
 1320 0528 179B     		ldr	r3, [sp, #92]
 1321 052a 95F82C20 		ldrb	r2, [r5, #44]	@ zero_extendqisi2
 1322 052e E254     		strb	r2, [r4, r3]
 1323              		.loc 1 592 0
 1324 0530 67EE887A 		vmul.f32	s15, s15, s16
 1325              		.loc 1 591 0
 1326 0534 E618     		adds	r6, r4, r3
 1327              		.loc 1 592 0
 1328 0536 FDEEE77A 		vcvt.s32.f32	s15, s15
 1329              		.loc 1 591 0
 1330 053a 0233     		adds	r3, r3, #2
 1331 053c 95F82D70 		ldrb	r7, [r5, #45]	@ zero_extendqisi2
 1332 0540 1793     		str	r3, [sp, #92]
 1333              		.loc 1 592 0
 1334 0542 17EE901A 		vmov	r1, s15	@ int
 1335 0546 2046     		mov	r0, r4
 1336 0548 17AA     		add	r2, sp, #92
 1337              		.loc 1 591 0
 1338 054a 7770     		strb	r7, [r6, #1]
 1339              		.loc 1 592 0
 1340 054c FFF7FEFF 		bl	buffer_append_int32
 1341              	.LVL117:
 1342              		.loc 1 593 0
 1343 0550 D5ED0D7A 		vldr.32	s15, [r5, #52]
 1344 0554 67EE887A 		vmul.f32	s15, s15, s16
 1345 0558 2046     		mov	r0, r4
 1346 055a FDEEE77A 		vcvt.s32.f32	s15, s15
 1347 055e 17AA     		add	r2, sp, #92
 1348 0560 17EE901A 		vmov	r1, s15	@ int
 1349 0564 FFF7FEFF 		bl	buffer_append_int32
 1350              	.LVL118:
 1351              		.loc 1 596 0
 1352 0568 D5ED0F7A 		vldr.32	s15, [r5, #60]
 1353              		.loc 1 594 0
 1354 056c 179B     		ldr	r3, [sp, #92]
 1355 056e 95F83820 		ldrb	r2, [r5, #56]	@ zero_extendqisi2
 1356 0572 E254     		strb	r2, [r4, r3]
 1357              		.loc 1 596 0
 1358 0574 67EE887A 		vmul.f32	s15, s15, s16
 1359              		.loc 1 595 0
 1360 0578 E618     		adds	r6, r4, r3
 1361              		.loc 1 596 0
 1362 057a FDEEE77A 		vcvt.s32.f32	s15, s15
 1363              		.loc 1 595 0
 1364 057e 95F83970 		ldrb	r7, [r5, #57]	@ zero_extendqisi2
 1365 0582 7770     		strb	r7, [r6, #1]
 1366              		.loc 1 596 0
 1367 0584 17EE901A 		vmov	r1, s15	@ int
 1368              		.loc 1 595 0
ARM GAS  C:\Users\euanm\AppData\Local\Temp\ccyKTXNK.s 			page 25


 1369 0588 0233     		adds	r3, r3, #2
 1370              		.loc 1 596 0
 1371 058a 2046     		mov	r0, r4
 1372 058c 17AA     		add	r2, sp, #92
 1373              		.loc 1 595 0
 1374 058e 1793     		str	r3, [sp, #92]
 1375              		.loc 1 596 0
 1376 0590 FFF7FEFF 		bl	buffer_append_int32
 1377              	.LVL119:
 1378              		.loc 1 599 0
 1379 0594 D5ED157A 		vldr.32	s15, [r5, #84]
 1380              		.loc 1 598 0
 1381 0598 179B     		ldr	r3, [sp, #92]
 1382 059a 95F85020 		ldrb	r2, [r5, #80]	@ zero_extendqisi2
 1383 059e E254     		strb	r2, [r4, r3]
 1384              		.loc 1 599 0
 1385 05a0 67EE887A 		vmul.f32	s15, s15, s16
 1386              		.loc 1 598 0
 1387 05a4 0133     		adds	r3, r3, #1
 1388              		.loc 1 599 0
 1389 05a6 FDEEE77A 		vcvt.s32.f32	s15, s15
 1390 05aa 2046     		mov	r0, r4
 1391 05ac 17EE901A 		vmov	r1, s15	@ int
 1392 05b0 17AA     		add	r2, sp, #92
 1393              		.loc 1 598 0
 1394 05b2 1793     		str	r3, [sp, #92]
 1395              		.loc 1 599 0
 1396 05b4 FFF7FEFF 		bl	buffer_append_int32
 1397              	.LVL120:
 1398              		.loc 1 600 0
 1399 05b8 D5ED167A 		vldr.32	s15, [r5, #88]
 1400 05bc 67EE887A 		vmul.f32	s15, s15, s16
 1401 05c0 2046     		mov	r0, r4
 1402 05c2 FDEEE77A 		vcvt.s32.f32	s15, s15
 1403 05c6 17AA     		add	r2, sp, #92
 1404 05c8 17EE901A 		vmov	r1, s15	@ int
 1405 05cc FFF7FEFF 		bl	buffer_append_int32
 1406              	.LVL121:
 1407              		.loc 1 601 0
 1408 05d0 D5ED177A 		vldr.32	s15, [r5, #92]
 1409 05d4 67EE887A 		vmul.f32	s15, s15, s16
 1410 05d8 2046     		mov	r0, r4
 1411 05da FDEEE77A 		vcvt.s32.f32	s15, s15
 1412 05de 17AA     		add	r2, sp, #92
 1413 05e0 17EE901A 		vmov	r1, s15	@ int
 1414 05e4 FFF7FEFF 		bl	buffer_append_int32
 1415              	.LVL122:
 1416              		.loc 1 607 0
 1417 05e8 D5ED1A7A 		vldr.32	s15, [r5, #104]
 1418              		.loc 1 602 0
 1419 05ec 179B     		ldr	r3, [sp, #92]
 1420 05ee 95F86020 		ldrb	r2, [r5, #96]	@ zero_extendqisi2
 1421 05f2 E254     		strb	r2, [r4, r3]
 1422              		.loc 1 607 0
 1423 05f4 67EE887A 		vmul.f32	s15, s15, s16
 1424              		.loc 1 603 0
 1425 05f8 E618     		adds	r6, r4, r3
ARM GAS  C:\Users\euanm\AppData\Local\Temp\ccyKTXNK.s 			page 26


 1426              		.loc 1 607 0
 1427 05fa FDEEE77A 		vcvt.s32.f32	s15, s15
 1428              		.loc 1 604 0
 1429 05fe 95F86200 		ldrb	r0, [r5, #98]	@ zero_extendqisi2
 1430              		.loc 1 605 0
 1431 0602 95F86320 		ldrb	r2, [r5, #99]	@ zero_extendqisi2
 1432              		.loc 1 603 0
 1433 0606 95F86170 		ldrb	r7, [r5, #97]	@ zero_extendqisi2
 1434              		.loc 1 604 0
 1435 060a B070     		strb	r0, [r6, #2]
 1436              		.loc 1 606 0
 1437 060c 0533     		adds	r3, r3, #5
 1438              		.loc 1 607 0
 1439 060e 17EE901A 		vmov	r1, s15	@ int
 1440              		.loc 1 605 0
 1441 0612 F270     		strb	r2, [r6, #3]
 1442              		.loc 1 606 0
 1443 0614 1793     		str	r3, [sp, #92]
 1444              		.loc 1 607 0
 1445 0616 2046     		mov	r0, r4
 1446              		.loc 1 606 0
 1447 0618 95F86430 		ldrb	r3, [r5, #100]	@ zero_extendqisi2
 1448 061c 3371     		strb	r3, [r6, #4]
 1449              		.loc 1 607 0
 1450 061e 17AA     		add	r2, sp, #92
 1451              		.loc 1 603 0
 1452 0620 7770     		strb	r7, [r6, #1]
 1453              		.loc 1 607 0
 1454 0622 FFF7FEFF 		bl	buffer_append_int32
 1455              	.LVL123:
 1456              		.loc 1 608 0
 1457 0626 D5ED1B7A 		vldr.32	s15, [r5, #108]
 1458 062a 67EE887A 		vmul.f32	s15, s15, s16
 1459 062e 2046     		mov	r0, r4
 1460 0630 FDEEE77A 		vcvt.s32.f32	s15, s15
 1461 0634 17AA     		add	r2, sp, #92
 1462 0636 17EE901A 		vmov	r1, s15	@ int
 1463 063a FFF7FEFF 		bl	buffer_append_int32
 1464              	.LVL124:
 1465              		.loc 1 611 0
 1466 063e D5ED1D7A 		vldr.32	s15, [r5, #116]
 1467              		.loc 1 609 0
 1468 0642 179B     		ldr	r3, [sp, #92]
 1469 0644 95F87020 		ldrb	r2, [r5, #112]	@ zero_extendqisi2
 1470 0648 E254     		strb	r2, [r4, r3]
 1471              		.loc 1 611 0
 1472 064a 67EE887A 		vmul.f32	s15, s15, s16
 1473              		.loc 1 610 0
 1474 064e E618     		adds	r6, r4, r3
 1475              		.loc 1 611 0
 1476 0650 FDEEE77A 		vcvt.s32.f32	s15, s15
 1477              		.loc 1 610 0
 1478 0654 0233     		adds	r3, r3, #2
 1479              		.loc 1 611 0
 1480 0656 17EE901A 		vmov	r1, s15	@ int
 1481              		.loc 1 610 0
 1482 065a 95F87170 		ldrb	r7, [r5, #113]	@ zero_extendqisi2
ARM GAS  C:\Users\euanm\AppData\Local\Temp\ccyKTXNK.s 			page 27


 1483 065e 1793     		str	r3, [sp, #92]
 1484              		.loc 1 611 0
 1485 0660 2046     		mov	r0, r4
 1486 0662 17AA     		add	r2, sp, #92
 1487              		.loc 1 610 0
 1488 0664 7770     		strb	r7, [r6, #1]
 1489              		.loc 1 611 0
 1490 0666 FFF7FEFF 		bl	buffer_append_int32
 1491              	.LVL125:
 1492              		.loc 1 612 0
 1493 066a 17AA     		add	r2, sp, #92
 1494 066c 2046     		mov	r0, r4
 1495 066e B5F87810 		ldrh	r1, [r5, #120]
 1496 0672 FFF7FEFF 		bl	buffer_append_uint16
 1497              	.LVL126:
 1498              		.loc 1 614 0
 1499 0676 17AA     		add	r2, sp, #92
 1500 0678 2046     		mov	r0, r4
 1501 067a E96F     		ldr	r1, [r5, #124]
 1502 067c FFF7FEFF 		bl	buffer_append_uint32
 1503              	.LVL127:
 1504              		.loc 1 616 0
 1505 0680 179B     		ldr	r3, [sp, #92]
 1506 0682 95F88020 		ldrb	r2, [r5, #128]	@ zero_extendqisi2
 1507 0686 E254     		strb	r2, [r4, r3]
 1508              		.loc 1 617 0
 1509 0688 F0EE480A 		vmov.f32	s1, s16
 1510              		.loc 1 616 0
 1511 068c 0133     		adds	r3, r3, #1
 1512              		.loc 1 617 0
 1513 068e 95ED210A 		vldr.32	s0, [r5, #132]
 1514              		.loc 1 616 0
 1515 0692 1793     		str	r3, [sp, #92]
 1516              		.loc 1 617 0
 1517 0694 2046     		mov	r0, r4
 1518 0696 17A9     		add	r1, sp, #92
 1519 0698 FFF7FEFF 		bl	buffer_append_float32
 1520              	.LVL128:
 1521              		.loc 1 618 0
 1522 069c F0EE480A 		vmov.f32	s1, s16
 1523 06a0 17A9     		add	r1, sp, #92
 1524 06a2 2046     		mov	r0, r4
 1525 06a4 95ED220A 		vldr.32	s0, [r5, #136]
 1526 06a8 FFF7FEFF 		bl	buffer_append_float32
 1527              	.LVL129:
 1528              		.loc 1 619 0
 1529 06ac F0EE480A 		vmov.f32	s1, s16
 1530 06b0 17A9     		add	r1, sp, #92
 1531 06b2 2046     		mov	r0, r4
 1532 06b4 95ED230A 		vldr.32	s0, [r5, #140]
 1533 06b8 FFF7FEFF 		bl	buffer_append_float32
 1534              	.LVL130:
 1535              		.loc 1 620 0
 1536 06bc F0EE480A 		vmov.f32	s1, s16
 1537 06c0 17A9     		add	r1, sp, #92
 1538 06c2 2046     		mov	r0, r4
 1539 06c4 95ED240A 		vldr.32	s0, [r5, #144]
ARM GAS  C:\Users\euanm\AppData\Local\Temp\ccyKTXNK.s 			page 28


 1540 06c8 FFF7FEFF 		bl	buffer_append_float32
 1541              	.LVL131:
 1542              		.loc 1 621 0
 1543 06cc F0EE480A 		vmov.f32	s1, s16
 1544 06d0 17A9     		add	r1, sp, #92
 1545 06d2 2046     		mov	r0, r4
 1546 06d4 95ED250A 		vldr.32	s0, [r5, #148]
 1547 06d8 FFF7FEFF 		bl	buffer_append_float32
 1548              	.LVL132:
 1549              		.loc 1 622 0
 1550 06dc F0EE480A 		vmov.f32	s1, s16
 1551 06e0 95ED260A 		vldr.32	s0, [r5, #152]
 1552 06e4 17A9     		add	r1, sp, #92
 1553 06e6 2046     		mov	r0, r4
 1554 06e8 FFF7FEFF 		bl	buffer_append_float32
 1555              	.LVL133:
 1556              		.loc 1 625 0
 1557 06ec D5ED287A 		vldr.32	s15, [r5, #160]
 1558              		.loc 1 623 0
 1559 06f0 179B     		ldr	r3, [sp, #92]
 1560 06f2 95F89C20 		ldrb	r2, [r5, #156]	@ zero_extendqisi2
 1561 06f6 E254     		strb	r2, [r4, r3]
 1562              		.loc 1 625 0
 1563 06f8 67EE887A 		vmul.f32	s15, s15, s16
 1564              		.loc 1 624 0
 1565 06fc E618     		adds	r6, r4, r3
 1566              		.loc 1 625 0
 1567 06fe FDEEE77A 		vcvt.s32.f32	s15, s15
 1568              		.loc 1 624 0
 1569 0702 95F89D70 		ldrb	r7, [r5, #157]	@ zero_extendqisi2
 1570 0706 7770     		strb	r7, [r6, #1]
 1571              		.loc 1 625 0
 1572 0708 17EE901A 		vmov	r1, s15	@ int
 1573              		.loc 1 624 0
 1574 070c 0233     		adds	r3, r3, #2
 1575              		.loc 1 625 0
 1576 070e 2046     		mov	r0, r4
 1577 0710 17AA     		add	r2, sp, #92
 1578              		.loc 1 624 0
 1579 0712 1793     		str	r3, [sp, #92]
 1580              		.loc 1 625 0
 1581 0714 FFF7FEFF 		bl	buffer_append_int32
 1582              	.LVL134:
 1583              		.loc 1 627 0
 1584 0718 179A     		ldr	r2, [sp, #92]
 1585              		.loc 1 638 0
 1586 071a D5ED107A 		vldr.32	s15, [r5, #64]
 1587              		.loc 1 627 0
 1588 071e 95F8AC30 		ldrb	r3, [r5, #172]	@ zero_extendqisi2
 1589 0722 A354     		strb	r3, [r4, r2]
 1590              		.loc 1 638 0
 1591 0724 67EE887A 		vmul.f32	s15, s15, s16
 1592              		.loc 1 628 0
 1593 0728 A318     		adds	r3, r4, r2
 1594              		.loc 1 635 0
 1595 072a 0A32     		adds	r2, r2, #10
 1596              		.loc 1 628 0
ARM GAS  C:\Users\euanm\AppData\Local\Temp\ccyKTXNK.s 			page 29


 1597 072c 95F8AD00 		ldrb	r0, [r5, #173]	@ zero_extendqisi2
 1598              		.loc 1 635 0
 1599 0730 1792     		str	r2, [sp, #92]
 1600              		.loc 1 629 0
 1601 0732 95F8AE20 		ldrb	r2, [r5, #174]	@ zero_extendqisi2
 1602              		.loc 1 628 0
 1603 0736 5870     		strb	r0, [r3, #1]
 1604              		.loc 1 629 0
 1605 0738 9A70     		strb	r2, [r3, #2]
 1606              		.loc 1 638 0
 1607 073a FDEEE77A 		vcvt.s32.f32	s15, s15
 1608              		.loc 1 630 0
 1609 073e 95F8AF00 		ldrb	r0, [r5, #175]	@ zero_extendqisi2
 1610              		.loc 1 631 0
 1611 0742 95F8B020 		ldrb	r2, [r5, #176]	@ zero_extendqisi2
 1612              		.loc 1 630 0
 1613 0746 D870     		strb	r0, [r3, #3]
 1614              		.loc 1 631 0
 1615 0748 1A71     		strb	r2, [r3, #4]
 1616              		.loc 1 632 0
 1617 074a 95F8B160 		ldrb	r6, [r5, #177]	@ zero_extendqisi2
 1618              		.loc 1 633 0
 1619 074e BDF81201 		ldrh	r0, [sp, #274]	@ unaligned
 1620 0752 9DF81421 		ldrb	r2, [sp, #276]	@ zero_extendqisi2
 1621              		.loc 1 632 0
 1622 0756 5E71     		strb	r6, [r3, #5]
 1623              		.loc 1 633 0
 1624 0758 D880     		strh	r0, [r3, #6]	@ unaligned
 1625 075a 1A72     		strb	r2, [r3, #8]
 1626              		.loc 1 638 0
 1627 075c 17EE901A 		vmov	r1, s15	@ int
 1628              		.loc 1 635 0
 1629 0760 95F8B560 		ldrb	r6, [r5, #181]	@ zero_extendqisi2
 1630 0764 5E72     		strb	r6, [r3, #9]
 1631              		.loc 1 638 0
 1632 0766 2046     		mov	r0, r4
 1633 0768 17AA     		add	r2, sp, #92
 1634 076a FFF7FEFF 		bl	buffer_append_int32
 1635              	.LVL135:
 1636              		.loc 1 639 0
 1637 076e D5ED117A 		vldr.32	s15, [r5, #68]
 1638 0772 67EE887A 		vmul.f32	s15, s15, s16
 1639 0776 2046     		mov	r0, r4
 1640 0778 FDEEE77A 		vcvt.s32.f32	s15, s15
 1641 077c 17AA     		add	r2, sp, #92
 1642 077e 17EE901A 		vmov	r1, s15	@ int
 1643 0782 FFF7FEFF 		bl	buffer_append_int32
 1644              	.LVL136:
 1645              		.loc 1 640 0
 1646 0786 179B     		ldr	r3, [sp, #92]
 1647 0788 95F84820 		ldrb	r2, [r5, #72]	@ zero_extendqisi2
 1648 078c E254     		strb	r2, [r4, r3]
 1649              		.loc 1 641 0
 1650 078e E218     		adds	r2, r4, r3
 1651              		.loc 1 643 0
 1652 0790 F0EE480A 		vmov.f32	s1, s16
 1653 0794 95ED130A 		vldr.32	s0, [r5, #76]
ARM GAS  C:\Users\euanm\AppData\Local\Temp\ccyKTXNK.s 			page 30


 1654              		.loc 1 641 0
 1655 0798 95F84970 		ldrb	r7, [r5, #73]	@ zero_extendqisi2
 1656              		.loc 1 642 0
 1657 079c 95F84A60 		ldrb	r6, [r5, #74]	@ zero_extendqisi2
 1658              		.loc 1 641 0
 1659 07a0 5770     		strb	r7, [r2, #1]
 1660              		.loc 1 642 0
 1661 07a2 0333     		adds	r3, r3, #3
 1662              		.loc 1 643 0
 1663 07a4 2046     		mov	r0, r4
 1664 07a6 17A9     		add	r1, sp, #92
 1665              		.loc 1 642 0
 1666 07a8 1793     		str	r3, [sp, #92]
 1667 07aa 9670     		strb	r6, [r2, #2]
 1668              		.loc 1 643 0
 1669 07ac FFF7FEFF 		bl	buffer_append_float32
 1670              	.LVL137:
 1671              		.loc 1 645 0
 1672 07b0 D5ED297A 		vldr.32	s15, [r5, #164]
 1673 07b4 67EE887A 		vmul.f32	s15, s15, s16
 1674 07b8 2046     		mov	r0, r4
 1675 07ba FDEEE77A 		vcvt.s32.f32	s15, s15
 1676 07be 17AA     		add	r2, sp, #92
 1677 07c0 17EE901A 		vmov	r1, s15	@ int
 1678 07c4 FFF7FEFF 		bl	buffer_append_int32
 1679              	.LVL138:
 1680              		.loc 1 649 0
 1681 07c8 D5ED2F7A 		vldr.32	s15, [r5, #188]
 1682              		.loc 1 646 0
 1683 07cc 179B     		ldr	r3, [sp, #92]
 1684 07ce 95F8A820 		ldrb	r2, [r5, #168]	@ zero_extendqisi2
 1685 07d2 E254     		strb	r2, [r4, r3]
 1686              		.loc 1 649 0
 1687 07d4 67EE887A 		vmul.f32	s15, s15, s16
 1688              		.loc 1 648 0
 1689 07d8 E618     		adds	r6, r4, r3
 1690              		.loc 1 649 0
 1691 07da FDEEE77A 		vcvt.s32.f32	s15, s15
 1692              		.loc 1 648 0
 1693 07de 0233     		adds	r3, r3, #2
 1694              		.loc 1 649 0
 1695 07e0 CDED007A 		vstr.32	s15, [sp]	@ int
 1696              		.loc 1 648 0
 1697 07e4 95F8B870 		ldrb	r7, [r5, #184]	@ zero_extendqisi2
 1698 07e8 06E0     		b	.L344
 1699              	.L345:
 1700 07ea 00BF     		.align	2
 1701              	.L343:
 1702 07ec 00000000 		.word	.LANCHOR8
 1703 07f0 00007A44 		.word	1148846080
 1704 07f4 0000C842 		.word	1120403456
 1705              	.L344:
 1706              		.loc 1 649 0
 1707 07f8 BDF90010 		ldrsh	r1, [sp]
 1708              		.loc 1 648 0
 1709 07fc 1793     		str	r3, [sp, #92]
 1710              		.loc 1 649 0
ARM GAS  C:\Users\euanm\AppData\Local\Temp\ccyKTXNK.s 			page 31


 1711 07fe 2046     		mov	r0, r4
 1712 0800 17AA     		add	r2, sp, #92
 1713              		.loc 1 648 0
 1714 0802 7770     		strb	r7, [r6, #1]
 1715              		.loc 1 649 0
 1716 0804 FFF7FEFF 		bl	buffer_append_int16
 1717              	.LVL139:
 1718              		.loc 1 650 0
 1719 0808 D5ED307A 		vldr.32	s15, [r5, #192]
 1720 080c 67EE887A 		vmul.f32	s15, s15, s16
 1721 0810 2046     		mov	r0, r4
 1722 0812 FDEEE77A 		vcvt.s32.f32	s15, s15
 1723 0816 17AA     		add	r2, sp, #92
 1724 0818 CDED007A 		vstr.32	s15, [sp]	@ int
 1725 081c BDF90010 		ldrsh	r1, [sp]
 1726 0820 FFF7FEFF 		bl	buffer_append_int16
 1727              	.LVL140:
 1728              		.loc 1 651 0
 1729 0824 D5ED317A 		vldr.32	s15, [r5, #196]
 1730 0828 67EE887A 		vmul.f32	s15, s15, s16
 1731 082c 2046     		mov	r0, r4
 1732 082e FDEEE77A 		vcvt.s32.f32	s15, s15
 1733 0832 17AA     		add	r2, sp, #92
 1734 0834 CDED007A 		vstr.32	s15, [sp]	@ int
 1735 0838 BDF90010 		ldrsh	r1, [sp]
 1736 083c FFF7FEFF 		bl	buffer_append_int16
 1737              	.LVL141:
 1738              		.loc 1 652 0
 1739 0840 D5ED327A 		vldr.32	s15, [r5, #200]
 1740 0844 67EE887A 		vmul.f32	s15, s15, s16
 1741 0848 2046     		mov	r0, r4
 1742 084a FDEEE77A 		vcvt.s32.f32	s15, s15
 1743 084e 17AA     		add	r2, sp, #92
 1744 0850 CDED007A 		vstr.32	s15, [sp]	@ int
 1745 0854 BDF90010 		ldrsh	r1, [sp]
 1746 0858 FFF7FEFF 		bl	buffer_append_int16
 1747              	.LVL142:
 1748              		.loc 1 653 0
 1749 085c D5ED337A 		vldr.32	s15, [r5, #204]
 1750 0860 67EE887A 		vmul.f32	s15, s15, s16
 1751 0864 2046     		mov	r0, r4
 1752 0866 FDEEE77A 		vcvt.s32.f32	s15, s15
 1753 086a 17AA     		add	r2, sp, #92
 1754 086c CDED007A 		vstr.32	s15, [sp]	@ int
 1755 0870 BDF90010 		ldrsh	r1, [sp]
 1756 0874 FFF7FEFF 		bl	buffer_append_int16
 1757              	.LVL143:
 1758              		.loc 1 654 0
 1759 0878 D5ED347A 		vldr.32	s15, [r5, #208]
 1760 087c 67EE887A 		vmul.f32	s15, s15, s16
 1761 0880 2046     		mov	r0, r4
 1762 0882 FDEEE77A 		vcvt.s32.f32	s15, s15
 1763 0886 17AA     		add	r2, sp, #92
 1764 0888 CDED007A 		vstr.32	s15, [sp]	@ int
 1765 088c BDF90010 		ldrsh	r1, [sp]
 1766 0890 FFF7FEFF 		bl	buffer_append_int16
 1767              	.LVL144:
ARM GAS  C:\Users\euanm\AppData\Local\Temp\ccyKTXNK.s 			page 32


 1768              		.loc 1 655 0
 1769 0894 D5ED357A 		vldr.32	s15, [r5, #212]
 1770 0898 67EEA87A 		vmul.f32	s15, s15, s17
 1771 089c 2046     		mov	r0, r4
 1772 089e FDEEE77A 		vcvt.s32.f32	s15, s15
 1773 08a2 17AA     		add	r2, sp, #92
 1774 08a4 CDED007A 		vstr.32	s15, [sp]	@ int
 1775 08a8 BDF90010 		ldrsh	r1, [sp]
 1776 08ac FFF7FEFF 		bl	buffer_append_int16
 1777              	.LVL145:
 1778              		.loc 1 656 0
 1779 08b0 D5ED367A 		vldr.32	s15, [r5, #216]
 1780 08b4 67EE887A 		vmul.f32	s15, s15, s16
 1781 08b8 2046     		mov	r0, r4
 1782 08ba FDEEE77A 		vcvt.s32.f32	s15, s15
 1783 08be 17AA     		add	r2, sp, #92
 1784 08c0 CDED007A 		vstr.32	s15, [sp]	@ int
 1785 08c4 BDF90010 		ldrsh	r1, [sp]
 1786 08c8 FFF7FEFF 		bl	buffer_append_int16
 1787              	.LVL146:
 1788              		.loc 1 657 0
 1789 08cc D5ED377A 		vldr.32	s15, [r5, #220]
 1790 08d0 67EE887A 		vmul.f32	s15, s15, s16
 1791 08d4 2046     		mov	r0, r4
 1792 08d6 FDEEE77A 		vcvt.s32.f32	s15, s15
 1793 08da 17AA     		add	r2, sp, #92
 1794 08dc CDED007A 		vstr.32	s15, [sp]	@ int
 1795 08e0 BDF90010 		ldrsh	r1, [sp]
 1796 08e4 FFF7FEFF 		bl	buffer_append_int16
 1797              	.LVL147:
 1798              		.loc 1 658 0
 1799 08e8 D5ED387A 		vldr.32	s15, [r5, #224]
 1800 08ec 67EE887A 		vmul.f32	s15, s15, s16
 1801 08f0 2046     		mov	r0, r4
 1802 08f2 FDEEE77A 		vcvt.s32.f32	s15, s15
 1803 08f6 17AA     		add	r2, sp, #92
 1804 08f8 CDED007A 		vstr.32	s15, [sp]	@ int
 1805 08fc BDF90010 		ldrsh	r1, [sp]
 1806 0900 FFF7FEFF 		bl	buffer_append_int16
 1807              	.LVL148:
 1808              		.loc 1 659 0
 1809 0904 D5ED397A 		vldr.32	s15, [r5, #228]
 1810 0908 67EE887A 		vmul.f32	s15, s15, s16
 1811 090c 2046     		mov	r0, r4
 1812 090e FDEEE77A 		vcvt.s32.f32	s15, s15
 1813 0912 17AA     		add	r2, sp, #92
 1814 0914 CDED007A 		vstr.32	s15, [sp]	@ int
 1815 0918 BDF90010 		ldrsh	r1, [sp]
 1816 091c FFF7FEFF 		bl	buffer_append_int16
 1817              	.LVL149:
 1818              		.loc 1 660 0
 1819 0920 D5ED3A7A 		vldr.32	s15, [r5, #232]
 1820 0924 67EE887A 		vmul.f32	s15, s15, s16
 1821 0928 2046     		mov	r0, r4
 1822 092a FDEEE77A 		vcvt.s32.f32	s15, s15
 1823 092e 17AA     		add	r2, sp, #92
 1824 0930 CDED007A 		vstr.32	s15, [sp]	@ int
ARM GAS  C:\Users\euanm\AppData\Local\Temp\ccyKTXNK.s 			page 33


 1825 0934 BDF90010 		ldrsh	r1, [sp]
 1826 0938 FFF7FEFF 		bl	buffer_append_int16
 1827              	.LVL150:
 1828              		.loc 1 661 0
 1829 093c D5ED3B7A 		vldr.32	s15, [r5, #236]
 1830 0940 27EE888A 		vmul.f32	s16, s15, s16
 1831 0944 2046     		mov	r0, r4
 1832 0946 FDEEC87A 		vcvt.s32.f32	s15, s16
 1833 094a 17AA     		add	r2, sp, #92
 1834 094c CDED007A 		vstr.32	s15, [sp]	@ int
 1835 0950 BDF90010 		ldrsh	r1, [sp]
 1836 0954 FFF7FEFF 		bl	buffer_append_int16
 1837              	.LVL151:
 1838              		.loc 1 662 0
 1839 0958 D5ED3C7A 		vldr.32	s15, [r5, #240]
 1840 095c 67EEA87A 		vmul.f32	s15, s15, s17
 1841 0960 2046     		mov	r0, r4
 1842 0962 FDEEE77A 		vcvt.s32.f32	s15, s15
 1843 0966 17AA     		add	r2, sp, #92
 1844 0968 CDED007A 		vstr.32	s15, [sp]	@ int
 1845 096c BDF90010 		ldrsh	r1, [sp]
 1846              	.L315:
 1847 0970 FFF7FEFF 		bl	buffer_append_int16
 1848              	.LVL152:
 1849              	.LBB157:
 1850              	.LBB158:
 1851              		.loc 1 97 0
 1852 0974 074B     		ldr	r3, .L346
 1853              	.LBE158:
 1854              	.LBE157:
 1855              		.loc 1 665 0
 1856 0976 1799     		ldr	r1, [sp, #92]
 1857              	.LVL153:
 1858              	.LBB160:
 1859              	.LBB159:
 1860              		.loc 1 97 0
 1861 0978 1B68     		ldr	r3, [r3]
 1862 097a 002B     		cmp	r3, #0
 1863 097c 7FF40EAC 		bne	.L313
 1864 0980 FFF7C6BB 		b	.L24
 1865              	.LVL154:
 1866              	.L44:
 1867              	.LBE159:
 1868              	.LBE160:
 1869              		.loc 1 677 0
 1870 0984 0023     		movs	r3, #0
 1871 0986 04F80A30 		strb	r3, [r4, r10]
 1872              		.loc 1 678 0
 1873 098a 2046     		mov	r0, r4
 1874 098c FFF7FEFF 		bl	terminal_process_string
 1875              	.LVL155:
 1876              		.loc 1 679 0
 1877 0990 FFF7BEBB 		b	.L24
 1878              	.L347:
 1879              		.align	2
 1880              	.L346:
 1881 0994 00000000 		.word	.LANCHOR9
ARM GAS  C:\Users\euanm\AppData\Local\Temp\ccyKTXNK.s 			page 34


 1882              	.L40:
 1883              		.loc 1 362 0
 1884 0998 0D2E     		cmp	r6, #13
 1885 099a 01F01587 		beq	.L331
 1886              		.loc 1 365 0
 1887 099e E348     		ldr	r0, .L348
 1888 09a0 FFF7FEFF 		bl	conf_general_get_default_mc_configuration
 1889              	.LVL156:
 1890              	.L67:
 1891              		.loc 1 371 0
 1892 09a4 E14D     		ldr	r5, .L348
 1893              		.loc 1 376 0
 1894 09a6 9FEDE28A 		vldr.32	s16, .L348+4
 1895 09aa D5ED017A 		vldr.32	s15, [r5, #4]
 1896              		.loc 1 369 0
 1897 09ae E14C     		ldr	r4, .L348+8
 1898              	.LVL157:
 1899              		.loc 1 371 0
 1900 09b0 2A78     		ldrb	r2, [r5]	@ zero_extendqisi2
 1901              		.loc 1 372 0
 1902 09b2 6B78     		ldrb	r3, [r5, #1]	@ zero_extendqisi2
 1903              		.loc 1 371 0
 1904 09b4 6270     		strb	r2, [r4, #1]
 1905              		.loc 1 376 0
 1906 09b6 67EE887A 		vmul.f32	s15, s15, s16
 1907              		.loc 1 373 0
 1908 09ba AA78     		ldrb	r2, [r5, #2]	@ zero_extendqisi2
 1909              		.loc 1 374 0
 1910 09bc EF78     		ldrb	r7, [r5, #3]	@ zero_extendqisi2
 1911              	.LVL158:
 1912              		.loc 1 372 0
 1913 09be A370     		strb	r3, [r4, #2]
 1914              		.loc 1 376 0
 1915 09c0 FDEEE77A 		vcvt.s32.f32	s15, s15
 1916              		.loc 1 374 0
 1917 09c4 0523     		movs	r3, #5
 1918              		.loc 1 376 0
 1919 09c6 17EE901A 		vmov	r1, s15	@ int
 1920 09ca 2046     		mov	r0, r4
 1921              		.loc 1 373 0
 1922 09cc E270     		strb	r2, [r4, #3]
 1923              		.loc 1 376 0
 1924 09ce 17AA     		add	r2, sp, #92
 1925              		.loc 1 374 0
 1926 09d0 1793     		str	r3, [sp, #92]
 1927              		.loc 1 369 0
 1928 09d2 2670     		strb	r6, [r4]
 1929              		.loc 1 374 0
 1930 09d4 2771     		strb	r7, [r4, #4]
 1931              		.loc 1 376 0
 1932 09d6 FFF7FEFF 		bl	buffer_append_int32
 1933              	.LVL159:
 1934              		.loc 1 377 0
 1935 09da D5ED027A 		vldr.32	s15, [r5, #8]
 1936              		.loc 1 395 0
 1937 09de DFEDD68A 		vldr.32	s17, .L348+12
 1938              		.loc 1 377 0
ARM GAS  C:\Users\euanm\AppData\Local\Temp\ccyKTXNK.s 			page 35


 1939 09e2 67EE887A 		vmul.f32	s15, s15, s16
 1940 09e6 2046     		mov	r0, r4
 1941 09e8 FDEEE77A 		vcvt.s32.f32	s15, s15
 1942 09ec 17AA     		add	r2, sp, #92
 1943 09ee 17EE901A 		vmov	r1, s15	@ int
 1944 09f2 FFF7FEFF 		bl	buffer_append_int32
 1945              	.LVL160:
 1946              		.loc 1 378 0
 1947 09f6 D5ED037A 		vldr.32	s15, [r5, #12]
 1948 09fa 67EE887A 		vmul.f32	s15, s15, s16
 1949 09fe 2046     		mov	r0, r4
 1950 0a00 FDEEE77A 		vcvt.s32.f32	s15, s15
 1951 0a04 17AA     		add	r2, sp, #92
 1952 0a06 17EE901A 		vmov	r1, s15	@ int
 1953 0a0a FFF7FEFF 		bl	buffer_append_int32
 1954              	.LVL161:
 1955              		.loc 1 379 0
 1956 0a0e D5ED047A 		vldr.32	s15, [r5, #16]
 1957 0a12 67EE887A 		vmul.f32	s15, s15, s16
 1958 0a16 2046     		mov	r0, r4
 1959 0a18 FDEEE77A 		vcvt.s32.f32	s15, s15
 1960 0a1c 17AA     		add	r2, sp, #92
 1961 0a1e 17EE901A 		vmov	r1, s15	@ int
 1962 0a22 FFF7FEFF 		bl	buffer_append_int32
 1963              	.LVL162:
 1964              		.loc 1 380 0
 1965 0a26 D5ED057A 		vldr.32	s15, [r5, #20]
 1966 0a2a 67EE887A 		vmul.f32	s15, s15, s16
 1967 0a2e 2046     		mov	r0, r4
 1968 0a30 FDEEE77A 		vcvt.s32.f32	s15, s15
 1969 0a34 17AA     		add	r2, sp, #92
 1970 0a36 17EE901A 		vmov	r1, s15	@ int
 1971 0a3a FFF7FEFF 		bl	buffer_append_int32
 1972              	.LVL163:
 1973              		.loc 1 381 0
 1974 0a3e D5ED087A 		vldr.32	s15, [r5, #32]
 1975 0a42 67EE887A 		vmul.f32	s15, s15, s16
 1976 0a46 2046     		mov	r0, r4
 1977 0a48 FDEEE77A 		vcvt.s32.f32	s15, s15
 1978 0a4c 17AA     		add	r2, sp, #92
 1979 0a4e 17EE901A 		vmov	r1, s15	@ int
 1980 0a52 FFF7FEFF 		bl	buffer_append_int32
 1981              	.LVL164:
 1982              		.loc 1 382 0
 1983 0a56 D5ED097A 		vldr.32	s15, [r5, #36]
 1984 0a5a 67EE887A 		vmul.f32	s15, s15, s16
 1985 0a5e 2046     		mov	r0, r4
 1986 0a60 FDEEE77A 		vcvt.s32.f32	s15, s15
 1987 0a64 17AA     		add	r2, sp, #92
 1988 0a66 17EE901A 		vmov	r1, s15	@ int
 1989 0a6a FFF7FEFF 		bl	buffer_append_int32
 1990              	.LVL165:
 1991              		.loc 1 383 0
 1992 0a6e D5ED0A7A 		vldr.32	s15, [r5, #40]
 1993 0a72 67EE887A 		vmul.f32	s15, s15, s16
 1994 0a76 2046     		mov	r0, r4
 1995 0a78 FDEEE77A 		vcvt.s32.f32	s15, s15
ARM GAS  C:\Users\euanm\AppData\Local\Temp\ccyKTXNK.s 			page 36


 1996 0a7c 17AA     		add	r2, sp, #92
 1997 0a7e 17EE901A 		vmov	r1, s15	@ int
 1998 0a82 FFF7FEFF 		bl	buffer_append_int32
 1999              	.LVL166:
 2000              		.loc 1 384 0
 2001 0a86 D5ED0B7A 		vldr.32	s15, [r5, #44]
 2002 0a8a 67EE887A 		vmul.f32	s15, s15, s16
 2003 0a8e 2046     		mov	r0, r4
 2004 0a90 FDEEE77A 		vcvt.s32.f32	s15, s15
 2005 0a94 17AA     		add	r2, sp, #92
 2006 0a96 17EE901A 		vmov	r1, s15	@ int
 2007 0a9a FFF7FEFF 		bl	buffer_append_int32
 2008              	.LVL167:
 2009              		.loc 1 385 0
 2010 0a9e D5ED0C7A 		vldr.32	s15, [r5, #48]
 2011 0aa2 67EE887A 		vmul.f32	s15, s15, s16
 2012 0aa6 2046     		mov	r0, r4
 2013 0aa8 FDEEE77A 		vcvt.s32.f32	s15, s15
 2014 0aac 17AA     		add	r2, sp, #92
 2015 0aae 17EE901A 		vmov	r1, s15	@ int
 2016 0ab2 FFF7FEFF 		bl	buffer_append_int32
 2017              	.LVL168:
 2018              		.loc 1 386 0
 2019 0ab6 D5ED0D7A 		vldr.32	s15, [r5, #52]
 2020 0aba 67EE887A 		vmul.f32	s15, s15, s16
 2021 0abe 17AA     		add	r2, sp, #92
 2022 0ac0 FDEEE77A 		vcvt.s32.f32	s15, s15
 2023 0ac4 2046     		mov	r0, r4
 2024 0ac6 17EE901A 		vmov	r1, s15	@ int
 2025 0aca FFF7FEFF 		bl	buffer_append_int32
 2026              	.LVL169:
 2027              		.loc 1 387 0
 2028 0ace F0EE480A 		vmov.f32	s1, s16
 2029 0ad2 95ED0E0A 		vldr.32	s0, [r5, #56]
 2030 0ad6 17A9     		add	r1, sp, #92
 2031 0ad8 2046     		mov	r0, r4
 2032 0ada FFF7FEFF 		bl	buffer_append_float32
 2033              	.LVL170:
 2034              		.loc 1 388 0
 2035 0ade F0EE480A 		vmov.f32	s1, s16
 2036 0ae2 95ED0F0A 		vldr.32	s0, [r5, #60]
 2037 0ae6 17A9     		add	r1, sp, #92
 2038 0ae8 2046     		mov	r0, r4
 2039 0aea FFF7FEFF 		bl	buffer_append_float32
 2040              	.LVL171:
 2041              		.loc 1 391 0
 2042 0aee D5ED117A 		vldr.32	s15, [r5, #68]
 2043              		.loc 1 389 0
 2044 0af2 179B     		ldr	r3, [sp, #92]
 2045 0af4 95F84020 		ldrb	r2, [r5, #64]	@ zero_extendqisi2
 2046              		.loc 1 390 0
 2047 0af8 95F84170 		ldrb	r7, [r5, #65]	@ zero_extendqisi2
 2048              		.loc 1 389 0
 2049 0afc E254     		strb	r2, [r4, r3]
 2050              		.loc 1 391 0
 2051 0afe 67EE887A 		vmul.f32	s15, s15, s16
 2052              		.loc 1 390 0
ARM GAS  C:\Users\euanm\AppData\Local\Temp\ccyKTXNK.s 			page 37


 2053 0b02 E618     		adds	r6, r4, r3
 2054              	.LVL172:
 2055              		.loc 1 391 0
 2056 0b04 FDEEE77A 		vcvt.s32.f32	s15, s15
 2057              		.loc 1 390 0
 2058 0b08 0233     		adds	r3, r3, #2
 2059              		.loc 1 391 0
 2060 0b0a 17EE901A 		vmov	r1, s15	@ int
 2061 0b0e 2046     		mov	r0, r4
 2062 0b10 17AA     		add	r2, sp, #92
 2063              		.loc 1 390 0
 2064 0b12 1793     		str	r3, [sp, #92]
 2065 0b14 7770     		strb	r7, [r6, #1]
 2066              		.loc 1 391 0
 2067 0b16 FFF7FEFF 		bl	buffer_append_int32
 2068              	.LVL173:
 2069              		.loc 1 392 0
 2070 0b1a D5ED127A 		vldr.32	s15, [r5, #72]
 2071 0b1e 67EE887A 		vmul.f32	s15, s15, s16
 2072 0b22 2046     		mov	r0, r4
 2073 0b24 FDEEE77A 		vcvt.s32.f32	s15, s15
 2074 0b28 17AA     		add	r2, sp, #92
 2075 0b2a 17EE901A 		vmov	r1, s15	@ int
 2076 0b2e FFF7FEFF 		bl	buffer_append_int32
 2077              	.LVL174:
 2078              		.loc 1 393 0
 2079 0b32 D5ED137A 		vldr.32	s15, [r5, #76]
 2080 0b36 67EE887A 		vmul.f32	s15, s15, s16
 2081 0b3a 2046     		mov	r0, r4
 2082 0b3c FDEEE77A 		vcvt.s32.f32	s15, s15
 2083 0b40 17AA     		add	r2, sp, #92
 2084 0b42 17EE901A 		vmov	r1, s15	@ int
 2085 0b46 FFF7FEFF 		bl	buffer_append_int32
 2086              	.LVL175:
 2087              		.loc 1 394 0
 2088 0b4a D5ED147A 		vldr.32	s15, [r5, #80]
 2089 0b4e 67EE887A 		vmul.f32	s15, s15, s16
 2090 0b52 2046     		mov	r0, r4
 2091 0b54 FDEEE77A 		vcvt.s32.f32	s15, s15
 2092 0b58 17AA     		add	r2, sp, #92
 2093 0b5a 17EE901A 		vmov	r1, s15	@ int
 2094 0b5e FFF7FEFF 		bl	buffer_append_int32
 2095              	.LVL176:
 2096              		.loc 1 395 0
 2097 0b62 D5ED157A 		vldr.32	s15, [r5, #84]
 2098 0b66 67EEA87A 		vmul.f32	s15, s15, s17
 2099 0b6a 2046     		mov	r0, r4
 2100 0b6c FDEEE77A 		vcvt.s32.f32	s15, s15
 2101 0b70 17AA     		add	r2, sp, #92
 2102 0b72 17EE901A 		vmov	r1, s15	@ int
 2103 0b76 FFF7FEFF 		bl	buffer_append_int32
 2104              	.LVL177:
 2105              		.loc 1 396 0
 2106 0b7a D5ED167A 		vldr.32	s15, [r5, #88]
 2107 0b7e 67EEA87A 		vmul.f32	s15, s15, s17
 2108 0b82 2046     		mov	r0, r4
 2109 0b84 FDEEE77A 		vcvt.s32.f32	s15, s15
ARM GAS  C:\Users\euanm\AppData\Local\Temp\ccyKTXNK.s 			page 38


 2110 0b88 17AA     		add	r2, sp, #92
 2111 0b8a 17EE901A 		vmov	r1, s15	@ int
 2112 0b8e FFF7FEFF 		bl	buffer_append_int32
 2113              	.LVL178:
 2114              		.loc 1 398 0
 2115 0b92 D5ED1B7A 		vldr.32	s15, [r5, #108]
 2116 0b96 67EE887A 		vmul.f32	s15, s15, s16
 2117 0b9a 2046     		mov	r0, r4
 2118 0b9c FDEEE77A 		vcvt.s32.f32	s15, s15
 2119 0ba0 17AA     		add	r2, sp, #92
 2120 0ba2 17EE901A 		vmov	r1, s15	@ int
 2121 0ba6 FFF7FEFF 		bl	buffer_append_int32
 2122              	.LVL179:
 2123              		.loc 1 399 0
 2124 0baa D5ED1C7A 		vldr.32	s15, [r5, #112]
 2125 0bae 67EE887A 		vmul.f32	s15, s15, s16
 2126 0bb2 2046     		mov	r0, r4
 2127 0bb4 FDEEE77A 		vcvt.s32.f32	s15, s15
 2128 0bb8 17AA     		add	r2, sp, #92
 2129 0bba 17EE901A 		vmov	r1, s15	@ int
 2130 0bbe FFF7FEFF 		bl	buffer_append_int32
 2131              	.LVL180:
 2132              		.loc 1 400 0
 2133 0bc2 D5ED1D7A 		vldr.32	s15, [r5, #116]
 2134 0bc6 67EE887A 		vmul.f32	s15, s15, s16
 2135 0bca 2046     		mov	r0, r4
 2136 0bcc FDEEE77A 		vcvt.s32.f32	s15, s15
 2137 0bd0 17AA     		add	r2, sp, #92
 2138 0bd2 17EE901A 		vmov	r1, s15	@ int
 2139 0bd6 FFF7FEFF 		bl	buffer_append_int32
 2140              	.LVL181:
 2141              		.loc 1 401 0
 2142 0bda D5ED1E7A 		vldr.32	s15, [r5, #120]
 2143 0bde 67EE887A 		vmul.f32	s15, s15, s16
 2144 0be2 2046     		mov	r0, r4
 2145 0be4 FDEEE77A 		vcvt.s32.f32	s15, s15
 2146 0be8 17AA     		add	r2, sp, #92
 2147 0bea 17EE901A 		vmov	r1, s15	@ int
 2148 0bee FFF7FEFF 		bl	buffer_append_int32
 2149              	.LVL182:
 2150              		.loc 1 402 0
 2151 0bf2 D5ED1F7A 		vldr.32	s15, [r5, #124]
 2152 0bf6 67EE887A 		vmul.f32	s15, s15, s16
 2153 0bfa 2046     		mov	r0, r4
 2154 0bfc FDEEE77A 		vcvt.s32.f32	s15, s15
 2155 0c00 17AA     		add	r2, sp, #92
 2156 0c02 17EE901A 		vmov	r1, s15	@ int
 2157 0c06 FFF7FEFF 		bl	buffer_append_int32
 2158              	.LVL183:
 2159              		.loc 1 403 0
 2160 0c0a D5ED207A 		vldr.32	s15, [r5, #128]
 2161 0c0e 67EE887A 		vmul.f32	s15, s15, s16
 2162 0c12 2046     		mov	r0, r4
 2163 0c14 FDEEE77A 		vcvt.s32.f32	s15, s15
 2164 0c18 17AA     		add	r2, sp, #92
 2165 0c1a 17EE901A 		vmov	r1, s15	@ int
 2166 0c1e FFF7FEFF 		bl	buffer_append_int32
ARM GAS  C:\Users\euanm\AppData\Local\Temp\ccyKTXNK.s 			page 39


 2167              	.LVL184:
 2168              		.loc 1 404 0
 2169 0c22 D5ED217A 		vldr.32	s15, [r5, #132]
 2170 0c26 67EE887A 		vmul.f32	s15, s15, s16
 2171 0c2a 2046     		mov	r0, r4
 2172 0c2c FDEEE77A 		vcvt.s32.f32	s15, s15
 2173 0c30 17AA     		add	r2, sp, #92
 2174 0c32 17EE901A 		vmov	r1, s15	@ int
 2175 0c36 FFF7FEFF 		bl	buffer_append_int32
 2176              	.LVL185:
 2177              		.loc 1 408 0
 2178 0c3a D5ED247A 		vldr.32	s15, [r5, #144]
 2179              		.loc 1 406 0
 2180 0c3e 179B     		ldr	r3, [sp, #92]
 2181 0c40 05F18802 		add	r2, r5, #136
 2182              		.loc 1 408 0
 2183 0c44 67EE887A 		vmul.f32	s15, s15, s16
 2184              		.loc 1 406 0
 2185 0c48 03CA     		ldmia	r2!, {r0, r1}
 2186              		.loc 1 408 0
 2187 0c4a FDEEE77A 		vcvt.s32.f32	s15, s15
 2188              		.loc 1 406 0
 2189 0c4e E218     		adds	r2, r4, r3
 2190 0c50 E050     		str	r0, [r4, r3]	@ unaligned
 2191              		.loc 1 407 0
 2192 0c52 0833     		adds	r3, r3, #8
 2193              		.loc 1 406 0
 2194 0c54 5160     		str	r1, [r2, #4]	@ unaligned
 2195              		.loc 1 408 0
 2196 0c56 2046     		mov	r0, r4
 2197 0c58 17EE901A 		vmov	r1, s15	@ int
 2198 0c5c 17AA     		add	r2, sp, #92
 2199              		.loc 1 407 0
 2200 0c5e 1793     		str	r3, [sp, #92]
 2201              		.loc 1 408 0
 2202 0c60 FFF7FEFF 		bl	buffer_append_int32
 2203              	.LVL186:
 2204              		.loc 1 410 0
 2205 0c64 95ED250A 		vldr.32	s0, [r5, #148]
 2206 0c68 DFED350A 		vldr.32	s1, .L348+20
 2207 0c6c 17A9     		add	r1, sp, #92
 2208 0c6e 2046     		mov	r0, r4
 2209 0c70 FFF7FEFF 		bl	buffer_append_float32
 2210              	.LVL187:
 2211              		.loc 1 411 0
 2212 0c74 95ED260A 		vldr.32	s0, [r5, #152]
 2213 0c78 DFED310A 		vldr.32	s1, .L348+20
 2214 0c7c 17A9     		add	r1, sp, #92
 2215 0c7e 2046     		mov	r0, r4
 2216 0c80 FFF7FEFF 		bl	buffer_append_float32
 2217              	.LVL188:
 2218              		.loc 1 412 0
 2219 0c84 F0EE480A 		vmov.f32	s1, s16
 2220 0c88 95ED270A 		vldr.32	s0, [r5, #156]
 2221 0c8c 17A9     		add	r1, sp, #92
 2222 0c8e 2046     		mov	r0, r4
 2223 0c90 FFF7FEFF 		bl	buffer_append_float32
ARM GAS  C:\Users\euanm\AppData\Local\Temp\ccyKTXNK.s 			page 40


 2224              	.LVL189:
 2225              		.loc 1 413 0
 2226 0c94 95ED280A 		vldr.32	s0, [r5, #160]
 2227 0c98 17A9     		add	r1, sp, #92
 2228 0c9a F0EE680A 		vmov.f32	s1, s17
 2229 0c9e 2046     		mov	r0, r4
 2230 0ca0 FFF7FEFF 		bl	buffer_append_float32
 2231              	.LVL190:
 2232              		.loc 1 414 0
 2233 0ca4 179B     		ldr	r3, [sp, #92]
 2234 0ca6 95F8A820 		ldrb	r2, [r5, #168]	@ zero_extendqisi2
 2235 0caa E254     		strb	r2, [r4, r3]
 2236              		.loc 1 415 0
 2237 0cac 95ED290A 		vldr.32	s0, [r5, #164]
 2238              		.loc 1 414 0
 2239 0cb0 0133     		adds	r3, r3, #1
 2240              		.loc 1 415 0
 2241 0cb2 F0EE480A 		vmov.f32	s1, s16
 2242 0cb6 2046     		mov	r0, r4
 2243 0cb8 17A9     		add	r1, sp, #92
 2244              		.loc 1 414 0
 2245 0cba 1793     		str	r3, [sp, #92]
 2246              		.loc 1 415 0
 2247 0cbc FFF7FEFF 		bl	buffer_append_float32
 2248              	.LVL191:
 2249              		.loc 1 416 0
 2250 0cc0 F0EE480A 		vmov.f32	s1, s16
 2251 0cc4 95ED2B0A 		vldr.32	s0, [r5, #172]
 2252 0cc8 17A9     		add	r1, sp, #92
 2253 0cca 2046     		mov	r0, r4
 2254 0ccc FFF7FEFF 		bl	buffer_append_float32
 2255              	.LVL192:
 2256              		.loc 1 417 0
 2257 0cd0 179B     		ldr	r3, [sp, #92]
 2258 0cd2 95F8E420 		ldrb	r2, [r5, #228]	@ zero_extendqisi2
 2259 0cd6 E254     		strb	r2, [r4, r3]
 2260              		.loc 1 418 0
 2261 0cd8 95ED300A 		vldr.32	s0, [r5, #192]
 2262              		.loc 1 417 0
 2263 0cdc 0133     		adds	r3, r3, #1
 2264              		.loc 1 418 0
 2265 0cde F0EE480A 		vmov.f32	s1, s16
 2266 0ce2 2046     		mov	r0, r4
 2267 0ce4 17A9     		add	r1, sp, #92
 2268              		.loc 1 417 0
 2269 0ce6 1793     		str	r3, [sp, #92]
 2270              		.loc 1 418 0
 2271 0ce8 FFF7FEFF 		bl	buffer_append_float32
 2272              	.LVL193:
 2273              		.loc 1 419 0
 2274 0cec F0EE480A 		vmov.f32	s1, s16
 2275 0cf0 95ED310A 		vldr.32	s0, [r5, #196]
 2276 0cf4 17A9     		add	r1, sp, #92
 2277 0cf6 2046     		mov	r0, r4
 2278 0cf8 FFF7FEFF 		bl	buffer_append_float32
 2279              	.LVL194:
 2280              		.loc 1 420 0
ARM GAS  C:\Users\euanm\AppData\Local\Temp\ccyKTXNK.s 			page 41


 2281 0cfc 95ED2C0A 		vldr.32	s0, [r5, #176]
 2282 0d00 DFED0E0A 		vldr.32	s1, .L348+16
 2283 0d04 17A9     		add	r1, sp, #92
 2284 0d06 2046     		mov	r0, r4
 2285 0d08 FFF7FEFF 		bl	buffer_append_float32
 2286              	.LVL195:
 2287              		.loc 1 421 0
 2288 0d0c 95ED2D0A 		vldr.32	s0, [r5, #180]
 2289 0d10 DFED0B0A 		vldr.32	s1, .L348+20
 2290 0d14 17A9     		add	r1, sp, #92
 2291 0d16 2046     		mov	r0, r4
 2292 0d18 FFF7FEFF 		bl	buffer_append_float32
 2293              	.LVL196:
 2294              		.loc 1 422 0
 2295 0d1c 95ED2E0A 		vldr.32	s0, [r5, #184]
 2296 0d20 DFED070A 		vldr.32	s1, .L348+20
 2297 0d24 17A9     		add	r1, sp, #92
 2298 0d26 2046     		mov	r0, r4
 2299 0d28 0CE0     		b	.L349
 2300              	.L350:
 2301 0d2a 00BF     		.align	2
 2302              	.L348:
 2303 0d2c 00000000 		.word	.LANCHOR12
 2304 0d30 00007A44 		.word	1148846080
 2305 0d34 00000000 		.word	.LANCHOR8
 2306 0d38 00247449 		.word	1232348160
 2307 0d3c 20BCBE4C 		.word	1287568416
 2308 0d40 0050C347 		.word	1203982336
 2309              	.L349:
 2310 0d44 FFF7FEFF 		bl	buffer_append_float32
 2311              	.LVL197:
 2312              		.loc 1 423 0
 2313 0d48 95ED2F0A 		vldr.32	s0, [r5, #188]
 2314 0d4c 17A9     		add	r1, sp, #92
 2315 0d4e 2046     		mov	r0, r4
 2316 0d50 F7EE000A 		vmov.f32	s1, #1.0e+0
 2317 0d54 FFF7FEFF 		bl	buffer_append_float32
 2318              	.LVL198:
 2319              		.loc 1 424 0
 2320 0d58 F0EE480A 		vmov.f32	s1, s16
 2321 0d5c 95ED320A 		vldr.32	s0, [r5, #200]
 2322 0d60 17A9     		add	r1, sp, #92
 2323 0d62 2046     		mov	r0, r4
 2324 0d64 FFF7FEFF 		bl	buffer_append_float32
 2325              	.LVL199:
 2326              		.loc 1 425 0
 2327 0d68 F0EE480A 		vmov.f32	s1, s16
 2328 0d6c 95ED330A 		vldr.32	s0, [r5, #204]
 2329 0d70 17A9     		add	r1, sp, #92
 2330 0d72 2046     		mov	r0, r4
 2331 0d74 FFF7FEFF 		bl	buffer_append_float32
 2332              	.LVL200:
 2333              		.loc 1 426 0
 2334 0d78 F0EE480A 		vmov.f32	s1, s16
 2335 0d7c 95ED340A 		vldr.32	s0, [r5, #208]
 2336 0d80 17A9     		add	r1, sp, #92
 2337 0d82 2046     		mov	r0, r4
ARM GAS  C:\Users\euanm\AppData\Local\Temp\ccyKTXNK.s 			page 42


 2338 0d84 FFF7FEFF 		bl	buffer_append_float32
 2339              	.LVL201:
 2340              		.loc 1 427 0
 2341 0d88 F0EE480A 		vmov.f32	s1, s16
 2342 0d8c 95ED350A 		vldr.32	s0, [r5, #212]
 2343 0d90 17A9     		add	r1, sp, #92
 2344 0d92 2046     		mov	r0, r4
 2345 0d94 FFF7FEFF 		bl	buffer_append_float32
 2346              	.LVL202:
 2347              		.loc 1 428 0
 2348 0d98 F0EE480A 		vmov.f32	s1, s16
 2349 0d9c 95ED360A 		vldr.32	s0, [r5, #216]
 2350 0da0 17A9     		add	r1, sp, #92
 2351 0da2 2046     		mov	r0, r4
 2352 0da4 FFF7FEFF 		bl	buffer_append_float32
 2353              	.LVL203:
 2354              		.loc 1 429 0
 2355 0da8 F0EE480A 		vmov.f32	s1, s16
 2356 0dac 95ED370A 		vldr.32	s0, [r5, #220]
 2357 0db0 17A9     		add	r1, sp, #92
 2358 0db2 2046     		mov	r0, r4
 2359 0db4 FFF7FEFF 		bl	buffer_append_float32
 2360              	.LVL204:
 2361              		.loc 1 430 0
 2362 0db8 F0EE480A 		vmov.f32	s1, s16
 2363 0dbc 95ED380A 		vldr.32	s0, [r5, #224]
 2364 0dc0 17A9     		add	r1, sp, #92
 2365 0dc2 2046     		mov	r0, r4
 2366 0dc4 FFF7FEFF 		bl	buffer_append_float32
 2367              	.LVL205:
 2368              		.loc 1 433 0
 2369 0dc8 D5ED3C7A 		vldr.32	s15, [r5, #240]
 2370              		.loc 1 431 0
 2371 0dcc 179B     		ldr	r3, [sp, #92]
 2372 0dce 2A46     		mov	r2, r5
 2373              		.loc 1 433 0
 2374 0dd0 67EE887A 		vmul.f32	s15, s15, s16
 2375              		.loc 1 431 0
 2376 0dd4 52F8E51F 		ldr	r1, [r2, #229]!	@ unaligned
 2377 0dd8 E150     		str	r1, [r4, r3]	@ unaligned
 2378              		.loc 1 433 0
 2379 0dda FDEEE77A 		vcvt.s32.f32	s15, s15
 2380              		.loc 1 431 0
 2381 0dde E118     		adds	r1, r4, r3
 2382 0de0 5268     		ldr	r2, [r2, #4]	@ unaligned
 2383 0de2 4A60     		str	r2, [r1, #4]	@ unaligned
 2384              		.loc 1 432 0
 2385 0de4 0833     		adds	r3, r3, #8
 2386              		.loc 1 433 0
 2387 0de6 17EE901A 		vmov	r1, s15	@ int
 2388 0dea 2046     		mov	r0, r4
 2389 0dec 17AA     		add	r2, sp, #92
 2390              		.loc 1 432 0
 2391 0dee 1793     		str	r3, [sp, #92]
 2392              		.loc 1 433 0
 2393 0df0 FFF7FEFF 		bl	buffer_append_int32
 2394              	.LVL206:
ARM GAS  C:\Users\euanm\AppData\Local\Temp\ccyKTXNK.s 			page 43


 2395              		.loc 1 435 0
 2396 0df4 D5ED3D7A 		vldr.32	s15, [r5, #244]
 2397 0df8 67EEA87A 		vmul.f32	s15, s15, s17
 2398 0dfc 2046     		mov	r0, r4
 2399 0dfe FDEEE77A 		vcvt.s32.f32	s15, s15
 2400 0e02 17AA     		add	r2, sp, #92
 2401 0e04 17EE901A 		vmov	r1, s15	@ int
 2402 0e08 FFF7FEFF 		bl	buffer_append_int32
 2403              	.LVL207:
 2404              		.loc 1 436 0
 2405 0e0c D5ED3E7A 		vldr.32	s15, [r5, #248]
 2406 0e10 67EEA87A 		vmul.f32	s15, s15, s17
 2407 0e14 2046     		mov	r0, r4
 2408 0e16 FDEEE77A 		vcvt.s32.f32	s15, s15
 2409 0e1a 17AA     		add	r2, sp, #92
 2410 0e1c 17EE901A 		vmov	r1, s15	@ int
 2411 0e20 FFF7FEFF 		bl	buffer_append_int32
 2412              	.LVL208:
 2413              		.loc 1 437 0
 2414 0e24 D5ED3F7A 		vldr.32	s15, [r5, #252]
 2415 0e28 67EEA87A 		vmul.f32	s15, s15, s17
 2416 0e2c 2046     		mov	r0, r4
 2417 0e2e FDEEE77A 		vcvt.s32.f32	s15, s15
 2418 0e32 17AA     		add	r2, sp, #92
 2419 0e34 17EE901A 		vmov	r1, s15	@ int
 2420 0e38 FFF7FEFF 		bl	buffer_append_int32
 2421              	.LVL209:
 2422              		.loc 1 438 0
 2423 0e3c D5ED407A 		vldr.32	s15, [r5, #256]
 2424 0e40 67EE887A 		vmul.f32	s15, s15, s16
 2425 0e44 2046     		mov	r0, r4
 2426 0e46 FDEEE77A 		vcvt.s32.f32	s15, s15
 2427 0e4a 17AA     		add	r2, sp, #92
 2428 0e4c 17EE901A 		vmov	r1, s15	@ int
 2429 0e50 FFF7FEFF 		bl	buffer_append_int32
 2430              	.LVL210:
 2431              		.loc 1 440 0
 2432 0e54 D5ED427A 		vldr.32	s15, [r5, #264]
 2433 0e58 67EEA87A 		vmul.f32	s15, s15, s17
 2434 0e5c 2046     		mov	r0, r4
 2435 0e5e FDEEE77A 		vcvt.s32.f32	s15, s15
 2436 0e62 17AA     		add	r2, sp, #92
 2437 0e64 17EE901A 		vmov	r1, s15	@ int
 2438 0e68 FFF7FEFF 		bl	buffer_append_int32
 2439              	.LVL211:
 2440              		.loc 1 441 0
 2441 0e6c D5ED437A 		vldr.32	s15, [r5, #268]
 2442 0e70 67EEA87A 		vmul.f32	s15, s15, s17
 2443 0e74 2046     		mov	r0, r4
 2444 0e76 FDEEE77A 		vcvt.s32.f32	s15, s15
 2445 0e7a 17AA     		add	r2, sp, #92
 2446 0e7c 17EE901A 		vmov	r1, s15	@ int
 2447 0e80 FFF7FEFF 		bl	buffer_append_int32
 2448              	.LVL212:
 2449              		.loc 1 442 0
 2450 0e84 D5ED447A 		vldr.32	s15, [r5, #272]
 2451 0e88 67EEA87A 		vmul.f32	s15, s15, s17
ARM GAS  C:\Users\euanm\AppData\Local\Temp\ccyKTXNK.s 			page 44


 2452 0e8c 17AA     		add	r2, sp, #92
 2453 0e8e FDEEE77A 		vcvt.s32.f32	s15, s15
 2454 0e92 2046     		mov	r0, r4
 2455 0e94 17EE901A 		vmov	r1, s15	@ int
 2456 0e98 FFF7FEFF 		bl	buffer_append_int32
 2457              	.LVL213:
 2458              		.loc 1 443 0
 2459 0e9c 95ED450A 		vldr.32	s0, [r5, #276]
 2460 0ea0 5FED590A 		vldr.32	s1, .L348+20
 2461 0ea4 17A9     		add	r1, sp, #92
 2462 0ea6 2046     		mov	r0, r4
 2463 0ea8 FFF7FEFF 		bl	buffer_append_float32
 2464              	.LVL214:
 2465              		.loc 1 445 0
 2466 0eac D5ED467A 		vldr.32	s15, [r5, #280]
 2467 0eb0 67EEA87A 		vmul.f32	s15, s15, s17
 2468 0eb4 2046     		mov	r0, r4
 2469 0eb6 FDEEE77A 		vcvt.s32.f32	s15, s15
 2470 0eba 17AA     		add	r2, sp, #92
 2471 0ebc 17EE901A 		vmov	r1, s15	@ int
 2472 0ec0 FFF7FEFF 		bl	buffer_append_int32
 2473              	.LVL215:
 2474              		.loc 1 446 0
 2475 0ec4 D5ED477A 		vldr.32	s15, [r5, #284]
 2476 0ec8 27EE888A 		vmul.f32	s16, s15, s16
 2477 0ecc 2046     		mov	r0, r4
 2478 0ece FDEEC87A 		vcvt.s32.f32	s15, s16
 2479 0ed2 17AA     		add	r2, sp, #92
 2480 0ed4 17EE901A 		vmov	r1, s15	@ int
 2481 0ed8 FFF7FEFF 		bl	buffer_append_int32
 2482              	.LVL216:
 2483              		.loc 1 447 0
 2484 0edc D5ED487A 		vldr.32	s15, [r5, #288]
 2485 0ee0 67EEA87A 		vmul.f32	s15, s15, s17
 2486 0ee4 2046     		mov	r0, r4
 2487 0ee6 FDEEE77A 		vcvt.s32.f32	s15, s15
 2488 0eea 17AA     		add	r2, sp, #92
 2489 0eec 17EE901A 		vmov	r1, s15	@ int
 2490 0ef0 FFF7FEFF 		bl	buffer_append_int32
 2491              	.LVL217:
 2492              		.loc 1 448 0
 2493 0ef4 D5ED497A 		vldr.32	s15, [r5, #292]
 2494 0ef8 67EEA87A 		vmul.f32	s15, s15, s17
 2495 0efc 2046     		mov	r0, r4
 2496 0efe FDEEE77A 		vcvt.s32.f32	s15, s15
 2497 0f02 17AA     		add	r2, sp, #92
 2498 0f04 17EE901A 		vmov	r1, s15	@ int
 2499 0f08 FFF7FEFF 		bl	buffer_append_int32
 2500              	.LVL218:
 2501              		.loc 1 450 0
 2502 0f0c 17AA     		add	r2, sp, #92
 2503 0f0e D5F82811 		ldr	r1, [r5, #296]
 2504 0f12 2046     		mov	r0, r4
 2505 0f14 FFF7FEFF 		bl	buffer_append_int32
 2506              	.LVL219:
 2507              		.loc 1 451 0
 2508 0f18 95ED4B0A 		vldr.32	s0, [r5, #300]
ARM GAS  C:\Users\euanm\AppData\Local\Temp\ccyKTXNK.s 			page 45


 2509 0f1c 17A9     		add	r1, sp, #92
 2510 0f1e F0EE680A 		vmov.f32	s1, s17
 2511 0f22 2046     		mov	r0, r4
 2512 0f24 FFF7FEFF 		bl	buffer_append_float32
 2513              	.LVL220:
 2514              		.loc 1 452 0
 2515 0f28 95ED4C0A 		vldr.32	s0, [r5, #304]
 2516 0f2c 17A9     		add	r1, sp, #92
 2517 0f2e F0EE680A 		vmov.f32	s1, s17
 2518 0f32 2046     		mov	r0, r4
 2519 0f34 FFF7FEFF 		bl	buffer_append_float32
 2520              	.LVL221:
 2521              		.loc 1 453 0
 2522 0f38 95ED4D0A 		vldr.32	s0, [r5, #308]
 2523 0f3c 17A9     		add	r1, sp, #92
 2524 0f3e F0EE680A 		vmov.f32	s1, s17
 2525 0f42 2046     		mov	r0, r4
 2526 0f44 FFF7FEFF 		bl	buffer_append_float32
 2527              	.LVL222:
 2528              		.loc 1 454 0
 2529 0f48 D5F83811 		ldr	r1, [r5, #312]
 2530 0f4c 17AA     		add	r2, sp, #92
 2531 0f4e 2046     		mov	r0, r4
 2532 0f50 FFF7FEFF 		bl	buffer_append_uint32
 2533              	.LVL223:
 2534              		.loc 1 460 0
 2535 0f54 D5ED077A 		vldr.32	s15, [r5, #28]
 2536              		.loc 1 455 0
 2537 0f58 179B     		ldr	r3, [sp, #92]
 2538 0f5a 95F83C21 		ldrb	r2, [r5, #316]	@ zero_extendqisi2
 2539              		.loc 1 458 0
 2540 0f5e 95F80471 		ldrb	r7, [r5, #260]	@ zero_extendqisi2
 2541              		.loc 1 459 0
 2542 0f62 2E7E     		ldrb	r6, [r5, #24]	@ zero_extendqisi2
 2543              		.loc 1 455 0
 2544 0f64 E254     		strb	r2, [r4, r3]
 2545              		.loc 1 460 0
 2546 0f66 FDEEE77A 		vcvt.s32.f32	s15, s15
 2547              		.loc 1 458 0
 2548 0f6a E518     		adds	r5, r4, r3
 2549              		.loc 1 460 0
 2550 0f6c CDED007A 		vstr.32	s15, [sp]	@ int
 2551              		.loc 1 459 0
 2552 0f70 0333     		adds	r3, r3, #3
 2553              		.loc 1 460 0
 2554 0f72 2046     		mov	r0, r4
 2555 0f74 BDF90010 		ldrsh	r1, [sp]
 2556              		.loc 1 459 0
 2557 0f78 1793     		str	r3, [sp, #92]
 2558              		.loc 1 460 0
 2559 0f7a 17AA     		add	r2, sp, #92
 2560              		.loc 1 458 0
 2561 0f7c 6F70     		strb	r7, [r5, #1]
 2562              		.loc 1 459 0
 2563 0f7e AE70     		strb	r6, [r5, #2]
 2564 0f80 F6E4     		b	.L315
 2565              	.LVL224:
ARM GAS  C:\Users\euanm\AppData\Local\Temp\ccyKTXNK.s 			page 46


 2566              	.L39:
 2567              		.loc 1 252 0
 2568 0f82 FFF7FEFF 		bl	mc_interface_get_configuration
 2569              	.LVL225:
 2570 0f86 D94D     		ldr	r5, .L351
 2571              		.loc 1 260 0
 2572 0f88 9FEDD98A 		vldr.32	s16, .L351+4
 2573              		.loc 1 279 0
 2574 0f8c DFEDD98A 		vldr.32	s17, .L351+8
 2575              		.loc 1 299 0
 2576 0f90 9FEDD99A 		vldr.32	s18, .L351+12
 2577              		.loc 1 252 0
 2578 0f94 0146     		mov	r1, r0
 2579 0f96 4FF4A072 		mov	r2, #320
 2580 0f9a 2846     		mov	r0, r5
 2581 0f9c FFF7FEFF 		bl	memcpy
 2582              	.LVL226:
 2583              		.loc 1 255 0
 2584 0fa0 7B78     		ldrb	r3, [r7, #1]	@ zero_extendqisi2
 2585              		.loc 1 256 0
 2586 0fa2 B878     		ldrb	r0, [r7, #2]	@ zero_extendqisi2
 2587              		.loc 1 258 0
 2588 0fa4 3A79     		ldrb	r2, [r7, #4]	@ zero_extendqisi2
 2589              		.loc 1 257 0
 2590 0fa6 FE78     		ldrb	r6, [r7, #3]	@ zero_extendqisi2
 2591              	.LVL227:
 2592              		.loc 1 255 0
 2593 0fa8 2B70     		strb	r3, [r5]
 2594              		.loc 1 260 0
 2595 0faa 17A9     		add	r1, sp, #92
 2596              		.loc 1 258 0
 2597 0fac 0423     		movs	r3, #4
 2598              		.loc 1 256 0
 2599 0fae 6870     		strb	r0, [r5, #1]
 2600              		.loc 1 260 0
 2601 0fb0 B0EE480A 		vmov.f32	s0, s16
 2602 0fb4 2046     		mov	r0, r4
 2603              		.loc 1 258 0
 2604 0fb6 EA70     		strb	r2, [r5, #3]
 2605 0fb8 1793     		str	r3, [sp, #92]
 2606              		.loc 1 257 0
 2607 0fba AE70     		strb	r6, [r5, #2]
 2608              		.loc 1 260 0
 2609 0fbc FFF7FEFF 		bl	buffer_get_float32
 2610              	.LVL228:
 2611              		.loc 1 261 0
 2612 0fc0 17A9     		add	r1, sp, #92
 2613              		.loc 1 260 0
 2614 0fc2 85ED010A 		vstr.32	s0, [r5, #4]
 2615              		.loc 1 261 0
 2616 0fc6 2046     		mov	r0, r4
 2617 0fc8 B0EE480A 		vmov.f32	s0, s16
 2618 0fcc FFF7FEFF 		bl	buffer_get_float32
 2619              	.LVL229:
 2620              		.loc 1 262 0
 2621 0fd0 17A9     		add	r1, sp, #92
 2622              		.loc 1 261 0
ARM GAS  C:\Users\euanm\AppData\Local\Temp\ccyKTXNK.s 			page 47


 2623 0fd2 85ED020A 		vstr.32	s0, [r5, #8]
 2624              		.loc 1 262 0
 2625 0fd6 2046     		mov	r0, r4
 2626 0fd8 B0EE480A 		vmov.f32	s0, s16
 2627 0fdc FFF7FEFF 		bl	buffer_get_float32
 2628              	.LVL230:
 2629              		.loc 1 263 0
 2630 0fe0 17A9     		add	r1, sp, #92
 2631              		.loc 1 262 0
 2632 0fe2 85ED030A 		vstr.32	s0, [r5, #12]
 2633              		.loc 1 263 0
 2634 0fe6 2046     		mov	r0, r4
 2635 0fe8 B0EE480A 		vmov.f32	s0, s16
 2636 0fec FFF7FEFF 		bl	buffer_get_float32
 2637              	.LVL231:
 2638              		.loc 1 264 0
 2639 0ff0 17A9     		add	r1, sp, #92
 2640              		.loc 1 263 0
 2641 0ff2 85ED040A 		vstr.32	s0, [r5, #16]
 2642              		.loc 1 264 0
 2643 0ff6 2046     		mov	r0, r4
 2644 0ff8 B0EE480A 		vmov.f32	s0, s16
 2645 0ffc FFF7FEFF 		bl	buffer_get_float32
 2646              	.LVL232:
 2647              		.loc 1 265 0
 2648 1000 17A9     		add	r1, sp, #92
 2649              		.loc 1 264 0
 2650 1002 85ED050A 		vstr.32	s0, [r5, #20]
 2651              		.loc 1 265 0
 2652 1006 2046     		mov	r0, r4
 2653 1008 B0EE480A 		vmov.f32	s0, s16
 2654 100c FFF7FEFF 		bl	buffer_get_float32
 2655              	.LVL233:
 2656              		.loc 1 266 0
 2657 1010 17A9     		add	r1, sp, #92
 2658              		.loc 1 265 0
 2659 1012 85ED080A 		vstr.32	s0, [r5, #32]
 2660              		.loc 1 266 0
 2661 1016 2046     		mov	r0, r4
 2662 1018 B0EE480A 		vmov.f32	s0, s16
 2663 101c FFF7FEFF 		bl	buffer_get_float32
 2664              	.LVL234:
 2665              		.loc 1 267 0
 2666 1020 17A9     		add	r1, sp, #92
 2667              		.loc 1 266 0
 2668 1022 85ED090A 		vstr.32	s0, [r5, #36]
 2669              		.loc 1 267 0
 2670 1026 2046     		mov	r0, r4
 2671 1028 B0EE480A 		vmov.f32	s0, s16
 2672 102c FFF7FEFF 		bl	buffer_get_float32
 2673              	.LVL235:
 2674              		.loc 1 268 0
 2675 1030 17A9     		add	r1, sp, #92
 2676              		.loc 1 267 0
 2677 1032 85ED0A0A 		vstr.32	s0, [r5, #40]
 2678              		.loc 1 268 0
 2679 1036 2046     		mov	r0, r4
ARM GAS  C:\Users\euanm\AppData\Local\Temp\ccyKTXNK.s 			page 48


 2680 1038 B0EE480A 		vmov.f32	s0, s16
 2681 103c FFF7FEFF 		bl	buffer_get_float32
 2682              	.LVL236:
 2683              		.loc 1 269 0
 2684 1040 17A9     		add	r1, sp, #92
 2685              		.loc 1 268 0
 2686 1042 85ED0B0A 		vstr.32	s0, [r5, #44]
 2687              		.loc 1 269 0
 2688 1046 2046     		mov	r0, r4
 2689 1048 B0EE480A 		vmov.f32	s0, s16
 2690 104c FFF7FEFF 		bl	buffer_get_float32
 2691              	.LVL237:
 2692              		.loc 1 270 0
 2693 1050 17A9     		add	r1, sp, #92
 2694              		.loc 1 269 0
 2695 1052 85ED0C0A 		vstr.32	s0, [r5, #48]
 2696              		.loc 1 270 0
 2697 1056 2046     		mov	r0, r4
 2698 1058 B0EE480A 		vmov.f32	s0, s16
 2699 105c FFF7FEFF 		bl	buffer_get_float32
 2700              	.LVL238:
 2701              		.loc 1 271 0
 2702 1060 17A9     		add	r1, sp, #92
 2703              		.loc 1 270 0
 2704 1062 85ED0D0A 		vstr.32	s0, [r5, #52]
 2705              		.loc 1 271 0
 2706 1066 2046     		mov	r0, r4
 2707 1068 B0EE480A 		vmov.f32	s0, s16
 2708 106c FFF7FEFF 		bl	buffer_get_float32
 2709              	.LVL239:
 2710              		.loc 1 272 0
 2711 1070 17A9     		add	r1, sp, #92
 2712              		.loc 1 271 0
 2713 1072 85ED0E0A 		vstr.32	s0, [r5, #56]
 2714              		.loc 1 272 0
 2715 1076 2046     		mov	r0, r4
 2716 1078 B0EE480A 		vmov.f32	s0, s16
 2717 107c FFF7FEFF 		bl	buffer_get_float32
 2718              	.LVL240:
 2719              		.loc 1 273 0
 2720 1080 179B     		ldr	r3, [sp, #92]
 2721              		.loc 1 272 0
 2722 1082 85ED0F0A 		vstr.32	s0, [r5, #60]
 2723              		.loc 1 273 0
 2724 1086 E25C     		ldrb	r2, [r4, r3]	@ zero_extendqisi2
 2725 1088 0032     		adds	r2, r2, #0
 2726 108a 03F10101 		add	r1, r3, #1
 2727 108e 18BF     		it	ne
 2728 1090 0122     		movne	r2, #1
 2729 1092 85F84020 		strb	r2, [r5, #64]
 2730              		.loc 1 274 0
 2731 1096 625C     		ldrb	r2, [r4, r1]	@ zero_extendqisi2
 2732 1098 0032     		adds	r2, r2, #0
 2733 109a 18BF     		it	ne
 2734 109c 0122     		movne	r2, #1
 2735 109e 0233     		adds	r3, r3, #2
 2736              		.loc 1 275 0
ARM GAS  C:\Users\euanm\AppData\Local\Temp\ccyKTXNK.s 			page 49


 2737 10a0 17A9     		add	r1, sp, #92
 2738 10a2 2046     		mov	r0, r4
 2739 10a4 B0EE480A 		vmov.f32	s0, s16
 2740              		.loc 1 274 0
 2741 10a8 85F84120 		strb	r2, [r5, #65]
 2742 10ac 1793     		str	r3, [sp, #92]
 2743              		.loc 1 275 0
 2744 10ae FFF7FEFF 		bl	buffer_get_float32
 2745              	.LVL241:
 2746              		.loc 1 276 0
 2747 10b2 17A9     		add	r1, sp, #92
 2748              		.loc 1 275 0
 2749 10b4 85ED110A 		vstr.32	s0, [r5, #68]
 2750              		.loc 1 276 0
 2751 10b8 2046     		mov	r0, r4
 2752 10ba B0EE480A 		vmov.f32	s0, s16
 2753 10be FFF7FEFF 		bl	buffer_get_float32
 2754              	.LVL242:
 2755              		.loc 1 277 0
 2756 10c2 17A9     		add	r1, sp, #92
 2757              		.loc 1 276 0
 2758 10c4 85ED120A 		vstr.32	s0, [r5, #72]
 2759              		.loc 1 277 0
 2760 10c8 2046     		mov	r0, r4
 2761 10ca B0EE480A 		vmov.f32	s0, s16
 2762 10ce FFF7FEFF 		bl	buffer_get_float32
 2763              	.LVL243:
 2764              		.loc 1 278 0
 2765 10d2 17A9     		add	r1, sp, #92
 2766              		.loc 1 277 0
 2767 10d4 85ED130A 		vstr.32	s0, [r5, #76]
 2768              		.loc 1 278 0
 2769 10d8 2046     		mov	r0, r4
 2770 10da B0EE480A 		vmov.f32	s0, s16
 2771 10de FFF7FEFF 		bl	buffer_get_float32
 2772              	.LVL244:
 2773              		.loc 1 279 0
 2774 10e2 17A9     		add	r1, sp, #92
 2775              		.loc 1 278 0
 2776 10e4 85ED140A 		vstr.32	s0, [r5, #80]
 2777              		.loc 1 279 0
 2778 10e8 2046     		mov	r0, r4
 2779 10ea B0EE680A 		vmov.f32	s0, s17
 2780 10ee FFF7FEFF 		bl	buffer_get_float32
 2781              	.LVL245:
 2782              		.loc 1 280 0
 2783 10f2 17A9     		add	r1, sp, #92
 2784              		.loc 1 279 0
 2785 10f4 85ED150A 		vstr.32	s0, [r5, #84]
 2786              		.loc 1 280 0
 2787 10f8 2046     		mov	r0, r4
 2788 10fa B0EE680A 		vmov.f32	s0, s17
 2789 10fe FFF7FEFF 		bl	buffer_get_float32
 2790              	.LVL246:
 2791              		.loc 1 282 0
 2792 1102 6868     		ldr	r0, [r5, #4]	@ float
 2793              		.loc 1 284 0
ARM GAS  C:\Users\euanm\AppData\Local\Temp\ccyKTXNK.s 			page 50


 2794 1104 EA68     		ldr	r2, [r5, #12]	@ float
 2795              		.loc 1 285 0
 2796 1106 2B69     		ldr	r3, [r5, #16]	@ float
 2797              		.loc 1 283 0
 2798 1108 AE68     		ldr	r6, [r5, #8]	@ float
 2799              		.loc 1 282 0
 2800 110a E865     		str	r0, [r5, #92]	@ float
 2801              		.loc 1 287 0
 2802 110c 17A9     		add	r1, sp, #92
 2803 110e 2046     		mov	r0, r4
 2804              		.loc 1 280 0
 2805 1110 85ED160A 		vstr.32	s0, [r5, #88]
 2806              		.loc 1 284 0
 2807 1114 6A66     		str	r2, [r5, #100]	@ float
 2808              		.loc 1 285 0
 2809 1116 AB66     		str	r3, [r5, #104]	@ float
 2810              		.loc 1 283 0
 2811 1118 2E66     		str	r6, [r5, #96]	@ float
 2812              		.loc 1 287 0
 2813 111a FFF7FEFF 		bl	buffer_get_int32
 2814              	.LVL247:
 2815 111e 07EE900A 		vmov	s15, r0	@ int
 2816 1122 B8EEE77A 		vcvt.f32.s32	s14, s15
 2817              		.loc 1 288 0
 2818 1126 17A9     		add	r1, sp, #92
 2819              		.loc 1 287 0
 2820 1128 C7EE087A 		vdiv.f32	s15, s14, s16
 2821              		.loc 1 288 0
 2822 112c 2046     		mov	r0, r4
 2823              		.loc 1 287 0
 2824 112e C5ED1B7A 		vstr.32	s15, [r5, #108]
 2825              		.loc 1 288 0
 2826 1132 FFF7FEFF 		bl	buffer_get_int32
 2827              	.LVL248:
 2828 1136 07EE900A 		vmov	s15, r0	@ int
 2829 113a B8EEE77A 		vcvt.f32.s32	s14, s15
 2830              		.loc 1 289 0
 2831 113e 17A9     		add	r1, sp, #92
 2832              		.loc 1 288 0
 2833 1140 C7EE087A 		vdiv.f32	s15, s14, s16
 2834              		.loc 1 289 0
 2835 1144 2046     		mov	r0, r4
 2836              		.loc 1 288 0
 2837 1146 C5ED1C7A 		vstr.32	s15, [r5, #112]
 2838              		.loc 1 289 0
 2839 114a FFF7FEFF 		bl	buffer_get_int32
 2840              	.LVL249:
 2841 114e 07EE900A 		vmov	s15, r0	@ int
 2842 1152 B8EEE77A 		vcvt.f32.s32	s14, s15
 2843              		.loc 1 290 0
 2844 1156 17A9     		add	r1, sp, #92
 2845              		.loc 1 289 0
 2846 1158 C7EE087A 		vdiv.f32	s15, s14, s16
 2847              		.loc 1 290 0
 2848 115c 2046     		mov	r0, r4
 2849              		.loc 1 289 0
 2850 115e C5ED1D7A 		vstr.32	s15, [r5, #116]
ARM GAS  C:\Users\euanm\AppData\Local\Temp\ccyKTXNK.s 			page 51


 2851              		.loc 1 290 0
 2852 1162 FFF7FEFF 		bl	buffer_get_int32
 2853              	.LVL250:
 2854 1166 07EE900A 		vmov	s15, r0	@ int
 2855 116a B8EEE77A 		vcvt.f32.s32	s14, s15
 2856              		.loc 1 291 0
 2857 116e 17A9     		add	r1, sp, #92
 2858              		.loc 1 290 0
 2859 1170 C7EE087A 		vdiv.f32	s15, s14, s16
 2860              		.loc 1 291 0
 2861 1174 2046     		mov	r0, r4
 2862              		.loc 1 290 0
 2863 1176 C5ED1E7A 		vstr.32	s15, [r5, #120]
 2864              		.loc 1 291 0
 2865 117a FFF7FEFF 		bl	buffer_get_int32
 2866              	.LVL251:
 2867 117e 07EE900A 		vmov	s15, r0	@ int
 2868 1182 B8EEE77A 		vcvt.f32.s32	s14, s15
 2869              		.loc 1 292 0
 2870 1186 17A9     		add	r1, sp, #92
 2871              		.loc 1 291 0
 2872 1188 C7EE087A 		vdiv.f32	s15, s14, s16
 2873              		.loc 1 292 0
 2874 118c 2046     		mov	r0, r4
 2875              		.loc 1 291 0
 2876 118e C5ED1F7A 		vstr.32	s15, [r5, #124]
 2877              		.loc 1 292 0
 2878 1192 FFF7FEFF 		bl	buffer_get_int32
 2879              	.LVL252:
 2880 1196 07EE900A 		vmov	s15, r0	@ int
 2881 119a B8EEE77A 		vcvt.f32.s32	s14, s15
 2882              		.loc 1 293 0
 2883 119e 17A9     		add	r1, sp, #92
 2884              		.loc 1 292 0
 2885 11a0 C7EE087A 		vdiv.f32	s15, s14, s16
 2886              		.loc 1 293 0
 2887 11a4 2046     		mov	r0, r4
 2888              		.loc 1 292 0
 2889 11a6 C5ED207A 		vstr.32	s15, [r5, #128]
 2890              		.loc 1 293 0
 2891 11aa FFF7FEFF 		bl	buffer_get_int32
 2892              	.LVL253:
 2893 11ae 07EE900A 		vmov	s15, r0	@ int
 2894 11b2 B8EEE77A 		vcvt.f32.s32	s14, s15
 2895              		.loc 1 295 0
 2896 11b6 179A     		ldr	r2, [sp, #92]
 2897              		.loc 1 293 0
 2898 11b8 C7EE087A 		vdiv.f32	s15, s14, s16
 2899              		.loc 1 295 0
 2900 11bc A118     		adds	r1, r4, r2
 2901              		.loc 1 296 0
 2902 11be 0832     		adds	r2, r2, #8
 2903 11c0 1792     		str	r2, [sp, #92]
 2904              		.loc 1 295 0
 2905 11c2 05F18803 		add	r3, r5, #136
 2906              		.loc 1 293 0
 2907 11c6 C5ED217A 		vstr.32	s15, [r5, #132]
ARM GAS  C:\Users\euanm\AppData\Local\Temp\ccyKTXNK.s 			page 52


 2908              		.loc 1 295 0
 2909 11ca 0868     		ldr	r0, [r1]	@ unaligned
 2910 11cc 4968     		ldr	r1, [r1, #4]	@ unaligned
 2911 11ce 03C3     		stmia	r3!, {r0, r1}
 2912              		.loc 1 297 0
 2913 11d0 17A9     		add	r1, sp, #92
 2914 11d2 2046     		mov	r0, r4
 2915 11d4 FFF7FEFF 		bl	buffer_get_int32
 2916              	.LVL254:
 2917 11d8 07EE900A 		vmov	s15, r0	@ int
 2918 11dc B8EEE77A 		vcvt.f32.s32	s14, s15
 2919              		.loc 1 299 0
 2920 11e0 17A9     		add	r1, sp, #92
 2921              		.loc 1 297 0
 2922 11e2 C7EE087A 		vdiv.f32	s15, s14, s16
 2923              		.loc 1 299 0
 2924 11e6 2046     		mov	r0, r4
 2925 11e8 B0EE490A 		vmov.f32	s0, s18
 2926              		.loc 1 297 0
 2927 11ec C5ED247A 		vstr.32	s15, [r5, #144]
 2928              		.loc 1 299 0
 2929 11f0 FFF7FEFF 		bl	buffer_get_float32
 2930              	.LVL255:
 2931              		.loc 1 300 0
 2932 11f4 17A9     		add	r1, sp, #92
 2933              		.loc 1 299 0
 2934 11f6 85ED250A 		vstr.32	s0, [r5, #148]
 2935              		.loc 1 300 0
 2936 11fa 2046     		mov	r0, r4
 2937 11fc B0EE490A 		vmov.f32	s0, s18
 2938 1200 FFF7FEFF 		bl	buffer_get_float32
 2939              	.LVL256:
 2940              		.loc 1 301 0
 2941 1204 17A9     		add	r1, sp, #92
 2942              		.loc 1 300 0
 2943 1206 85ED260A 		vstr.32	s0, [r5, #152]
 2944              		.loc 1 301 0
 2945 120a 2046     		mov	r0, r4
 2946 120c B0EE480A 		vmov.f32	s0, s16
 2947 1210 FFF7FEFF 		bl	buffer_get_float32
 2948              	.LVL257:
 2949              		.loc 1 302 0
 2950 1214 17A9     		add	r1, sp, #92
 2951              		.loc 1 301 0
 2952 1216 85ED270A 		vstr.32	s0, [r5, #156]
 2953              		.loc 1 302 0
 2954 121a 2046     		mov	r0, r4
 2955 121c B0EE680A 		vmov.f32	s0, s17
 2956 1220 FFF7FEFF 		bl	buffer_get_float32
 2957              	.LVL258:
 2958              		.loc 1 303 0
 2959 1224 179B     		ldr	r3, [sp, #92]
 2960              		.loc 1 302 0
 2961 1226 85ED280A 		vstr.32	s0, [r5, #160]
 2962              		.loc 1 303 0
 2963 122a E25C     		ldrb	r2, [r4, r3]	@ zero_extendqisi2
 2964 122c 0032     		adds	r2, r2, #0
ARM GAS  C:\Users\euanm\AppData\Local\Temp\ccyKTXNK.s 			page 53


 2965 122e 18BF     		it	ne
 2966 1230 0122     		movne	r2, #1
 2967 1232 0133     		adds	r3, r3, #1
 2968              		.loc 1 304 0
 2969 1234 17A9     		add	r1, sp, #92
 2970 1236 2046     		mov	r0, r4
 2971 1238 B0EE480A 		vmov.f32	s0, s16
 2972              		.loc 1 303 0
 2973 123c 85F8A820 		strb	r2, [r5, #168]
 2974 1240 1793     		str	r3, [sp, #92]
 2975              		.loc 1 304 0
 2976 1242 FFF7FEFF 		bl	buffer_get_float32
 2977              	.LVL259:
 2978              		.loc 1 305 0
 2979 1246 17A9     		add	r1, sp, #92
 2980              		.loc 1 304 0
 2981 1248 85ED290A 		vstr.32	s0, [r5, #164]
 2982              		.loc 1 305 0
 2983 124c 2046     		mov	r0, r4
 2984 124e B0EE480A 		vmov.f32	s0, s16
 2985 1252 FFF7FEFF 		bl	buffer_get_float32
 2986              	.LVL260:
 2987              		.loc 1 306 0
 2988 1256 179B     		ldr	r3, [sp, #92]
 2989              		.loc 1 305 0
 2990 1258 85ED2B0A 		vstr.32	s0, [r5, #172]
 2991              		.loc 1 306 0
 2992 125c E25C     		ldrb	r2, [r4, r3]	@ zero_extendqisi2
 2993 125e 85F8E420 		strb	r2, [r5, #228]
 2994 1262 0133     		adds	r3, r3, #1
 2995              		.loc 1 307 0
 2996 1264 17A9     		add	r1, sp, #92
 2997 1266 2046     		mov	r0, r4
 2998 1268 B0EE480A 		vmov.f32	s0, s16
 2999              		.loc 1 306 0
 3000 126c 1793     		str	r3, [sp, #92]
 3001              		.loc 1 307 0
 3002 126e FFF7FEFF 		bl	buffer_get_float32
 3003              	.LVL261:
 3004              		.loc 1 308 0
 3005 1272 17A9     		add	r1, sp, #92
 3006              		.loc 1 307 0
 3007 1274 85ED300A 		vstr.32	s0, [r5, #192]
 3008              		.loc 1 308 0
 3009 1278 2046     		mov	r0, r4
 3010 127a B0EE480A 		vmov.f32	s0, s16
 3011 127e FFF7FEFF 		bl	buffer_get_float32
 3012              	.LVL262:
 3013              		.loc 1 309 0
 3014 1282 17A9     		add	r1, sp, #92
 3015              		.loc 1 308 0
 3016 1284 85ED310A 		vstr.32	s0, [r5, #196]
 3017              		.loc 1 309 0
 3018 1288 2046     		mov	r0, r4
 3019 128a 9FED1C0A 		vldr.32	s0, .L351+16
 3020 128e FFF7FEFF 		bl	buffer_get_float32
 3021              	.LVL263:
ARM GAS  C:\Users\euanm\AppData\Local\Temp\ccyKTXNK.s 			page 54


 3022              		.loc 1 310 0
 3023 1292 17A9     		add	r1, sp, #92
 3024              		.loc 1 309 0
 3025 1294 85ED2C0A 		vstr.32	s0, [r5, #176]
 3026              		.loc 1 310 0
 3027 1298 2046     		mov	r0, r4
 3028 129a B0EE490A 		vmov.f32	s0, s18
 3029 129e FFF7FEFF 		bl	buffer_get_float32
 3030              	.LVL264:
 3031              		.loc 1 311 0
 3032 12a2 17A9     		add	r1, sp, #92
 3033              		.loc 1 310 0
 3034 12a4 85ED2D0A 		vstr.32	s0, [r5, #180]
 3035              		.loc 1 311 0
 3036 12a8 2046     		mov	r0, r4
 3037 12aa B0EE490A 		vmov.f32	s0, s18
 3038 12ae FFF7FEFF 		bl	buffer_get_float32
 3039              	.LVL265:
 3040              		.loc 1 312 0
 3041 12b2 17A9     		add	r1, sp, #92
 3042              		.loc 1 311 0
 3043 12b4 85ED2E0A 		vstr.32	s0, [r5, #184]
 3044              		.loc 1 312 0
 3045 12b8 2046     		mov	r0, r4
 3046 12ba B7EE000A 		vmov.f32	s0, #1.0e+0
 3047 12be FFF7FEFF 		bl	buffer_get_float32
 3048              	.LVL266:
 3049              		.loc 1 313 0
 3050 12c2 17A9     		add	r1, sp, #92
 3051              		.loc 1 312 0
 3052 12c4 85ED2F0A 		vstr.32	s0, [r5, #188]
 3053              		.loc 1 313 0
 3054 12c8 2046     		mov	r0, r4
 3055 12ca B0EE480A 		vmov.f32	s0, s16
 3056 12ce FFF7FEFF 		bl	buffer_get_float32
 3057              	.LVL267:
 3058              		.loc 1 314 0
 3059 12d2 17A9     		add	r1, sp, #92
 3060              		.loc 1 313 0
 3061 12d4 85ED320A 		vstr.32	s0, [r5, #200]
 3062              		.loc 1 314 0
 3063 12d8 2046     		mov	r0, r4
 3064 12da B0EE480A 		vmov.f32	s0, s16
 3065 12de FFF7FEFF 		bl	buffer_get_float32
 3066              	.LVL268:
 3067              		.loc 1 315 0
 3068 12e2 17A9     		add	r1, sp, #92
 3069              		.loc 1 314 0
 3070 12e4 85ED330A 		vstr.32	s0, [r5, #204]
 3071 12e8 0AE0     		b	.L352
 3072              	.L353:
 3073 12ea 00BF     		.align	2
 3074              	.L351:
 3075 12ec 00000000 		.word	.LANCHOR12
 3076 12f0 00007A44 		.word	1148846080
 3077 12f4 00247449 		.word	1232348160
 3078 12f8 0050C347 		.word	1203982336
ARM GAS  C:\Users\euanm\AppData\Local\Temp\ccyKTXNK.s 			page 55


 3079 12fc 20BCBE4C 		.word	1287568416
 3080              	.L352:
 3081              		.loc 1 315 0
 3082 1300 2046     		mov	r0, r4
 3083 1302 B0EE480A 		vmov.f32	s0, s16
 3084 1306 FFF7FEFF 		bl	buffer_get_float32
 3085              	.LVL269:
 3086              		.loc 1 316 0
 3087 130a 17A9     		add	r1, sp, #92
 3088              		.loc 1 315 0
 3089 130c 85ED340A 		vstr.32	s0, [r5, #208]
 3090              		.loc 1 316 0
 3091 1310 2046     		mov	r0, r4
 3092 1312 B0EE480A 		vmov.f32	s0, s16
 3093 1316 FFF7FEFF 		bl	buffer_get_float32
 3094              	.LVL270:
 3095              		.loc 1 317 0
 3096 131a 17A9     		add	r1, sp, #92
 3097              		.loc 1 316 0
 3098 131c 85ED350A 		vstr.32	s0, [r5, #212]
 3099              		.loc 1 317 0
 3100 1320 2046     		mov	r0, r4
 3101 1322 B0EE480A 		vmov.f32	s0, s16
 3102 1326 FFF7FEFF 		bl	buffer_get_float32
 3103              	.LVL271:
 3104              		.loc 1 318 0
 3105 132a 17A9     		add	r1, sp, #92
 3106              		.loc 1 317 0
 3107 132c 85ED360A 		vstr.32	s0, [r5, #216]
 3108              		.loc 1 318 0
 3109 1330 2046     		mov	r0, r4
 3110 1332 B0EE480A 		vmov.f32	s0, s16
 3111 1336 FFF7FEFF 		bl	buffer_get_float32
 3112              	.LVL272:
 3113              		.loc 1 319 0
 3114 133a 17A9     		add	r1, sp, #92
 3115              		.loc 1 318 0
 3116 133c 85ED370A 		vstr.32	s0, [r5, #220]
 3117              		.loc 1 319 0
 3118 1340 2046     		mov	r0, r4
 3119 1342 B0EE480A 		vmov.f32	s0, s16
 3120 1346 FFF7FEFF 		bl	buffer_get_float32
 3121              	.LVL273:
 3122              		.loc 1 320 0
 3123 134a 179B     		ldr	r3, [sp, #92]
 3124              		.loc 1 319 0
 3125 134c 85ED380A 		vstr.32	s0, [r5, #224]
 3126              		.loc 1 320 0
 3127 1350 E218     		adds	r2, r4, r3
 3128              		.loc 1 322 0
 3129 1352 17A9     		add	r1, sp, #92
 3130              		.loc 1 320 0
 3131 1354 1668     		ldr	r6, [r2]	@ unaligned
 3132 1356 5268     		ldr	r2, [r2, #4]	@ unaligned
 3133 1358 C5F8E920 		str	r2, [r5, #233]	@ unaligned
 3134              		.loc 1 321 0
 3135 135c 0833     		adds	r3, r3, #8
ARM GAS  C:\Users\euanm\AppData\Local\Temp\ccyKTXNK.s 			page 56


 3136              		.loc 1 322 0
 3137 135e 2046     		mov	r0, r4
 3138              		.loc 1 320 0
 3139 1360 C5F8E560 		str	r6, [r5, #229]	@ unaligned
 3140              		.loc 1 321 0
 3141 1364 1793     		str	r3, [sp, #92]
 3142              		.loc 1 322 0
 3143 1366 FFF7FEFF 		bl	buffer_get_int32
 3144              	.LVL274:
 3145 136a 07EE900A 		vmov	s15, r0	@ int
 3146 136e B8EEE77A 		vcvt.f32.s32	s14, s15
 3147              		.loc 1 324 0
 3148 1372 17A9     		add	r1, sp, #92
 3149              		.loc 1 322 0
 3150 1374 C7EE087A 		vdiv.f32	s15, s14, s16
 3151              		.loc 1 324 0
 3152 1378 2046     		mov	r0, r4
 3153              		.loc 1 322 0
 3154 137a C5ED3C7A 		vstr.32	s15, [r5, #240]
 3155              		.loc 1 324 0
 3156 137e FFF7FEFF 		bl	buffer_get_int32
 3157              	.LVL275:
 3158 1382 07EE900A 		vmov	s15, r0	@ int
 3159 1386 B8EEE77A 		vcvt.f32.s32	s14, s15
 3160              		.loc 1 325 0
 3161 138a 17A9     		add	r1, sp, #92
 3162              		.loc 1 324 0
 3163 138c C7EE287A 		vdiv.f32	s15, s14, s17
 3164              		.loc 1 325 0
 3165 1390 2046     		mov	r0, r4
 3166              		.loc 1 324 0
 3167 1392 C5ED3D7A 		vstr.32	s15, [r5, #244]
 3168              		.loc 1 325 0
 3169 1396 FFF7FEFF 		bl	buffer_get_int32
 3170              	.LVL276:
 3171 139a 07EE900A 		vmov	s15, r0	@ int
 3172 139e B8EEE77A 		vcvt.f32.s32	s14, s15
 3173              		.loc 1 326 0
 3174 13a2 17A9     		add	r1, sp, #92
 3175              		.loc 1 325 0
 3176 13a4 C7EE287A 		vdiv.f32	s15, s14, s17
 3177              		.loc 1 326 0
 3178 13a8 2046     		mov	r0, r4
 3179              		.loc 1 325 0
 3180 13aa C5ED3E7A 		vstr.32	s15, [r5, #248]
 3181              		.loc 1 326 0
 3182 13ae FFF7FEFF 		bl	buffer_get_int32
 3183              	.LVL277:
 3184 13b2 07EE900A 		vmov	s15, r0	@ int
 3185 13b6 B8EEE77A 		vcvt.f32.s32	s14, s15
 3186              		.loc 1 327 0
 3187 13ba 17A9     		add	r1, sp, #92
 3188              		.loc 1 326 0
 3189 13bc C7EE287A 		vdiv.f32	s15, s14, s17
 3190              		.loc 1 327 0
 3191 13c0 2046     		mov	r0, r4
 3192              		.loc 1 326 0
ARM GAS  C:\Users\euanm\AppData\Local\Temp\ccyKTXNK.s 			page 57


 3193 13c2 C5ED3F7A 		vstr.32	s15, [r5, #252]
 3194              		.loc 1 327 0
 3195 13c6 FFF7FEFF 		bl	buffer_get_int32
 3196              	.LVL278:
 3197 13ca 07EE900A 		vmov	s15, r0	@ int
 3198 13ce B8EEE77A 		vcvt.f32.s32	s14, s15
 3199              		.loc 1 329 0
 3200 13d2 17A9     		add	r1, sp, #92
 3201              		.loc 1 327 0
 3202 13d4 C7EE087A 		vdiv.f32	s15, s14, s16
 3203              		.loc 1 329 0
 3204 13d8 2046     		mov	r0, r4
 3205              		.loc 1 327 0
 3206 13da C5ED407A 		vstr.32	s15, [r5, #256]
 3207              		.loc 1 329 0
 3208 13de FFF7FEFF 		bl	buffer_get_int32
 3209              	.LVL279:
 3210 13e2 07EE900A 		vmov	s15, r0	@ int
 3211 13e6 B8EEE77A 		vcvt.f32.s32	s14, s15
 3212              		.loc 1 330 0
 3213 13ea 17A9     		add	r1, sp, #92
 3214              		.loc 1 329 0
 3215 13ec C7EE287A 		vdiv.f32	s15, s14, s17
 3216              		.loc 1 330 0
 3217 13f0 2046     		mov	r0, r4
 3218              		.loc 1 329 0
 3219 13f2 C5ED427A 		vstr.32	s15, [r5, #264]
 3220              		.loc 1 330 0
 3221 13f6 FFF7FEFF 		bl	buffer_get_int32
 3222              	.LVL280:
 3223 13fa 07EE900A 		vmov	s15, r0	@ int
 3224 13fe B8EEE77A 		vcvt.f32.s32	s14, s15
 3225              		.loc 1 331 0
 3226 1402 17A9     		add	r1, sp, #92
 3227              		.loc 1 330 0
 3228 1404 C7EE287A 		vdiv.f32	s15, s14, s17
 3229              		.loc 1 331 0
 3230 1408 2046     		mov	r0, r4
 3231              		.loc 1 330 0
 3232 140a C5ED437A 		vstr.32	s15, [r5, #268]
 3233              		.loc 1 331 0
 3234 140e FFF7FEFF 		bl	buffer_get_int32
 3235              	.LVL281:
 3236 1412 07EE900A 		vmov	s15, r0	@ int
 3237 1416 B8EEE77A 		vcvt.f32.s32	s14, s15
 3238              		.loc 1 332 0
 3239 141a 17A9     		add	r1, sp, #92
 3240              		.loc 1 331 0
 3241 141c C7EE287A 		vdiv.f32	s15, s14, s17
 3242              		.loc 1 332 0
 3243 1420 2046     		mov	r0, r4
 3244              		.loc 1 331 0
 3245 1422 C5ED447A 		vstr.32	s15, [r5, #272]
 3246              		.loc 1 332 0
 3247 1426 FFF7FEFF 		bl	buffer_get_int32
 3248              	.LVL282:
 3249 142a 07EE900A 		vmov	s15, r0	@ int
ARM GAS  C:\Users\euanm\AppData\Local\Temp\ccyKTXNK.s 			page 58


 3250 142e B8EEE77A 		vcvt.f32.s32	s14, s15
 3251              		.loc 1 334 0
 3252 1432 17A9     		add	r1, sp, #92
 3253              		.loc 1 332 0
 3254 1434 C7EE097A 		vdiv.f32	s15, s14, s18
 3255              		.loc 1 334 0
 3256 1438 2046     		mov	r0, r4
 3257              		.loc 1 332 0
 3258 143a C5ED457A 		vstr.32	s15, [r5, #276]
 3259              		.loc 1 334 0
 3260 143e FFF7FEFF 		bl	buffer_get_int32
 3261              	.LVL283:
 3262 1442 07EE900A 		vmov	s15, r0	@ int
 3263 1446 B8EEE77A 		vcvt.f32.s32	s14, s15
 3264              		.loc 1 335 0
 3265 144a 17A9     		add	r1, sp, #92
 3266              		.loc 1 334 0
 3267 144c C7EE287A 		vdiv.f32	s15, s14, s17
 3268              		.loc 1 335 0
 3269 1450 2046     		mov	r0, r4
 3270              		.loc 1 334 0
 3271 1452 C5ED467A 		vstr.32	s15, [r5, #280]
 3272              		.loc 1 335 0
 3273 1456 FFF7FEFF 		bl	buffer_get_int32
 3274              	.LVL284:
 3275 145a 07EE900A 		vmov	s15, r0	@ int
 3276 145e B8EEE77A 		vcvt.f32.s32	s14, s15
 3277              		.loc 1 336 0
 3278 1462 17A9     		add	r1, sp, #92
 3279              		.loc 1 335 0
 3280 1464 C7EE087A 		vdiv.f32	s15, s14, s16
 3281              		.loc 1 336 0
 3282 1468 2046     		mov	r0, r4
 3283              		.loc 1 335 0
 3284 146a C5ED477A 		vstr.32	s15, [r5, #284]
 3285              		.loc 1 336 0
 3286 146e FFF7FEFF 		bl	buffer_get_int32
 3287              	.LVL285:
 3288 1472 07EE900A 		vmov	s15, r0	@ int
 3289 1476 B8EEE77A 		vcvt.f32.s32	s14, s15
 3290              		.loc 1 337 0
 3291 147a 17A9     		add	r1, sp, #92
 3292              		.loc 1 336 0
 3293 147c C7EE287A 		vdiv.f32	s15, s14, s17
 3294              		.loc 1 337 0
 3295 1480 2046     		mov	r0, r4
 3296 1482 B0EE680A 		vmov.f32	s0, s17
 3297              		.loc 1 336 0
 3298 1486 C5ED487A 		vstr.32	s15, [r5, #288]
 3299              		.loc 1 337 0
 3300 148a FFF7FEFF 		bl	buffer_get_float32
 3301              	.LVL286:
 3302              		.loc 1 339 0
 3303 148e 17A9     		add	r1, sp, #92
 3304 1490 2046     		mov	r0, r4
 3305              		.loc 1 337 0
 3306 1492 85ED490A 		vstr.32	s0, [r5, #292]
ARM GAS  C:\Users\euanm\AppData\Local\Temp\ccyKTXNK.s 			page 59


 3307              		.loc 1 339 0
 3308 1496 FFF7FEFF 		bl	buffer_get_int32
 3309              	.LVL287:
 3310              		.loc 1 340 0
 3311 149a 17A9     		add	r1, sp, #92
 3312              		.loc 1 339 0
 3313 149c C5F82801 		str	r0, [r5, #296]
 3314              		.loc 1 340 0
 3315 14a0 B0EE680A 		vmov.f32	s0, s17
 3316 14a4 2046     		mov	r0, r4
 3317 14a6 FFF7FEFF 		bl	buffer_get_float32
 3318              	.LVL288:
 3319              		.loc 1 341 0
 3320 14aa 17A9     		add	r1, sp, #92
 3321              		.loc 1 340 0
 3322 14ac 85ED4B0A 		vstr.32	s0, [r5, #300]
 3323              		.loc 1 341 0
 3324 14b0 2046     		mov	r0, r4
 3325 14b2 B0EE680A 		vmov.f32	s0, s17
 3326 14b6 FFF7FEFF 		bl	buffer_get_float32
 3327              	.LVL289:
 3328              		.loc 1 342 0
 3329 14ba 17A9     		add	r1, sp, #92
 3330              		.loc 1 341 0
 3331 14bc 85ED4C0A 		vstr.32	s0, [r5, #304]
 3332              		.loc 1 342 0
 3333 14c0 2046     		mov	r0, r4
 3334 14c2 B0EE680A 		vmov.f32	s0, s17
 3335 14c6 FFF7FEFF 		bl	buffer_get_float32
 3336              	.LVL290:
 3337              		.loc 1 343 0
 3338 14ca 17A9     		add	r1, sp, #92
 3339 14cc 2046     		mov	r0, r4
 3340              		.loc 1 342 0
 3341 14ce 85ED4D0A 		vstr.32	s0, [r5, #308]
 3342              		.loc 1 343 0
 3343 14d2 FFF7FEFF 		bl	buffer_get_uint32
 3344              	.LVL291:
 3345              		.loc 1 344 0
 3346 14d6 179B     		ldr	r3, [sp, #92]
 3347              		.loc 1 343 0
 3348 14d8 C5F83801 		str	r0, [r5, #312]
 3349              		.loc 1 344 0
 3350 14dc E25C     		ldrb	r2, [r4, r3]	@ zero_extendqisi2
 3351 14de 85F83C21 		strb	r2, [r5, #316]
 3352 14e2 5A1C     		adds	r2, r3, #1
 3353              		.loc 1 347 0
 3354 14e4 991C     		adds	r1, r3, #2
 3355 14e6 A25C     		ldrb	r2, [r4, r2]	@ zero_extendqisi2
 3356 14e8 0032     		adds	r2, r2, #0
 3357 14ea 18BF     		it	ne
 3358 14ec 0122     		movne	r2, #1
 3359 14ee 85F80421 		strb	r2, [r5, #260]
 3360              		.loc 1 348 0
 3361 14f2 625C     		ldrb	r2, [r4, r1]	@ zero_extendqisi2
 3362 14f4 0032     		adds	r2, r2, #0
 3363 14f6 03F10303 		add	r3, r3, #3
ARM GAS  C:\Users\euanm\AppData\Local\Temp\ccyKTXNK.s 			page 60


 3364 14fa 18BF     		it	ne
 3365 14fc 0122     		movne	r2, #1
 3366              		.loc 1 349 0
 3367 14fe 17A9     		add	r1, sp, #92
 3368 1500 2046     		mov	r0, r4
 3369              		.loc 1 348 0
 3370 1502 2A76     		strb	r2, [r5, #24]
 3371 1504 1793     		str	r3, [sp, #92]
 3372              		.loc 1 349 0
 3373 1506 FFF7FEFF 		bl	buffer_get_int16
 3374              	.LVL292:
 3375 150a 07EE900A 		vmov	s15, r0	@ int
 3376 150e F8EEE77A 		vcvt.f32.s32	s15, s15
 3377              		.loc 1 352 0
 3378 1512 2846     		mov	r0, r5
 3379              		.loc 1 349 0
 3380 1514 C5ED077A 		vstr.32	s15, [r5, #28]
 3381              		.loc 1 352 0
 3382 1518 FFF7FEFF 		bl	conf_general_store_mc_configuration
 3383              	.LVL293:
 3384              		.loc 1 353 0
 3385 151c 2846     		mov	r0, r5
 3386 151e FFF7FEFF 		bl	mc_interface_set_configuration
 3387              	.LVL294:
 3388              	.LBB161:
 3389              	.LBB162:
 3390              		.loc 1 97 0
 3391 1522 214B     		ldr	r3, .L354
 3392              	.LBE162:
 3393              	.LBE161:
 3394              		.loc 1 356 0
 3395 1524 2148     		ldr	r0, .L354+4
 3396              	.LBB165:
 3397              	.LBB163:
 3398              		.loc 1 97 0
 3399 1526 1B68     		ldr	r3, [r3]
 3400              	.LBE163:
 3401              	.LBE165:
 3402              		.loc 1 356 0
 3403 1528 0C22     		movs	r2, #12
 3404 152a 0121     		movs	r1, #1
 3405 152c 0270     		strb	r2, [r0]
 3406              	.LVL295:
 3407 152e 1791     		str	r1, [sp, #92]
 3408              	.LBB166:
 3409              	.LBB164:
 3410              		.loc 1 97 0
 3411 1530 002B     		cmp	r3, #0
 3412 1532 7EF434AE 		bne	.L311
 3413 1536 FEF7EBBD 		b	.L24
 3414              	.LVL296:
 3415              	.L45:
 3416              	.LBE164:
 3417              	.LBE166:
 3418              		.loc 1 683 0
 3419 153a 17A9     		add	r1, sp, #92
 3420 153c 2046     		mov	r0, r4
ARM GAS  C:\Users\euanm\AppData\Local\Temp\ccyKTXNK.s 			page 61


 3421 153e 9FED200A 		vldr.32	s0, .L354+24
 3422 1542 FFF7FEFF 		bl	buffer_get_float32
 3423              	.LVL297:
 3424 1546 1A4B     		ldr	r3, .L354+8
 3425              		.loc 1 684 0
 3426 1548 17A9     		add	r1, sp, #92
 3427              		.loc 1 683 0
 3428 154a 83ED000A 		vstr.32	s0, [r3]
 3429              		.loc 1 684 0
 3430 154e 2046     		mov	r0, r4
 3431 1550 9FED1B0A 		vldr.32	s0, .L354+24
 3432 1554 FFF7FEFF 		bl	buffer_get_float32
 3433              	.LVL298:
 3434 1558 164B     		ldr	r3, .L354+12
 3435              		.loc 1 685 0
 3436 155a 17A9     		add	r1, sp, #92
 3437 155c 2046     		mov	r0, r4
 3438              		.loc 1 684 0
 3439 155e 83ED000A 		vstr.32	s0, [r3]
 3440              		.loc 1 685 0
 3441 1562 9FED170A 		vldr.32	s0, .L354+24
 3442 1566 FFF7FEFF 		bl	buffer_get_float32
 3443              	.LVL299:
 3444              		.loc 1 687 0
 3445 156a 134A     		ldr	r2, .L354+16
 3446              		.loc 1 685 0
 3447 156c 134B     		ldr	r3, .L354+20
 3448              		.loc 1 687 0
 3449 156e 1068     		ldr	r0, [r2]
 3450              		.loc 1 685 0
 3451 1570 83ED000A 		vstr.32	s0, [r3]
 3452              		.loc 1 687 0
 3453 1574 0121     		movs	r1, #1
 3454 1576 FFF7FEFF 		bl	chEvtSignal
 3455              	.LVL300:
 3456              		.loc 1 688 0
 3457 157a FEF7C9BD 		b	.L24
 3458              	.L43:
 3459              		.loc 1 670 0
 3460 157e 4578     		ldrb	r5, [r0, #1]	@ zero_extendqisi2
 3461 1580 0123     		movs	r3, #1
 3462 1582 0035     		adds	r5, r5, #0
 3463              		.loc 1 671 0
 3464 1584 17A9     		add	r1, sp, #92
 3465 1586 2046     		mov	r0, r4
 3466              		.loc 1 670 0
 3467 1588 18BF     		it	ne
 3468 158a 0125     		movne	r5, #1
 3469              	.LVL301:
 3470 158c 1793     		str	r3, [sp, #92]
 3471              		.loc 1 671 0
 3472 158e FFF7FEFF 		bl	buffer_get_uint16
 3473              	.LVL302:
 3474              		.loc 1 672 0
 3475 1592 179B     		ldr	r3, [sp, #92]
 3476              		.loc 1 673 0
 3477 1594 0146     		mov	r1, r0
ARM GAS  C:\Users\euanm\AppData\Local\Temp\ccyKTXNK.s 			page 62


 3478 1596 E25C     		ldrb	r2, [r4, r3]	@ zero_extendqisi2
 3479 1598 2846     		mov	r0, r5
 3480              	.LVL303:
 3481              		.loc 1 672 0
 3482 159a 0133     		adds	r3, r3, #1
 3483 159c 1793     		str	r3, [sp, #92]
 3484              	.LVL304:
 3485              		.loc 1 673 0
 3486 159e FFF7FEFF 		bl	mc_interface_sample_print_data
 3487              	.LVL305:
 3488              		.loc 1 674 0
 3489 15a2 FEF7B5BD 		b	.L24
 3490              	.L355:
 3491 15a6 00BF     		.align	2
 3492              	.L354:
 3493 15a8 00000000 		.word	.LANCHOR9
 3494 15ac 00000000 		.word	.LANCHOR8
 3495 15b0 00000000 		.word	.LANCHOR7
 3496 15b4 00000000 		.word	.LANCHOR6
 3497 15b8 00000000 		.word	.LANCHOR0
 3498 15bc 00000000 		.word	.LANCHOR5
 3499 15c0 00007A44 		.word	1148846080
 3500 15c4 0000C842 		.word	1120403456
 3501              	.LVL306:
 3502              	.L41:
 3503              		.loc 1 467 0
 3504 15c8 FFF7FEFF 		bl	app_get_configuration
 3505              	.LVL307:
 3506 15cc F422     		movs	r2, #244
 3507 15ce 0146     		mov	r1, r0
 3508 15d0 18A8     		add	r0, sp, #96
 3509              		.loc 1 470 0
 3510 15d2 0125     		movs	r5, #1
 3511              		.loc 1 467 0
 3512 15d4 FFF7FEFF 		bl	memcpy
 3513              	.LVL308:
 3514              		.loc 1 470 0
 3515 15d8 7B78     		ldrb	r3, [r7, #1]	@ zero_extendqisi2
 3516 15da 8DF86030 		strb	r3, [sp, #96]
 3517              		.loc 1 471 0
 3518 15de 17A9     		add	r1, sp, #92
 3519 15e0 2046     		mov	r0, r4
 3520              		.loc 1 470 0
 3521 15e2 1795     		str	r5, [sp, #92]
 3522              		.loc 1 471 0
 3523 15e4 FFF7FEFF 		bl	buffer_get_uint32
 3524              	.LVL309:
 3525              		.loc 1 472 0
 3526 15e8 17A9     		add	r1, sp, #92
 3527              		.loc 1 471 0
 3528 15ea 1990     		str	r0, [sp, #100]
 3529              		.loc 1 472 0
 3530 15ec 2046     		mov	r0, r4
 3531 15ee FFF7FEFF 		bl	buffer_get_int32
 3532              	.LVL310:
 3533 15f2 07EE900A 		vmov	s15, r0	@ int
 3534 15f6 1FED0E8A 		vldr.32	s16, .L354+24
ARM GAS  C:\Users\euanm\AppData\Local\Temp\ccyKTXNK.s 			page 63


 3535              		.loc 1 473 0
 3536 15fa 179B     		ldr	r3, [sp, #92]
 3537              		.loc 1 548 0
 3538 15fc 5FED0F8A 		vldr.32	s17, .L354+28
 3539              		.loc 1 473 0
 3540 1600 E25C     		ldrb	r2, [r4, r3]	@ zero_extendqisi2
 3541              		.loc 1 472 0
 3542 1602 B8EEE77A 		vcvt.f32.s32	s14, s15
 3543              		.loc 1 473 0
 3544 1606 0032     		adds	r2, r2, #0
 3545              		.loc 1 472 0
 3546 1608 C7EE087A 		vdiv.f32	s15, s14, s16
 3547              		.loc 1 473 0
 3548 160c 18BF     		it	ne
 3549 160e 0122     		movne	r2, #1
 3550 1610 2B44     		add	r3, r3, r5
 3551              		.loc 1 474 0
 3552 1612 17A9     		add	r1, sp, #92
 3553 1614 2046     		mov	r0, r4
 3554              		.loc 1 473 0
 3555 1616 8DF86C20 		strb	r2, [sp, #108]
 3556 161a 1793     		str	r3, [sp, #92]
 3557              		.loc 1 472 0
 3558 161c CDED1A7A 		vstr.32	s15, [sp, #104]
 3559              		.loc 1 474 0
 3560 1620 FFF7FEFF 		bl	buffer_get_uint16
 3561              	.LVL311:
 3562              		.loc 1 476 0
 3563 1624 179B     		ldr	r3, [sp, #92]
 3564              		.loc 1 474 0
 3565 1626 1C90     		str	r0, [sp, #112]
 3566              		.loc 1 476 0
 3567 1628 5A19     		adds	r2, r3, r5
 3568 162a E15C     		ldrb	r1, [r4, r3]	@ zero_extendqisi2
 3569              		.loc 1 478 0
 3570 162c A25C     		ldrb	r2, [r4, r2]	@ zero_extendqisi2
 3571              		.loc 1 476 0
 3572 162e 8DF87410 		strb	r1, [sp, #116]
 3573              		.loc 1 478 0
 3574 1632 0233     		adds	r3, r3, #2
 3575              		.loc 1 479 0
 3576 1634 17A9     		add	r1, sp, #92
 3577 1636 2046     		mov	r0, r4
 3578              		.loc 1 478 0
 3579 1638 8DF87820 		strb	r2, [sp, #120]
 3580 163c 1793     		str	r3, [sp, #92]
 3581              		.loc 1 479 0
 3582 163e FFF7FEFF 		bl	buffer_get_int32
 3583              	.LVL312:
 3584 1642 07EE900A 		vmov	s15, r0	@ int
 3585 1646 B8EEE77A 		vcvt.f32.s32	s14, s15
 3586              		.loc 1 480 0
 3587 164a 17A9     		add	r1, sp, #92
 3588              		.loc 1 479 0
 3589 164c C7EE087A 		vdiv.f32	s15, s14, s16
 3590              		.loc 1 480 0
 3591 1650 2046     		mov	r0, r4
ARM GAS  C:\Users\euanm\AppData\Local\Temp\ccyKTXNK.s 			page 64


 3592              		.loc 1 479 0
 3593 1652 CDED1F7A 		vstr.32	s15, [sp, #124]
 3594              		.loc 1 480 0
 3595 1656 FFF7FEFF 		bl	buffer_get_int32
 3596              	.LVL313:
 3597 165a 07EE900A 		vmov	s15, r0	@ int
 3598 165e B8EEE77A 		vcvt.f32.s32	s14, s15
 3599              		.loc 1 481 0
 3600 1662 17A9     		add	r1, sp, #92
 3601              		.loc 1 480 0
 3602 1664 C7EE087A 		vdiv.f32	s15, s14, s16
 3603              		.loc 1 481 0
 3604 1668 2046     		mov	r0, r4
 3605              		.loc 1 480 0
 3606 166a CDED207A 		vstr.32	s15, [sp, #128]
 3607              		.loc 1 481 0
 3608 166e FFF7FEFF 		bl	buffer_get_int32
 3609              	.LVL314:
 3610 1672 07EE900A 		vmov	s15, r0	@ int
 3611 1676 B8EEE77A 		vcvt.f32.s32	s14, s15
 3612              		.loc 1 482 0
 3613 167a 17A9     		add	r1, sp, #92
 3614              		.loc 1 481 0
 3615 167c C7EE087A 		vdiv.f32	s15, s14, s16
 3616              		.loc 1 482 0
 3617 1680 2046     		mov	r0, r4
 3618              		.loc 1 481 0
 3619 1682 CDED217A 		vstr.32	s15, [sp, #132]
 3620              		.loc 1 482 0
 3621 1686 FFF7FEFF 		bl	buffer_get_int32
 3622              	.LVL315:
 3623 168a 07EE900A 		vmov	s15, r0	@ int
 3624 168e B8EEE77A 		vcvt.f32.s32	s14, s15
 3625              		.loc 1 483 0
 3626 1692 179B     		ldr	r3, [sp, #92]
 3627              		.loc 1 482 0
 3628 1694 C7EE087A 		vdiv.f32	s15, s14, s16
 3629              		.loc 1 483 0
 3630 1698 5A19     		adds	r2, r3, r5
 3631 169a E65C     		ldrb	r6, [r4, r3]	@ zero_extendqisi2
 3632              	.LVL316:
 3633              		.loc 1 484 0
 3634 169c A25C     		ldrb	r2, [r4, r2]	@ zero_extendqisi2
 3635              		.loc 1 483 0
 3636 169e 0036     		adds	r6, r6, #0
 3637 16a0 18BF     		it	ne
 3638 16a2 0126     		movne	r6, #1
 3639              		.loc 1 484 0
 3640 16a4 0032     		adds	r2, r2, #0
 3641 16a6 18BF     		it	ne
 3642 16a8 0122     		movne	r2, #1
 3643 16aa 0233     		adds	r3, r3, #2
 3644              		.loc 1 485 0
 3645 16ac 17A9     		add	r1, sp, #92
 3646 16ae 2046     		mov	r0, r4
 3647              		.loc 1 484 0
 3648 16b0 8DF88D20 		strb	r2, [sp, #141]
ARM GAS  C:\Users\euanm\AppData\Local\Temp\ccyKTXNK.s 			page 65


 3649 16b4 1793     		str	r3, [sp, #92]
 3650              		.loc 1 483 0
 3651 16b6 8DF88C60 		strb	r6, [sp, #140]
 3652              		.loc 1 482 0
 3653 16ba CDED227A 		vstr.32	s15, [sp, #136]
 3654              		.loc 1 485 0
 3655 16be FFF7FEFF 		bl	buffer_get_int32
 3656              	.LVL317:
 3657 16c2 07EE900A 		vmov	s15, r0	@ int
 3658 16c6 B8EEE77A 		vcvt.f32.s32	s14, s15
 3659              		.loc 1 486 0
 3660 16ca 17A9     		add	r1, sp, #92
 3661              		.loc 1 485 0
 3662 16cc C7EE087A 		vdiv.f32	s15, s14, s16
 3663              		.loc 1 486 0
 3664 16d0 2046     		mov	r0, r4
 3665              		.loc 1 485 0
 3666 16d2 CDED247A 		vstr.32	s15, [sp, #144]
 3667              		.loc 1 486 0
 3668 16d6 FFF7FEFF 		bl	buffer_get_int32
 3669              	.LVL318:
 3670 16da 07EE900A 		vmov	s15, r0	@ int
 3671 16de B8EEE77A 		vcvt.f32.s32	s14, s15
 3672              		.loc 1 487 0
 3673 16e2 179B     		ldr	r3, [sp, #92]
 3674              		.loc 1 486 0
 3675 16e4 C7EE087A 		vdiv.f32	s15, s14, s16
 3676              		.loc 1 487 0
 3677 16e8 5A19     		adds	r2, r3, r5
 3678 16ea E65C     		ldrb	r6, [r4, r3]	@ zero_extendqisi2
 3679              		.loc 1 488 0
 3680 16ec A25C     		ldrb	r2, [r4, r2]	@ zero_extendqisi2
 3681              		.loc 1 487 0
 3682 16ee 0036     		adds	r6, r6, #0
 3683 16f0 18BF     		it	ne
 3684 16f2 0126     		movne	r6, #1
 3685              		.loc 1 488 0
 3686 16f4 0032     		adds	r2, r2, #0
 3687 16f6 18BF     		it	ne
 3688 16f8 0122     		movne	r2, #1
 3689 16fa 0233     		adds	r3, r3, #2
 3690              		.loc 1 489 0
 3691 16fc 17A9     		add	r1, sp, #92
 3692 16fe 2046     		mov	r0, r4
 3693              		.loc 1 487 0
 3694 1700 8DF89860 		strb	r6, [sp, #152]
 3695              		.loc 1 488 0
 3696 1704 8DF89920 		strb	r2, [sp, #153]
 3697 1708 1793     		str	r3, [sp, #92]
 3698              		.loc 1 486 0
 3699 170a CDED257A 		vstr.32	s15, [sp, #148]
 3700              		.loc 1 489 0
 3701 170e FFF7FEFF 		bl	buffer_get_int32
 3702              	.LVL319:
 3703 1712 07EE900A 		vmov	s15, r0	@ int
 3704 1716 B8EEE77A 		vcvt.f32.s32	s14, s15
 3705              		.loc 1 491 0
ARM GAS  C:\Users\euanm\AppData\Local\Temp\ccyKTXNK.s 			page 66


 3706 171a 179B     		ldr	r3, [sp, #92]
 3707              		.loc 1 489 0
 3708 171c C7EE087A 		vdiv.f32	s15, s14, s16
 3709              		.loc 1 491 0
 3710 1720 E25C     		ldrb	r2, [r4, r3]	@ zero_extendqisi2
 3711 1722 8DF8B020 		strb	r2, [sp, #176]
 3712 1726 2B44     		add	r3, r3, r5
 3713              		.loc 1 492 0
 3714 1728 17A9     		add	r1, sp, #92
 3715 172a 2046     		mov	r0, r4
 3716              		.loc 1 491 0
 3717 172c 1793     		str	r3, [sp, #92]
 3718              		.loc 1 489 0
 3719 172e CDED277A 		vstr.32	s15, [sp, #156]
 3720              		.loc 1 492 0
 3721 1732 FFF7FEFF 		bl	buffer_get_int32
 3722              	.LVL320:
 3723 1736 07EE900A 		vmov	s15, r0	@ int
 3724 173a B8EEE77A 		vcvt.f32.s32	s14, s15
 3725              		.loc 1 493 0
 3726 173e 17A9     		add	r1, sp, #92
 3727              		.loc 1 492 0
 3728 1740 C7EE087A 		vdiv.f32	s15, s14, s16
 3729              		.loc 1 493 0
 3730 1744 2046     		mov	r0, r4
 3731              		.loc 1 492 0
 3732 1746 CDED2D7A 		vstr.32	s15, [sp, #180]
 3733              		.loc 1 493 0
 3734 174a FFF7FEFF 		bl	buffer_get_int32
 3735              	.LVL321:
 3736 174e 07EE900A 		vmov	s15, r0	@ int
 3737 1752 B8EEE77A 		vcvt.f32.s32	s14, s15
 3738              		.loc 1 494 0
 3739 1756 17A9     		add	r1, sp, #92
 3740              		.loc 1 493 0
 3741 1758 C7EE087A 		vdiv.f32	s15, s14, s16
 3742              		.loc 1 494 0
 3743 175c 2046     		mov	r0, r4
 3744              		.loc 1 493 0
 3745 175e CDED2E7A 		vstr.32	s15, [sp, #184]
 3746              		.loc 1 494 0
 3747 1762 FFF7FEFF 		bl	buffer_get_int32
 3748              	.LVL322:
 3749 1766 07EE900A 		vmov	s15, r0	@ int
 3750 176a B8EEE77A 		vcvt.f32.s32	s14, s15
 3751              		.loc 1 495 0
 3752 176e 179B     		ldr	r3, [sp, #92]
 3753              		.loc 1 494 0
 3754 1770 C7EE087A 		vdiv.f32	s15, s14, s16
 3755              		.loc 1 495 0
 3756 1774 5919     		adds	r1, r3, r5
 3757 1776 E75C     		ldrb	r7, [r4, r3]	@ zero_extendqisi2
 3758              		.loc 1 496 0
 3759 1778 615C     		ldrb	r1, [r4, r1]	@ zero_extendqisi2
 3760 177a 981C     		adds	r0, r3, #2
 3761              		.loc 1 497 0
 3762 177c DE1C     		adds	r6, r3, #3
ARM GAS  C:\Users\euanm\AppData\Local\Temp\ccyKTXNK.s 			page 67


 3763 177e 205C     		ldrb	r0, [r4, r0]	@ zero_extendqisi2
 3764              		.loc 1 498 0
 3765 1780 A65D     		ldrb	r6, [r4, r6]	@ zero_extendqisi2
 3766              		.loc 1 495 0
 3767 1782 0037     		adds	r7, r7, #0
 3768              		.loc 1 498 0
 3769 1784 03F10402 		add	r2, r3, #4
 3770              		.loc 1 495 0
 3771 1788 18BF     		it	ne
 3772 178a 0127     		movne	r7, #1
 3773              		.loc 1 496 0
 3774 178c 0031     		adds	r1, r1, #0
 3775              		.loc 1 499 0
 3776 178e A25C     		ldrb	r2, [r4, r2]	@ zero_extendqisi2
 3777              		.loc 1 494 0
 3778 1790 CDED2F7A 		vstr.32	s15, [sp, #188]
 3779              		.loc 1 496 0
 3780 1794 18BF     		it	ne
 3781 1796 0121     		movne	r1, #1
 3782              		.loc 1 497 0
 3783 1798 0030     		adds	r0, r0, #0
 3784 179a 18BF     		it	ne
 3785 179c 0120     		movne	r0, #1
 3786              		.loc 1 498 0
 3787 179e 0036     		adds	r6, r6, #0
 3788 17a0 18BF     		it	ne
 3789 17a2 0126     		movne	r6, #1
 3790              		.loc 1 499 0
 3791 17a4 0032     		adds	r2, r2, #0
 3792 17a6 18BF     		it	ne
 3793 17a8 0122     		movne	r2, #1
 3794 17aa 0533     		adds	r3, r3, #5
 3795              		.loc 1 496 0
 3796 17ac 8DF8C110 		strb	r1, [sp, #193]
 3797              		.loc 1 497 0
 3798 17b0 8DF8C200 		strb	r0, [sp, #194]
 3799              		.loc 1 500 0
 3800 17b4 17A9     		add	r1, sp, #92
 3801 17b6 2046     		mov	r0, r4
 3802              		.loc 1 499 0
 3803 17b8 8DF8C420 		strb	r2, [sp, #196]
 3804 17bc 1793     		str	r3, [sp, #92]
 3805              		.loc 1 495 0
 3806 17be 8DF8C070 		strb	r7, [sp, #192]
 3807              		.loc 1 498 0
 3808 17c2 8DF8C360 		strb	r6, [sp, #195]
 3809              		.loc 1 500 0
 3810 17c6 FFF7FEFF 		bl	buffer_get_int32
 3811              	.LVL323:
 3812 17ca 07EE900A 		vmov	s15, r0	@ int
 3813 17ce B8EEE77A 		vcvt.f32.s32	s14, s15
 3814              		.loc 1 501 0
 3815 17d2 17A9     		add	r1, sp, #92
 3816              		.loc 1 500 0
 3817 17d4 C7EE087A 		vdiv.f32	s15, s14, s16
 3818              		.loc 1 501 0
 3819 17d8 2046     		mov	r0, r4
ARM GAS  C:\Users\euanm\AppData\Local\Temp\ccyKTXNK.s 			page 68


 3820              		.loc 1 500 0
 3821 17da CDED327A 		vstr.32	s15, [sp, #200]
 3822              		.loc 1 501 0
 3823 17de FFF7FEFF 		bl	buffer_get_int32
 3824              	.LVL324:
 3825 17e2 07EE900A 		vmov	s15, r0	@ int
 3826 17e6 B8EEE77A 		vcvt.f32.s32	s14, s15
 3827              		.loc 1 502 0
 3828 17ea 179B     		ldr	r3, [sp, #92]
 3829              		.loc 1 501 0
 3830 17ec C7EE087A 		vdiv.f32	s15, s14, s16
 3831              		.loc 1 502 0
 3832 17f0 5A19     		adds	r2, r3, r5
 3833 17f2 E65C     		ldrb	r6, [r4, r3]	@ zero_extendqisi2
 3834              		.loc 1 503 0
 3835 17f4 A25C     		ldrb	r2, [r4, r2]	@ zero_extendqisi2
 3836              		.loc 1 502 0
 3837 17f6 0036     		adds	r6, r6, #0
 3838 17f8 18BF     		it	ne
 3839 17fa 0126     		movne	r6, #1
 3840              		.loc 1 503 0
 3841 17fc 0032     		adds	r2, r2, #0
 3842 17fe 18BF     		it	ne
 3843 1800 0122     		movne	r2, #1
 3844 1802 0233     		adds	r3, r3, #2
 3845              		.loc 1 504 0
 3846 1804 17A9     		add	r1, sp, #92
 3847 1806 2046     		mov	r0, r4
 3848              		.loc 1 503 0
 3849 1808 8DF8D120 		strb	r2, [sp, #209]
 3850 180c 1793     		str	r3, [sp, #92]
 3851              		.loc 1 502 0
 3852 180e 8DF8D060 		strb	r6, [sp, #208]
 3853              		.loc 1 501 0
 3854 1812 CDED337A 		vstr.32	s15, [sp, #204]
 3855              		.loc 1 504 0
 3856 1816 FFF7FEFF 		bl	buffer_get_int32
 3857              	.LVL325:
 3858 181a 07EE900A 		vmov	s15, r0	@ int
 3859 181e B8EEE77A 		vcvt.f32.s32	s14, s15
 3860              		.loc 1 505 0
 3861 1822 17A9     		add	r1, sp, #92
 3862              		.loc 1 504 0
 3863 1824 C7EE087A 		vdiv.f32	s15, s14, s16
 3864              		.loc 1 505 0
 3865 1828 2046     		mov	r0, r4
 3866              		.loc 1 504 0
 3867 182a CDED357A 		vstr.32	s15, [sp, #212]
 3868              		.loc 1 505 0
 3869 182e FFF7FEFF 		bl	buffer_get_uint16
 3870              	.LVL326:
 3871              		.loc 1 507 0
 3872 1832 17A9     		add	r1, sp, #92
 3873              		.loc 1 505 0
 3874 1834 3690     		str	r0, [sp, #216]
 3875              		.loc 1 507 0
 3876 1836 2046     		mov	r0, r4
ARM GAS  C:\Users\euanm\AppData\Local\Temp\ccyKTXNK.s 			page 69


 3877 1838 FFF7FEFF 		bl	buffer_get_uint32
 3878              	.LVL327:
 3879              		.loc 1 509 0
 3880 183c 179B     		ldr	r3, [sp, #92]
 3881              		.loc 1 507 0
 3882 183e 3790     		str	r0, [sp, #220]
 3883              		.loc 1 509 0
 3884 1840 E25C     		ldrb	r2, [r4, r3]	@ zero_extendqisi2
 3885 1842 8DF8E020 		strb	r2, [sp, #224]
 3886 1846 2B44     		add	r3, r3, r5
 3887              		.loc 1 510 0
 3888 1848 17A9     		add	r1, sp, #92
 3889 184a 2046     		mov	r0, r4
 3890 184c B0EE480A 		vmov.f32	s0, s16
 3891              		.loc 1 509 0
 3892 1850 1793     		str	r3, [sp, #92]
 3893              		.loc 1 510 0
 3894 1852 FFF7FEFF 		bl	buffer_get_float32
 3895              	.LVL328:
 3896              		.loc 1 511 0
 3897 1856 17A9     		add	r1, sp, #92
 3898              		.loc 1 510 0
 3899 1858 8DED390A 		vstr.32	s0, [sp, #228]
 3900              		.loc 1 511 0
 3901 185c 2046     		mov	r0, r4
 3902 185e B0EE480A 		vmov.f32	s0, s16
 3903 1862 FFF7FEFF 		bl	buffer_get_float32
 3904              	.LVL329:
 3905              		.loc 1 512 0
 3906 1866 17A9     		add	r1, sp, #92
 3907              		.loc 1 511 0
 3908 1868 8DED3A0A 		vstr.32	s0, [sp, #232]
 3909              		.loc 1 512 0
 3910 186c 2046     		mov	r0, r4
 3911 186e B0EE480A 		vmov.f32	s0, s16
 3912 1872 FFF7FEFF 		bl	buffer_get_float32
 3913              	.LVL330:
 3914              		.loc 1 513 0
 3915 1876 17A9     		add	r1, sp, #92
 3916              		.loc 1 512 0
 3917 1878 8DED3B0A 		vstr.32	s0, [sp, #236]
 3918              		.loc 1 513 0
 3919 187c 2046     		mov	r0, r4
 3920 187e B0EE480A 		vmov.f32	s0, s16
 3921 1882 FFF7FEFF 		bl	buffer_get_float32
 3922              	.LVL331:
 3923              		.loc 1 514 0
 3924 1886 17A9     		add	r1, sp, #92
 3925              		.loc 1 513 0
 3926 1888 8DED3C0A 		vstr.32	s0, [sp, #240]
 3927              		.loc 1 514 0
 3928 188c 2046     		mov	r0, r4
 3929 188e B0EE480A 		vmov.f32	s0, s16
 3930 1892 FFF7FEFF 		bl	buffer_get_float32
 3931              	.LVL332:
 3932              		.loc 1 515 0
 3933 1896 17A9     		add	r1, sp, #92
ARM GAS  C:\Users\euanm\AppData\Local\Temp\ccyKTXNK.s 			page 70


 3934              		.loc 1 514 0
 3935 1898 8DED3D0A 		vstr.32	s0, [sp, #244]
 3936              		.loc 1 515 0
 3937 189c 2046     		mov	r0, r4
 3938 189e B0EE480A 		vmov.f32	s0, s16
 3939 18a2 FFF7FEFF 		bl	buffer_get_float32
 3940              	.LVL333:
 3941              		.loc 1 516 0
 3942 18a6 179B     		ldr	r3, [sp, #92]
 3943              		.loc 1 515 0
 3944 18a8 8DED3E0A 		vstr.32	s0, [sp, #248]
 3945              		.loc 1 516 0
 3946 18ac 5A19     		adds	r2, r3, r5
 3947 18ae E65C     		ldrb	r6, [r4, r3]	@ zero_extendqisi2
 3948              		.loc 1 517 0
 3949 18b0 A25C     		ldrb	r2, [r4, r2]	@ zero_extendqisi2
 3950              		.loc 1 516 0
 3951 18b2 0036     		adds	r6, r6, #0
 3952 18b4 18BF     		it	ne
 3953 18b6 0126     		movne	r6, #1
 3954              		.loc 1 517 0
 3955 18b8 0032     		adds	r2, r2, #0
 3956 18ba 18BF     		it	ne
 3957 18bc 0122     		movne	r2, #1
 3958 18be 0233     		adds	r3, r3, #2
 3959              		.loc 1 518 0
 3960 18c0 17A9     		add	r1, sp, #92
 3961 18c2 2046     		mov	r0, r4
 3962 18c4 B0EE480A 		vmov.f32	s0, s16
 3963              		.loc 1 516 0
 3964 18c8 8DF8FC60 		strb	r6, [sp, #252]
 3965              		.loc 1 517 0
 3966 18cc 8DF8FD20 		strb	r2, [sp, #253]
 3967 18d0 1793     		str	r3, [sp, #92]
 3968              		.loc 1 518 0
 3969 18d2 FFF7FEFF 		bl	buffer_get_float32
 3970              	.LVL334:
 3971              		.loc 1 520 0
 3972 18d6 179B     		ldr	r3, [sp, #92]
 3973              		.loc 1 518 0
 3974 18d8 8DED400A 		vstr.32	s0, [sp, #256]
 3975              		.loc 1 520 0
 3976 18dc 5A19     		adds	r2, r3, r5
 3977              		.loc 1 521 0
 3978 18de 9F1C     		adds	r7, r3, #2
 3979              		.loc 1 522 0
 3980 18e0 D81C     		adds	r0, r3, #3
 3981              		.loc 1 523 0
 3982 18e2 191D     		adds	r1, r3, #4
 3983              		.loc 1 520 0
 3984 18e4 E65C     		ldrb	r6, [r4, r3]	@ zero_extendqisi2
 3985              		.loc 1 521 0
 3986 18e6 A25C     		ldrb	r2, [r4, r2]	@ zero_extendqisi2
 3987              		.loc 1 523 0
 3988 18e8 205C     		ldrb	r0, [r4, r0]	@ zero_extendqisi2
 3989              		.loc 1 524 0
 3990 18ea 615C     		ldrb	r1, [r4, r1]	@ zero_extendqisi2
ARM GAS  C:\Users\euanm\AppData\Local\Temp\ccyKTXNK.s 			page 71


 3991              		.loc 1 522 0
 3992 18ec E75D     		ldrb	r7, [r4, r7]	@ zero_extendqisi2
 3993              		.loc 1 520 0
 3994 18ee 8DF80C61 		strb	r6, [sp, #268]
 3995              		.loc 1 521 0
 3996 18f2 8DF80D21 		strb	r2, [sp, #269]
 3997              		.loc 1 524 0
 3998 18f6 5E1D     		adds	r6, r3, #5
 3999              		.loc 1 528 0
 4000 18f8 E218     		adds	r2, r4, r3
 4001              		.loc 1 525 0
 4002 18fa A65D     		ldrb	r6, [r4, r6]	@ zero_extendqisi2
 4003              		.loc 1 528 0
 4004 18fc 527A     		ldrb	r2, [r2, #9]	@ zero_extendqisi2
 4005              		.loc 1 523 0
 4006 18fe 8DF80F01 		strb	r0, [sp, #271]
 4007              		.loc 1 525 0
 4008 1902 981D     		adds	r0, r3, #6
 4009              		.loc 1 524 0
 4010 1904 8DF81011 		strb	r1, [sp, #272]
 4011              		.loc 1 526 0
 4012 1908 2118     		adds	r1, r4, r0
 4013              		.loc 1 525 0
 4014 190a 1790     		str	r0, [sp, #92]
 4015              		.loc 1 522 0
 4016 190c 8DF80E71 		strb	r7, [sp, #270]
 4017              		.loc 1 525 0
 4018 1910 8DF81161 		strb	r6, [sp, #273]
 4019              		.loc 1 526 0
 4020 1914 8878     		ldrb	r0, [r1, #2]	@ zero_extendqisi2
 4021 1916 0E88     		ldrh	r6, [r1]	@ unaligned
 4022 1918 8DF81401 		strb	r0, [sp, #276]
 4023              		.loc 1 528 0
 4024 191c 0032     		adds	r2, r2, #0
 4025 191e 18BF     		it	ne
 4026 1920 0122     		movne	r2, #1
 4027 1922 0A33     		adds	r3, r3, #10
 4028              		.loc 1 531 0
 4029 1924 17A9     		add	r1, sp, #92
 4030 1926 2046     		mov	r0, r4
 4031              		.loc 1 528 0
 4032 1928 8DF81521 		strb	r2, [sp, #277]
 4033 192c 1793     		str	r3, [sp, #92]
 4034              		.loc 1 526 0
 4035 192e ADF81261 		strh	r6, [sp, #274]	@ unaligned
 4036              		.loc 1 531 0
 4037 1932 FFF7FEFF 		bl	buffer_get_int32
 4038              	.LVL335:
 4039 1936 07EE900A 		vmov	s15, r0	@ int
 4040 193a B8EEE77A 		vcvt.f32.s32	s14, s15
 4041              		.loc 1 532 0
 4042 193e 17A9     		add	r1, sp, #92
 4043              		.loc 1 531 0
 4044 1940 C7EE087A 		vdiv.f32	s15, s14, s16
 4045              		.loc 1 532 0
 4046 1944 2046     		mov	r0, r4
 4047              		.loc 1 531 0
ARM GAS  C:\Users\euanm\AppData\Local\Temp\ccyKTXNK.s 			page 72


 4048 1946 CDED287A 		vstr.32	s15, [sp, #160]
 4049              		.loc 1 532 0
 4050 194a FFF7FEFF 		bl	buffer_get_int32
 4051              	.LVL336:
 4052 194e 07EE900A 		vmov	s15, r0	@ int
 4053 1952 B8EEE77A 		vcvt.f32.s32	s14, s15
 4054              		.loc 1 533 0
 4055 1956 179B     		ldr	r3, [sp, #92]
 4056              		.loc 1 532 0
 4057 1958 C7EE087A 		vdiv.f32	s15, s14, s16
 4058              		.loc 1 534 0
 4059 195c 9A1C     		adds	r2, r3, #2
 4060              		.loc 1 533 0
 4061 195e 5819     		adds	r0, r3, r5
 4062              		.loc 1 535 0
 4063 1960 A25C     		ldrb	r2, [r4, r2]	@ zero_extendqisi2
 4064              		.loc 1 533 0
 4065 1962 E15C     		ldrb	r1, [r4, r3]	@ zero_extendqisi2
 4066              		.loc 1 534 0
 4067 1964 265C     		ldrb	r6, [r4, r0]	@ zero_extendqisi2
 4068              		.loc 1 533 0
 4069 1966 8DF8A810 		strb	r1, [sp, #168]
 4070              		.loc 1 535 0
 4071 196a 0032     		adds	r2, r2, #0
 4072 196c 18BF     		it	ne
 4073 196e 0122     		movne	r2, #1
 4074 1970 0333     		adds	r3, r3, #3
 4075              		.loc 1 536 0
 4076 1972 17A9     		add	r1, sp, #92
 4077 1974 2046     		mov	r0, r4
 4078              		.loc 1 535 0
 4079 1976 8DF8AA20 		strb	r2, [sp, #170]
 4080 197a 1793     		str	r3, [sp, #92]
 4081              		.loc 1 536 0
 4082 197c B0EE480A 		vmov.f32	s0, s16
 4083              		.loc 1 532 0
 4084 1980 CDED297A 		vstr.32	s15, [sp, #164]
 4085              		.loc 1 534 0
 4086 1984 8DF8A960 		strb	r6, [sp, #169]
 4087              		.loc 1 536 0
 4088 1988 FFF7FEFF 		bl	buffer_get_float32
 4089              	.LVL337:
 4090              		.loc 1 538 0
 4091 198c 17A9     		add	r1, sp, #92
 4092 198e 2046     		mov	r0, r4
 4093              		.loc 1 536 0
 4094 1990 8DED2B0A 		vstr.32	s0, [sp, #172]
 4095              		.loc 1 538 0
 4096 1994 FFF7FEFF 		bl	buffer_get_int32
 4097              	.LVL338:
 4098 1998 07EE900A 		vmov	s15, r0	@ int
 4099 199c B8EEE77A 		vcvt.f32.s32	s14, s15
 4100              		.loc 1 539 0
 4101 19a0 179B     		ldr	r3, [sp, #92]
 4102              		.loc 1 538 0
 4103 19a2 C7EE087A 		vdiv.f32	s15, s14, s16
 4104              		.loc 1 539 0
ARM GAS  C:\Users\euanm\AppData\Local\Temp\ccyKTXNK.s 			page 73


 4105 19a6 5A19     		adds	r2, r3, r5
 4106 19a8 E65C     		ldrb	r6, [r4, r3]	@ zero_extendqisi2
 4107              		.loc 1 541 0
 4108 19aa A25C     		ldrb	r2, [r4, r2]	@ zero_extendqisi2
 4109              		.loc 1 539 0
 4110 19ac 0036     		adds	r6, r6, #0
 4111 19ae 18BF     		it	ne
 4112 19b0 0126     		movne	r6, #1
 4113              		.loc 1 541 0
 4114 19b2 0032     		adds	r2, r2, #0
 4115 19b4 18BF     		it	ne
 4116 19b6 0122     		movne	r2, #1
 4117 19b8 0233     		adds	r3, r3, #2
 4118              		.loc 1 542 0
 4119 19ba 17A9     		add	r1, sp, #92
 4120 19bc 2046     		mov	r0, r4
 4121              		.loc 1 541 0
 4122 19be 8DF81821 		strb	r2, [sp, #280]
 4123 19c2 1793     		str	r3, [sp, #92]
 4124              		.loc 1 539 0
 4125 19c4 8DF80861 		strb	r6, [sp, #264]
 4126              		.loc 1 538 0
 4127 19c8 CDED417A 		vstr.32	s15, [sp, #260]
 4128              		.loc 1 542 0
 4129 19cc FFF7FEFF 		bl	buffer_get_int16
 4130              	.LVL339:
 4131 19d0 07EE900A 		vmov	s15, r0	@ int
 4132 19d4 B8EEE77A 		vcvt.f32.s32	s14, s15
 4133              		.loc 1 543 0
 4134 19d8 17A9     		add	r1, sp, #92
 4135              		.loc 1 542 0
 4136 19da C7EE087A 		vdiv.f32	s15, s14, s16
 4137              		.loc 1 543 0
 4138 19de 2046     		mov	r0, r4
 4139              		.loc 1 542 0
 4140 19e0 CDED477A 		vstr.32	s15, [sp, #284]
 4141              		.loc 1 543 0
 4142 19e4 FFF7FEFF 		bl	buffer_get_int16
 4143              	.LVL340:
 4144 19e8 07EE900A 		vmov	s15, r0	@ int
 4145 19ec B8EEE77A 		vcvt.f32.s32	s14, s15
 4146              		.loc 1 544 0
 4147 19f0 17A9     		add	r1, sp, #92
 4148              		.loc 1 543 0
 4149 19f2 C7EE087A 		vdiv.f32	s15, s14, s16
 4150              		.loc 1 544 0
 4151 19f6 2046     		mov	r0, r4
 4152              		.loc 1 543 0
 4153 19f8 CDED487A 		vstr.32	s15, [sp, #288]
 4154              		.loc 1 544 0
 4155 19fc FFF7FEFF 		bl	buffer_get_int16
 4156              	.LVL341:
 4157 1a00 07EE900A 		vmov	s15, r0	@ int
 4158 1a04 B8EEE77A 		vcvt.f32.s32	s14, s15
 4159              		.loc 1 545 0
 4160 1a08 17A9     		add	r1, sp, #92
 4161              		.loc 1 544 0
ARM GAS  C:\Users\euanm\AppData\Local\Temp\ccyKTXNK.s 			page 74


 4162 1a0a C7EE087A 		vdiv.f32	s15, s14, s16
 4163              		.loc 1 545 0
 4164 1a0e 2046     		mov	r0, r4
 4165              		.loc 1 544 0
 4166 1a10 CDED497A 		vstr.32	s15, [sp, #292]
 4167              		.loc 1 545 0
 4168 1a14 FFF7FEFF 		bl	buffer_get_int16
 4169              	.LVL342:
 4170 1a18 07EE900A 		vmov	s15, r0	@ int
 4171 1a1c B8EEE77A 		vcvt.f32.s32	s14, s15
 4172              		.loc 1 546 0
 4173 1a20 17A9     		add	r1, sp, #92
 4174              		.loc 1 545 0
 4175 1a22 C7EE087A 		vdiv.f32	s15, s14, s16
 4176              		.loc 1 546 0
 4177 1a26 2046     		mov	r0, r4
 4178              		.loc 1 545 0
 4179 1a28 CDED4A7A 		vstr.32	s15, [sp, #296]
 4180              		.loc 1 546 0
 4181 1a2c FFF7FEFF 		bl	buffer_get_int16
 4182              	.LVL343:
 4183 1a30 07EE900A 		vmov	s15, r0	@ int
 4184 1a34 B8EEE77A 		vcvt.f32.s32	s14, s15
 4185              		.loc 1 547 0
 4186 1a38 17A9     		add	r1, sp, #92
 4187              		.loc 1 546 0
 4188 1a3a C7EE087A 		vdiv.f32	s15, s14, s16
 4189              		.loc 1 547 0
 4190 1a3e 2046     		mov	r0, r4
 4191              		.loc 1 546 0
 4192 1a40 CDED4B7A 		vstr.32	s15, [sp, #300]
 4193              		.loc 1 547 0
 4194 1a44 FFF7FEFF 		bl	buffer_get_int16
 4195              	.LVL344:
 4196 1a48 07EE900A 		vmov	s15, r0	@ int
 4197 1a4c B8EEE77A 		vcvt.f32.s32	s14, s15
 4198              		.loc 1 548 0
 4199 1a50 17A9     		add	r1, sp, #92
 4200              		.loc 1 547 0
 4201 1a52 C7EE087A 		vdiv.f32	s15, s14, s16
 4202              		.loc 1 548 0
 4203 1a56 2046     		mov	r0, r4
 4204              		.loc 1 547 0
 4205 1a58 CDED4C7A 		vstr.32	s15, [sp, #304]
 4206              		.loc 1 548 0
 4207 1a5c FFF7FEFF 		bl	buffer_get_int16
 4208              	.LVL345:
 4209 1a60 07EE900A 		vmov	s15, r0	@ int
 4210 1a64 B8EEE77A 		vcvt.f32.s32	s14, s15
 4211              		.loc 1 549 0
 4212 1a68 17A9     		add	r1, sp, #92
 4213              		.loc 1 548 0
 4214 1a6a C7EE287A 		vdiv.f32	s15, s14, s17
 4215              		.loc 1 549 0
 4216 1a6e 2046     		mov	r0, r4
 4217              		.loc 1 548 0
 4218 1a70 CDED4D7A 		vstr.32	s15, [sp, #308]
ARM GAS  C:\Users\euanm\AppData\Local\Temp\ccyKTXNK.s 			page 75


 4219              		.loc 1 549 0
 4220 1a74 FFF7FEFF 		bl	buffer_get_int16
 4221              	.LVL346:
 4222 1a78 07EE900A 		vmov	s15, r0	@ int
 4223 1a7c B8EEE77A 		vcvt.f32.s32	s14, s15
 4224              		.loc 1 550 0
 4225 1a80 17A9     		add	r1, sp, #92
 4226              		.loc 1 549 0
 4227 1a82 C7EE087A 		vdiv.f32	s15, s14, s16
 4228              		.loc 1 550 0
 4229 1a86 2046     		mov	r0, r4
 4230              		.loc 1 549 0
 4231 1a88 CDED4E7A 		vstr.32	s15, [sp, #312]
 4232              		.loc 1 550 0
 4233 1a8c FFF7FEFF 		bl	buffer_get_int16
 4234              	.LVL347:
 4235 1a90 07EE900A 		vmov	s15, r0	@ int
 4236 1a94 B8EEE77A 		vcvt.f32.s32	s14, s15
 4237              		.loc 1 551 0
 4238 1a98 17A9     		add	r1, sp, #92
 4239              		.loc 1 550 0
 4240 1a9a C7EE087A 		vdiv.f32	s15, s14, s16
 4241              		.loc 1 551 0
 4242 1a9e 2046     		mov	r0, r4
 4243              		.loc 1 550 0
 4244 1aa0 CDED4F7A 		vstr.32	s15, [sp, #316]
 4245              		.loc 1 551 0
 4246 1aa4 FFF7FEFF 		bl	buffer_get_int16
 4247              	.LVL348:
 4248 1aa8 07EE900A 		vmov	s15, r0	@ int
 4249 1aac B8EEE77A 		vcvt.f32.s32	s14, s15
 4250              		.loc 1 552 0
 4251 1ab0 17A9     		add	r1, sp, #92
 4252              		.loc 1 551 0
 4253 1ab2 C7EE087A 		vdiv.f32	s15, s14, s16
 4254              		.loc 1 552 0
 4255 1ab6 2046     		mov	r0, r4
 4256              		.loc 1 551 0
 4257 1ab8 CDED507A 		vstr.32	s15, [sp, #320]
 4258              		.loc 1 552 0
 4259 1abc FFF7FEFF 		bl	buffer_get_int16
 4260              	.LVL349:
 4261 1ac0 07EE900A 		vmov	s15, r0	@ int
 4262 1ac4 B8EEE77A 		vcvt.f32.s32	s14, s15
 4263              		.loc 1 553 0
 4264 1ac8 17A9     		add	r1, sp, #92
 4265              		.loc 1 552 0
 4266 1aca C7EE087A 		vdiv.f32	s15, s14, s16
 4267              		.loc 1 553 0
 4268 1ace 2046     		mov	r0, r4
 4269              		.loc 1 552 0
 4270 1ad0 CDED517A 		vstr.32	s15, [sp, #324]
 4271              		.loc 1 553 0
 4272 1ad4 FFF7FEFF 		bl	buffer_get_int16
 4273              	.LVL350:
 4274 1ad8 07EE900A 		vmov	s15, r0	@ int
 4275 1adc B8EEE77A 		vcvt.f32.s32	s14, s15
ARM GAS  C:\Users\euanm\AppData\Local\Temp\ccyKTXNK.s 			page 76


 4276              		.loc 1 554 0
 4277 1ae0 17A9     		add	r1, sp, #92
 4278              		.loc 1 553 0
 4279 1ae2 C7EE087A 		vdiv.f32	s15, s14, s16
 4280              		.loc 1 554 0
 4281 1ae6 2046     		mov	r0, r4
 4282              		.loc 1 553 0
 4283 1ae8 CDED527A 		vstr.32	s15, [sp, #328]
 4284              		.loc 1 554 0
 4285 1aec FFF7FEFF 		bl	buffer_get_int16
 4286              	.LVL351:
 4287 1af0 07EE900A 		vmov	s15, r0	@ int
 4288 1af4 B8EEE77A 		vcvt.f32.s32	s14, s15
 4289              		.loc 1 555 0
 4290 1af8 17A9     		add	r1, sp, #92
 4291              		.loc 1 554 0
 4292 1afa C7EE087A 		vdiv.f32	s15, s14, s16
 4293              		.loc 1 555 0
 4294 1afe 2046     		mov	r0, r4
 4295              		.loc 1 554 0
 4296 1b00 CDED537A 		vstr.32	s15, [sp, #332]
 4297              		.loc 1 555 0
 4298 1b04 FFF7FEFF 		bl	buffer_get_int16
 4299              	.LVL352:
 4300 1b08 07EE900A 		vmov	s15, r0	@ int
 4301 1b0c B8EEE77A 		vcvt.f32.s32	s14, s15
 4302              		.loc 1 558 0
 4303 1b10 18A8     		add	r0, sp, #96
 4304              		.loc 1 555 0
 4305 1b12 C7EE287A 		vdiv.f32	s15, s14, s17
 4306 1b16 CDED547A 		vstr.32	s15, [sp, #336]
 4307              		.loc 1 558 0
 4308 1b1a FFF7FEFF 		bl	conf_general_store_app_configuration
 4309              	.LVL353:
 4310              		.loc 1 559 0
 4311 1b1e 18A8     		add	r0, sp, #96
 4312 1b20 FFF7FEFF 		bl	app_set_configuration
 4313              	.LVL354:
 4314              		.loc 1 560 0
 4315 1b24 1998     		ldr	r0, [sp, #100]
 4316 1b26 9DED1A0A 		vldr.32	s0, [sp, #104]
 4317 1b2a FFF7FEFF 		bl	timeout_configure
 4318              	.LVL355:
 4319              	.LBB167:
 4320              	.LBB168:
 4321              		.loc 1 97 0
 4322 1b2e DD4B     		ldr	r3, .L356
 4323              	.LBE168:
 4324              	.LBE167:
 4325              		.loc 1 563 0
 4326 1b30 DD48     		ldr	r0, .L356+4
 4327              	.LBB171:
 4328              	.LBB169:
 4329              		.loc 1 97 0
 4330 1b32 1B68     		ldr	r3, [r3]
 4331              	.LBE169:
 4332              	.LBE171:
ARM GAS  C:\Users\euanm\AppData\Local\Temp\ccyKTXNK.s 			page 77


 4333              		.loc 1 563 0
 4334 1b34 1795     		str	r5, [sp, #92]
 4335 1b36 0F22     		movs	r2, #15
 4336 1b38 0270     		strb	r2, [r0]
 4337              	.LVL356:
 4338              	.LBB172:
 4339              	.LBB170:
 4340              		.loc 1 97 0
 4341 1b3a 002B     		cmp	r3, #0
 4342 1b3c 3EF4E8AA 		beq	.L24
 4343              		.loc 1 98 0
 4344 1b40 2946     		mov	r1, r5
 4345 1b42 9847     		blx	r3
 4346              	.LVL357:
 4347 1b44 FEF7E4BA 		b	.L24
 4348              	.LVL358:
 4349              	.L36:
 4350              	.LBE170:
 4351              	.LBE172:
 4352              		.loc 1 213 0
 4353 1b48 17A9     		add	r1, sp, #92
 4354 1b4a 2046     		mov	r0, r4
 4355 1b4c FFF7FEFF 		bl	buffer_get_int32
 4356              	.LVL359:
 4357 1b50 07EE900A 		vmov	s15, r0	@ int
 4358 1b54 B8EEE70A 		vcvt.f32.s32	s0, s15
 4359 1b58 FFF7FEFF 		bl	mc_interface_set_pid_speed
 4360              	.LVL360:
 4361              		.loc 1 214 0
 4362 1b5c FFF7FEFF 		bl	timeout_reset
 4363              	.LVL361:
 4364              		.loc 1 215 0
 4365 1b60 FEF7D6BA 		b	.L24
 4366              	.L35:
 4367              		.loc 1 207 0
 4368 1b64 17A9     		add	r1, sp, #92
 4369 1b66 2046     		mov	r0, r4
 4370 1b68 FFF7FEFF 		bl	buffer_get_int32
 4371              	.LVL362:
 4372 1b6c 07EE100A 		vmov	s14, r0	@ int
 4373 1b70 DFEDCE7A 		vldr.32	s15, .L356+8
 4374 1b74 B8EEC70A 		vcvt.f32.s32	s0, s14
 4375 1b78 80EE270A 		vdiv.f32	s0, s0, s15
 4376 1b7c FFF7FEFF 		bl	mc_interface_set_brake_current
 4377              	.LVL363:
 4378              		.loc 1 208 0
 4379 1b80 FFF7FEFF 		bl	timeout_reset
 4380              	.LVL364:
 4381              		.loc 1 209 0
 4382 1b84 FEF7C4BA 		b	.L24
 4383              	.L34:
 4384              		.loc 1 201 0
 4385 1b88 17A9     		add	r1, sp, #92
 4386 1b8a 2046     		mov	r0, r4
 4387 1b8c FFF7FEFF 		bl	buffer_get_int32
 4388              	.LVL365:
 4389 1b90 07EE100A 		vmov	s14, r0	@ int
ARM GAS  C:\Users\euanm\AppData\Local\Temp\ccyKTXNK.s 			page 78


 4390 1b94 DFEDC57A 		vldr.32	s15, .L356+8
 4391 1b98 B8EEC70A 		vcvt.f32.s32	s0, s14
 4392 1b9c 80EE270A 		vdiv.f32	s0, s0, s15
 4393 1ba0 FFF7FEFF 		bl	mc_interface_set_current
 4394              	.LVL366:
 4395              		.loc 1 202 0
 4396 1ba4 FFF7FEFF 		bl	timeout_reset
 4397              	.LVL367:
 4398              		.loc 1 203 0
 4399 1ba8 FEF7B2BA 		b	.L24
 4400              	.L33:
 4401              		.loc 1 195 0
 4402 1bac 17A9     		add	r1, sp, #92
 4403 1bae 2046     		mov	r0, r4
 4404 1bb0 FFF7FEFF 		bl	buffer_get_int32
 4405              	.LVL368:
 4406 1bb4 07EE100A 		vmov	s14, r0	@ int
 4407 1bb8 DFEDBD7A 		vldr.32	s15, .L356+12
 4408 1bbc B8EEC70A 		vcvt.f32.s32	s0, s14
 4409 1bc0 80EE270A 		vdiv.f32	s0, s0, s15
 4410 1bc4 FFF7FEFF 		bl	mc_interface_set_duty
 4411              	.LVL369:
 4412              		.loc 1 196 0
 4413 1bc8 FFF7FEFF 		bl	timeout_reset
 4414              	.LVL370:
 4415              		.loc 1 197 0
 4416 1bcc FEF7A0BA 		b	.L24
 4417              	.L32:
 4418              		.loc 1 170 0
 4419 1bd0 B84D     		ldr	r5, .L356+16
 4420 1bd2 DFEDB9AA 		vldr.32	s21, .L356+20
 4421 1bd6 6B89     		ldrh	r3, [r5, #10]
 4422 1bd8 9FEDB88A 		vldr.32	s16, .L356+24
 4423              		.loc 1 169 0
 4424 1bdc B24C     		ldr	r4, .L356+4
 4425              	.LVL371:
 4426              		.loc 1 170 0
 4427 1bde 9FEDB8AA 		vldr.32	s20, .L356+28
 4428 1be2 DFEDB89A 		vldr.32	s19, .L356+32
 4429 1be6 9FEDB89A 		vldr.32	s18, .L356+36
 4430 1bea 9BB2     		uxth	r3, r3
 4431 1bec 07EE903A 		vmov	s15, r3	@ int
 4432 1bf0 F8EEE77A 		vcvt.f32.s32	s15, s15
 4433              		.loc 1 169 0
 4434 1bf4 0422     		movs	r2, #4
 4435              		.loc 1 170 0
 4436 1bf6 8AEEA70A 		vdiv.f32	s0, s21, s15
 4437              		.loc 1 169 0
 4438 1bfa 0123     		movs	r3, #1
 4439 1bfc 2270     		strb	r2, [r4]
 4440 1bfe 1793     		str	r3, [sp, #92]
 4441              		.loc 1 170 0
 4442 1c00 F7EE008A 		vmov.f32	s17, #1.0e+0
 4443 1c04 30EE480A 		vsub.f32	s0, s0, s16
 4444 1c08 80EE080A 		vdiv.f32	s0, s0, s16
 4445 1c0c FFF7FEFF 		bl	logf
 4446              	.LVL372:
ARM GAS  C:\Users\euanm\AppData\Local\Temp\ccyKTXNK.s 			page 79


 4447 1c10 2046     		mov	r0, r4
 4448 1c12 17A9     		add	r1, sp, #92
 4449 1c14 80EE0A0A 		vdiv.f32	s0, s0, s20
 4450 1c18 F2EE040A 		vmov.f32	s1, #1.0e+1
 4451 1c1c 70EE297A 		vadd.f32	s15, s0, s19
 4452 1c20 88EEA70A 		vdiv.f32	s0, s17, s15
 4453 1c24 30EE490A 		vsub.f32	s0, s0, s18
 4454 1c28 FFF7FEFF 		bl	buffer_append_float16
 4455              	.LVL373:
 4456              		.loc 1 171 0
 4457 1c2c 6B89     		ldrh	r3, [r5, #10]
 4458 1c2e 9BB2     		uxth	r3, r3
 4459 1c30 07EE903A 		vmov	s15, r3	@ int
 4460 1c34 F8EEE77A 		vcvt.f32.s32	s15, s15
 4461 1c38 8AEEA70A 		vdiv.f32	s0, s21, s15
 4462 1c3c 30EE480A 		vsub.f32	s0, s0, s16
 4463 1c40 80EE080A 		vdiv.f32	s0, s0, s16
 4464 1c44 FFF7FEFF 		bl	logf
 4465              	.LVL374:
 4466 1c48 2046     		mov	r0, r4
 4467 1c4a 17A9     		add	r1, sp, #92
 4468 1c4c 80EE0A0A 		vdiv.f32	s0, s0, s20
 4469 1c50 F2EE040A 		vmov.f32	s1, #1.0e+1
 4470 1c54 70EE297A 		vadd.f32	s15, s0, s19
 4471 1c58 88EEA70A 		vdiv.f32	s0, s17, s15
 4472 1c5c 30EE490A 		vsub.f32	s0, s0, s18
 4473 1c60 FFF7FEFF 		bl	buffer_append_float16
 4474              	.LVL375:
 4475              		.loc 1 172 0
 4476 1c64 6B89     		ldrh	r3, [r5, #10]
 4477 1c66 9BB2     		uxth	r3, r3
 4478 1c68 07EE903A 		vmov	s15, r3	@ int
 4479 1c6c F8EEE77A 		vcvt.f32.s32	s15, s15
 4480 1c70 8AEEA70A 		vdiv.f32	s0, s21, s15
 4481 1c74 30EE480A 		vsub.f32	s0, s0, s16
 4482 1c78 80EE080A 		vdiv.f32	s0, s0, s16
 4483 1c7c FFF7FEFF 		bl	logf
 4484              	.LVL376:
 4485 1c80 2046     		mov	r0, r4
 4486 1c82 17A9     		add	r1, sp, #92
 4487 1c84 80EE0A0A 		vdiv.f32	s0, s0, s20
 4488 1c88 F2EE040A 		vmov.f32	s1, #1.0e+1
 4489 1c8c 70EE297A 		vadd.f32	s15, s0, s19
 4490 1c90 88EEA70A 		vdiv.f32	s0, s17, s15
 4491 1c94 30EE490A 		vsub.f32	s0, s0, s18
 4492 1c98 FFF7FEFF 		bl	buffer_append_float16
 4493              	.LVL377:
 4494              		.loc 1 173 0
 4495 1c9c 6B89     		ldrh	r3, [r5, #10]
 4496 1c9e 9BB2     		uxth	r3, r3
 4497 1ca0 07EE903A 		vmov	s15, r3	@ int
 4498 1ca4 F8EEE77A 		vcvt.f32.s32	s15, s15
 4499 1ca8 8AEEA70A 		vdiv.f32	s0, s21, s15
 4500 1cac 30EE480A 		vsub.f32	s0, s0, s16
 4501 1cb0 80EE080A 		vdiv.f32	s0, s0, s16
 4502 1cb4 FFF7FEFF 		bl	logf
 4503              	.LVL378:
ARM GAS  C:\Users\euanm\AppData\Local\Temp\ccyKTXNK.s 			page 80


 4504 1cb8 2046     		mov	r0, r4
 4505 1cba 17A9     		add	r1, sp, #92
 4506 1cbc 80EE0A0A 		vdiv.f32	s0, s0, s20
 4507 1cc0 F2EE040A 		vmov.f32	s1, #1.0e+1
 4508 1cc4 70EE297A 		vadd.f32	s15, s0, s19
 4509 1cc8 88EEA70A 		vdiv.f32	s0, s17, s15
 4510 1ccc 30EE490A 		vsub.f32	s0, s0, s18
 4511 1cd0 FFF7FEFF 		bl	buffer_append_float16
 4512              	.LVL379:
 4513              		.loc 1 174 0
 4514 1cd4 6B89     		ldrh	r3, [r5, #10]
 4515 1cd6 9BB2     		uxth	r3, r3
 4516 1cd8 07EE903A 		vmov	s15, r3	@ int
 4517 1cdc F8EEE77A 		vcvt.f32.s32	s15, s15
 4518 1ce0 8AEEA70A 		vdiv.f32	s0, s21, s15
 4519 1ce4 30EE480A 		vsub.f32	s0, s0, s16
 4520 1ce8 80EE080A 		vdiv.f32	s0, s0, s16
 4521 1cec FFF7FEFF 		bl	logf
 4522              	.LVL380:
 4523 1cf0 2046     		mov	r0, r4
 4524 1cf2 17A9     		add	r1, sp, #92
 4525 1cf4 80EE0A0A 		vdiv.f32	s0, s0, s20
 4526 1cf8 F2EE040A 		vmov.f32	s1, #1.0e+1
 4527 1cfc 70EE297A 		vadd.f32	s15, s0, s19
 4528 1d00 88EEA70A 		vdiv.f32	s0, s17, s15
 4529 1d04 30EE490A 		vsub.f32	s0, s0, s18
 4530 1d08 FFF7FEFF 		bl	buffer_append_float16
 4531              	.LVL381:
 4532              		.loc 1 175 0
 4533 1d0c 6B89     		ldrh	r3, [r5, #10]
 4534 1d0e 9BB2     		uxth	r3, r3
 4535 1d10 07EE903A 		vmov	s15, r3	@ int
 4536 1d14 F8EEE77A 		vcvt.f32.s32	s15, s15
 4537 1d18 8AEEA70A 		vdiv.f32	s0, s21, s15
 4538 1d1c 30EE480A 		vsub.f32	s0, s0, s16
 4539 1d20 80EE080A 		vdiv.f32	s0, s0, s16
 4540 1d24 FFF7FEFF 		bl	logf
 4541              	.LVL382:
 4542 1d28 2046     		mov	r0, r4
 4543 1d2a 17A9     		add	r1, sp, #92
 4544 1d2c 80EE0A0A 		vdiv.f32	s0, s0, s20
 4545 1d30 F2EE040A 		vmov.f32	s1, #1.0e+1
 4546 1d34 70EE297A 		vadd.f32	s15, s0, s19
 4547 1d38 88EEA70A 		vdiv.f32	s0, s17, s15
 4548 1d3c 30EE490A 		vsub.f32	s0, s0, s18
 4549 1d40 FFF7FEFF 		bl	buffer_append_float16
 4550              	.LVL383:
 4551              		.loc 1 176 0
 4552 1d44 6B89     		ldrh	r3, [r5, #10]
 4553 1d46 9BB2     		uxth	r3, r3
 4554 1d48 07EE903A 		vmov	s15, r3	@ int
 4555 1d4c F8EEE77A 		vcvt.f32.s32	s15, s15
 4556 1d50 8AEEA70A 		vdiv.f32	s0, s21, s15
 4557 1d54 30EE480A 		vsub.f32	s0, s0, s16
 4558 1d58 80EE080A 		vdiv.f32	s0, s0, s16
 4559 1d5c FFF7FEFF 		bl	logf
 4560              	.LVL384:
ARM GAS  C:\Users\euanm\AppData\Local\Temp\ccyKTXNK.s 			page 81


 4561 1d60 2046     		mov	r0, r4
 4562 1d62 17A9     		add	r1, sp, #92
 4563 1d64 80EE0A0A 		vdiv.f32	s0, s0, s20
 4564 1d68 F2EE040A 		vmov.f32	s1, #1.0e+1
 4565 1d6c 70EE299A 		vadd.f32	s19, s0, s19
 4566 1d70 88EEA90A 		vdiv.f32	s0, s17, s19
 4567 1d74 30EE490A 		vsub.f32	s0, s0, s18
 4568 1d78 FFF7FEFF 		bl	buffer_append_float16
 4569              	.LVL385:
 4570              		.loc 1 177 0
 4571 1d7c FFF7FEFF 		bl	mc_interface_read_reset_avg_motor_current
 4572              	.LVL386:
 4573 1d80 17A9     		add	r1, sp, #92
 4574 1d82 2046     		mov	r0, r4
 4575 1d84 DFED510A 		vldr.32	s1, .L356+40
 4576 1d88 FFF7FEFF 		bl	buffer_append_float32
 4577              	.LVL387:
 4578              		.loc 1 178 0
 4579 1d8c FFF7FEFF 		bl	mc_interface_read_reset_avg_input_current
 4580              	.LVL388:
 4581 1d90 17A9     		add	r1, sp, #92
 4582 1d92 2046     		mov	r0, r4
 4583 1d94 DFED4D0A 		vldr.32	s1, .L356+40
 4584 1d98 FFF7FEFF 		bl	buffer_append_float32
 4585              	.LVL389:
 4586              		.loc 1 179 0
 4587 1d9c FFF7FEFF 		bl	mc_interface_get_duty_cycle_now
 4588              	.LVL390:
 4589 1da0 17A9     		add	r1, sp, #92
 4590 1da2 2046     		mov	r0, r4
 4591 1da4 DFED410A 		vldr.32	s1, .L356+8
 4592 1da8 FFF7FEFF 		bl	buffer_append_float16
 4593              	.LVL391:
 4594              		.loc 1 180 0
 4595 1dac FFF7FEFF 		bl	mc_interface_get_rpm
 4596              	.LVL392:
 4597 1db0 17A9     		add	r1, sp, #92
 4598 1db2 F0EE680A 		vmov.f32	s1, s17
 4599 1db6 2046     		mov	r0, r4
 4600 1db8 FFF7FEFF 		bl	buffer_append_float32
 4601              	.LVL393:
 4602              		.loc 1 181 0
 4603 1dbc 2B8A     		ldrh	r3, [r5, #16]
 4604 1dbe 9FED447A 		vldr.32	s14, .L356+44
 4605 1dc2 9FED440A 		vldr.32	s0, .L356+48
 4606 1dc6 DFED410A 		vldr.32	s1, .L356+40
 4607 1dca 9BB2     		uxth	r3, r3
 4608 1dcc 07EE903A 		vmov	s15, r3	@ int
 4609 1dd0 F8EE677A 		vcvt.f32.u32	s15, s15
 4610 1dd4 17A9     		add	r1, sp, #92
 4611 1dd6 67EE877A 		vmul.f32	s15, s15, s14
 4612 1dda 2046     		mov	r0, r4
 4613 1ddc 27EE800A 		vmul.f32	s0, s15, s0
 4614 1de0 FFF7FEFF 		bl	buffer_append_float16
 4615              	.LVL394:
 4616              		.loc 1 182 0
 4617 1de4 0020     		movs	r0, #0
ARM GAS  C:\Users\euanm\AppData\Local\Temp\ccyKTXNK.s 			page 82


 4618 1de6 FFF7FEFF 		bl	mc_interface_get_amp_hours
 4619              	.LVL395:
 4620 1dea 17A9     		add	r1, sp, #92
 4621 1dec F0EE480A 		vmov.f32	s1, s16
 4622 1df0 2046     		mov	r0, r4
 4623 1df2 FFF7FEFF 		bl	buffer_append_float32
 4624              	.LVL396:
 4625              		.loc 1 183 0
 4626 1df6 0020     		movs	r0, #0
 4627 1df8 FFF7FEFF 		bl	mc_interface_get_amp_hours_charged
 4628              	.LVL397:
 4629 1dfc 17A9     		add	r1, sp, #92
 4630 1dfe F0EE480A 		vmov.f32	s1, s16
 4631 1e02 2046     		mov	r0, r4
 4632 1e04 FFF7FEFF 		bl	buffer_append_float32
 4633              	.LVL398:
 4634              		.loc 1 184 0
 4635 1e08 0020     		movs	r0, #0
 4636 1e0a FFF7FEFF 		bl	mc_interface_get_watt_hours
 4637              	.LVL399:
 4638 1e0e 17A9     		add	r1, sp, #92
 4639 1e10 F0EE480A 		vmov.f32	s1, s16
 4640 1e14 2046     		mov	r0, r4
 4641 1e16 FFF7FEFF 		bl	buffer_append_float32
 4642              	.LVL400:
 4643              		.loc 1 185 0
 4644 1e1a 0020     		movs	r0, #0
 4645 1e1c FFF7FEFF 		bl	mc_interface_get_watt_hours_charged
 4646              	.LVL401:
 4647 1e20 F0EE480A 		vmov.f32	s1, s16
 4648 1e24 17A9     		add	r1, sp, #92
 4649 1e26 2046     		mov	r0, r4
 4650 1e28 FFF7FEFF 		bl	buffer_append_float32
 4651              	.LVL402:
 4652              		.loc 1 186 0
 4653 1e2c 0020     		movs	r0, #0
 4654 1e2e FFF7FEFF 		bl	mc_interface_get_tachometer_value
 4655              	.LVL403:
 4656 1e32 17AA     		add	r2, sp, #92
 4657 1e34 0146     		mov	r1, r0
 4658 1e36 2046     		mov	r0, r4
 4659 1e38 FFF7FEFF 		bl	buffer_append_int32
 4660              	.LVL404:
 4661              		.loc 1 187 0
 4662 1e3c 0020     		movs	r0, #0
 4663 1e3e FFF7FEFF 		bl	mc_interface_get_tachometer_abs_value
 4664              	.LVL405:
 4665 1e42 17AA     		add	r2, sp, #92
 4666 1e44 0146     		mov	r1, r0
 4667 1e46 2046     		mov	r0, r4
 4668 1e48 FFF7FEFF 		bl	buffer_append_int32
 4669              	.LVL406:
 4670              		.loc 1 188 0
 4671 1e4c 179D     		ldr	r5, [sp, #92]
 4672 1e4e 6B1C     		adds	r3, r5, #1
 4673 1e50 1793     		str	r3, [sp, #92]
 4674 1e52 FFF7FEFF 		bl	mc_interface_get_fault
ARM GAS  C:\Users\euanm\AppData\Local\Temp\ccyKTXNK.s 			page 83


 4675              	.LVL407:
 4676              	.LBB173:
 4677              	.LBB174:
 4678              		.loc 1 97 0
 4679 1e56 134B     		ldr	r3, .L356
 4680              	.LBE174:
 4681              	.LBE173:
 4682              		.loc 1 188 0
 4683 1e58 6055     		strb	r0, [r4, r5]
 4684              	.LBB177:
 4685              	.LBB175:
 4686              		.loc 1 97 0
 4687 1e5a 1B68     		ldr	r3, [r3]
 4688              	.LBE175:
 4689              	.LBE177:
 4690              		.loc 1 190 0
 4691 1e5c 1799     		ldr	r1, [sp, #92]
 4692              	.LVL408:
 4693              	.LBB178:
 4694              	.LBB176:
 4695              		.loc 1 97 0
 4696 1e5e 002B     		cmp	r3, #0
 4697 1e60 7EF49CA9 		bne	.L313
 4698 1e64 FEF754B9 		b	.L24
 4699              	.LVL409:
 4700              	.L31:
 4701              	.LBE176:
 4702              	.LBE178:
 4703              		.loc 1 158 0
 4704 1e68 17A9     		add	r1, sp, #92
 4705 1e6a 2046     		mov	r0, r4
 4706 1e6c FFF7FEFF 		bl	buffer_get_uint32
 4707              	.LVL410:
 4708              		.loc 1 159 0
 4709 1e70 1799     		ldr	r1, [sp, #92]
 4710 1e72 C1EB0A02 		rsb	r2, r1, r10
 4711 1e76 2144     		add	r1, r1, r4
 4712 1e78 FFF7FEFF 		bl	flash_helper_write_new_app_data
 4713              	.LVL411:
 4714              	.LBB179:
 4715              	.LBB180:
 4716              		.loc 1 97 0
 4717 1e7c 094A     		ldr	r2, .L356
 4718              	.LBE180:
 4719              	.LBE179:
 4720              		.loc 1 162 0
 4721 1e7e 0A4B     		ldr	r3, .L356+4
 4722              	.LBB183:
 4723              	.LBB181:
 4724              		.loc 1 97 0
 4725 1e80 1268     		ldr	r2, [r2]
 4726              	.LBE181:
 4727              	.LBE183:
 4728              		.loc 1 163 0
 4729 1e82 A0F10900 		sub	r0, #9
 4730              	.LVL412:
 4731 1e86 B0FA80F0 		clz	r0, r0
ARM GAS  C:\Users\euanm\AppData\Local\Temp\ccyKTXNK.s 			page 84


 4732 1e8a 4009     		lsrs	r0, r0, #5
 4733              		.loc 1 162 0
 4734 1e8c 0324     		movs	r4, #3
 4735              	.LVL413:
 4736              		.loc 1 163 0
 4737 1e8e 0221     		movs	r1, #2
 4738 1e90 5870     		strb	r0, [r3, #1]
 4739              	.LVL414:
 4740              		.loc 1 162 0
 4741 1e92 1C70     		strb	r4, [r3]
 4742              		.loc 1 163 0
 4743 1e94 1791     		str	r1, [sp, #92]
 4744              	.LBB184:
 4745              	.LBB182:
 4746              		.loc 1 97 0
 4747 1e96 002A     		cmp	r2, #0
 4748 1e98 3EF43AA9 		beq	.L24
 4749              	.LVL415:
 4750              	.L312:
 4751              		.loc 1 98 0
 4752 1e9c 1846     		mov	r0, r3
 4753 1e9e 9047     		blx	r2
 4754              	.LVL416:
 4755 1ea0 FEF736B9 		b	.L24
 4756              	.L357:
 4757              		.align	2
 4758              	.L356:
 4759 1ea4 00000000 		.word	.LANCHOR9
 4760 1ea8 00000000 		.word	.LANCHOR8
 4761 1eac 00007A44 		.word	1148846080
 4762 1eb0 0050C347 		.word	1203982336
 4763 1eb4 00000000 		.word	ADC_Value
 4764 1eb8 3C361C4C 		.word	1276917308
 4765 1ebc 00401C46 		.word	1176256512
 4766 1ec0 00A05645 		.word	1163304960
 4767 1ec4 0FCF5B3B 		.word	995872527
 4768 1ec8 33938843 		.word	1133024051
 4769 1ecc 0000C842 		.word	1120403456
 4770 1ed0 6740533A 		.word	978534503
 4771 1ed4 D145FF41 		.word	1107248593
 4772              	.LVL417:
 4773              	.L30:
 4774              	.LBE182:
 4775              	.LBE184:
 4776              		.loc 1 148 0
 4777 1ed8 17A9     		add	r1, sp, #92
 4778 1eda 2046     		mov	r0, r4
 4779 1edc FFF7FEFF 		bl	buffer_get_uint32
 4780              	.LVL418:
 4781 1ee0 FFF7FEFF 		bl	flash_helper_erase_new_app
 4782              	.LVL419:
 4783              	.LBB185:
 4784              	.LBB186:
 4785              		.loc 1 97 0
 4786 1ee4 3D4A     		ldr	r2, .L358
 4787              	.LBE186:
 4788              	.LBE185:
ARM GAS  C:\Users\euanm\AppData\Local\Temp\ccyKTXNK.s 			page 85


 4789              		.loc 1 151 0
 4790 1ee6 3E4B     		ldr	r3, .L358+4
 4791              	.LBB189:
 4792              	.LBB187:
 4793              		.loc 1 97 0
 4794 1ee8 1268     		ldr	r2, [r2]
 4795              	.LBE187:
 4796              	.LBE189:
 4797              		.loc 1 152 0
 4798 1eea A0F10900 		sub	r0, #9
 4799              	.LVL420:
 4800 1eee B0FA80F0 		clz	r0, r0
 4801              		.loc 1 151 0
 4802 1ef2 0221     		movs	r1, #2
 4803              		.loc 1 152 0
 4804 1ef4 4009     		lsrs	r0, r0, #5
 4805 1ef6 5870     		strb	r0, [r3, #1]
 4806              	.LVL421:
 4807              		.loc 1 151 0
 4808 1ef8 1970     		strb	r1, [r3]
 4809              		.loc 1 152 0
 4810 1efa 1791     		str	r1, [sp, #92]
 4811              	.LBB190:
 4812              	.LBB188:
 4813              		.loc 1 97 0
 4814 1efc 002A     		cmp	r2, #0
 4815 1efe CDD1     		bne	.L312
 4816 1f00 FEF706B9 		b	.L24
 4817              	.LVL422:
 4818              	.L29:
 4819              	.LBE188:
 4820              	.LBE190:
 4821              		.loc 1 143 0
 4822 1f04 FFF7FEFF 		bl	flash_helper_jump_to_bootloader
 4823              	.LVL423:
 4824              		.loc 1 144 0
 4825 1f08 FEF702B9 		b	.L24
 4826              	.L27:
 4827              	.LBB191:
 4828              	.LBB192:
 4829              		.loc 1 97 0
 4830 1f0c 334B     		ldr	r3, .L358
 4831              	.LBE192:
 4832              	.LBE191:
 4833              		.loc 1 136 0
 4834 1f0e 3448     		ldr	r0, .L358+4
 4835              	.LBB195:
 4836              	.LBB193:
 4837              		.loc 1 97 0
 4838 1f10 1B68     		ldr	r3, [r3]
 4839              	.LBE193:
 4840              	.LBE195:
 4841              		.loc 1 136 0
 4842 1f12 0025     		movs	r5, #0
 4843              		.loc 1 137 0
 4844 1f14 0224     		movs	r4, #2
 4845              	.LVL424:
ARM GAS  C:\Users\euanm\AppData\Local\Temp\ccyKTXNK.s 			page 86


 4846              		.loc 1 138 0
 4847 1f16 3622     		movs	r2, #54
 4848 1f18 0321     		movs	r1, #3
 4849              		.loc 1 136 0
 4850 1f1a 0570     		strb	r5, [r0]
 4851              		.loc 1 137 0
 4852 1f1c 4470     		strb	r4, [r0, #1]
 4853              		.loc 1 138 0
 4854 1f1e 8270     		strb	r2, [r0, #2]
 4855              	.LVL425:
 4856 1f20 1791     		str	r1, [sp, #92]
 4857              	.LBB196:
 4858              	.LBB194:
 4859              		.loc 1 97 0
 4860 1f22 002B     		cmp	r3, #0
 4861 1f24 7EF43BA9 		bne	.L311
 4862 1f28 FEF7F2B8 		b	.L24
 4863              	.LVL426:
 4864              	.L60:
 4865              	.LBE194:
 4866              	.LBE196:
 4867              		.loc 1 1203 0
 4868 1f2c FFF7FEFF 		bl	mc_interface_get_configuration
 4869              	.LVL427:
 4870 1f30 4FF4A072 		mov	r2, #320
 4871 1f34 0146     		mov	r1, r0
 4872 1f36 2B48     		ldr	r0, .L358+8
 4873 1f38 FFF7FEFF 		bl	memcpy
 4874              	.LVL428:
 4875              		.loc 1 1205 0
 4876 1f3c FFF7FEFF 		bl	app_get_configuration
 4877              	.LVL429:
 4878 1f40 18AD     		add	r5, sp, #96
 4879 1f42 0146     		mov	r1, r0
 4880 1f44 F422     		movs	r2, #244
 4881 1f46 2846     		mov	r0, r5
 4882 1f48 FFF7FEFF 		bl	memcpy
 4883              	.LVL430:
 4884              		.loc 1 1207 0
 4885 1f4c 2C7B     		ldrb	r4, [r5, #12]	@ zero_extendqisi2
 4886              	.LVL431:
 4887 1f4e 002C     		cmp	r4, #0
 4888 1f50 40F01084 		bne	.L183
 4889              	.LVL432:
 4890              	.LBB197:
 4891              		.loc 1 1214 0
 4892 1f54 0DF5627B 		add	fp, sp, #904
 4893 1f58 2722     		movs	r2, #39
 4894 1f5a 0123     		movs	r3, #1
 4895              	.LBB198:
 4896              	.LBB199:
 4897              		.loc 1 1219 0
 4898 1f5c DFED228A 		vldr.32	s17, .L358+12
 4899              	.LBB200:
 4900              	.LBB201:
 4901              	.LBB202:
 4902              	.LBB203:
ARM GAS  C:\Users\euanm\AppData\Local\Temp\ccyKTXNK.s 			page 87


 4903              		.file 4 "ChibiOS_3.0.2/os/rt/include/chvt.h"
 4904              		.loc 4 231 0
 4905 1f60 224E     		ldr	r6, .L358+16
 4906              	.LVL433:
 4907              	.LBE203:
 4908              	.LBE202:
 4909              	.LBE201:
 4910              	.LBE200:
 4911              	.LBE199:
 4912              	.LBE198:
 4913              		.loc 1 1214 0
 4914 1f62 8BF80020 		strb	r2, [fp]
 4915              	.LVL434:
 4916 1f66 1793     		str	r3, [sp, #92]
 4917              	.LBB211:
 4918              	.LBB208:
 4919              		.loc 1 1219 0
 4920 1f68 B7EE008A 		vmov.f32	s16, #1.0e+0
 4921              	.LVL435:
 4922              	.L148:
 4923              		.loc 1 1217 0
 4924 1f6c 2046     		mov	r0, r4
 4925 1f6e FFF7FEFF 		bl	comm_can_get_status_msg_index
 4926              	.LVL436:
 4927              		.loc 1 1219 0
 4928 1f72 0268     		ldr	r2, [r0]
 4929 1f74 002A     		cmp	r2, #0
 4930              	.LBE208:
 4931              		.loc 1 1216 0
 4932 1f76 04F10104 		add	r4, r4, #1
 4933              	.LVL437:
 4934              	.LBB209:
 4935              		.loc 1 1219 0
 4936 1f7a 0EDB     		blt	.L146
 4937              		.loc 1 1219 0 is_stmt 0 discriminator 1
 4938 1f7c 4168     		ldr	r1, [r0, #4]
 4939              	.LBB207:
 4940              	.LBB206:
 4941              	.LBB205:
 4942              	.LBB204:
 4943              		.loc 4 231 0 is_stmt 1 discriminator 1
 4944 1f7e B36A     		ldr	r3, [r6, #40]
 4945              	.LVL438:
 4946              	.LBE204:
 4947              	.LBE205:
 4948              	.LBE206:
 4949              	.LBE207:
 4950              		.loc 1 1219 0 discriminator 1
 4951 1f80 5B1A     		subs	r3, r3, r1
 4952 1f82 07EE903A 		vmov	s15, r3	@ int
 4953 1f86 F8EE677A 		vcvt.f32.u32	s15, s15
 4954 1f8a 87EEA87A 		vdiv.f32	s14, s15, s17
 4955 1f8e B4EEC87A 		vcmpe.f32	s14, s16
 4956 1f92 F1EE10FA 		vmrs	APSR_nzcv, FPSCR
 4957 1f96 00F10587 		bmi	.L332
 4958              	.LVL439:
 4959              	.L146:
ARM GAS  C:\Users\euanm\AppData\Local\Temp\ccyKTXNK.s 			page 88


 4960              	.LBE209:
 4961              		.loc 1 1216 0 discriminator 2
 4962 1f9a 032C     		cmp	r4, #3
 4963 1f9c E6D1     		bne	.L148
 4964              	.LBE211:
 4965              		.loc 1 1208 0
 4966 1f9e 0124     		movs	r4, #1
 4967              	.LVL440:
 4968              	.L145:
 4969              	.LBE197:
 4970              		.loc 1 1225 0
 4971 1fa0 1048     		ldr	r0, .L358+8
 4972              		.loc 1 1233 0
 4973 1fa2 DFF84C90 		ldr	r9, .L358+20
 4974              		.loc 1 1225 0
 4975 1fa6 FFF7FEFF 		bl	conf_general_store_mc_configuration
 4976              	.LVL441:
 4977              		.loc 1 1226 0
 4978 1faa 0E48     		ldr	r0, .L358+8
 4979 1fac FFF7FEFF 		bl	mc_interface_set_configuration
 4980              	.LVL442:
 4981              		.loc 1 1228 0
 4982 1fb0 2846     		mov	r0, r5
 4983 1fb2 FFF7FEFF 		bl	conf_general_store_app_configuration
 4984              	.LVL443:
 4985              		.loc 1 1229 0
 4986 1fb6 2846     		mov	r0, r5
 4987 1fb8 FFF7FEFF 		bl	app_set_configuration
 4988              	.LVL444:
 4989              		.loc 1 1231 0
 4990 1fbc 95ED020A 		vldr.32	s0, [r5, #8]
 4991 1fc0 6868     		ldr	r0, [r5, #4]
 4992 1fc2 FFF7FEFF 		bl	timeout_configure
 4993              	.LVL445:
 4994              		.loc 1 1233 0
 4995 1fc6 0023     		movs	r3, #0
 4996 1fc8 89F80030 		strb	r3, [r9]
 4997              	.LVL446:
 4998              	.L144:
 4999              	.LBE268:
 5000              		.loc 1 1315 0
 5001 1fcc 002C     		cmp	r4, #0
 5002 1fce 3EF49FA8 		beq	.L24
 5003 1fd2 DFF80880 		ldr	r8, .L358
 5004              	.LVL447:
 5005 1fd6 034E     		ldr	r6, .L358+8
 5006 1fd8 12E0     		b	.L161
 5007              	.L359:
 5008 1fda 00BF     		.align	2
 5009              	.L358:
 5010 1fdc 00000000 		.word	.LANCHOR9
 5011 1fe0 00000000 		.word	.LANCHOR8
 5012 1fe4 00000000 		.word	.LANCHOR12
 5013 1fe8 00401C46 		.word	1176256512
 5014 1fec 00000000 		.word	ch
 5015 1ff0 00000000 		.word	.LANCHOR11
 5016              	.LVL448:
ARM GAS  C:\Users\euanm\AppData\Local\Temp\ccyKTXNK.s 			page 89


 5017              	.L236:
 5018 1ff4 DFF88083 		ldr	r8, .L360+20
 5019 1ff8 DA4E     		ldr	r6, .L360
 5020              	.LVL449:
 5021 1ffa DFF88093 		ldr	r9, .L360+24
 5022 1ffe 18AD     		add	r5, sp, #96
 5023              	.LVL450:
 5024              	.L161:
 5025              		.loc 1 1316 0
 5026 2000 FFF7FEFF 		bl	app_get_configuration
 5027              	.LVL451:
 5028 2004 F422     		movs	r2, #244
 5029 2006 0146     		mov	r1, r0
 5030 2008 2846     		mov	r0, r5
 5031 200a FFF7FEFF 		bl	memcpy
 5032              	.LVL452:
 5033              		.loc 1 1317 0
 5034 200e FFF7FEFF 		bl	mc_interface_get_configuration
 5035              	.LVL453:
 5036 2012 4FF4A072 		mov	r2, #320
 5037 2016 0146     		mov	r1, r0
 5038 2018 D248     		ldr	r0, .L360
 5039              		.loc 1 1320 0
 5040 201a D34C     		ldr	r4, .L360+4
 5041              		.loc 1 1342 0
 5042 201c DFEDD38A 		vldr.32	s17, .L360+8
 5043              		.loc 1 1366 0
 5044 2020 9FEDD39A 		vldr.32	s18, .L360+12
 5045              		.loc 1 1317 0
 5046 2024 FFF7FEFF 		bl	memcpy
 5047              	.LVL454:
 5048              		.loc 1 1322 0
 5049 2028 2B7D     		ldrb	r3, [r5, #20]	@ zero_extendqisi2
 5050              		.loc 1 1329 0
 5051 202a D6ED077A 		vldr.32	s15, [r6, #28]
 5052              		.loc 1 1321 0
 5053 202e 99F80020 		ldrb	r2, [r9]	@ zero_extendqisi2
 5054 2032 6270     		strb	r2, [r4, #1]
 5055              		.loc 1 1322 0
 5056 2034 063B     		subs	r3, r3, #6
 5057 2036 012B     		cmp	r3, #1
 5058              		.loc 1 1329 0
 5059 2038 FDEEE77A 		vcvt.s32.f32	s15, s15
 5060              		.loc 1 1323 0
 5061 203c 94BF     		ite	ls
 5062 203e 95F88030 		ldrbls	r3, [r5, #128]	@ zero_extendqisi2
 5063              		.loc 1 1325 0
 5064 2042 2B7E     		ldrbhi	r3, [r5, #24]	@ zero_extendqisi2
 5065              		.loc 1 1329 0
 5066 2044 CDED007A 		vstr.32	s15, [sp]	@ int
 5067              		.loc 1 1320 0
 5068 2048 2621     		movs	r1, #38
 5069              		.loc 1 1321 0
 5070 204a 0222     		movs	r2, #2
 5071              		.loc 1 1325 0
 5072 204c A370     		strb	r3, [r4, #2]
 5073              		.loc 1 1328 0
ARM GAS  C:\Users\euanm\AppData\Local\Temp\ccyKTXNK.s 			page 90


 5074 204e 337E     		ldrb	r3, [r6, #24]	@ zero_extendqisi2
 5075              		.loc 1 1321 0
 5076 2050 1792     		str	r2, [sp, #92]
 5077              		.loc 1 1320 0
 5078 2052 2170     		strb	r1, [r4]
 5079              		.loc 1 1328 0
 5080 2054 E370     		strb	r3, [r4, #3]
 5081              		.loc 1 1329 0
 5082 2056 BDF90010 		ldrsh	r1, [sp]
 5083 205a C348     		ldr	r0, .L360+4
 5084              		.loc 1 1328 0
 5085 205c 0423     		movs	r3, #4
 5086              		.loc 1 1329 0
 5087 205e 17AA     		add	r2, sp, #92
 5088              		.loc 1 1328 0
 5089 2060 1793     		str	r3, [sp, #92]
 5090              		.loc 1 1329 0
 5091 2062 FFF7FEFF 		bl	buffer_append_int16
 5092              	.LVL455:
 5093              		.loc 1 1331 0
 5094 2066 D6ED017A 		vldr.32	s15, [r6, #4]
 5095 206a BF48     		ldr	r0, .L360+4
 5096 206c B2EE048A 		vmov.f32	s16, #1.0e+1
 5097 2070 67EE887A 		vmul.f32	s15, s15, s16
 5098 2074 17AA     		add	r2, sp, #92
 5099 2076 FDEEE77A 		vcvt.s32.f32	s15, s15
 5100 207a CDED007A 		vstr.32	s15, [sp]	@ int
 5101 207e BDF90010 		ldrsh	r1, [sp]
 5102 2082 FFF7FEFF 		bl	buffer_append_int16
 5103              	.LVL456:
 5104              		.loc 1 1332 0
 5105 2086 D6ED037A 		vldr.32	s15, [r6, #12]
 5106 208a B748     		ldr	r0, .L360+4
 5107 208c 67EE887A 		vmul.f32	s15, s15, s16
 5108 2090 17AA     		add	r2, sp, #92
 5109 2092 FDEEE77A 		vcvt.s32.f32	s15, s15
 5110 2096 CDED007A 		vstr.32	s15, [sp]	@ int
 5111 209a BDF90010 		ldrsh	r1, [sp]
 5112 209e FFF7FEFF 		bl	buffer_append_int16
 5113              	.LVL457:
 5114              		.loc 1 1333 0
 5115 20a2 D6ED027A 		vldr.32	s15, [r6, #8]
 5116 20a6 B048     		ldr	r0, .L360+4
 5117 20a8 67EE887A 		vmul.f32	s15, s15, s16
 5118 20ac 17AA     		add	r2, sp, #92
 5119 20ae FDEEE77A 		vcvt.s32.f32	s15, s15
 5120 20b2 CDED007A 		vstr.32	s15, [sp]	@ int
 5121 20b6 BDF90010 		ldrsh	r1, [sp]
 5122 20ba FFF7FEFF 		bl	buffer_append_int16
 5123              	.LVL458:
 5124              		.loc 1 1334 0
 5125 20be D6ED047A 		vldr.32	s15, [r6, #16]
 5126 20c2 A948     		ldr	r0, .L360+4
 5127 20c4 67EE887A 		vmul.f32	s15, s15, s16
 5128 20c8 17AA     		add	r2, sp, #92
 5129 20ca FDEEE77A 		vcvt.s32.f32	s15, s15
 5130 20ce CDED007A 		vstr.32	s15, [sp]	@ int
ARM GAS  C:\Users\euanm\AppData\Local\Temp\ccyKTXNK.s 			page 91


 5131 20d2 BDF90010 		ldrsh	r1, [sp]
 5132 20d6 FFF7FEFF 		bl	buffer_append_int16
 5133              	.LVL459:
 5134              		.loc 1 1336 0
 5135 20da 2B7D     		ldrb	r3, [r5, #20]	@ zero_extendqisi2
 5136              		.loc 1 1339 0
 5137 20dc A248     		ldr	r0, .L360+4
 5138              		.loc 1 1336 0
 5139 20de 063B     		subs	r3, r3, #6
 5140 20e0 012B     		cmp	r3, #1
 5141              		.loc 1 1337 0
 5142 20e2 94BF     		ite	ls
 5143 20e4 95ED237A 		vldrls.32	s14, [r5, #140]
 5144              		.loc 1 1339 0
 5145 20e8 95ED0D7A 		vldrhi.32	s14, [r5, #52]
 5146 20ec C7EE087A 		vdiv.f32	s15, s14, s16
 5147 20f0 17AA     		add	r2, sp, #92
 5148              		.loc 1 1350 0
 5149 20f2 9FEDA08A 		vldr.32	s16, .L360+16
 5150              		.loc 1 1339 0
 5151 20f6 FDEEE77A 		vcvt.s32.f32	s15, s15
 5152 20fa CDED007A 		vstr.32	s15, [sp]	@ int
 5153 20fe BDF90010 		ldrsh	r1, [sp]
 5154 2102 FFF7FEFF 		bl	buffer_append_int16
 5155              	.LVL460:
 5156              		.loc 1 1342 0
 5157 2106 D6ED0E7A 		vldr.32	s15, [r6, #56]
 5158 210a 9748     		ldr	r0, .L360+4
 5159 210c 67EEA87A 		vmul.f32	s15, s15, s17
 5160 2110 17AA     		add	r2, sp, #92
 5161 2112 FDEEE77A 		vcvt.s32.f32	s15, s15
 5162 2116 CDED007A 		vstr.32	s15, [sp]	@ int
 5163 211a BDF90010 		ldrsh	r1, [sp]
 5164 211e FFF7FEFF 		bl	buffer_append_int16
 5165              	.LVL461:
 5166              		.loc 1 1343 0
 5167 2122 D6ED0F7A 		vldr.32	s15, [r6, #60]
 5168 2126 9048     		ldr	r0, .L360+4
 5169 2128 67EEA87A 		vmul.f32	s15, s15, s17
 5170 212c 17AA     		add	r2, sp, #92
 5171 212e FDEEE77A 		vcvt.s32.f32	s15, s15
 5172 2132 CDED007A 		vstr.32	s15, [sp]	@ int
 5173 2136 BDF90010 		ldrsh	r1, [sp]
 5174 213a FFF7FEFF 		bl	buffer_append_int16
 5175              	.LVL462:
 5176              		.loc 1 1344 0
 5177 213e D6ED117A 		vldr.32	s15, [r6, #68]
 5178 2142 8948     		ldr	r0, .L360+4
 5179 2144 67EEA87A 		vmul.f32	s15, s15, s17
 5180 2148 17AA     		add	r2, sp, #92
 5181 214a FDEEE77A 		vcvt.s32.f32	s15, s15
 5182 214e CDED007A 		vstr.32	s15, [sp]	@ int
 5183 2152 BDF90010 		ldrsh	r1, [sp]
 5184 2156 FFF7FEFF 		bl	buffer_append_int16
 5185              	.LVL463:
 5186              		.loc 1 1345 0
 5187 215a D6ED127A 		vldr.32	s15, [r6, #72]
ARM GAS  C:\Users\euanm\AppData\Local\Temp\ccyKTXNK.s 			page 92


 5188 215e 8248     		ldr	r0, .L360+4
 5189 2160 67EEA87A 		vmul.f32	s15, s15, s17
 5190 2164 17AA     		add	r2, sp, #92
 5191 2166 FDEEE77A 		vcvt.s32.f32	s15, s15
 5192 216a CDED007A 		vstr.32	s15, [sp]	@ int
 5193 216e BDF90010 		ldrsh	r1, [sp]
 5194 2172 FFF7FEFF 		bl	buffer_append_int16
 5195              	.LVL464:
 5196              		.loc 1 1350 0
 5197 2176 D5ED2F7A 		vldr.32	s15, [r5, #188]
 5198              		.loc 1 1347 0
 5199 217a 179B     		ldr	r3, [sp, #92]
 5200 217c 2A7D     		ldrb	r2, [r5, #20]	@ zero_extendqisi2
 5201              		.loc 1 1349 0
 5202 217e 95F8B870 		ldrb	r7, [r5, #184]	@ zero_extendqisi2
 5203              		.loc 1 1347 0
 5204 2182 E254     		strb	r2, [r4, r3]
 5205              		.loc 1 1350 0
 5206 2184 67EE887A 		vmul.f32	s15, s15, s16
 5207              		.loc 1 1349 0
 5208 2188 E018     		adds	r0, r4, r3
 5209              		.loc 1 1350 0
 5210 218a FDEEE77A 		vcvt.s32.f32	s15, s15
 5211              		.loc 1 1349 0
 5212 218e 0233     		adds	r3, r3, #2
 5213              		.loc 1 1350 0
 5214 2190 CDED007A 		vstr.32	s15, [sp]	@ int
 5215 2194 BDF90010 		ldrsh	r1, [sp]
 5216              		.loc 1 1349 0
 5217 2198 4770     		strb	r7, [r0, #1]
 5218              		.loc 1 1350 0
 5219 219a 17AA     		add	r2, sp, #92
 5220 219c 7248     		ldr	r0, .L360+4
 5221              		.loc 1 1349 0
 5222 219e 1793     		str	r3, [sp, #92]
 5223              		.loc 1 1350 0
 5224 21a0 FFF7FEFF 		bl	buffer_append_int16
 5225              	.LVL465:
 5226              		.loc 1 1351 0
 5227 21a4 D5ED307A 		vldr.32	s15, [r5, #192]
 5228 21a8 6F48     		ldr	r0, .L360+4
 5229 21aa 67EE887A 		vmul.f32	s15, s15, s16
 5230 21ae 17AA     		add	r2, sp, #92
 5231 21b0 FDEEE77A 		vcvt.s32.f32	s15, s15
 5232 21b4 CDED007A 		vstr.32	s15, [sp]	@ int
 5233 21b8 BDF90010 		ldrsh	r1, [sp]
 5234 21bc FFF7FEFF 		bl	buffer_append_int16
 5235              	.LVL466:
 5236              		.loc 1 1352 0
 5237 21c0 D5ED317A 		vldr.32	s15, [r5, #196]
 5238 21c4 6848     		ldr	r0, .L360+4
 5239 21c6 67EE887A 		vmul.f32	s15, s15, s16
 5240 21ca 17AA     		add	r2, sp, #92
 5241 21cc FDEEE77A 		vcvt.s32.f32	s15, s15
 5242 21d0 CDED007A 		vstr.32	s15, [sp]	@ int
 5243 21d4 BDF90010 		ldrsh	r1, [sp]
 5244 21d8 FFF7FEFF 		bl	buffer_append_int16
ARM GAS  C:\Users\euanm\AppData\Local\Temp\ccyKTXNK.s 			page 93


 5245              	.LVL467:
 5246              		.loc 1 1353 0
 5247 21dc D5ED327A 		vldr.32	s15, [r5, #200]
 5248 21e0 6148     		ldr	r0, .L360+4
 5249 21e2 67EE887A 		vmul.f32	s15, s15, s16
 5250 21e6 17AA     		add	r2, sp, #92
 5251 21e8 FDEEE77A 		vcvt.s32.f32	s15, s15
 5252 21ec CDED007A 		vstr.32	s15, [sp]	@ int
 5253 21f0 BDF90010 		ldrsh	r1, [sp]
 5254 21f4 FFF7FEFF 		bl	buffer_append_int16
 5255              	.LVL468:
 5256              		.loc 1 1354 0
 5257 21f8 D5ED337A 		vldr.32	s15, [r5, #204]
 5258 21fc 5A48     		ldr	r0, .L360+4
 5259 21fe 67EE887A 		vmul.f32	s15, s15, s16
 5260 2202 17AA     		add	r2, sp, #92
 5261 2204 FDEEE77A 		vcvt.s32.f32	s15, s15
 5262 2208 CDED007A 		vstr.32	s15, [sp]	@ int
 5263 220c BDF90010 		ldrsh	r1, [sp]
 5264 2210 FFF7FEFF 		bl	buffer_append_int16
 5265              	.LVL469:
 5266              		.loc 1 1355 0
 5267 2214 D5ED347A 		vldr.32	s15, [r5, #208]
 5268 2218 5348     		ldr	r0, .L360+4
 5269 221a 67EE887A 		vmul.f32	s15, s15, s16
 5270 221e 17AA     		add	r2, sp, #92
 5271 2220 FDEEE77A 		vcvt.s32.f32	s15, s15
 5272 2224 CDED007A 		vstr.32	s15, [sp]	@ int
 5273 2228 BDF90010 		ldrsh	r1, [sp]
 5274 222c FFF7FEFF 		bl	buffer_append_int16
 5275              	.LVL470:
 5276              		.loc 1 1356 0
 5277 2230 D5ED357A 		vldr.32	s15, [r5, #212]
 5278 2234 4C48     		ldr	r0, .L360+4
 5279 2236 67EEA87A 		vmul.f32	s15, s15, s17
 5280 223a 17AA     		add	r2, sp, #92
 5281 223c FDEEE77A 		vcvt.s32.f32	s15, s15
 5282 2240 CDED007A 		vstr.32	s15, [sp]	@ int
 5283 2244 BDF90010 		ldrsh	r1, [sp]
 5284 2248 FFF7FEFF 		bl	buffer_append_int16
 5285              	.LVL471:
 5286              		.loc 1 1357 0
 5287 224c D5ED367A 		vldr.32	s15, [r5, #216]
 5288 2250 4548     		ldr	r0, .L360+4
 5289 2252 67EE887A 		vmul.f32	s15, s15, s16
 5290 2256 17AA     		add	r2, sp, #92
 5291 2258 FDEEE77A 		vcvt.s32.f32	s15, s15
 5292 225c CDED007A 		vstr.32	s15, [sp]	@ int
 5293 2260 BDF90010 		ldrsh	r1, [sp]
 5294 2264 FFF7FEFF 		bl	buffer_append_int16
 5295              	.LVL472:
 5296              		.loc 1 1358 0
 5297 2268 D5ED377A 		vldr.32	s15, [r5, #220]
 5298 226c 3E48     		ldr	r0, .L360+4
 5299 226e 67EE887A 		vmul.f32	s15, s15, s16
 5300 2272 17AA     		add	r2, sp, #92
 5301 2274 FDEEE77A 		vcvt.s32.f32	s15, s15
ARM GAS  C:\Users\euanm\AppData\Local\Temp\ccyKTXNK.s 			page 94


 5302 2278 CDED007A 		vstr.32	s15, [sp]	@ int
 5303 227c BDF90010 		ldrsh	r1, [sp]
 5304 2280 FFF7FEFF 		bl	buffer_append_int16
 5305              	.LVL473:
 5306              		.loc 1 1359 0
 5307 2284 D5ED387A 		vldr.32	s15, [r5, #224]
 5308 2288 3748     		ldr	r0, .L360+4
 5309 228a 67EE887A 		vmul.f32	s15, s15, s16
 5310 228e 17AA     		add	r2, sp, #92
 5311 2290 FDEEE77A 		vcvt.s32.f32	s15, s15
 5312 2294 CDED007A 		vstr.32	s15, [sp]	@ int
 5313 2298 BDF90010 		ldrsh	r1, [sp]
 5314 229c FFF7FEFF 		bl	buffer_append_int16
 5315              	.LVL474:
 5316              		.loc 1 1360 0
 5317 22a0 D5ED397A 		vldr.32	s15, [r5, #228]
 5318 22a4 3048     		ldr	r0, .L360+4
 5319 22a6 67EE887A 		vmul.f32	s15, s15, s16
 5320 22aa 17AA     		add	r2, sp, #92
 5321 22ac FDEEE77A 		vcvt.s32.f32	s15, s15
 5322 22b0 CDED007A 		vstr.32	s15, [sp]	@ int
 5323 22b4 BDF90010 		ldrsh	r1, [sp]
 5324 22b8 FFF7FEFF 		bl	buffer_append_int16
 5325              	.LVL475:
 5326              		.loc 1 1361 0
 5327 22bc D5ED3A7A 		vldr.32	s15, [r5, #232]
 5328 22c0 2948     		ldr	r0, .L360+4
 5329 22c2 67EE887A 		vmul.f32	s15, s15, s16
 5330 22c6 17AA     		add	r2, sp, #92
 5331 22c8 FDEEE77A 		vcvt.s32.f32	s15, s15
 5332 22cc CDED007A 		vstr.32	s15, [sp]	@ int
 5333 22d0 BDF90010 		ldrsh	r1, [sp]
 5334 22d4 FFF7FEFF 		bl	buffer_append_int16
 5335              	.LVL476:
 5336              		.loc 1 1362 0
 5337 22d8 D5ED3B7A 		vldr.32	s15, [r5, #236]
 5338 22dc 2248     		ldr	r0, .L360+4
 5339 22de 27EE888A 		vmul.f32	s16, s15, s16
 5340 22e2 17AA     		add	r2, sp, #92
 5341 22e4 FDEEC87A 		vcvt.s32.f32	s15, s16
 5342 22e8 CDED007A 		vstr.32	s15, [sp]	@ int
 5343 22ec BDF90010 		ldrsh	r1, [sp]
 5344 22f0 FFF7FEFF 		bl	buffer_append_int16
 5345              	.LVL477:
 5346              		.loc 1 1363 0
 5347 22f4 D5ED3C7A 		vldr.32	s15, [r5, #240]
 5348 22f8 1B48     		ldr	r0, .L360+4
 5349 22fa 67EEA88A 		vmul.f32	s17, s15, s17
 5350 22fe 17AA     		add	r2, sp, #92
 5351 2300 FDEEE87A 		vcvt.s32.f32	s15, s17
 5352 2304 CDED007A 		vstr.32	s15, [sp]	@ int
 5353 2308 BDF90010 		ldrsh	r1, [sp]
 5354 230c FFF7FEFF 		bl	buffer_append_int16
 5355              	.LVL478:
 5356              		.loc 1 1366 0
 5357 2310 D6ED3D7A 		vldr.32	s15, [r6, #244]
 5358              		.loc 1 1365 0
ARM GAS  C:\Users\euanm\AppData\Local\Temp\ccyKTXNK.s 			page 95


 5359 2314 179B     		ldr	r3, [sp, #92]
 5360 2316 96F80421 		ldrb	r2, [r6, #260]	@ zero_extendqisi2
 5361 231a E254     		strb	r2, [r4, r3]
 5362              		.loc 1 1366 0
 5363 231c 67EE897A 		vmul.f32	s15, s15, s18
 5364              		.loc 1 1365 0
 5365 2320 0133     		adds	r3, r3, #1
 5366              		.loc 1 1366 0
 5367 2322 FDEEE77A 		vcvt.s32.f32	s15, s15
 5368 2326 1048     		ldr	r0, .L360+4
 5369              		.loc 1 1365 0
 5370 2328 1793     		str	r3, [sp, #92]
 5371              		.loc 1 1366 0
 5372 232a 17EE901A 		vmov	r1, s15	@ int
 5373 232e 17AA     		add	r2, sp, #92
 5374 2330 FFF7FEFF 		bl	buffer_append_int32
 5375              	.LVL479:
 5376              		.loc 1 1367 0
 5377 2334 D6ED3E7A 		vldr.32	s15, [r6, #248]
 5378 2338 0B48     		ldr	r0, .L360+4
 5379 233a 67EE897A 		vmul.f32	s15, s15, s18
 5380 233e 17AA     		add	r2, sp, #92
 5381 2340 FDEEE77A 		vcvt.s32.f32	s15, s15
 5382 2344 17EE901A 		vmov	r1, s15	@ int
 5383 2348 FFF7FEFF 		bl	buffer_append_int32
 5384              	.LVL480:
 5385              		.loc 1 1368 0
 5386 234c D6ED3F7A 		vldr.32	s15, [r6, #252]
 5387 2350 0548     		ldr	r0, .L360+4
 5388 2352 67EE897A 		vmul.f32	s15, s15, s18
 5389 2356 17AA     		add	r2, sp, #92
 5390 2358 FDEEE77A 		vcvt.s32.f32	s15, s15
 5391 235c 17EE901A 		vmov	r1, s15	@ int
 5392 2360 0EE0     		b	.L361
 5393              	.L362:
 5394 2362 00BF     		.align	2
 5395              	.L360:
 5396 2364 00000000 		.word	.LANCHOR12
 5397 2368 00000000 		.word	.LANCHOR8
 5398 236c 0000C842 		.word	1120403456
 5399 2370 00247449 		.word	1232348160
 5400 2374 00007A44 		.word	1148846080
 5401 2378 00000000 		.word	.LANCHOR9
 5402 237c 00000000 		.word	.LANCHOR11
 5403              	.L361:
 5404 2380 FFF7FEFF 		bl	buffer_append_int32
 5405              	.LVL481:
 5406              		.loc 1 1370 0
 5407 2384 1799     		ldr	r1, [sp, #92]
 5408 2386 B278     		ldrb	r2, [r6, #2]	@ zero_extendqisi2
 5409              	.LBB269:
 5410              	.LBB270:
 5411              		.loc 1 97 0
 5412 2388 D8F80030 		ldr	r3, [r8]
 5413              	.LBE270:
 5414              	.LBE269:
 5415              		.loc 1 1370 0
ARM GAS  C:\Users\euanm\AppData\Local\Temp\ccyKTXNK.s 			page 96


 5416 238c 6254     		strb	r2, [r4, r1]
 5417              	.LVL482:
 5418 238e 0131     		adds	r1, r1, #1
 5419              	.LVL483:
 5420 2390 1791     		str	r1, [sp, #92]
 5421              	.LBB272:
 5422              	.LBB271:
 5423              		.loc 1 97 0
 5424 2392 002B     		cmp	r3, #0
 5425 2394 3DF4BCAE 		beq	.L24
 5426              		.loc 1 98 0
 5427 2398 C448     		ldr	r0, .L363
 5428 239a 9847     		blx	r3
 5429              	.LVL484:
 5430              	.LBE271:
 5431              	.LBE272:
 5432              		.loc 1 1374 0
 5433 239c 0DF28C7D 		addw	sp, sp, #1932
 5434              		.cfi_remember_state
 5435              		.cfi_def_cfa_offset 100
 5436              		@ sp needed
 5437 23a0 BDEC108B 		vldm	sp!, {d8-d15}
 5438              		.cfi_restore 80
 5439              		.cfi_restore 81
 5440              		.cfi_restore 82
 5441              		.cfi_restore 83
 5442              		.cfi_restore 84
 5443              		.cfi_restore 85
 5444              		.cfi_restore 86
 5445              		.cfi_restore 87
 5446              		.cfi_restore 88
 5447              		.cfi_restore 89
 5448              		.cfi_restore 90
 5449              		.cfi_restore 91
 5450              		.cfi_restore 92
 5451              		.cfi_restore 93
 5452              		.cfi_restore 94
 5453              		.cfi_restore 95
 5454              		.cfi_def_cfa_offset 36
 5455 23a4 BDE8F08F 		pop	{r4, r5, r6, r7, r8, r9, r10, fp, pc}
 5456              	.LVL485:
 5457              	.L58:
 5458              		.cfi_restore_state
 5459              	.LBB273:
 5460              		.loc 1 869 0
 5461 23a8 0323     		movs	r3, #3
 5462 23aa 1793     		str	r3, [sp, #92]
 5463              		.loc 1 867 0
 5464 23ac 7B78     		ldrb	r3, [r7, #1]	@ zero_extendqisi2
 5465 23ae 0093     		str	r3, [sp]
 5466              	.LVL486:
 5467              		.loc 1 870 0
 5468 23b0 17A9     		add	r1, sp, #92
 5469              		.loc 1 869 0
 5470 23b2 FB78     		ldrb	r3, [r7, #3]	@ zero_extendqisi2
 5471 23b4 1093     		str	r3, [sp, #64]
 5472              		.loc 1 870 0
ARM GAS  C:\Users\euanm\AppData\Local\Temp\ccyKTXNK.s 			page 97


 5473 23b6 2046     		mov	r0, r4
 5474 23b8 B7EE000A 		vmov.f32	s0, #1.0e+0
 5475              		.loc 1 868 0
 5476 23bc 97F802B0 		ldrb	fp, [r7, #2]	@ zero_extendqisi2
 5477              	.LVL487:
 5478              		.loc 1 870 0
 5479 23c0 FFF7FEFF 		bl	buffer_get_float16
 5480              	.LVL488:
 5481              		.loc 1 871 0
 5482 23c4 17A9     		add	r1, sp, #92
 5483              		.loc 1 870 0
 5484 23c6 8DED110A 		vstr.32	s0, [sp, #68]
 5485              	.LVL489:
 5486              		.loc 1 871 0
 5487 23ca 2046     		mov	r0, r4
 5488 23cc B2EE040A 		vmov.f32	s0, #1.0e+1
 5489              	.LVL490:
 5490 23d0 FFF7FEFF 		bl	buffer_get_float16
 5491              	.LVL491:
 5492              		.loc 1 872 0
 5493 23d4 17A9     		add	r1, sp, #92
 5494 23d6 2046     		mov	r0, r4
 5495              		.loc 1 871 0
 5496 23d8 B0EE40AA 		vmov.f32	s20, s0
 5497              	.LVL492:
 5498              		.loc 1 872 0
 5499 23dc B2EE040A 		vmov.f32	s0, #1.0e+1
 5500              	.LVL493:
 5501 23e0 FFF7FEFF 		bl	buffer_get_float16
 5502              	.LVL494:
 5503              		.loc 1 873 0
 5504 23e4 17A9     		add	r1, sp, #92
 5505 23e6 2046     		mov	r0, r4
 5506              		.loc 1 872 0
 5507 23e8 F0EE40AA 		vmov.f32	s21, s0
 5508              	.LVL495:
 5509              		.loc 1 873 0
 5510 23ec B2EE040A 		vmov.f32	s0, #1.0e+1
 5511              	.LVL496:
 5512 23f0 FFF7FEFF 		bl	buffer_get_float16
 5513              	.LVL497:
 5514              		.loc 1 874 0
 5515 23f4 17A9     		add	r1, sp, #92
 5516 23f6 2046     		mov	r0, r4
 5517              		.loc 1 873 0
 5518 23f8 B0EE40BA 		vmov.f32	s22, s0
 5519              	.LVL498:
 5520              		.loc 1 874 0
 5521 23fc B2EE040A 		vmov.f32	s0, #1.0e+1
 5522              	.LVL499:
 5523 2400 FFF7FEFF 		bl	buffer_get_float16
 5524              	.LVL500:
 5525              		.loc 1 875 0
 5526 2404 17A9     		add	r1, sp, #92
 5527              		.loc 1 874 0
 5528 2406 F0EE40BA 		vmov.f32	s23, s0
 5529              	.LVL501:
ARM GAS  C:\Users\euanm\AppData\Local\Temp\ccyKTXNK.s 			page 98


 5530              		.loc 1 875 0
 5531 240a 2046     		mov	r0, r4
 5532 240c 9FEDA80A 		vldr.32	s0, .L363+4
 5533              	.LVL502:
 5534 2410 FFF7FEFF 		bl	buffer_get_float16
 5535              	.LVL503:
 5536              		.loc 1 877 0
 5537 2414 179A     		ldr	r2, [sp, #92]
 5538 2416 A35C     		ldrb	r3, [r4, r2]	@ zero_extendqisi2
 5539 2418 0E93     		str	r3, [sp, #56]
 5540 241a 0132     		adds	r2, r2, #1
 5541              		.loc 1 875 0
 5542 241c B0EE40DA 		vmov.f32	s26, s0
 5543              	.LVL504:
 5544              		.loc 1 877 0
 5545 2420 1792     		str	r2, [sp, #92]
 5546              		.loc 1 879 0
 5547 2422 002B     		cmp	r3, #0
 5548 2424 40F03D84 		bne	.L333
 5549              		.loc 1 878 0
 5550 2428 9FEDA2CA 		vldr.32	s24, .L363+8
 5551 242c B0EE4CEA 		vmov.f32	s28, s24
 5552 2430 F0EE4CDA 		vmov.f32	s27, s24
 5553 2434 8DED0BCA 		vstr.32	s24, [sp, #44]
 5554 2438 8DED0ACA 		vstr.32	s24, [sp, #40]
 5555 243c 8DED09CA 		vstr.32	s24, [sp, #36]
 5556 2440 8DED08CA 		vstr.32	s24, [sp, #32]
 5557 2444 8DED07CA 		vstr.32	s24, [sp, #28]
 5558 2448 8DED06CA 		vstr.32	s24, [sp, #24]
 5559 244c 8DED05CA 		vstr.32	s24, [sp, #20]
 5560 2450 8DED04CA 		vstr.32	s24, [sp, #16]
 5561 2454 8DED03CA 		vstr.32	s24, [sp, #12]
 5562 2458 8DED02CA 		vstr.32	s24, [sp, #8]
 5563 245c 8DED01CA 		vstr.32	s24, [sp, #4]
 5564              	.LVL505:
 5565              	.L81:
 5566              		.loc 1 896 0
 5567 2460 A35C     		ldrb	r3, [r4, r2]	@ zero_extendqisi2
 5568 2462 0F93     		str	r3, [sp, #60]
 5569 2464 1946     		mov	r1, r3
 5570              	.LVL506:
 5571 2466 531C     		adds	r3, r2, #1
 5572              		.loc 1 898 0
 5573 2468 0029     		cmp	r1, #0
 5574 246a 00F08581 		beq	.L178
 5575              		.loc 1 899 0
 5576 246e E15C     		ldrb	r1, [r4, r3]	@ zero_extendqisi2
 5577              	.LVL507:
 5578 2470 931C     		adds	r3, r2, #2
 5579 2472 0A1C     		adds	r2, r1, #0
 5580 2474 18BF     		it	ne
 5581 2476 0122     		movne	r2, #1
 5582 2478 0C92     		str	r2, [sp, #48]
 5583              	.LVL508:
 5584              	.L82:
 5585              		.loc 1 902 0
 5586 247a E25C     		ldrb	r2, [r4, r3]	@ zero_extendqisi2
ARM GAS  C:\Users\euanm\AppData\Local\Temp\ccyKTXNK.s 			page 99


 5587 247c 1292     		str	r2, [sp, #72]
 5588              	.LVL509:
 5589 247e 0133     		adds	r3, r3, #1
 5590 2480 1793     		str	r3, [sp, #92]
 5591              		.loc 1 904 0
 5592 2482 002A     		cmp	r2, #0
 5593 2484 40F02F83 		bne	.L334
 5594              		.loc 1 903 0
 5595 2488 9FED8A8A 		vldr.32	s16, .L363+8
 5596 248c B0EE48FA 		vmov.f32	s30, s16
 5597 2490 F0EE48EA 		vmov.f32	s29, s16
 5598              	.LVL510:
 5599              	.L83:
 5600              		.loc 1 910 0
 5601 2494 5A1C     		adds	r2, r3, #1
 5602 2496 E15C     		ldrb	r1, [r4, r3]	@ zero_extendqisi2
 5603              		.loc 1 911 0
 5604 2498 A25C     		ldrb	r2, [r4, r2]	@ zero_extendqisi2
 5605 249a 1492     		str	r2, [sp, #80]
 5606 249c 1046     		mov	r0, r2
 5607              		.loc 1 914 0
 5608 249e 0929     		cmp	r1, #9
 5609              		.loc 1 911 0
 5610 24a0 03F10202 		add	r2, r3, #2
 5611              		.loc 1 910 0
 5612 24a4 1391     		str	r1, [sp, #76]
 5613              	.LVL511:
 5614              		.loc 1 911 0
 5615 24a6 1792     		str	r2, [sp, #92]
 5616              		.loc 1 914 0
 5617 24a8 02D1     		bne	.L84
 5618              		.loc 1 914 0 is_stmt 0 discriminator 1
 5619 24aa 0928     		cmp	r0, #9
 5620 24ac 00F06C84 		beq	.L180
 5621              	.L84:
 5622              		.loc 1 915 0 is_stmt 1
 5623 24b0 A25C     		ldrb	r2, [r4, r2]	@ zero_extendqisi2
 5624 24b2 0032     		adds	r2, r2, #0
 5625 24b4 03F10303 		add	r3, r3, #3
 5626 24b8 18BF     		it	ne
 5627 24ba 0122     		movne	r2, #1
 5628              		.loc 1 916 0
 5629 24bc 17A9     		add	r1, sp, #92
 5630              	.LVL512:
 5631 24be 2046     		mov	r0, r4
 5632              	.LVL513:
 5633 24c0 B7EE000A 		vmov.f32	s0, #1.0e+0
 5634              		.loc 1 915 0
 5635 24c4 0D92     		str	r2, [sp, #52]
 5636              	.LVL514:
 5637 24c6 1793     		str	r3, [sp, #92]
 5638              		.loc 1 916 0
 5639 24c8 FFF7FEFF 		bl	buffer_get_float16
 5640              	.LVL515:
 5641              		.loc 1 917 0
 5642 24cc 17A9     		add	r1, sp, #92
 5643 24ce 2046     		mov	r0, r4
ARM GAS  C:\Users\euanm\AppData\Local\Temp\ccyKTXNK.s 			page 100


 5644              		.loc 1 916 0
 5645 24d0 F0EE40FA 		vmov.f32	s31, s0
 5646              	.LVL516:
 5647              		.loc 1 917 0
 5648 24d4 B2EE040A 		vmov.f32	s0, #1.0e+1
 5649              	.LVL517:
 5650 24d8 FFF7FEFF 		bl	buffer_get_float16
 5651              	.LVL518:
 5652              		.loc 1 918 0
 5653 24dc 17A9     		add	r1, sp, #92
 5654 24de 2046     		mov	r0, r4
 5655              		.loc 1 917 0
 5656 24e0 F0EE408A 		vmov.f32	s17, s0
 5657              	.LVL519:
 5658              		.loc 1 918 0
 5659 24e4 B2EE040A 		vmov.f32	s0, #1.0e+1
 5660              	.LVL520:
 5661 24e8 FFF7FEFF 		bl	buffer_get_float16
 5662              	.LVL521:
 5663              		.loc 1 919 0
 5664 24ec 17A9     		add	r1, sp, #92
 5665 24ee 2046     		mov	r0, r4
 5666              		.loc 1 918 0
 5667 24f0 B0EE409A 		vmov.f32	s18, s0
 5668              	.LVL522:
 5669              		.loc 1 919 0
 5670 24f4 B2EE040A 		vmov.f32	s0, #1.0e+1
 5671              	.LVL523:
 5672 24f8 FFF7FEFF 		bl	buffer_get_float16
 5673              	.LVL524:
 5674              		.loc 1 920 0
 5675 24fc 17A9     		add	r1, sp, #92
 5676              		.loc 1 919 0
 5677 24fe F0EE409A 		vmov.f32	s19, s0
 5678              	.LVL525:
 5679              		.loc 1 920 0
 5680 2502 2046     		mov	r0, r4
 5681 2504 B2EE040A 		vmov.f32	s0, #1.0e+1
 5682              	.LVL526:
 5683 2508 FFF7FEFF 		bl	buffer_get_float16
 5684              	.LVL527:
 5685 250c F0EE40CA 		vmov.f32	s25, s0
 5686              	.LVL528:
 5687              	.L85:
 5688              		.loc 1 923 0
 5689 2510 FFF7FEFF 		bl	app_get_configuration
 5690              	.LVL529:
 5691 2514 18AD     		add	r5, sp, #96
 5692 2516 0146     		mov	r1, r0
 5693 2518 F422     		movs	r2, #244
 5694 251a 2846     		mov	r0, r5
 5695 251c FFF7FEFF 		bl	memcpy
 5696              	.LVL530:
 5697              		.loc 1 925 0
 5698 2520 2A7D     		ldrb	r2, [r5, #20]	@ zero_extendqisi2
 5699              		.loc 1 927 0
 5700 2522 072A     		cmp	r2, #7
ARM GAS  C:\Users\euanm\AppData\Local\Temp\ccyKTXNK.s 			page 101


 5701 2524 3DF6F4AD 		bhi	.L24
 5702 2528 DB23     		movs	r3, #219
 5703 252a D340     		lsrs	r3, r3, r2
 5704 252c DB07     		lsls	r3, r3, #31
 5705 252e 7DF5EFAD 		bpl	.L24
 5706              	.LBB213:
 5707              		.loc 1 934 0
 5708 2532 55A8     		add	r0, sp, #340
 5709 2534 FFF7FEFF 		bl	conf_general_read_app_configuration
 5710              	.LVL531:
 5711              		.loc 1 936 0
 5712 2538 FFF7FEFF 		bl	mc_interface_get_configuration
 5713              	.LVL532:
 5714 253c 5E4E     		ldr	r6, .L363+12
 5715              	.LVL533:
 5716 253e 0146     		mov	r1, r0
 5717 2540 4FF4A072 		mov	r2, #320
 5718 2544 3046     		mov	r0, r6
 5719 2546 FFF7FEFF 		bl	memcpy
 5720              	.LVL534:
 5721              		.loc 1 940 0
 5722 254a 92A8     		add	r0, sp, #584
 5723 254c FFF7FEFF 		bl	conf_general_read_mc_configuration
 5724              	.LVL535:
 5725              		.loc 1 944 0
 5726 2550 5C9B     		ldr	r3, [sp, #368]	@ float
 5727              		.loc 1 945 0
 5728 2552 6299     		ldr	r1, [sp, #392]	@ float
 5729              		.loc 1 946 0
 5730 2554 619A     		ldr	r2, [sp, #388]	@ float
 5731              		.loc 1 944 0
 5732 2556 EB61     		str	r3, [r5, #28]	@ float
 5733              		.loc 1 950 0
 5734 2558 789B     		ldr	r3, [sp, #480]	@ float
 5735              		.loc 1 945 0
 5736 255a 6963     		str	r1, [r5, #52]	@ float
 5737              		.loc 1 946 0
 5738 255c 2A63     		str	r2, [r5, #48]	@ float
 5739              		.loc 1 951 0
 5740 255e 7799     		ldr	r1, [sp, #476]	@ float
 5741              		.loc 1 955 0
 5742 2560 849A     		ldr	r2, [sp, #528]	@ float
 5743              		.loc 1 950 0
 5744 2562 C5F88C30 		str	r3, [r5, #140]	@ float
 5745              		.loc 1 956 0
 5746 2566 859B     		ldr	r3, [sp, #532]	@ float
 5747              		.loc 1 951 0
 5748 2568 C5F88810 		str	r1, [r5, #136]	@ float
 5749              		.loc 1 955 0
 5750 256c C5F8BC20 		str	r2, [r5, #188]	@ float
 5751              		.loc 1 957 0
 5752 2570 8699     		ldr	r1, [sp, #536]	@ float
 5753              		.loc 1 958 0
 5754 2572 879A     		ldr	r2, [sp, #540]	@ float
 5755              		.loc 1 956 0
 5756 2574 C5F8C030 		str	r3, [r5, #192]	@ float
 5757              		.loc 1 959 0
ARM GAS  C:\Users\euanm\AppData\Local\Temp\ccyKTXNK.s 			page 102


 5758 2578 889B     		ldr	r3, [sp, #544]	@ float
 5759              		.loc 1 957 0
 5760 257a C5F8C410 		str	r1, [r5, #196]	@ float
 5761              		.loc 1 958 0
 5762 257e C5F8C820 		str	r2, [r5, #200]	@ float
 5763              		.loc 1 960 0
 5764 2582 8999     		ldr	r1, [sp, #548]	@ float
 5765              		.loc 1 961 0
 5766 2584 8A9A     		ldr	r2, [sp, #552]	@ float
 5767              		.loc 1 959 0
 5768 2586 C5F8CC30 		str	r3, [r5, #204]	@ float
 5769              		.loc 1 962 0
 5770 258a 8B9B     		ldr	r3, [sp, #556]	@ float
 5771              		.loc 1 960 0
 5772 258c C5F8D010 		str	r1, [r5, #208]	@ float
 5773              		.loc 1 961 0
 5774 2590 C5F8D420 		str	r2, [r5, #212]	@ float
 5775              		.loc 1 943 0
 5776 2594 9DF86C11 		ldrb	r1, [sp, #364]	@ zero_extendqisi2
 5777              		.loc 1 949 0
 5778 2598 9DF8D421 		ldrb	r2, [sp, #468]	@ zero_extendqisi2
 5779              		.loc 1 962 0
 5780 259c C5F8D830 		str	r3, [r5, #216]	@ float
 5781              		.loc 1 954 0
 5782 25a0 9DF80C32 		ldrb	r3, [sp, #524]	@ zero_extendqisi2
 5783              		.loc 1 949 0
 5784 25a4 85F88020 		strb	r2, [r5, #128]
 5785              		.loc 1 954 0
 5786 25a8 85F8B830 		strb	r3, [r5, #184]
 5787              		.loc 1 943 0
 5788 25ac 2976     		strb	r1, [r5, #24]
 5789              		.loc 1 963 0
 5790 25ae 8C99     		ldr	r1, [sp, #560]	@ float
 5791              		.loc 1 971 0
 5792 25b0 939A     		ldr	r2, [sp, #588]	@ float
 5793              		.loc 1 972 0
 5794 25b2 949B     		ldr	r3, [sp, #592]	@ float
 5795              		.loc 1 971 0
 5796 25b4 7260     		str	r2, [r6, #4]	@ float
 5797              		.loc 1 974 0
 5798 25b6 969A     		ldr	r2, [sp, #600]	@ float
 5799              		.loc 1 963 0
 5800 25b8 C5F8DC10 		str	r1, [r5, #220]	@ float
 5801              		.loc 1 972 0
 5802 25bc B360     		str	r3, [r6, #8]	@ float
 5803              		.loc 1 973 0
 5804 25be 9599     		ldr	r1, [sp, #596]	@ float
 5805              		.loc 1 977 0
 5806 25c0 999B     		ldr	r3, [sp, #612]	@ float
 5807              		.loc 1 974 0
 5808 25c2 3261     		str	r2, [r6, #16]	@ float
 5809              		.loc 1 976 0
 5810 25c4 9DF86022 		ldrb	r2, [sp, #608]	@ zero_extendqisi2
 5811              		.loc 1 979 0
 5812 25c8 9DF84C03 		ldrb	r0, [sp, #844]	@ zero_extendqisi2
 5813              		.loc 1 973 0
 5814 25cc F160     		str	r1, [r6, #12]	@ float
ARM GAS  C:\Users\euanm\AppData\Local\Temp\ccyKTXNK.s 			page 103


 5815              		.loc 1 976 0
 5816 25ce 3276     		strb	r2, [r6, #24]
 5817              		.loc 1 981 0
 5818 25d0 CF99     		ldr	r1, [sp, #828]	@ float
 5819              		.loc 1 982 0
 5820 25d2 D09A     		ldr	r2, [sp, #832]	@ float
 5821              		.loc 1 977 0
 5822 25d4 F361     		str	r3, [r6, #28]	@ float
 5823              		.loc 1 983 0
 5824 25d6 D19B     		ldr	r3, [sp, #836]	@ float
 5825              		.loc 1 979 0
 5826 25d8 86F80401 		strb	r0, [r6, #260]
 5827              		.loc 1 964 0
 5828 25dc DDF834E2 		ldr	lr, [sp, #564]	@ float
 5829              		.loc 1 981 0
 5830 25e0 C6F8F410 		str	r1, [r6, #244]	@ float
 5831              		.loc 1 965 0
 5832 25e4 8E98     		ldr	r0, [sp, #568]	@ float
 5833              		.loc 1 982 0
 5834 25e6 C6F8F820 		str	r2, [r6, #248]	@ float
 5835              		.loc 1 966 0
 5836 25ea 8F99     		ldr	r1, [sp, #572]	@ float
 5837              		.loc 1 983 0
 5838 25ec C6F8FC30 		str	r3, [r6, #252]	@ float
 5839              		.loc 1 967 0
 5840 25f0 909A     		ldr	r2, [sp, #576]	@ float
 5841              		.loc 1 968 0
 5842 25f2 919B     		ldr	r3, [sp, #580]	@ float
 5843              		.loc 1 964 0
 5844 25f4 C5F8E0E0 		str	lr, [r5, #224]	@ float
 5845              		.loc 1 965 0
 5846 25f8 C5F8E400 		str	r0, [r5, #228]	@ float
 5847              		.loc 1 966 0
 5848 25fc C5F8E810 		str	r1, [r5, #232]	@ float
 5849              		.loc 1 967 0
 5850 2600 C5F8EC20 		str	r2, [r5, #236]	@ float
 5851              		.loc 1 968 0
 5852 2604 C5F8F030 		str	r3, [r5, #240]	@ float
 5853              		.loc 1 985 0
 5854 2608 009B     		ldr	r3, [sp]
 5855 260a 002B     		cmp	r3, #0
 5856 260c 40F0E680 		bne	.L86
 5857              		.loc 1 986 0
 5858 2610 DFF8B490 		ldr	r9, .L363+28
 5859 2614 2A7B     		ldrb	r2, [r5, #12]	@ zero_extendqisi2
 5860 2616 89F80030 		strb	r3, [r9]
 5861              	.L87:
 5862              		.loc 1 1112 0
 5863 261a 002A     		cmp	r2, #0
 5864 261c 40F0AF80 		bne	.L182
 5865              	.L304:
 5866              	.LVL536:
 5867              	.LBB214:
 5868              		.loc 1 1119 0
 5869 2620 0DF5627B 		add	fp, sp, #904
 5870              	.LVL537:
 5871 2624 2423     		movs	r3, #36
ARM GAS  C:\Users\euanm\AppData\Local\Temp\ccyKTXNK.s 			page 104


 5872              		.loc 1 1120 0
 5873 2626 99F80020 		ldrb	r2, [r9]	@ zero_extendqisi2
 5874              		.loc 1 1119 0
 5875 262a 8BF80030 		strb	r3, [fp]
 5876              	.LBB215:
 5877              		.loc 1 1122 0
 5878 262e BAF1010F 		cmp	r10, #1
 5879              	.LBE215:
 5880              		.loc 1 1120 0
 5881 2632 4FF00203 		mov	r3, #2
 5882 2636 8BF80120 		strb	r2, [fp, #1]
 5883              	.LVL538:
 5884 263a 1793     		str	r3, [sp, #92]
 5885              	.LBB216:
 5886              		.loc 1 1122 0
 5887 263c 0CD9     		bls	.L141
 5888 263e BA44     		add	r10, r10, r7
 5889              	.LVL539:
 5890 2640 0DF28933 		addw	r3, sp, #905
 5891 2644 C7F10207 		rsb	r7, r7, #2
 5892              	.LVL540:
 5893              	.L140:
 5894              		.loc 1 1123 0 discriminator 3
 5895 2648 3919     		adds	r1, r7, r4
 5896 264a 14F8012F 		ldrb	r2, [r4, #1]!	@ zero_extendqisi2
 5897              	.LVL541:
 5898 264e 03F8012F 		strb	r2, [r3, #1]!
 5899              	.LVL542:
 5900              		.loc 1 1122 0 discriminator 3
 5901 2652 5445     		cmp	r4, r10
 5902              		.loc 1 1123 0 discriminator 3
 5903 2654 1791     		str	r1, [sp, #92]
 5904              		.loc 1 1122 0 discriminator 3
 5905 2656 F7D1     		bne	.L140
 5906              	.LVL543:
 5907              	.L141:
 5908              	.LBE216:
 5909              	.LBB217:
 5910              	.LBB218:
 5911              	.LBB219:
 5912              	.LBB220:
 5913              	.LBB221:
 5914              	.LBB222:
 5915              		.loc 4 231 0
 5916 2658 184E     		ldr	r6, .L363+16
 5917              	.LBE222:
 5918              	.LBE221:
 5919              	.LBE220:
 5920              	.LBE219:
 5921              		.loc 1 1129 0
 5922 265a DFED198A 		vldr.32	s17, .L363+20
 5923              	.LVL544:
 5924              	.LBE218:
 5925              	.LBE217:
 5926              	.LBE214:
 5927              		.loc 1 1069 0
 5928 265e 0024     		movs	r4, #0
ARM GAS  C:\Users\euanm\AppData\Local\Temp\ccyKTXNK.s 			page 105


 5929              	.LBB232:
 5930              	.LBB230:
 5931              	.LBB227:
 5932              		.loc 1 1129 0
 5933 2660 B7EE008A 		vmov.f32	s16, #1.0e+0
 5934              	.LVL545:
 5935              	.L139:
 5936              		.loc 1 1127 0
 5937 2664 2046     		mov	r0, r4
 5938 2666 FFF7FEFF 		bl	comm_can_get_status_msg_index
 5939              	.LVL546:
 5940              		.loc 1 1129 0
 5941 266a 0268     		ldr	r2, [r0]
 5942 266c 002A     		cmp	r2, #0
 5943              	.LBE227:
 5944              		.loc 1 1126 0
 5945 266e 04F10104 		add	r4, r4, #1
 5946              	.LVL547:
 5947              	.LBB228:
 5948              		.loc 1 1129 0
 5949 2672 0EDB     		blt	.L142
 5950              		.loc 1 1129 0 is_stmt 0 discriminator 1
 5951 2674 4168     		ldr	r1, [r0, #4]
 5952              	.LBB226:
 5953              	.LBB225:
 5954              	.LBB224:
 5955              	.LBB223:
 5956              		.loc 4 231 0 is_stmt 1 discriminator 1
 5957 2676 B36A     		ldr	r3, [r6, #40]
 5958              	.LVL548:
 5959              	.LBE223:
 5960              	.LBE224:
 5961              	.LBE225:
 5962              	.LBE226:
 5963              		.loc 1 1129 0 discriminator 1
 5964 2678 5B1A     		subs	r3, r3, r1
 5965 267a 07EE903A 		vmov	s15, r3	@ int
 5966 267e F8EE677A 		vcvt.f32.u32	s15, s15
 5967 2682 87EEA87A 		vdiv.f32	s14, s15, s17
 5968 2686 B4EEC87A 		vcmpe.f32	s14, s16
 5969 268a F1EE10FA 		vmrs	APSR_nzcv, FPSCR
 5970 268e 00F1AB83 		bmi	.L335
 5971              	.LVL549:
 5972              	.L142:
 5973              	.LBE228:
 5974              		.loc 1 1126 0 discriminator 2
 5975 2692 032C     		cmp	r4, #3
 5976 2694 E6D1     		bne	.L139
 5977              	.LBE230:
 5978              		.loc 1 1113 0
 5979 2696 0124     		movs	r4, #1
 5980              	.LVL550:
 5981 2698 72E0     		b	.L137
 5982              	.LVL551:
 5983              	.L57:
 5984              	.LBE232:
 5985              	.LBE213:
ARM GAS  C:\Users\euanm\AppData\Local\Temp\ccyKTXNK.s 			page 106


 5986              		.loc 1 860 0
 5987 269a 0A4B     		ldr	r3, .L363+24
 5988 269c 1B68     		ldr	r3, [r3]
 5989 269e 002B     		cmp	r3, #0
 5990 26a0 3DF436AD 		beq	.L24
 5991              		.loc 1 861 0
 5992 26a4 5146     		mov	r1, r10
 5993 26a6 FDF779BD 		b	.L313
 5994              	.L364:
 5995 26aa 00BF     		.align	2
 5996              	.L363:
 5997 26ac 00000000 		.word	.LANCHOR8
 5998 26b0 CDCCCC3D 		.word	1036831949
 5999 26b4 00000000 		.word	0
 6000 26b8 00000000 		.word	.LANCHOR12
 6001 26bc 00000000 		.word	ch
 6002 26c0 00401C46 		.word	1176256512
 6003 26c4 00000000 		.word	.LANCHOR15
 6004 26c8 00000000 		.word	.LANCHOR11
 6005              	.L61:
 6006              		.loc 1 1237 0
 6007 26cc FFF7FEFF 		bl	app_get_configuration
 6008              	.LVL552:
 6009 26d0 18AD     		add	r5, sp, #96
 6010 26d2 0146     		mov	r1, r0
 6011 26d4 F422     		movs	r2, #244
 6012 26d6 2846     		mov	r0, r5
 6013 26d8 FFF7FEFF 		bl	memcpy
 6014              	.LVL553:
 6015              		.loc 1 1242 0
 6016 26dc 7F78     		ldrb	r7, [r7, #1]	@ zero_extendqisi2
 6017              	.LVL554:
 6018 26de 0123     		movs	r3, #1
 6019              		.loc 1 1244 0
 6020 26e0 022F     		cmp	r7, #2
 6021              		.loc 1 1242 0
 6022 26e2 1793     		str	r3, [sp, #92]
 6023              		.loc 1 1244 0
 6024 26e4 00F02A82 		beq	.L149
 6025              		.loc 1 1244 0 is_stmt 0 discriminator 1
 6026 26e8 67B9     		cbnz	r7, .L308
 6027              		.loc 1 1246 0 is_stmt 1
 6028 26ea FFF7FEFF 		bl	mc_interface_get_configuration
 6029              	.LVL555:
 6030 26ee D14E     		ldr	r6, .L365
 6031              	.LVL556:
 6032 26f0 0146     		mov	r1, r0
 6033 26f2 4FF4A072 		mov	r2, #320
 6034 26f6 3046     		mov	r0, r6
 6035 26f8 FFF7FEFF 		bl	memcpy
 6036              	.LVL557:
 6037              		.loc 1 1248 0
 6038 26fc B378     		ldrb	r3, [r6, #2]	@ zero_extendqisi2
 6039 26fe 002B     		cmp	r3, #0
 6040 2700 40F09082 		bne	.L336
 6041              	.LVL558:
 6042              	.L308:
ARM GAS  C:\Users\euanm\AppData\Local\Temp\ccyKTXNK.s 			page 107


 6043 2704 2B7B     		ldrb	r3, [r5, #12]	@ zero_extendqisi2
 6044              		.loc 1 1306 0
 6045 2706 002B     		cmp	r3, #0
 6046 2708 7DF402AD 		bne	.L24
 6047 270c DFF83483 		ldr	r8, .L365+16
 6048 2710 C84E     		ldr	r6, .L365
 6049              	.L309:
 6050 2712 DFF83493 		ldr	r9, .L365+20
 6051 2716 73E4     		b	.L161
 6052              	.LVL559:
 6053              	.L56:
 6054              		.loc 1 851 0
 6055 2718 C278     		ldrb	r2, [r0, #3]	@ zero_extendqisi2
 6056              		.loc 1 852 0
 6057 271a 0379     		ldrb	r3, [r0, #4]	@ zero_extendqisi2
 6058              		.loc 1 849 0
 6059 271c 4078     		ldrb	r0, [r0, #1]	@ zero_extendqisi2
 6060              		.loc 1 850 0
 6061 271e BE78     		ldrb	r6, [r7, #2]	@ zero_extendqisi2
 6062              	.LVL560:
 6063              		.loc 1 849 0
 6064 2720 E290     		str	r0, [sp, #904]
 6065              		.loc 1 851 0
 6066 2722 0032     		adds	r2, r2, #0
 6067 2724 18BF     		it	ne
 6068 2726 0122     		movne	r2, #1
 6069              		.loc 1 852 0
 6070 2728 0033     		adds	r3, r3, #0
 6071 272a 18BF     		it	ne
 6072 272c 0123     		movne	r3, #1
 6073              		.loc 1 853 0
 6074 272e 17A9     		add	r1, sp, #92
 6075              		.loc 1 852 0
 6076 2730 0425     		movs	r5, #4
 6077              		.loc 1 853 0
 6078 2732 2046     		mov	r0, r4
 6079              		.loc 1 851 0
 6080 2734 8DF89C23 		strb	r2, [sp, #924]
 6081              		.loc 1 852 0
 6082 2738 8DF89D33 		strb	r3, [sp, #925]
 6083              		.loc 1 850 0
 6084 273c E396     		str	r6, [sp, #908]
 6085              		.loc 1 852 0
 6086 273e 1795     		str	r5, [sp, #92]
 6087              		.loc 1 853 0
 6088 2740 FFF7FEFF 		bl	buffer_get_int16
 6089              	.LVL561:
 6090              		.loc 1 854 0
 6091 2744 17A9     		add	r1, sp, #92
 6092              		.loc 1 853 0
 6093 2746 E490     		str	r0, [sp, #912]
 6094              		.loc 1 854 0
 6095 2748 2046     		mov	r0, r4
 6096 274a FFF7FEFF 		bl	buffer_get_int16
 6097              	.LVL562:
 6098              		.loc 1 855 0
 6099 274e 17A9     		add	r1, sp, #92
ARM GAS  C:\Users\euanm\AppData\Local\Temp\ccyKTXNK.s 			page 108


 6100              		.loc 1 854 0
 6101 2750 E590     		str	r0, [sp, #916]
 6102              		.loc 1 855 0
 6103 2752 2046     		mov	r0, r4
 6104 2754 FFF7FEFF 		bl	buffer_get_int16
 6105              	.LVL563:
 6106 2758 E690     		str	r0, [sp, #920]
 6107              		.loc 1 856 0
 6108 275a E2A8     		add	r0, sp, #904
 6109 275c FFF7FEFF 		bl	app_nunchuk_update_output
 6110              	.LVL564:
 6111              		.loc 1 857 0
 6112 2760 FDF7D6BC 		b	.L24
 6113              	.LVL565:
 6114              	.L55:
 6115              		.loc 1 844 0
 6116 2764 8A1E     		subs	r2, r1, #2
 6117 2766 0023     		movs	r3, #0
 6118 2768 811C     		adds	r1, r0, #2
 6119 276a 4078     		ldrb	r0, [r0, #1]	@ zero_extendqisi2
 6120 276c FFF7FEFF 		bl	comm_can_send_buffer
 6121              	.LVL566:
 6122              		.loc 1 845 0
 6123 2770 FDF7CEBC 		b	.L24
 6124              	.LVL567:
 6125              	.L183:
 6126              	.LBE273:
 6127              		.loc 1 127 0
 6128 2774 0024     		movs	r4, #0
 6129 2776 13E4     		b	.L145
 6130              	.LVL568:
 6131              	.L178:
 6132              	.LBB274:
 6133              		.loc 1 897 0
 6134 2778 0F9A     		ldr	r2, [sp, #60]
 6135 277a 0C92     		str	r2, [sp, #48]
 6136 277c 7DE6     		b	.L82
 6137              	.LVL569:
 6138              	.L182:
 6139              	.LBE274:
 6140              		.loc 1 127 0
 6141 277e 0024     		movs	r4, #0
 6142              	.LVL570:
 6143              	.L137:
 6144              	.LBB275:
 6145              	.LBB234:
 6146              		.loc 1 1135 0 discriminator 4
 6147 2780 AC48     		ldr	r0, .L365
 6148 2782 FFF7FEFF 		bl	mc_interface_set_configuration
 6149              	.LVL571:
 6150              		.loc 1 1136 0 discriminator 4
 6151 2786 2846     		mov	r0, r5
 6152 2788 FFF7FEFF 		bl	app_set_configuration
 6153              	.LVL572:
 6154              		.loc 1 1138 0 discriminator 4
 6155 278c 95ED020A 		vldr.32	s0, [r5, #8]
 6156 2790 6868     		ldr	r0, [r5, #4]
ARM GAS  C:\Users\euanm\AppData\Local\Temp\ccyKTXNK.s 			page 109


 6157 2792 FFF7FEFF 		bl	timeout_configure
 6158              	.LVL573:
 6159              		.loc 1 1140 0 discriminator 4
 6160 2796 FFF7FEFF 		bl	timeout_reset
 6161              	.LVL574:
 6162 279a 17E4     		b	.L144
 6163              	.LVL575:
 6164              	.L329:
 6165 279c 9DED920A 		vldr.32	s0, [sp, #584]
 6166 27a0 FDF73DBE 		b	.L71
 6167              	.LVL576:
 6168              	.L328:
 6169 27a4 9DEDE20A 		vldr.32	s0, [sp, #904]
 6170 27a8 FDF7E1BD 		b	.L74
 6171              	.LVL577:
 6172              	.L330:
 6173              	.LBE234:
 6174              		.loc 1 570 0
 6175 27ac FFF7FEFF 		bl	app_get_configuration
 6176              	.LVL578:
 6177 27b0 18AD     		add	r5, sp, #96
 6178 27b2 0146     		mov	r1, r0
 6179 27b4 F422     		movs	r2, #244
 6180 27b6 2846     		mov	r0, r5
 6181 27b8 FFF7FEFF 		bl	memcpy
 6182              	.LVL579:
 6183 27bc FDF755BE 		b	.L69
 6184              	.L327:
 6185              		.loc 1 231 0
 6186 27c0 FFF7FEFF 		bl	mc_interface_release_motor
 6187              	.LVL580:
 6188 27c4 FDF7C1BC 		b	.L51
 6189              	.L331:
 6190              		.loc 1 363 0
 6191 27c8 FFF7FEFF 		bl	mc_interface_get_configuration
 6192              	.LVL581:
 6193 27cc 4FF4A072 		mov	r2, #320
 6194 27d0 0146     		mov	r1, r0
 6195 27d2 9848     		ldr	r0, .L365
 6196 27d4 FFF7FEFF 		bl	memcpy
 6197              	.LVL582:
 6198 27d8 FEF7E4B8 		b	.L67
 6199              	.LVL583:
 6200              	.L86:
 6201              	.LBB235:
 6202              		.loc 1 988 0
 6203 27dc 2B7D     		ldrb	r3, [r5, #20]	@ zero_extendqisi2
 6204              		.loc 1 989 0
 6205 27de 2A7B     		ldrb	r2, [r5, #12]	@ zero_extendqisi2
 6206              		.loc 1 988 0
 6207 27e0 002B     		cmp	r3, #0
 6208 27e2 00F07881 		beq	.L88
 6209              		.loc 1 988 0 is_stmt 0 discriminator 1
 6210 27e6 032B     		cmp	r3, #3
 6211 27e8 00F07581 		beq	.L88
 6212 27ec DFF85892 		ldr	r9, .L365+20
 6213              	.L89:
ARM GAS  C:\Users\euanm\AppData\Local\Temp\ccyKTXNK.s 			page 110


 6214              		.loc 1 994 0 is_stmt 1
 6215 27f0 042B     		cmp	r3, #4
 6216 27f2 00F0AB80 		beq	.L90
 6217              		.loc 1 994 0 is_stmt 0 discriminator 1
 6218 27f6 012B     		cmp	r3, #1
 6219 27f8 00F0A880 		beq	.L90
 6220              		.loc 1 1026 0 is_stmt 1
 6221 27fc 063B     		subs	r3, r3, #6
 6222 27fe 012B     		cmp	r3, #1
 6223 2800 40F2B980 		bls	.L94
 6224              		.loc 1 1052 0
 6225 2804 99F80030 		ldrb	r3, [r9]	@ zero_extendqisi2
 6226 2808 002B     		cmp	r3, #0
 6227 280a 3FF406AF 		beq	.L87
 6228              	.L95:
 6229              		.loc 1 1053 0
 6230 280e CABB     		cbnz	r2, .L109
 6231              	.L100:
 6232              		.loc 1 1054 0
 6233 2810 0E9B     		ldr	r3, [sp, #56]
 6234 2812 002B     		cmp	r3, #0
 6235 2814 00F08181 		beq	.L181
 6236              		.loc 1 1056 0
 6237 2818 DDED017A 		vldr.32	s15, [sp, #4]
 6238              		.loc 1 1067 0
 6239 281c C5ED3ADA 		vstr.32	s27, [r5, #232]
 6240              		.loc 1 1056 0
 6241 2820 C5ED2F7A 		vstr.32	s15, [r5, #188]
 6242              		.loc 1 1057 0
 6243 2824 DDED027A 		vldr.32	s15, [sp, #8]
 6244              		.loc 1 1068 0
 6245 2828 85ED3BEA 		vstr.32	s28, [r5, #236]
 6246              		.loc 1 1057 0
 6247 282c C5ED307A 		vstr.32	s15, [r5, #192]
 6248              		.loc 1 1058 0
 6249 2830 DDED037A 		vldr.32	s15, [sp, #12]
 6250              		.loc 1 1069 0
 6251 2834 85ED3CCA 		vstr.32	s24, [r5, #240]
 6252              		.loc 1 1058 0
 6253 2838 C5ED317A 		vstr.32	s15, [r5, #196]
 6254              		.loc 1 1059 0
 6255 283c DDED047A 		vldr.32	s15, [sp, #16]
 6256 2840 C5ED327A 		vstr.32	s15, [r5, #200]
 6257              		.loc 1 1060 0
 6258 2844 DDED057A 		vldr.32	s15, [sp, #20]
 6259 2848 C5ED337A 		vstr.32	s15, [r5, #204]
 6260              		.loc 1 1061 0
 6261 284c DDED067A 		vldr.32	s15, [sp, #24]
 6262 2850 C5ED347A 		vstr.32	s15, [r5, #208]
 6263              		.loc 1 1062 0
 6264 2854 DDED077A 		vldr.32	s15, [sp, #28]
 6265 2858 C5ED357A 		vstr.32	s15, [r5, #212]
 6266              		.loc 1 1063 0
 6267 285c DDED087A 		vldr.32	s15, [sp, #32]
 6268 2860 C5ED367A 		vstr.32	s15, [r5, #216]
 6269              		.loc 1 1064 0
 6270 2864 DDED097A 		vldr.32	s15, [sp, #36]
ARM GAS  C:\Users\euanm\AppData\Local\Temp\ccyKTXNK.s 			page 111


 6271 2868 C5ED377A 		vstr.32	s15, [r5, #220]
 6272              		.loc 1 1065 0
 6273 286c DDED0A7A 		vldr.32	s15, [sp, #40]
 6274 2870 C5ED387A 		vstr.32	s15, [r5, #224]
 6275              		.loc 1 1066 0
 6276 2874 DDED0B7A 		vldr.32	s15, [sp, #44]
 6277              		.loc 1 1055 0
 6278 2878 0123     		movs	r3, #1
 6279              		.loc 1 1066 0
 6280 287a C5ED397A 		vstr.32	s15, [r5, #228]
 6281              		.loc 1 1055 0
 6282 287e 85F8B830 		strb	r3, [r5, #184]
 6283              		.loc 1 1069 0
 6284 2882 0022     		movs	r2, #0
 6285              	.L109:
 6286              		.loc 1 1073 0
 6287 2884 0F9B     		ldr	r3, [sp, #60]
 6288 2886 1BB1     		cbz	r3, .L110
 6289              		.loc 1 1074 0
 6290 2888 9DF83030 		ldrb	r3, [sp, #48]	@ zero_extendqisi2
 6291 288c 86F80431 		strb	r3, [r6, #260]
 6292              	.L110:
 6293              		.loc 1 1077 0
 6294 2890 129B     		ldr	r3, [sp, #72]
 6295 2892 2BB1     		cbz	r3, .L111
 6296              		.loc 1 1078 0
 6297 2894 C6ED3DEA 		vstr.32	s29, [r6, #244]
 6298              		.loc 1 1079 0
 6299 2898 86ED3EFA 		vstr.32	s30, [r6, #248]
 6300              		.loc 1 1080 0
 6301 289c 86ED3F8A 		vstr.32	s16, [r6, #252]
 6302              	.L111:
 6303              		.loc 1 1083 0
 6304 28a0 1399     		ldr	r1, [sp, #76]
 6305 28a2 0929     		cmp	r1, #9
 6306 28a4 03D0     		beq	.L112
 6307              		.loc 1 1083 0 is_stmt 0 discriminator 1
 6308 28a6 2B78     		ldrb	r3, [r5]	@ zero_extendqisi2
 6309 28a8 8B42     		cmp	r3, r1
 6310 28aa 00F0CF80 		beq	.L113
 6311              	.L112:
 6312              		.loc 1 1084 0 is_stmt 1
 6313 28ae 1499     		ldr	r1, [sp, #80]
 6314 28b0 0929     		cmp	r1, #9
 6315 28b2 03D0     		beq	.L114
 6316              		.loc 1 1084 0 is_stmt 0 discriminator 1
 6317 28b4 2B78     		ldrb	r3, [r5]	@ zero_extendqisi2
 6318 28b6 8B42     		cmp	r3, r1
 6319 28b8 00F0C880 		beq	.L113
 6320              	.L114:
 6321              		.loc 1 1101 0 is_stmt 1
 6322 28bc D6ED477A 		vldr.32	s15, [r6, #284]
 6323              		.loc 1 1098 0
 6324 28c0 109B     		ldr	r3, [sp, #64]
 6325              		.loc 1 1099 0
 6326 28c2 9DED117A 		vldr.32	s14, [sp, #68]
 6327              		.loc 1 1098 0
ARM GAS  C:\Users\euanm\AppData\Local\Temp\ccyKTXNK.s 			page 112


 6328 28c6 0033     		adds	r3, r3, #0
 6329              		.loc 1 1101 0
 6330 28c8 B4EEE7AA 		vcmpe.f32	s20, s15
 6331              		.loc 1 1098 0
 6332 28cc 18BF     		it	ne
 6333 28ce 0123     		movne	r3, #1
