ARM GAS  C:\Users\euanm\AppData\Local\Temp\ccmmPa0a.s 			page 1


   1              		.syntax unified
   2              		.cpu cortex-m4
   3              		.eabi_attribute 27, 1
   4              		.eabi_attribute 28, 1
   5              		.fpu fpv4-sp-d16
   6              		.eabi_attribute 20, 1
   7              		.eabi_attribute 21, 1
   8              		.eabi_attribute 23, 3
   9              		.eabi_attribute 24, 1
  10              		.eabi_attribute 25, 1
  11              		.eabi_attribute 26, 1
  12              		.eabi_attribute 30, 2
  13              		.eabi_attribute 34, 1
  14              		.eabi_attribute 18, 4
  15              		.thumb
  16              		.syntax unified
  17              		.file	"conf_general.c"
  18              		.text
  19              	.Ltext0:
  20              		.cfi_sections	.debug_frame
  21              		.section	.text.conf_general_init,"ax",%progbits
  22              		.align	2
  23              		.p2align 4,,15
  24              		.global	conf_general_init
  25              		.thumb
  26              		.thumb_func
  27              		.type	conf_general_init, %function
  28              	conf_general_init:
  29              	.LFB219:
  30              		.file 1 "conf_general.c"
  31              		.loc 1 45 0
  32              		.cfi_startproc
  33              		@ args = 0, pretend = 0, frame = 0
  34              		@ frame_needed = 0, uses_anonymous_args = 0
  35 0000 08B5     		push	{r3, lr}
  36              		.cfi_def_cfa_offset 8
  37              		.cfi_offset 3, -8
  38              		.cfi_offset 14, -4
  39              		.loc 1 47 0
  40 0002 4FF4FF72 		mov	r2, #510
  41 0006 0021     		movs	r1, #0
  42 0008 0F48     		ldr	r0, .L8
  43 000a FFF7FEFF 		bl	memset
  44              	.LVL0:
  45 000e 0F49     		ldr	r1, .L8+4
  46 0010 4FF47A73 		mov	r3, #1000
  47 0014 01F5A072 		add	r2, r1, #320
  48              	.LVL1:
  49              	.L2:
  50              	.LBB2:
  51              		.loc 1 51 0 discriminator 3
  52 0018 21F8023F 		strh	r3, [r1, #2]!	@ movhi
  53 001c 0133     		adds	r3, r3, #1
  54              		.loc 1 50 0 discriminator 3
  55 001e 8A42     		cmp	r2, r1
  56 0020 9BB2     		uxth	r3, r3
  57 0022 F9D1     		bne	.L2
ARM GAS  C:\Users\euanm\AppData\Local\Temp\ccmmPa0a.s 			page 2


  58 0024 0A49     		ldr	r1, .L8+8
  59              		.loc 1 50 0 is_stmt 0
  60 0026 4FF4FA63 		mov	r3, #2000
  61              	.L3:
  62              	.LBE2:
  63              	.LBB3:
  64              		.loc 1 55 0 is_stmt 1 discriminator 3
  65 002a 22F8023F 		strh	r3, [r2, #2]!	@ movhi
  66              	.LVL2:
  67 002e 0133     		adds	r3, r3, #1
  68              		.loc 1 54 0 discriminator 3
  69 0030 9142     		cmp	r1, r2
  70 0032 9BB2     		uxth	r3, r3
  71 0034 F9D1     		bne	.L3
  72              	.LBE3:
  73              		.loc 1 58 0
  74 0036 FFF7FEFF 		bl	FLASH_Unlock
  75              	.LVL3:
  76              		.loc 1 59 0
  77 003a F220     		movs	r0, #242
  78 003c FFF7FEFF 		bl	FLASH_ClearFlag
  79              	.LVL4:
  80              		.loc 1 62 0
  81 0040 BDE80840 		pop	{r3, lr}
  82              		.cfi_restore 14
  83              		.cfi_restore 3
  84              		.cfi_def_cfa_offset 0
  85              		.loc 1 61 0
  86 0044 FFF7FEBF 		b	EE_Init
  87              	.LVL5:
  88              	.L9:
  89              		.align	2
  90              	.L8:
  91 0048 00000000 		.word	.LANCHOR0
  92 004c FEFFFFFF 		.word	.LANCHOR0-2
  93 0050 32020000 		.word	.LANCHOR0+562
  94              		.cfi_endproc
  95              	.LFE219:
  96              		.size	conf_general_init, .-conf_general_init
  97              		.section	.text.conf_general_get_default_app_configuration,"ax",%progbits
  98              		.align	2
  99              		.p2align 4,,15
 100              		.global	conf_general_get_default_app_configuration
 101              		.thumb
 102              		.thumb_func
 103              		.type	conf_general_get_default_app_configuration, %function
 104              	conf_general_get_default_app_configuration:
 105              	.LFB220:
 106              		.loc 1 70 0
 107              		.cfi_startproc
 108              		@ args = 0, pretend = 0, frame = 0
 109              		@ frame_needed = 0, uses_anonymous_args = 0
 110              	.LVL6:
 111 0000 2DE9F84F 		push	{r3, r4, r5, r6, r7, r8, r9, r10, fp, lr}
 112              		.cfi_def_cfa_offset 40
 113              		.cfi_offset 3, -40
 114              		.cfi_offset 4, -36
ARM GAS  C:\Users\euanm\AppData\Local\Temp\ccmmPa0a.s 			page 3


 115              		.cfi_offset 5, -32
 116              		.cfi_offset 6, -28
 117              		.cfi_offset 7, -24
 118              		.cfi_offset 8, -20
 119              		.cfi_offset 9, -16
 120              		.cfi_offset 10, -12
 121              		.cfi_offset 11, -8
 122              		.cfi_offset 14, -4
 123              		.loc 1 71 0
 124 0004 F422     		movs	r2, #244
 125              		.loc 1 70 0
 126 0006 0446     		mov	r4, r0
 127              		.loc 1 71 0
 128 0008 0021     		movs	r1, #0
 129 000a FFF7FEFF 		bl	memset
 130              	.LVL7:
 131              		.loc 1 76 0
 132 000e 4FF4FA79 		mov	r9, #500
 133              		.loc 1 81 0
 134 0012 5A4B     		ldr	r3, .L12
 135              		.loc 1 96 0
 136 0014 5A4A     		ldr	r2, .L12+4
 137              		.loc 1 82 0
 138 0016 DFF878E1 		ldr	lr, .L12+20
 139              		.loc 1 87 0
 140 001a 5A4F     		ldr	r7, .L12+8
 141              		.loc 1 88 0
 142 001c 5A48     		ldr	r0, .L12+12
 143              		.loc 1 106 0
 144 001e 5B4D     		ldr	r5, .L12+16
 145              		.loc 1 91 0
 146 0020 DFF870C1 		ldr	ip, .L12+24
 147              		.loc 1 95 0
 148 0024 DFF87081 		ldr	r8, .L12+28
 149              		.loc 1 81 0
 150 0028 E361     		str	r3, [r4, #28]	@ float
 151              		.loc 1 73 0
 152 002a 4FF47A71 		mov	r1, #1000
 153              		.loc 1 84 0
 154 002e 4FF08046 		mov	r6, #1073741824
 155              		.loc 1 72 0
 156 0032 0023     		movs	r3, #0
 157              		.loc 1 73 0
 158 0034 6160     		str	r1, [r4, #4]
 159              		.loc 1 84 0
 160 0036 A662     		str	r6, [r4, #40]	@ float
 161              		.loc 1 78 0
 162 0038 0321     		movs	r1, #3
 163              		.loc 1 83 0
 164 003a 4FF07E56 		mov	r6, #1065353216
 165              		.loc 1 96 0
 166 003e E265     		str	r2, [r4, #92]	@ float
 167              		.loc 1 76 0
 168 0040 C4F81090 		str	r9, [r4, #16]
 169              		.loc 1 85 0
 170 0044 0122     		movs	r2, #1
 171              		.loc 1 107 0
ARM GAS  C:\Users\euanm\AppData\Local\Temp\ccmmPa0a.s 			page 4


 172 0046 C4F87890 		str	r9, [r4, #120]
 173              		.loc 1 109 0
 174 004a 4FF41659 		mov	r9, #9600
 175              		.loc 1 78 0
 176 004e 2175     		strb	r1, [r4, #20]
 177              		.loc 1 82 0
 178 0050 C4F820E0 		str	lr, [r4, #32]	@ float
 179              		.loc 1 94 0
 180 0054 C4F854E0 		str	lr, [r4, #84]	@ float
 181              		.loc 1 85 0
 182 0058 84F82C20 		strb	r2, [r4, #44]
 183              		.loc 1 86 0
 184 005c 84F82D20 		strb	r2, [r4, #45]
 185              		.loc 1 97 0
 186 0060 84F86020 		strb	r2, [r4, #96]
 187              		.loc 1 98 0
 188 0064 84F86120 		strb	r2, [r4, #97]
 189              		.loc 1 87 0
 190 0068 2763     		str	r7, [r4, #48]	@ float
 191              		.loc 1 102 0
 192 006a A766     		str	r7, [r4, #104]	@ float
 193              		.loc 1 88 0
 194 006c 6063     		str	r0, [r4, #52]	@ float
 195              		.loc 1 103 0
 196 006e E066     		str	r0, [r4, #108]	@ float
 197              		.loc 1 91 0
 198 0070 C4F83CC0 		str	ip, [r4, #60]	@ float
 199              		.loc 1 95 0
 200 0074 C4F85880 		str	r8, [r4, #88]	@ float
 201              		.loc 1 116 0
 202 0078 DFF820B1 		ldr	fp, .L12+32
 203              		.loc 1 139 0
 204 007c DFF820A1 		ldr	r10, .L12+36
 205              		.loc 1 72 0
 206 0080 2370     		strb	r3, [r4]
 207              		.loc 1 75 0
 208 0082 2373     		strb	r3, [r4, #12]
 209              		.loc 1 80 0
 210 0084 2376     		strb	r3, [r4, #24]
 211              		.loc 1 89 0
 212 0086 84F83830 		strb	r3, [r4, #56]
 213              		.loc 1 90 0
 214 008a 84F83930 		strb	r3, [r4, #57]
 215              		.loc 1 93 0
 216 008e 84F85030 		strb	r3, [r4, #80]
 217              		.loc 1 99 0
 218 0092 84F86230 		strb	r3, [r4, #98]
 219              		.loc 1 100 0
 220 0096 84F86330 		strb	r3, [r4, #99]
 221              		.loc 1 101 0
 222 009a 84F86430 		strb	r3, [r4, #100]
 223              		.loc 1 104 0
 224 009e 84F87030 		strb	r3, [r4, #112]
 225              		.loc 1 105 0
 226 00a2 84F87130 		strb	r3, [r4, #113]
 227              		.loc 1 83 0
 228 00a6 6662     		str	r6, [r4, #36]	@ float
ARM GAS  C:\Users\euanm\AppData\Local\Temp\ccmmPa0a.s 			page 5


 229              		.loc 1 106 0
 230 00a8 6567     		str	r5, [r4, #116]	@ float
 231              		.loc 1 109 0
 232 00aa C4F87C90 		str	r9, [r4, #124]
 233              		.loc 1 111 0
 234 00ae 84F88020 		strb	r2, [r4, #128]
 235              		.loc 1 112 0
 236 00b2 C4F884E0 		str	lr, [r4, #132]	@ float
 237              		.loc 1 113 0
 238 00b6 C4F88870 		str	r7, [r4, #136]	@ float
 239              		.loc 1 114 0
 240 00ba C4F88C00 		str	r0, [r4, #140]	@ float
 241              		.loc 1 115 0
 242 00be C4F89080 		str	r8, [r4, #144]	@ float
 243              		.loc 1 145 0
 244 00c2 4FF07A50 		mov	r0, #1048576000
 245              		.loc 1 120 0
 246 00c6 C4F8A0C0 		str	ip, [r4, #160]	@ float
 247              		.loc 1 123 0
 248 00ca 84F8AD10 		strb	r1, [r4, #173]
 249              		.loc 1 124 0
 250 00ce 84F8AE20 		strb	r2, [r4, #174]
 251              		.loc 1 126 0
 252 00d2 84F8B010 		strb	r1, [r4, #176]
 253              		.loc 1 131 0
 254 00d6 84F8B520 		strb	r2, [r4, #181]
 255              		.loc 1 146 0
 256 00da 4FF07C51 		mov	r1, #1056964608
 257              		.loc 1 147 0
 258 00de 4FF07D52 		mov	r2, #1061158912
 259              		.loc 1 122 0
 260 00e2 4FF0020E 		mov	lr, #2
 261              		.loc 1 127 0
 262 00e6 4C27     		movs	r7, #76
 263              		.loc 1 128 0
 264 00e8 4FF0C609 		mov	r9, #198
 265              		.loc 1 129 0
 266 00ec 4FF0C708 		mov	r8, #199
 267              		.loc 1 134 0
 268 00f0 4FF07F5C 		mov	ip, #1069547520
 269              		.loc 1 117 0
 270 00f4 C4F89850 		str	r5, [r4, #152]	@ float
 271              		.loc 1 118 0
 272 00f8 84F89C30 		strb	r3, [r4, #156]
 273              		.loc 1 119 0
 274 00fc 84F89D30 		strb	r3, [r4, #157]
 275              		.loc 1 125 0
 276 0100 84F8AF30 		strb	r3, [r4, #175]
 277              		.loc 1 130 0
 278 0104 84F8B430 		strb	r3, [r4, #180]
 279              		.loc 1 135 0
 280 0108 6564     		str	r5, [r4, #68]	@ float
 281              		.loc 1 136 0
 282 010a 84F84830 		strb	r3, [r4, #72]
 283              		.loc 1 137 0
 284 010e 84F84930 		strb	r3, [r4, #73]
 285              		.loc 1 138 0
ARM GAS  C:\Users\euanm\AppData\Local\Temp\ccmmPa0a.s 			page 6


 286 0112 84F84A30 		strb	r3, [r4, #74]
 287              		.loc 1 141 0
 288 0116 C4F8A450 		str	r5, [r4, #164]	@ float
 289              		.loc 1 142 0
 290 011a 84F8A830 		strb	r3, [r4, #168]
 291              		.loc 1 144 0
 292 011e 84F8B830 		strb	r3, [r4, #184]
 293              		.loc 1 116 0
 294 0122 C4F894B0 		str	fp, [r4, #148]	@ float
 295              		.loc 1 122 0
 296 0126 84F8ACE0 		strb	lr, [r4, #172]
 297              		.loc 1 127 0
 298 012a 84F8B170 		strb	r7, [r4, #177]
 299              		.loc 1 128 0
 300 012e 84F8B290 		strb	r9, [r4, #178]
 301              		.loc 1 129 0
 302 0132 84F8B380 		strb	r8, [r4, #179]
 303              		.loc 1 134 0
 304 0136 C4F840C0 		str	ip, [r4, #64]	@ float
 305              		.loc 1 139 0
 306 013a C4F84CA0 		str	r10, [r4, #76]	@ float
 307              		.loc 1 145 0
 308 013e C4F8BC00 		str	r0, [r4, #188]	@ float
 309              		.loc 1 146 0
 310 0142 C4F8C010 		str	r1, [r4, #192]	@ float
 311              		.loc 1 147 0
 312 0146 C4F8C420 		str	r2, [r4, #196]	@ float
 313              		.loc 1 148 0
 314 014a C4F8C800 		str	r0, [r4, #200]	@ float
 315              		.loc 1 149 0
 316 014e C4F8CC10 		str	r1, [r4, #204]	@ float
 317              		.loc 1 150 0
 318 0152 C4F8D020 		str	r2, [r4, #208]	@ float
 319              		.loc 1 151 0
 320 0156 C4F8D460 		str	r6, [r4, #212]	@ float
 321              		.loc 1 152 0
 322 015a C4F8D800 		str	r0, [r4, #216]	@ float
 323              		.loc 1 153 0
 324 015e C4F8DC10 		str	r1, [r4, #220]	@ float
 325              		.loc 1 154 0
 326 0162 C4F8E020 		str	r2, [r4, #224]	@ float
 327              		.loc 1 155 0
 328 0166 C4F8E400 		str	r0, [r4, #228]	@ float
 329              		.loc 1 156 0
 330 016a C4F8E810 		str	r1, [r4, #232]	@ float
 331              		.loc 1 157 0
 332 016e C4F8EC20 		str	r2, [r4, #236]	@ float
 333              		.loc 1 158 0
 334 0172 C4F8F060 		str	r6, [r4, #240]	@ float
 335 0176 BDE8F88F 		pop	{r3, r4, r5, r6, r7, r8, r9, r10, fp, pc}
 336              	.LVL8:
 337              	.L13:
 338 017a 00BF     		.align	2
 339              	.L12:
 340 017c 00606A46 		.word	1181376512
 341 0180 00004040 		.word	1077936128
 342 0184 007C1248 		.word	1209170944
ARM GAS  C:\Users\euanm\AppData\Local\Temp\ccmmPa0a.s 			page 7


 343 0188 00504348 		.word	1212370944
 344 018c 00803B45 		.word	1161527296
 345 0190 9A99193E 		.word	1041865114
 346 0194 00409C45 		.word	1167867904
 347 0198 6666663F 		.word	1063675494
 348 019c 9A99993E 		.word	1050253722
 349 01a0 00007A45 		.word	1165623296
 350              		.cfi_endproc
 351              	.LFE220:
 352              		.size	conf_general_get_default_app_configuration, .-conf_general_get_default_app_configuration
 353              		.section	.text.conf_general_get_default_mc_configuration,"ax",%progbits
 354              		.align	2
 355              		.p2align 4,,15
 356              		.global	conf_general_get_default_mc_configuration
 357              		.thumb
 358              		.thumb_func
 359              		.type	conf_general_get_default_mc_configuration, %function
 360              	conf_general_get_default_mc_configuration:
 361              	.LFB221:
 362              		.loc 1 168 0
 363              		.cfi_startproc
 364              		@ args = 0, pretend = 0, frame = 0
 365              		@ frame_needed = 0, uses_anonymous_args = 0
 366              	.LVL9:
 367 0000 2DE9F843 		push	{r3, r4, r5, r6, r7, r8, r9, lr}
 368              		.cfi_def_cfa_offset 32
 369              		.cfi_offset 3, -32
 370              		.cfi_offset 4, -28
 371              		.cfi_offset 5, -24
 372              		.cfi_offset 6, -20
 373              		.cfi_offset 7, -16
 374              		.cfi_offset 8, -12
 375              		.cfi_offset 9, -8
 376              		.cfi_offset 14, -4
 377              		.loc 1 169 0
 378 0004 4FF4A072 		mov	r2, #320
 379              		.loc 1 168 0
 380 0008 0446     		mov	r4, r0
 381              		.loc 1 169 0
 382 000a 0021     		movs	r1, #0
 383 000c FFF7FEFF 		bl	memset
 384              	.LVL10:
 385              		.loc 1 180 0
 386 0010 6D48     		ldr	r0, .L16
 387              		.loc 1 183 0
 388 0012 6E4A     		ldr	r2, .L16+4
 389              		.loc 1 185 0
 390 0014 6E4B     		ldr	r3, .L16+8
 391              		.loc 1 181 0
 392 0016 6F4D     		ldr	r5, .L16+12
 393              		.loc 1 195 0
 394 0018 6F49     		ldr	r1, .L16+16
 395              		.loc 1 180 0
 396 001a 2062     		str	r0, [r4, #32]	@ float
 397              		.loc 1 183 0
 398 001c E262     		str	r2, [r4, #44]	@ float
 399              		.loc 1 204 0
ARM GAS  C:\Users\euanm\AppData\Local\Temp\ccmmPa0a.s 			page 8


 400 001e 6F48     		ldr	r0, .L16+20
 401              		.loc 1 185 0
 402 0020 6363     		str	r3, [r4, #52]	@ float
 403              		.loc 1 184 0
 404 0022 4FF08342 		mov	r2, #1098907648
 405              		.loc 1 186 0
 406 0026 6E4B     		ldr	r3, .L16+24
 407              		.loc 1 194 0
 408 0028 6E4F     		ldr	r7, .L16+28
 409              		.loc 1 202 0
 410 002a 6F4E     		ldr	r6, .L16+32
 411              		.loc 1 181 0
 412 002c 6562     		str	r5, [r4, #36]	@ float
 413              		.loc 1 184 0
 414 002e 2263     		str	r2, [r4, #48]	@ float
 415              		.loc 1 205 0
 416 0030 6E4D     		ldr	r5, .L16+36
 417              		.loc 1 206 0
 418 0032 6F4A     		ldr	r2, .L16+40
 419              		.loc 1 186 0
 420 0034 A363     		str	r3, [r4, #56]	@ float
 421              		.loc 1 195 0
 422 0036 A165     		str	r1, [r4, #88]	@ float
 423              		.loc 1 187 0
 424 0038 4FF08243 		mov	r3, #1090519040
 425              		.loc 1 179 0
 426 003c 6D49     		ldr	r1, .L16+44
 427              		.loc 1 204 0
 428 003e 2067     		str	r0, [r4, #112]	@ float
 429              		.loc 1 191 0
 430 0040 6D48     		ldr	r0, .L16+48
 431              		.loc 1 187 0
 432 0042 E363     		str	r3, [r4, #60]	@ float
 433              		.loc 1 194 0
 434 0044 6765     		str	r7, [r4, #84]	@ float
 435              		.loc 1 175 0
 436 0046 6D4B     		ldr	r3, .L16+52
 437              		.loc 1 176 0
 438 0048 6D4F     		ldr	r7, .L16+56
 439              		.loc 1 202 0
 440 004a E666     		str	r6, [r4, #108]	@ float
 441              		.loc 1 205 0
 442 004c A567     		str	r5, [r4, #120]	@ float
 443              		.loc 1 190 0
 444 004e 6D4E     		ldr	r6, .L16+60
 445              		.loc 1 206 0
 446 0050 E267     		str	r2, [r4, #124]	@ float
 447              		.loc 1 170 0
 448 0052 0225     		movs	r5, #2
 449              		.loc 1 171 0
 450 0054 0022     		movs	r2, #0
 451              		.loc 1 207 0
 452 0056 DFF8F4E1 		ldr	lr, .L16+132
 453              		.loc 1 179 0
 454 005a 6161     		str	r1, [r4, #20]	@ float
 455              		.loc 1 182 0
 456 005c A162     		str	r1, [r4, #40]	@ float
ARM GAS  C:\Users\euanm\AppData\Local\Temp\ccmmPa0a.s 			page 9


 457              		.loc 1 191 0
 458 005e A064     		str	r0, [r4, #72]	@ float
 459              		.loc 1 188 0
 460 0060 0121     		movs	r1, #1
 461              		.loc 1 193 0
 462 0062 2065     		str	r0, [r4, #80]	@ float
 463              		.loc 1 203 0
 464 0064 6848     		ldr	r0, .L16+64
 465              		.loc 1 170 0
 466 0066 2570     		strb	r5, [r4]
 467              		.loc 1 171 0
 468 0068 6270     		strb	r2, [r4, #1]
 469              		.loc 1 172 0
 470 006a A270     		strb	r2, [r4, #2]
 471              		.loc 1 173 0
 472 006c E270     		strb	r2, [r4, #3]
 473              		.loc 1 175 0
 474 006e 6360     		str	r3, [r4, #4]	@ float
 475              		.loc 1 177 0
 476 0070 E360     		str	r3, [r4, #12]	@ float
 477              		.loc 1 197 0
 478 0072 E365     		str	r3, [r4, #92]	@ float
 479              		.loc 1 199 0
 480 0074 6366     		str	r3, [r4, #100]	@ float
 481              		.loc 1 176 0
 482 0076 A760     		str	r7, [r4, #8]	@ float
 483              		.loc 1 198 0
 484 0078 2766     		str	r7, [r4, #96]	@ float
 485              		.loc 1 188 0
 486 007a 84F84010 		strb	r1, [r4, #64]
 487              		.loc 1 189 0
 488 007e 84F84110 		strb	r1, [r4, #65]
 489              		.loc 1 190 0
 490 0082 6664     		str	r6, [r4, #68]	@ float
 491              		.loc 1 192 0
 492 0084 E664     		str	r6, [r4, #76]	@ float
 493              		.loc 1 203 0
 494 0086 6067     		str	r0, [r4, #116]	@ float
 495              		.loc 1 207 0
 496 0088 C4F880E0 		str	lr, [r4, #128]	@ float
 497              		.loc 1 235 0
 498 008c C4F8CC30 		str	r3, [r4, #204]	@ float
 499              		.loc 1 212 0
 500 0090 0323     		movs	r3, #3
 501 0092 84F88A30 		strb	r3, [r4, #138]
 502              		.loc 1 214 0
 503 0096 0523     		movs	r3, #5
 504 0098 84F88C30 		strb	r3, [r4, #140]
 505              		.loc 1 215 0
 506 009c 0623     		movs	r3, #6
 507 009e 84F88D30 		strb	r3, [r4, #141]
 508              		.loc 1 216 0
 509 00a2 0423     		movs	r3, #4
 510              		.loc 1 234 0
 511 00a4 C4F8C800 		str	r0, [r4, #200]	@ float
 512              		.loc 1 216 0
 513 00a8 84F88E30 		strb	r3, [r4, #142]
ARM GAS  C:\Users\euanm\AppData\Local\Temp\ccmmPa0a.s 			page 10


 514              		.loc 1 232 0
 515 00ac 5748     		ldr	r0, .L16+68
 516              		.loc 1 226 0
 517 00ae 584B     		ldr	r3, .L16+72
 518              		.loc 1 213 0
 519 00b0 84F88B50 		strb	r5, [r4, #139]
 520              		.loc 1 223 0
 521 00b4 574F     		ldr	r7, .L16+76
 522              		.loc 1 230 0
 523 00b6 584E     		ldr	r6, .L16+80
 524              		.loc 1 231 0
 525 00b8 584D     		ldr	r5, .L16+84
 526              		.loc 1 226 0
 527 00ba C4F8AC30 		str	r3, [r4, #172]	@ float
 528              		.loc 1 232 0
 529 00be C4F8B800 		str	r0, [r4, #184]	@ float
 530              		.loc 1 236 0
 531 00c2 574B     		ldr	r3, .L16+88
 532              		.loc 1 222 0
 533 00c4 5748     		ldr	r0, .L16+92
 534              		.loc 1 208 0
 535 00c6 DFF88881 		ldr	r8, .L16+136
 536              		.loc 1 221 0
 537 00ca DFF888C1 		ldr	ip, .L16+140
 538              		.loc 1 225 0
 539 00ce DFF888E1 		ldr	lr, .L16+144
 540              		.loc 1 223 0
 541 00d2 C4F8A070 		str	r7, [r4, #160]	@ float
 542              		.loc 1 230 0
 543 00d6 C4F8B060 		str	r6, [r4, #176]	@ float
 544              		.loc 1 233 0
 545 00da 534F     		ldr	r7, .L16+96
 546              		.loc 1 218 0
 547 00dc 534E     		ldr	r6, .L16+100
 548              		.loc 1 231 0
 549 00de C4F8B450 		str	r5, [r4, #180]	@ float
 550              		.loc 1 236 0
 551 00e2 C4F8D030 		str	r3, [r4, #208]	@ float
 552              		.loc 1 220 0
 553 00e6 524D     		ldr	r5, .L16+104
 554              		.loc 1 222 0
 555 00e8 C4F89C00 		str	r0, [r4, #156]	@ float
 556              		.loc 1 210 0
 557 00ec FF23     		movs	r3, #255
 558              		.loc 1 229 0
 559 00ee C4F8C400 		str	r0, [r4, #196]	@ float
 560              		.loc 1 237 0
 561 00f2 4FF07C50 		mov	r0, #1056964608
 562              		.loc 1 211 0
 563 00f6 84F88910 		strb	r1, [r4, #137]
 564              		.loc 1 224 0
 565 00fa 84F8A820 		strb	r2, [r4, #168]
 566              		.loc 1 227 0
 567 00fe 84F8E420 		strb	r2, [r4, #228]
 568              		.loc 1 208 0
 569 0102 C4F88480 		str	r8, [r4, #132]	@ float
 570              		.loc 1 221 0
ARM GAS  C:\Users\euanm\AppData\Local\Temp\ccmmPa0a.s 			page 11


 571 0106 C4F898C0 		str	ip, [r4, #152]	@ float
 572              		.loc 1 225 0
 573 010a C4F8A4E0 		str	lr, [r4, #164]	@ float
 574              		.loc 1 233 0
 575 010e C4F8BC70 		str	r7, [r4, #188]	@ float
 576              		.loc 1 210 0
 577 0112 84F88830 		strb	r3, [r4, #136]
 578              		.loc 1 217 0
 579 0116 84F88F30 		strb	r3, [r4, #143]
 580              		.loc 1 241 0
 581 011a 84F8E530 		strb	r3, [r4, #229]
 582              		.loc 1 242 0
 583 011e 84F8E630 		strb	r3, [r4, #230]
 584              		.loc 1 243 0
 585 0122 84F8E730 		strb	r3, [r4, #231]
 586              		.loc 1 218 0
 587 0126 C4F89060 		str	r6, [r4, #144]	@ float
 588              		.loc 1 228 0
 589 012a C4F8C060 		str	r6, [r4, #192]	@ float
 590              		.loc 1 220 0
 591 012e C4F89450 		str	r5, [r4, #148]	@ float
 592              		.loc 1 237 0
 593 0132 C4F8D400 		str	r0, [r4, #212]	@ float
 594              		.loc 1 238 0
 595 0136 C4F8D800 		str	r0, [r4, #216]	@ float
 596              		.loc 1 262 0
 597 013a 3E4F     		ldr	r7, .L16+108
 598              		.loc 1 244 0
 599 013c 84F8E830 		strb	r3, [r4, #232]
 600              		.loc 1 245 0
 601 0140 84F8E930 		strb	r3, [r4, #233]
 602              		.loc 1 246 0
 603 0144 84F8EA30 		strb	r3, [r4, #234]
 604              		.loc 1 247 0
 605 0148 84F8EB30 		strb	r3, [r4, #235]
 606              		.loc 1 248 0
 607 014c 84F8EC30 		strb	r3, [r4, #236]
 608              		.loc 1 265 0
 609 0150 394B     		ldr	r3, .L16+112
 610              		.loc 1 249 0
 611 0152 DFF80891 		ldr	r9, .L16+148
 612              		.loc 1 254 0
 613 0156 DFF80881 		ldr	r8, .L16+152
 614              		.loc 1 259 0
 615 015a DFF808C1 		ldr	ip, .L16+156
 616              		.loc 1 255 0
 617 015e 84F80411 		strb	r1, [r4, #260]
 618              		.loc 1 257 0
 619 0162 C4F80851 		str	r5, [r4, #264]	@ float
 620              		.loc 1 264 0
 621 0166 DFF800E1 		ldr	lr, .L16+160
 622              		.loc 1 270 0
 623 016a C4F83401 		str	r0, [r4, #308]	@ float
 624              		.loc 1 272 0
 625 016e 84F83C21 		strb	r2, [r4, #316]
 626              		.loc 1 274 0
 627 0172 2276     		strb	r2, [r4, #24]
ARM GAS  C:\Users\euanm\AppData\Local\Temp\ccmmPa0a.s 			page 12


 628              		.loc 1 268 0
 629 0174 314E     		ldr	r6, .L16+116
 630              		.loc 1 251 0
 631 0176 324A     		ldr	r2, .L16+120
 632              		.loc 1 269 0
 633 0178 324D     		ldr	r5, .L16+124
 634              		.loc 1 275 0
 635 017a 3349     		ldr	r1, .L16+128
 636              		.loc 1 262 0
 637 017c C4F81871 		str	r7, [r4, #280]	@ float
 638              		.loc 1 271 0
 639 0180 4FF40050 		mov	r0, #8192
 640              		.loc 1 267 0
 641 0184 40F6B837 		movw	r7, #3000
 642              		.loc 1 265 0
 643 0188 C4F82431 		str	r3, [r4, #292]	@ float
 644              		.loc 1 260 0
 645 018c 4FF07E53 		mov	r3, #1065353216
 646              		.loc 1 249 0
 647 0190 C4F8F090 		str	r9, [r4, #240]	@ float
 648              		.loc 1 254 0
 649 0194 C4F80081 		str	r8, [r4, #256]	@ float
 650              		.loc 1 259 0
 651 0198 C4F810C1 		str	ip, [r4, #272]	@ float
 652              		.loc 1 264 0
 653 019c C4F820E1 		str	lr, [r4, #288]	@ float
 654              		.loc 1 267 0
 655 01a0 C4F82871 		str	r7, [r4, #296]
 656              		.loc 1 268 0
 657 01a4 C4F82C61 		str	r6, [r4, #300]	@ float
 658              		.loc 1 269 0
 659 01a8 C4F83051 		str	r5, [r4, #304]	@ float
 660              		.loc 1 271 0
 661 01ac C4F83801 		str	r0, [r4, #312]
 662              		.loc 1 275 0
 663 01b0 E161     		str	r1, [r4, #28]	@ float
 664              		.loc 1 251 0
 665 01b2 C4F8F420 		str	r2, [r4, #244]	@ float
 666              		.loc 1 252 0
 667 01b6 C4F8F820 		str	r2, [r4, #248]	@ float
 668              		.loc 1 260 0
 669 01ba C4F81431 		str	r3, [r4, #276]	@ float
 670              		.loc 1 263 0
 671 01be C4F81C31 		str	r3, [r4, #284]	@ float
 672 01c2 BDE8F883 		pop	{r3, r4, r5, r6, r7, r8, r9, pc}
 673              	.LVL11:
 674              	.L17:
 675 01c6 00BF     		.align	2
 676              	.L16:
 677 01c8 00606AC7 		.word	-949329920
 678 01cc 0080BB44 		.word	1153138688
 679 01d0 00008C42 		.word	1116471296
 680 01d4 00606A47 		.word	1198153728
 681 01d8 3333733F 		.word	1064514355
 682 01dc 00808944 		.word	1149861888
 683 01e0 00009041 		.word	1099956224
 684 01e4 0AD7A33B 		.word	1000593162
ARM GAS  C:\Users\euanm\AppData\Local\Temp\ccmmPa0a.s 			page 13


 685 01e8 00001643 		.word	1125515264
 686 01ec 00007842 		.word	1115160576
 687 01f0 CDCC4C3F 		.word	1061997773
 688 01f4 00009643 		.word	1133903872
 689 01f8 0000C842 		.word	1120403456
 690 01fc 00004843 		.word	1128792064
 691 0200 000048C3 		.word	-1018691584
 692 0204 0000A042 		.word	1117782016
 693 0208 00002041 		.word	1092616192
 694 020c 2E90203B 		.word	991989806
 695 0210 0000E040 		.word	1088421888
 696 0214 0AD7A33D 		.word	1034147594
 697 0218 8BE1EA36 		.word	921362827
 698 021c 8FC2753C 		.word	1014350479
 699 0220 00009644 		.word	1150681088
 700 0224 00409C46 		.word	1184645120
 701 0228 50A9AB4C 		.word	1286318416
 702 022c 0000FA44 		.word	1157234688
 703 0230 8FC2F53C 		.word	1022739087
 704 0234 0AD7233C 		.word	1008981770
 705 0238 0AD7233D 		.word	1025758986
 706 023c 0AD7A33C 		.word	1017370378
 707 0240 6F12833B 		.word	998445679
 708 0244 6F12033A 		.word	973279855
 709 0248 00007A44 		.word	1148846080
 710 024c 00409C47 		.word	1201422336
 711 0250 00001644 		.word	1142292480
 712 0254 00004842 		.word	1112014848
 713 0258 00003443 		.word	1127481344
 714 025c 00401C45 		.word	1159479296
 715 0260 00006144 		.word	1147207680
 716 0264 17B7D139 		.word	970045207
 717 0268 99BB963B 		.word	999734169
 718              		.cfi_endproc
 719              	.LFE221:
 720              		.size	conf_general_get_default_mc_configuration, .-conf_general_get_default_mc_configuration
 721              		.section	.text.conf_general_read_app_configuration,"ax",%progbits
 722              		.align	2
 723              		.p2align 4,,15
 724              		.global	conf_general_read_app_configuration
 725              		.thumb
 726              		.thumb_func
 727              		.type	conf_general_read_app_configuration, %function
 728              	conf_general_read_app_configuration:
 729              	.LFB222:
 730              		.loc 1 284 0
 731              		.cfi_startproc
 732              		@ args = 0, pretend = 0, frame = 8
 733              		@ frame_needed = 0, uses_anonymous_args = 0
 734              	.LVL12:
 735 0000 2DE9F041 		push	{r4, r5, r6, r7, r8, lr}
 736              		.cfi_def_cfa_offset 24
 737              		.cfi_offset 4, -24
 738              		.cfi_offset 5, -20
 739              		.cfi_offset 6, -16
 740              		.cfi_offset 7, -12
 741              		.cfi_offset 8, -8
ARM GAS  C:\Users\euanm\AppData\Local\Temp\ccmmPa0a.s 			page 14


 742              		.cfi_offset 14, -4
 743 0004 461C     		adds	r6, r0, #1
 744 0006 82B0     		sub	sp, sp, #8
 745              		.cfi_def_cfa_offset 32
 746              		.loc 1 284 0
 747 0008 0746     		mov	r7, r0
 748              	.LVL13:
 749 000a 3546     		mov	r5, r6
 750 000c 4FF4FA64 		mov	r4, #2000
 751              	.LBB4:
 752              		.loc 1 289 0
 753 0010 40F64A08 		movw	r8, #2122
 754 0014 09E0     		b	.L20
 755              	.LVL14:
 756              	.L30:
 757              		.loc 1 291 0
 758 0016 BDF80630 		ldrh	r3, [sp, #6]
 759              		.loc 1 289 0
 760 001a 4445     		cmp	r4, r8
 761              		.loc 1 291 0
 762 001c 4FEA1322 		lsr	r2, r3, #8
 763 0020 05F8012C 		strb	r2, [r5, #-1]
 764              		.loc 1 292 0
 765 0024 05F8023B 		strb	r3, [r5], #2
 766              		.loc 1 289 0
 767 0028 42D0     		beq	.L18
 768              	.L20:
 769              		.loc 1 290 0
 770 002a 2046     		mov	r0, r4
 771 002c 0DF10601 		add	r1, sp, #6
 772 0030 FFF7FEFF 		bl	EE_ReadVariable
 773              	.LVL15:
 774 0034 0134     		adds	r4, r4, #1
 775 0036 A4B2     		uxth	r4, r4
 776 0038 0028     		cmp	r0, #0
 777 003a ECD0     		beq	.L30
 778              	.LVL16:
 779              	.LBE4:
 780              		.loc 1 300 0
 781 003c 6420     		movs	r0, #100
 782 003e FFF7FEFF 		bl	chThdSleep
 783              	.LVL17:
 784 0042 3546     		mov	r5, r6
 785 0044 4FF4FA64 		mov	r4, #2000
 786              	.LBB5:
 787              		.loc 1 301 0
 788 0048 40F64A08 		movw	r8, #2122
 789 004c 09E0     		b	.L23
 790              	.LVL18:
 791              	.L31:
 792              		.loc 1 303 0
 793 004e BDF80630 		ldrh	r3, [sp, #6]
 794              		.loc 1 301 0
 795 0052 4445     		cmp	r4, r8
 796              		.loc 1 303 0
 797 0054 4FEA1322 		lsr	r2, r3, #8
 798 0058 05F8012C 		strb	r2, [r5, #-1]
ARM GAS  C:\Users\euanm\AppData\Local\Temp\ccmmPa0a.s 			page 15


 799              		.loc 1 304 0
 800 005c 05F8023B 		strb	r3, [r5], #2
 801              		.loc 1 301 0
 802 0060 08D0     		beq	.L22
 803              	.L23:
 804              		.loc 1 302 0
 805 0062 2046     		mov	r0, r4
 806 0064 0DF10601 		add	r1, sp, #6
 807 0068 FFF7FEFF 		bl	EE_ReadVariable
 808              	.LVL19:
 809 006c 0134     		adds	r4, r4, #1
 810 006e A4B2     		uxth	r4, r4
 811 0070 0028     		cmp	r0, #0
 812 0072 ECD0     		beq	.L31
 813              	.L22:
 814              	.LBE5:
 815              		.loc 1 313 0
 816 0074 6420     		movs	r0, #100
 817 0076 FFF7FEFF 		bl	chThdSleep
 818              	.LVL20:
 819 007a 4FF4FA64 		mov	r4, #2000
 820              	.LBB6:
 821              		.loc 1 314 0
 822 007e 40F64A05 		movw	r5, #2122
 823 0082 09E0     		b	.L25
 824              	.LVL21:
 825              	.L32:
 826              		.loc 1 316 0
 827 0084 BDF80630 		ldrh	r3, [sp, #6]
 828              		.loc 1 314 0
 829 0088 AC42     		cmp	r4, r5
 830              		.loc 1 316 0
 831 008a 4FEA1322 		lsr	r2, r3, #8
 832 008e 06F8012C 		strb	r2, [r6, #-1]
 833              		.loc 1 317 0
 834 0092 06F8023B 		strb	r3, [r6], #2
 835              		.loc 1 314 0
 836 0096 08D0     		beq	.L24
 837              	.L25:
 838              		.loc 1 315 0
 839 0098 2046     		mov	r0, r4
 840 009a 0DF10601 		add	r1, sp, #6
 841 009e FFF7FEFF 		bl	EE_ReadVariable
 842              	.LVL22:
 843 00a2 0134     		adds	r4, r4, #1
 844 00a4 A4B2     		uxth	r4, r4
 845 00a6 0028     		cmp	r0, #0
 846 00a8 ECD0     		beq	.L32
 847              	.L24:
 848              	.LBE6:
 849              		.loc 1 327 0
 850 00aa 3846     		mov	r0, r7
 851 00ac FFF7FEFF 		bl	conf_general_get_default_app_configuration
 852              	.LVL23:
 853              	.L18:
 854              		.loc 1 329 0
 855 00b0 02B0     		add	sp, sp, #8
ARM GAS  C:\Users\euanm\AppData\Local\Temp\ccmmPa0a.s 			page 16


 856              		.cfi_def_cfa_offset 24
 857              		@ sp needed
 858 00b2 BDE8F081 		pop	{r4, r5, r6, r7, r8, pc}
 859              		.cfi_endproc
 860              	.LFE222:
 861              		.size	conf_general_read_app_configuration, .-conf_general_read_app_configuration
 862 00b6 00BF     		.section	.text.conf_general_store_app_configuration,"ax",%progbits
 863              		.align	2
 864              		.p2align 4,,15
 865              		.global	conf_general_store_app_configuration
 866              		.thumb
 867              		.thumb_func
 868              		.type	conf_general_store_app_configuration, %function
 869              	conf_general_store_app_configuration:
 870              	.LFB223:
 871              		.loc 1 337 0
 872              		.cfi_startproc
 873              		@ args = 0, pretend = 0, frame = 0
 874              		@ frame_needed = 0, uses_anonymous_args = 0
 875              	.LVL24:
 876 0000 F8B5     		push	{r3, r4, r5, r6, r7, lr}
 877              		.cfi_def_cfa_offset 24
 878              		.cfi_offset 3, -24
 879              		.cfi_offset 4, -20
 880              		.cfi_offset 5, -16
 881              		.cfi_offset 6, -12
 882              		.cfi_offset 7, -8
 883              		.cfi_offset 14, -4
 884              		.loc 1 337 0
 885 0002 0646     		mov	r6, r0
 886              		.loc 1 338 0
 887 0004 FFF7FEFF 		bl	mc_interface_unlock
 888              	.LVL25:
 889              		.loc 1 339 0
 890 0008 FFF7FEFF 		bl	mc_interface_release_motor
 891              	.LVL26:
 892              		.loc 1 341 0
 893 000c FFF7FEFF 		bl	utils_sys_lock_cnt
 894              	.LVL27:
 895              		.loc 1 342 0
 896 0010 0021     		movs	r1, #0
 897 0012 4FF40060 		mov	r0, #2048
 898 0016 FFF7FEFF 		bl	RCC_APB1PeriphClockCmd
 899              	.LVL28:
 900 001a 0136     		adds	r6, r6, #1
 901              	.LVL29:
 902              		.loc 1 348 0
 903 001c F220     		movs	r0, #242
 904 001e FFF7FEFF 		bl	FLASH_ClearFlag
 905              	.LVL30:
 906 0022 3546     		mov	r5, r6
 907 0024 4FF4FA64 		mov	r4, #2000
 908              	.LBB7:
 909              		.loc 1 351 0
 910 0028 40F64A07 		movw	r7, #2122
 911 002c 01E0     		b	.L35
 912              	.LVL31:
ARM GAS  C:\Users\euanm\AppData\Local\Temp\ccmmPa0a.s 			page 17


 913              	.L47:
 914              		.loc 1 351 0 is_stmt 0 discriminator 2
 915 002e BC42     		cmp	r4, r7
 916 0030 48D0     		beq	.L46
 917              	.L35:
 918              		.loc 1 352 0 is_stmt 1
 919 0032 15F8011C 		ldrb	r1, [r5, #-1]	@ zero_extendqisi2
 920              	.LVL32:
 921              		.loc 1 355 0
 922 0036 2B78     		ldrb	r3, [r5]	@ zero_extendqisi2
 923 0038 2046     		mov	r0, r4
 924 003a 43EA0121 		orr	r1, r3, r1, lsl #8
 925              	.LVL33:
 926 003e FFF7FEFF 		bl	EE_WriteVariable
 927              	.LVL34:
 928 0042 0134     		adds	r4, r4, #1
 929 0044 0928     		cmp	r0, #9
 930 0046 A4B2     		uxth	r4, r4
 931 0048 05F10205 		add	r5, r5, #2
 932 004c EFD0     		beq	.L47
 933              	.LVL35:
 934              	.LBE7:
 935              		.loc 1 363 0
 936 004e 6420     		movs	r0, #100
 937 0050 FFF7FEFF 		bl	chThdSleep
 938              	.LVL36:
 939 0054 3546     		mov	r5, r6
 940 0056 4FF4FA64 		mov	r4, #2000
 941              	.LBB8:
 942              		.loc 1 364 0
 943 005a 40F64A07 		movw	r7, #2122
 944 005e 01E0     		b	.L38
 945              	.LVL37:
 946              	.L48:
 947              		.loc 1 364 0 is_stmt 0 discriminator 2
 948 0060 BC42     		cmp	r4, r7
 949 0062 0DD0     		beq	.L37
 950              	.L38:
 951              		.loc 1 365 0 is_stmt 1
 952 0064 15F8011C 		ldrb	r1, [r5, #-1]	@ zero_extendqisi2
 953              	.LVL38:
 954              		.loc 1 368 0
 955 0068 2B78     		ldrb	r3, [r5]	@ zero_extendqisi2
 956 006a 2046     		mov	r0, r4
 957 006c 43EA0121 		orr	r1, r3, r1, lsl #8
 958              	.LVL39:
 959 0070 FFF7FEFF 		bl	EE_WriteVariable
 960              	.LVL40:
 961 0074 0134     		adds	r4, r4, #1
 962 0076 0928     		cmp	r0, #9
 963 0078 A4B2     		uxth	r4, r4
 964 007a 05F10205 		add	r5, r5, #2
 965 007e EFD0     		beq	.L48
 966              	.L37:
 967              	.LBE8:
 968              		.loc 1 377 0
 969 0080 6420     		movs	r0, #100
ARM GAS  C:\Users\euanm\AppData\Local\Temp\ccmmPa0a.s 			page 18


 970 0082 FFF7FEFF 		bl	chThdSleep
 971              	.LVL41:
 972 0086 4FF4FA64 		mov	r4, #2000
 973              	.LBB9:
 974              		.loc 1 378 0
 975 008a 40F64A05 		movw	r5, #2122
 976 008e 01E0     		b	.L39
 977              	.LVL42:
 978              	.L49:
 979              		.loc 1 378 0 is_stmt 0 discriminator 2
 980 0090 AC42     		cmp	r4, r5
 981 0092 0DD0     		beq	.L40
 982              	.L39:
 983              		.loc 1 379 0 is_stmt 1
 984 0094 16F8011C 		ldrb	r1, [r6, #-1]	@ zero_extendqisi2
 985              	.LVL43:
 986              		.loc 1 382 0
 987 0098 3378     		ldrb	r3, [r6]	@ zero_extendqisi2
 988 009a 2046     		mov	r0, r4
 989 009c 43EA0121 		orr	r1, r3, r1, lsl #8
 990              	.LVL44:
 991 00a0 FFF7FEFF 		bl	EE_WriteVariable
 992              	.LVL45:
 993 00a4 0134     		adds	r4, r4, #1
 994 00a6 0928     		cmp	r0, #9
 995 00a8 A4B2     		uxth	r4, r4
 996 00aa 06F10206 		add	r6, r6, #2
 997 00ae EFD0     		beq	.L49
 998              	.L40:
 999              		.loc 1 383 0
 1000 00b0 0024     		movs	r4, #0
 1001              	.LVL46:
 1002              	.L36:
 1003              	.LBE9:
 1004              		.loc 1 389 0
 1005 00b2 0121     		movs	r1, #1
 1006 00b4 4FF40060 		mov	r0, #2048
 1007 00b8 FFF7FEFF 		bl	RCC_APB1PeriphClockCmd
 1008              	.LVL47:
 1009              		.loc 1 390 0
 1010 00bc FFF7FEFF 		bl	utils_sys_unlock_cnt
 1011              	.LVL48:
 1012              		.loc 1 393 0
 1013 00c0 2046     		mov	r0, r4
 1014 00c2 F8BD     		pop	{r3, r4, r5, r6, r7, pc}
 1015              	.LVL49:
 1016              	.L46:
 1017              	.LBB10:
 1018 00c4 0124     		movs	r4, #1
 1019 00c6 F4E7     		b	.L36
 1020              	.LBE10:
 1021              		.cfi_endproc
 1022              	.LFE223:
 1023              		.size	conf_general_store_app_configuration, .-conf_general_store_app_configuration
 1024              		.section	.text.conf_general_read_mc_configuration,"ax",%progbits
 1025              		.align	2
 1026              		.p2align 4,,15
ARM GAS  C:\Users\euanm\AppData\Local\Temp\ccmmPa0a.s 			page 19


 1027              		.global	conf_general_read_mc_configuration
 1028              		.thumb
 1029              		.thumb_func
 1030              		.type	conf_general_read_mc_configuration, %function
 1031              	conf_general_read_mc_configuration:
 1032              	.LFB224:
 1033              		.loc 1 401 0
 1034              		.cfi_startproc
 1035              		@ args = 0, pretend = 0, frame = 8
 1036              		@ frame_needed = 0, uses_anonymous_args = 0
 1037              	.LVL50:
 1038 0000 F0B5     		push	{r4, r5, r6, r7, lr}
 1039              		.cfi_def_cfa_offset 20
 1040              		.cfi_offset 4, -20
 1041              		.cfi_offset 5, -16
 1042              		.cfi_offset 6, -12
 1043              		.cfi_offset 7, -8
 1044              		.cfi_offset 14, -4
 1045 0002 461C     		adds	r6, r0, #1
 1046 0004 83B0     		sub	sp, sp, #12
 1047              		.cfi_def_cfa_offset 32
 1048              		.loc 1 401 0
 1049 0006 0746     		mov	r7, r0
 1050              	.LVL51:
 1051 0008 3546     		mov	r5, r6
 1052 000a 4FF47A74 		mov	r4, #1000
 1053 000e 0AE0     		b	.L52
 1054              	.LVL52:
 1055              	.L62:
 1056              	.LBB11:
 1057              		.loc 1 408 0
 1058 0010 BDF80630 		ldrh	r3, [sp, #6]
 1059              		.loc 1 406 0
 1060 0014 B4F5916F 		cmp	r4, #1160
 1061              		.loc 1 408 0
 1062 0018 4FEA1322 		lsr	r2, r3, #8
 1063 001c 05F8012C 		strb	r2, [r5, #-1]
 1064              		.loc 1 409 0
 1065 0020 05F8023B 		strb	r3, [r5], #2
 1066              		.loc 1 406 0
 1067 0024 40D0     		beq	.L50
 1068              	.L52:
 1069              		.loc 1 407 0
 1070 0026 2046     		mov	r0, r4
 1071 0028 0DF10601 		add	r1, sp, #6
 1072 002c FFF7FEFF 		bl	EE_ReadVariable
 1073              	.LVL53:
 1074 0030 0134     		adds	r4, r4, #1
 1075 0032 A4B2     		uxth	r4, r4
 1076 0034 0028     		cmp	r0, #0
 1077 0036 EBD0     		beq	.L62
 1078              	.LVL54:
 1079              	.LBE11:
 1080              		.loc 1 418 0
 1081 0038 6420     		movs	r0, #100
 1082 003a FFF7FEFF 		bl	chThdSleep
 1083              	.LVL55:
ARM GAS  C:\Users\euanm\AppData\Local\Temp\ccmmPa0a.s 			page 20


 1084 003e 3546     		mov	r5, r6
 1085 0040 4FF47A74 		mov	r4, #1000
 1086 0044 0AE0     		b	.L55
 1087              	.LVL56:
 1088              	.L63:
 1089              	.LBB12:
 1090              		.loc 1 421 0
 1091 0046 BDF80630 		ldrh	r3, [sp, #6]
 1092              		.loc 1 419 0
 1093 004a B4F5916F 		cmp	r4, #1160
 1094              		.loc 1 421 0
 1095 004e 4FEA1322 		lsr	r2, r3, #8
 1096 0052 05F8012C 		strb	r2, [r5, #-1]
 1097              		.loc 1 422 0
 1098 0056 05F8023B 		strb	r3, [r5], #2
 1099              		.loc 1 419 0
 1100 005a 08D0     		beq	.L54
 1101              	.L55:
 1102              		.loc 1 420 0
 1103 005c 2046     		mov	r0, r4
 1104 005e 0DF10601 		add	r1, sp, #6
 1105 0062 FFF7FEFF 		bl	EE_ReadVariable
 1106              	.LVL57:
 1107 0066 0134     		adds	r4, r4, #1
 1108 0068 A4B2     		uxth	r4, r4
 1109 006a 0028     		cmp	r0, #0
 1110 006c EBD0     		beq	.L63
 1111              	.L54:
 1112              	.LBE12:
 1113              		.loc 1 432 0
 1114 006e 6420     		movs	r0, #100
 1115 0070 FFF7FEFF 		bl	chThdSleep
 1116              	.LVL58:
 1117 0074 4FF47A74 		mov	r4, #1000
 1118 0078 0AE0     		b	.L57
 1119              	.LVL59:
 1120              	.L64:
 1121              	.LBB13:
 1122              		.loc 1 435 0
 1123 007a BDF80630 		ldrh	r3, [sp, #6]
 1124              		.loc 1 433 0
 1125 007e B4F5916F 		cmp	r4, #1160
 1126              		.loc 1 435 0
 1127 0082 4FEA1322 		lsr	r2, r3, #8
 1128 0086 06F8012C 		strb	r2, [r6, #-1]
 1129              		.loc 1 436 0
 1130 008a 06F8023B 		strb	r3, [r6], #2
 1131              		.loc 1 433 0
 1132 008e 08D0     		beq	.L56
 1133              	.L57:
 1134              		.loc 1 434 0
 1135 0090 2046     		mov	r0, r4
 1136 0092 0DF10601 		add	r1, sp, #6
 1137 0096 FFF7FEFF 		bl	EE_ReadVariable
 1138              	.LVL60:
 1139 009a 0134     		adds	r4, r4, #1
 1140 009c A4B2     		uxth	r4, r4
ARM GAS  C:\Users\euanm\AppData\Local\Temp\ccmmPa0a.s 			page 21


 1141 009e 0028     		cmp	r0, #0
 1142 00a0 EBD0     		beq	.L64
 1143              	.L56:
 1144              	.LBE13:
 1145              		.loc 1 445 0
 1146 00a2 3846     		mov	r0, r7
 1147 00a4 FFF7FEFF 		bl	conf_general_get_default_mc_configuration
 1148              	.LVL61:
 1149              	.L50:
 1150              		.loc 1 447 0
 1151 00a8 03B0     		add	sp, sp, #12
 1152              		.cfi_def_cfa_offset 20
 1153              		@ sp needed
 1154 00aa F0BD     		pop	{r4, r5, r6, r7, pc}
 1155              		.cfi_endproc
 1156              	.LFE224:
 1157              		.size	conf_general_read_mc_configuration, .-conf_general_read_mc_configuration
 1158              		.section	.text.conf_general_store_mc_configuration,"ax",%progbits
 1159              		.align	2
 1160              		.p2align 4,,15
 1161              		.global	conf_general_store_mc_configuration
 1162              		.thumb
 1163              		.thumb_func
 1164              		.type	conf_general_store_mc_configuration, %function
 1165              	conf_general_store_mc_configuration:
 1166              	.LFB225:
 1167              		.loc 1 455 0
 1168              		.cfi_startproc
 1169              		@ args = 0, pretend = 0, frame = 0
 1170              		@ frame_needed = 0, uses_anonymous_args = 0
 1171              	.LVL62:
 1172 0000 70B5     		push	{r4, r5, r6, lr}
 1173              		.cfi_def_cfa_offset 16
 1174              		.cfi_offset 4, -16
 1175              		.cfi_offset 5, -12
 1176              		.cfi_offset 6, -8
 1177              		.cfi_offset 14, -4
 1178              		.loc 1 455 0
 1179 0002 0646     		mov	r6, r0
 1180              		.loc 1 456 0
 1181 0004 FFF7FEFF 		bl	mc_interface_unlock
 1182              	.LVL63:
 1183              		.loc 1 457 0
 1184 0008 FFF7FEFF 		bl	mc_interface_release_motor
 1185              	.LVL64:
 1186              		.loc 1 459 0
 1187 000c FFF7FEFF 		bl	utils_sys_lock_cnt
 1188              	.LVL65:
 1189              		.loc 1 460 0
 1190 0010 0021     		movs	r1, #0
 1191 0012 4FF40060 		mov	r0, #2048
 1192 0016 FFF7FEFF 		bl	RCC_APB1PeriphClockCmd
 1193              	.LVL66:
 1194 001a 0136     		adds	r6, r6, #1
 1195              	.LVL67:
 1196              		.loc 1 466 0
 1197 001c F220     		movs	r0, #242
ARM GAS  C:\Users\euanm\AppData\Local\Temp\ccmmPa0a.s 			page 22


 1198 001e FFF7FEFF 		bl	FLASH_ClearFlag
 1199              	.LVL68:
 1200 0022 3546     		mov	r5, r6
 1201 0024 4FF47A74 		mov	r4, #1000
 1202 0028 02E0     		b	.L67
 1203              	.LVL69:
 1204              	.L79:
 1205              	.LBB14:
 1206              		.loc 1 469 0 discriminator 2
 1207 002a B4F5916F 		cmp	r4, #1160
 1208 002e 46D0     		beq	.L78
 1209              	.L67:
 1210              		.loc 1 470 0
 1211 0030 15F8011C 		ldrb	r1, [r5, #-1]	@ zero_extendqisi2
 1212              	.LVL70:
 1213              		.loc 1 473 0
 1214 0034 2B78     		ldrb	r3, [r5]	@ zero_extendqisi2
 1215 0036 2046     		mov	r0, r4
 1216 0038 43EA0121 		orr	r1, r3, r1, lsl #8
 1217              	.LVL71:
 1218 003c FFF7FEFF 		bl	EE_WriteVariable
 1219              	.LVL72:
 1220 0040 0134     		adds	r4, r4, #1
 1221 0042 0928     		cmp	r0, #9
 1222 0044 A4B2     		uxth	r4, r4
 1223 0046 05F10205 		add	r5, r5, #2
 1224 004a EED0     		beq	.L79
 1225              	.LVL73:
 1226              	.LBE14:
 1227              		.loc 1 481 0
 1228 004c 6420     		movs	r0, #100
 1229 004e FFF7FEFF 		bl	chThdSleep
 1230              	.LVL74:
 1231 0052 3546     		mov	r5, r6
 1232 0054 4FF47A74 		mov	r4, #1000
 1233 0058 02E0     		b	.L70
 1234              	.LVL75:
 1235              	.L80:
 1236              	.LBB15:
 1237              		.loc 1 482 0 discriminator 2
 1238 005a B4F5916F 		cmp	r4, #1160
 1239 005e 0DD0     		beq	.L69
 1240              	.L70:
 1241              		.loc 1 483 0
 1242 0060 15F8011C 		ldrb	r1, [r5, #-1]	@ zero_extendqisi2
 1243              	.LVL76:
 1244              		.loc 1 486 0
 1245 0064 2B78     		ldrb	r3, [r5]	@ zero_extendqisi2
 1246 0066 2046     		mov	r0, r4
 1247 0068 43EA0121 		orr	r1, r3, r1, lsl #8
 1248              	.LVL77:
 1249 006c FFF7FEFF 		bl	EE_WriteVariable
 1250              	.LVL78:
 1251 0070 0134     		adds	r4, r4, #1
 1252 0072 0928     		cmp	r0, #9
 1253 0074 A4B2     		uxth	r4, r4
 1254 0076 05F10205 		add	r5, r5, #2
ARM GAS  C:\Users\euanm\AppData\Local\Temp\ccmmPa0a.s 			page 23


 1255 007a EED0     		beq	.L80
 1256              	.L69:
 1257              	.LBE15:
 1258              		.loc 1 495 0
 1259 007c 6420     		movs	r0, #100
 1260 007e FFF7FEFF 		bl	chThdSleep
 1261              	.LVL79:
 1262 0082 4FF47A74 		mov	r4, #1000
 1263 0086 02E0     		b	.L71
 1264              	.LVL80:
 1265              	.L81:
 1266              	.LBB16:
 1267              		.loc 1 496 0 discriminator 2
 1268 0088 B4F5916F 		cmp	r4, #1160
 1269 008c 0DD0     		beq	.L72
 1270              	.L71:
 1271              		.loc 1 497 0
 1272 008e 16F8011C 		ldrb	r1, [r6, #-1]	@ zero_extendqisi2
 1273              	.LVL81:
 1274              		.loc 1 500 0
 1275 0092 3378     		ldrb	r3, [r6]	@ zero_extendqisi2
 1276 0094 2046     		mov	r0, r4
 1277 0096 43EA0121 		orr	r1, r3, r1, lsl #8
 1278              	.LVL82:
 1279 009a FFF7FEFF 		bl	EE_WriteVariable
 1280              	.LVL83:
 1281 009e 0134     		adds	r4, r4, #1
 1282 00a0 0928     		cmp	r0, #9
 1283 00a2 A4B2     		uxth	r4, r4
 1284 00a4 06F10206 		add	r6, r6, #2
 1285 00a8 EED0     		beq	.L81
 1286              	.L72:
 1287              		.loc 1 501 0
 1288 00aa 0024     		movs	r4, #0
 1289              	.LVL84:
 1290              	.L68:
 1291              	.LBE16:
 1292              		.loc 1 507 0
 1293 00ac 0121     		movs	r1, #1
 1294 00ae 4FF40060 		mov	r0, #2048
 1295 00b2 FFF7FEFF 		bl	RCC_APB1PeriphClockCmd
 1296              	.LVL85:
 1297              		.loc 1 508 0
 1298 00b6 FFF7FEFF 		bl	utils_sys_unlock_cnt
 1299              	.LVL86:
 1300              		.loc 1 511 0
 1301 00ba 2046     		mov	r0, r4
 1302 00bc 70BD     		pop	{r4, r5, r6, pc}
 1303              	.LVL87:
 1304              	.L78:
 1305              	.LBB17:
 1306 00be 0124     		movs	r4, #1
 1307 00c0 F4E7     		b	.L68
 1308              	.LBE17:
 1309              		.cfi_endproc
 1310              	.LFE225:
 1311              		.size	conf_general_store_mc_configuration, .-conf_general_store_mc_configuration
ARM GAS  C:\Users\euanm\AppData\Local\Temp\ccmmPa0a.s 			page 24


 1312 00c2 00BF     		.section	.text.conf_general_detect_motor_param,"ax",%progbits
 1313              		.align	2
 1314              		.p2align 4,,15
 1315              		.global	conf_general_detect_motor_param
 1316              		.thumb
 1317              		.thumb_func
 1318              		.type	conf_general_detect_motor_param, %function
 1319              	conf_general_detect_motor_param:
 1320              	.LFB226:
 1321              		.loc 1 514 0
 1322              		.cfi_startproc
 1323              		@ args = 0, pretend = 0, frame = 0
 1324              		@ frame_needed = 0, uses_anonymous_args = 0
 1325              	.LVL88:
 1326 0000 2DE9F047 		push	{r4, r5, r6, r7, r8, r9, r10, lr}
 1327              		.cfi_def_cfa_offset 32
 1328              		.cfi_offset 4, -32
 1329              		.cfi_offset 5, -28
 1330              		.cfi_offset 6, -24
 1331              		.cfi_offset 7, -20
 1332              		.cfi_offset 8, -16
 1333              		.cfi_offset 9, -12
 1334              		.cfi_offset 10, -8
 1335              		.cfi_offset 14, -4
 1336 0004 2DED048B 		vpush.64	{d8, d9}
 1337              		.cfi_def_cfa_offset 48
 1338              		.cfi_offset 80, -48
 1339              		.cfi_offset 81, -44
 1340              		.cfi_offset 82, -40
 1341              		.cfi_offset 83, -36
 1342              		.loc 1 514 0
 1343 0008 9846     		mov	r8, r3
 1344 000a F0EE609A 		vmov.f32	s19, s1
 1345 000e B0EE409A 		vmov.f32	s18, s0
 1346 0012 F0EE418A 		vmov.f32	s17, s2
 1347 0016 0F46     		mov	r7, r1
 1348 0018 9146     		mov	r9, r2
 1349 001a 0646     		mov	r6, r0
 1350              		.loc 1 519 0
 1351 001c FFF7FEFF 		bl	mc_interface_get_configuration
 1352              	.LVL89:
 1353 0020 6E4C     		ldr	r4, .L115
 1354              	.LBB18:
 1355              		.loc 1 536 0
 1356 0022 9FED6F8A 		vldr.32	s16, .L115+4
 1357              	.LBE18:
 1358              		.loc 1 519 0
 1359 0026 0146     		mov	r1, r0
 1360 0028 4FF4A072 		mov	r2, #320
 1361 002c 2046     		mov	r0, r4
 1362 002e FFF7FEFF 		bl	memcpy
 1363              	.LVL90:
 1364              		.loc 1 520 0
 1365 0032 2146     		mov	r1, r4
 1366 0034 4FF4A072 		mov	r2, #320
 1367 0038 6A48     		ldr	r0, .L115+8
 1368 003a FFF7FEFF 		bl	memcpy
ARM GAS  C:\Users\euanm\AppData\Local\Temp\ccmmPa0a.s 			page 25


 1369              	.LVL91:
 1370              		.loc 1 522 0
 1371 003e 0023     		movs	r3, #0
 1372              		.loc 1 524 0
 1373 0040 0121     		movs	r1, #1
 1374              		.loc 1 525 0
 1375 0042 4FF07E52 		mov	r2, #1065353216
 1376              		.loc 1 527 0
 1377 0046 2046     		mov	r0, r4
 1378              		.loc 1 524 0
 1379 0048 6170     		strb	r1, [r4, #1]
 1380              		.loc 1 525 0
 1381 004a E267     		str	r2, [r4, #124]	@ float
 1382              		.loc 1 522 0
 1383 004c A370     		strb	r3, [r4, #2]
 1384              		.loc 1 523 0
 1385 004e E370     		strb	r3, [r4, #3]
 1386              		.loc 1 526 0
 1387 0050 C4ED1B9A 		vstr.32	s19, [r4, #108]
 1388              		.loc 1 527 0
 1389 0054 FFF7FEFF 		bl	mc_interface_set_configuration
 1390              	.LVL92:
 1391              		.loc 1 529 0
 1392 0058 FFF7FEFF 		bl	mc_interface_lock
 1393              	.LVL93:
 1394              		.loc 1 531 0
 1395 005c FFF7FEFF 		bl	mc_interface_lock_override_once
 1396              	.LVL94:
 1397              		.loc 1 532 0
 1398 0060 B0EE490A 		vmov.f32	s0, s18
 1399 0064 FFF7FEFF 		bl	mc_interface_set_current
 1400              	.LVL95:
 1401 0068 41F28834 		movw	r4, #5000
 1402 006c 03E0     		b	.L85
 1403              	.LVL96:
 1404              	.L110:
 1405              	.LBB19:
 1406              		.loc 1 537 0
 1407 006e FFF7FEFF 		bl	chThdSleep
 1408              	.LVL97:
 1409              		.loc 1 535 0
 1410 0072 013C     		subs	r4, r4, #1
 1411              	.LVL98:
 1412 0074 09D0     		beq	.L83
 1413              	.LVL99:
 1414              	.L85:
 1415              		.loc 1 536 0
 1416 0076 FFF7FEFF 		bl	mc_interface_get_duty_cycle_now
 1417              	.LVL100:
 1418 007a B4EEC80A 		vcmpe.f32	s0, s16
 1419 007e F1EE10FA 		vmrs	APSR_nzcv, FPSCR
 1420              		.loc 1 537 0
 1421 0082 4FF00A00 		mov	r0, #10
 1422              		.loc 1 536 0
 1423 0086 F2D4     		bmi	.L110
 1424              		.loc 1 539 0
 1425 0088 0124     		movs	r4, #1
ARM GAS  C:\Users\euanm\AppData\Local\Temp\ccmmPa0a.s 			page 26


 1426              	.LVL101:
 1427              	.L83:
 1428              	.LBE19:
 1429              		.loc 1 545 0
 1430 008a FFF7FEFF 		bl	mcpwm_reset_hall_detect_table
 1431              	.LVL102:
 1432              		.loc 1 548 0
 1433 008e FFF7FEFF 		bl	mc_interface_lock_override_once
 1434              	.LVL103:
 1435              		.loc 1 549 0
 1436 0092 9FED530A 		vldr.32	s0, .L115+4
 1437 0096 FFF7FEFF 		bl	mc_interface_set_duty
 1438              	.LVL104:
 1439              		.loc 1 550 0
 1440 009a 4FF47A60 		mov	r0, #4000
 1441 009e FFF7FEFF 		bl	chThdSleep
 1442              	.LVL105:
 1443              		.loc 1 553 0
 1444 00a2 FFF7FEFF 		bl	mc_interface_lock_override_once
 1445              	.LVL106:
 1446              		.loc 1 554 0
 1447 00a6 9FED500A 		vldr.32	s0, .L115+12
 1448 00aa FFF7FEFF 		bl	mc_interface_set_current
 1449              	.LVL107:
 1450              		.loc 1 555 0
 1451 00ae 0020     		movs	r0, #0
 1452 00b0 FFF7FEFF 		bl	mcpwm_get_tachometer_value
 1453              	.LVL108:
 1454 00b4 4FF4FA65 		mov	r5, #2000
 1455 00b8 8246     		mov	r10, r0
 1456              	.LVL109:
 1457 00ba 03E0     		b	.L87
 1458              	.LVL110:
 1459              	.L111:
 1460              	.LBB20:
 1461              		.loc 1 558 0
 1462 00bc FFF7FEFF 		bl	chThdSleep
 1463              	.LVL111:
 1464              		.loc 1 556 0
 1465 00c0 013D     		subs	r5, r5, #1
 1466              	.LVL112:
 1467 00c2 09D0     		beq	.L88
 1468              	.LVL113:
 1469              	.L87:
 1470              		.loc 1 557 0
 1471 00c4 0020     		movs	r0, #0
 1472 00c6 FFF7FEFF 		bl	mcpwm_get_tachometer_value
 1473              	.LVL114:
 1474 00ca CAEB0003 		rsb	r3, r10, r0
 1475 00ce 022B     		cmp	r3, #2
 1476              		.loc 1 558 0
 1477 00d0 4FF00A00 		mov	r0, #10
 1478              		.loc 1 557 0
 1479 00d4 F2DD     		ble	.L111
 1480              		.loc 1 560 0
 1481 00d6 0134     		adds	r4, r4, #1
 1482              	.LVL115:
ARM GAS  C:\Users\euanm\AppData\Local\Temp\ccmmPa0a.s 			page 27


 1483              	.L88:
 1484              	.LBE20:
 1485              		.loc 1 566 0
 1486 00d8 FFF7FEFF 		bl	mcpwm_read_reset_avg_cycle_integrator
 1487              	.LVL116:
 1488              		.loc 1 567 0
 1489 00dc 0020     		movs	r0, #0
 1490 00de FFF7FEFF 		bl	mcpwm_get_tachometer_value
 1491              	.LVL117:
 1492 00e2 40F6B835 		movw	r5, #3000
 1493 00e6 8246     		mov	r10, r0
 1494              	.LVL118:
 1495 00e8 03E0     		b	.L90
 1496              	.LVL119:
 1497              	.L112:
 1498              	.LBB21:
 1499              		.loc 1 570 0
 1500 00ea FFF7FEFF 		bl	chThdSleep
 1501              	.LVL120:
 1502              		.loc 1 568 0
 1503 00ee 013D     		subs	r5, r5, #1
 1504              	.LVL121:
 1505 00f0 09D0     		beq	.L91
 1506              	.LVL122:
 1507              	.L90:
 1508              		.loc 1 569 0
 1509 00f2 0020     		movs	r0, #0
 1510 00f4 FFF7FEFF 		bl	mcpwm_get_tachometer_value
 1511              	.LVL123:
 1512 00f8 CAEB0003 		rsb	r3, r10, r0
 1513 00fc 312B     		cmp	r3, #49
 1514              		.loc 1 570 0
 1515 00fe 4FF00A00 		mov	r0, #10
 1516              		.loc 1 569 0
 1517 0102 F2DD     		ble	.L112
 1518              		.loc 1 572 0
 1519 0104 0134     		adds	r4, r4, #1
 1520              	.LVL124:
 1521              	.L91:
 1522              	.LBE21:
 1523              		.loc 1 578 0
 1524 0106 4846     		mov	r0, r9
 1525 0108 FFF7FEFF 		bl	mcpwm_get_hall_detect_result
 1526              	.LVL125:
 1527 010c C8F80000 		str	r0, [r8]
 1528              		.loc 1 580 0
 1529 0110 FFF7FEFF 		bl	mcpwm_read_reset_avg_cycle_integrator
 1530              	.LVL126:
 1531 0114 41F28835 		movw	r5, #5000
 1532 0118 86ED000A 		vstr.32	s0, [r6]
 1533              	.LVL127:
 1534 011c 03E0     		b	.L94
 1535              	.LVL128:
 1536              	.L113:
 1537              	.LBB22:
 1538              		.loc 1 585 0
 1539 011e FFF7FEFF 		bl	chThdSleep
ARM GAS  C:\Users\euanm\AppData\Local\Temp\ccmmPa0a.s 			page 28


 1540              	.LVL129:
 1541              		.loc 1 583 0
 1542 0122 013D     		subs	r5, r5, #1
 1543              	.LVL130:
 1544 0124 09D0     		beq	.L95
 1545              	.LVL131:
 1546              	.L94:
 1547              		.loc 1 584 0
 1548 0126 FFF7FEFF 		bl	mc_interface_get_duty_cycle_now
 1549              	.LVL132:
 1550 012a B4EEE80A 		vcmpe.f32	s0, s17
 1551 012e F1EE10FA 		vmrs	APSR_nzcv, FPSCR
 1552              		.loc 1 585 0
 1553 0132 4FF00A00 		mov	r0, #10
 1554              		.loc 1 584 0
 1555 0136 F2DC     		bgt	.L113
 1556              		.loc 1 587 0
 1557 0138 0134     		adds	r4, r4, #1
 1558              	.LVL133:
 1559              	.L95:
 1560              	.LBE22:
 1561              		.loc 1 592 0
 1562 013a FFF7FEFF 		bl	mc_interface_lock_override_once
 1563              	.LVL134:
 1564              		.loc 1 593 0
 1565 013e B0EE680A 		vmov.f32	s0, s17
 1566 0142 FFF7FEFF 		bl	mc_interface_set_duty
 1567              	.LVL135:
 1568              		.loc 1 596 0
 1569 0146 FFF7FEFF 		bl	mcpwm_read_reset_avg_cycle_integrator
 1570              	.LVL136:
 1571              		.loc 1 597 0
 1572 014a 0020     		movs	r0, #0
 1573 014c FFF7FEFF 		bl	mcpwm_get_tachometer_value
 1574              	.LVL137:
 1575              		.loc 1 599 0
 1576 0150 9FED258A 		vldr.32	s16, .L115+12
 1577              		.loc 1 597 0
 1578 0154 8046     		mov	r8, r0
 1579              	.LVL138:
 1580              		.loc 1 598 0
 1581 0156 F0EE488A 		vmov.f32	s17, s16
 1582              	.LVL139:
 1583              		.loc 1 597 0
 1584 015a 40F6B835 		movw	r5, #3000
 1585              	.LBB23:
 1586              		.loc 1 603 0
 1587 015e B7EE009A 		vmov.f32	s18, #1.0e+0
 1588              	.LVL140:
 1589 0162 0AE0     		b	.L97
 1590              	.LVL141:
 1591              	.L114:
 1592              		.loc 1 602 0
 1593 0164 FFF7FEFF 		bl	mc_interface_get_rpm
 1594              	.LVL142:
 1595              		.loc 1 604 0
 1596 0168 0A20     		movs	r0, #10
ARM GAS  C:\Users\euanm\AppData\Local\Temp\ccmmPa0a.s 			page 29


 1597              		.loc 1 602 0
 1598 016a 78EE808A 		vadd.f32	s17, s17, s0
 1599              	.LVL143:
 1600              		.loc 1 604 0
 1601 016e FFF7FEFF 		bl	chThdSleep
 1602              	.LVL144:
 1603              		.loc 1 600 0
 1604 0172 013D     		subs	r5, r5, #1
 1605              	.LVL145:
 1606              		.loc 1 603 0
 1607 0174 38EE098A 		vadd.f32	s16, s16, s18
 1608              	.LVL146:
 1609              		.loc 1 600 0
 1610 0178 07D0     		beq	.L98
 1611              	.LVL147:
 1612              	.L97:
 1613              		.loc 1 601 0
 1614 017a 0020     		movs	r0, #0
 1615 017c FFF7FEFF 		bl	mcpwm_get_tachometer_value
 1616              	.LVL148:
 1617 0180 C8EB0000 		rsb	r0, r8, r0
 1618 0184 6328     		cmp	r0, #99
 1619 0186 EDDD     		ble	.L114
 1620              		.loc 1 606 0
 1621 0188 0134     		adds	r4, r4, #1
 1622              	.LVL149:
 1623              	.L98:
 1624              	.LBE23:
 1625              		.loc 1 611 0
 1626 018a FFF7FEFF 		bl	mcpwm_read_reset_avg_cycle_integrator
 1627              	.LVL150:
 1628 018e B0EE409A 		vmov.f32	s18, s0
 1629              	.LVL151:
 1630              		.loc 1 614 0
 1631 0192 FFF7FEFF 		bl	mc_interface_lock_override_once
 1632              	.LVL152:
 1633              		.loc 1 615 0
 1634 0196 FFF7FEFF 		bl	mc_interface_release_motor
 1635              	.LVL153:
 1636              		.loc 1 619 0
 1637 019a 144B     		ldr	r3, .L115+16
 1638              		.loc 1 618 0
 1639 019c 96ED000A 		vldr.32	s0, [r6]
 1640              		.loc 1 619 0
 1641 01a0 1B8A     		ldrh	r3, [r3, #16]
 1642              		.loc 1 624 0
 1643 01a2 1048     		ldr	r0, .L115+8
 1644              		.loc 1 619 0
 1645 01a4 9BB2     		uxth	r3, r3
 1646 01a6 07EE903A 		vmov	s15, r3	@ int
 1647              		.loc 1 618 0
 1648 01aa 39EE400A 		vsub.f32	s0, s18, s0
 1649              		.loc 1 619 0
 1650 01ae F8EE677A 		vcvt.f32.u32	s15, s15
 1651              		.loc 1 612 0
 1652 01b2 88EE887A 		vdiv.f32	s14, s17, s16
 1653              	.LVL154:
ARM GAS  C:\Users\euanm\AppData\Local\Temp\ccmmPa0a.s 			page 30


 1654              		.loc 1 619 0
 1655 01b6 C0EE276A 		vdiv.f32	s13, s0, s15
 1656              	.LVL155:
 1657              		.loc 1 621 0
 1658 01ba 67EE267A 		vmul.f32	s15, s14, s13
 1659              	.LVL156:
 1660 01be C7ED007A 		vstr.32	s15, [r7]
 1661              		.loc 1 624 0
 1662 01c2 FFF7FEFF 		bl	mc_interface_set_configuration
 1663              	.LVL157:
 1664              		.loc 1 626 0
 1665 01c6 FFF7FEFF 		bl	mc_interface_unlock
 1666              	.LVL158:
 1667              		.loc 1 629 0
 1668 01ca BDEC048B 		vldm	sp!, {d8-d9}
 1669              		.cfi_restore 82
 1670              		.cfi_restore 83
 1671              		.cfi_restore 80
 1672              		.cfi_restore 81
 1673              		.cfi_def_cfa_offset 32
 1674              	.LVL159:
 1675 01ce A4F10500 		sub	r0, r4, #5
 1676 01d2 B0FA80F0 		clz	r0, r0
 1677 01d6 4009     		lsrs	r0, r0, #5
 1678 01d8 BDE8F087 		pop	{r4, r5, r6, r7, r8, r9, r10, pc}
 1679              	.LVL160:
 1680              	.L116:
 1681              		.align	2
 1682              	.L115:
 1683 01dc 00000000 		.word	.LANCHOR1
 1684 01e0 9A99193F 		.word	1058642330
 1685 01e4 00000000 		.word	.LANCHOR2
 1686 01e8 00000000 		.word	0
 1687 01ec 00000000 		.word	ADC_Value
 1688              		.cfi_endproc
 1689              	.LFE226:
 1690              		.size	conf_general_detect_motor_param, .-conf_general_detect_motor_param
 1691              		.section	.text.conf_general_measure_flux_linkage,"ax",%progbits
 1692              		.align	2
 1693              		.p2align 4,,15
 1694              		.global	conf_general_measure_flux_linkage
 1695              		.thumb
 1696              		.thumb_func
 1697              		.type	conf_general_measure_flux_linkage, %function
 1698              	conf_general_measure_flux_linkage:
 1699              	.LFB227:
 1700              		.loc 1 653 0
 1701              		.cfi_startproc
 1702              		@ args = 0, pretend = 0, frame = 0
 1703              		@ frame_needed = 0, uses_anonymous_args = 0
 1704              	.LVL161:
 1705 0000 F8B5     		push	{r3, r4, r5, r6, r7, lr}
 1706              		.cfi_def_cfa_offset 24
 1707              		.cfi_offset 3, -24
 1708              		.cfi_offset 4, -20
 1709              		.cfi_offset 5, -16
 1710              		.cfi_offset 6, -12
ARM GAS  C:\Users\euanm\AppData\Local\Temp\ccmmPa0a.s 			page 31


 1711              		.cfi_offset 7, -8
 1712              		.cfi_offset 14, -4
 1713 0002 2DED088B 		vpush.64	{d8, d9, d10, d11}
 1714              		.cfi_def_cfa_offset 56
 1715              		.cfi_offset 80, -56
 1716              		.cfi_offset 81, -52
 1717              		.cfi_offset 82, -48
 1718              		.cfi_offset 83, -44
 1719              		.cfi_offset 84, -40
 1720              		.cfi_offset 85, -36
 1721              		.cfi_offset 86, -32
 1722              		.cfi_offset 87, -28
 1723              		.loc 1 653 0
 1724 0006 0746     		mov	r7, r0
 1725 0008 B0EE419A 		vmov.f32	s18, s2
 1726 000c B0EE608A 		vmov.f32	s16, s1
 1727 0010 F0EE61BA 		vmov.f32	s23, s3
 1728 0014 F0EE408A 		vmov.f32	s17, s0
 1729              		.loc 1 654 0
 1730 0018 FFF7FEFF 		bl	mc_interface_get_configuration
 1731              	.LVL162:
 1732 001c 564C     		ldr	r4, .L126
 1733 001e 0146     		mov	r1, r0
 1734 0020 4FF4A072 		mov	r2, #320
 1735 0024 2046     		mov	r0, r4
 1736 0026 FFF7FEFF 		bl	memcpy
 1737              	.LVL163:
 1738              		.loc 1 655 0
 1739 002a 2146     		mov	r1, r4
 1740 002c 4FF4A072 		mov	r2, #320
 1741 0030 5248     		ldr	r0, .L126+4
 1742 0032 FFF7FEFF 		bl	memcpy
 1743              	.LVL164:
 1744              		.loc 1 657 0
 1745 0036 0023     		movs	r3, #0
 1746              		.loc 1 659 0
 1747 0038 0121     		movs	r1, #1
 1748              		.loc 1 660 0
 1749 003a 4FF07E52 		mov	r2, #1065353216
 1750              		.loc 1 662 0
 1751 003e 2046     		mov	r0, r4
 1752              		.loc 1 659 0
 1753 0040 6170     		strb	r1, [r4, #1]
 1754              		.loc 1 660 0
 1755 0042 E267     		str	r2, [r4, #124]	@ float
 1756              		.loc 1 657 0
 1757 0044 A370     		strb	r3, [r4, #2]
 1758              		.loc 1 658 0
 1759 0046 E370     		strb	r3, [r4, #3]
 1760              		.loc 1 661 0
 1761 0048 84ED1B9A 		vstr.32	s18, [r4, #108]
 1762              		.loc 1 662 0
 1763 004c FFF7FEFF 		bl	mc_interface_set_configuration
 1764              	.LVL165:
 1765              		.loc 1 664 0
 1766 0050 42F21070 		movw	r0, #10000
 1767 0054 FFF7FEFF 		bl	chThdSleep
ARM GAS  C:\Users\euanm\AppData\Local\Temp\ccmmPa0a.s 			page 32


 1768              	.LVL166:
 1769              		.loc 1 667 0
 1770 0058 FFF7FEFF 		bl	timeout_get_timeout_msec
 1771              	.LVL167:
 1772 005c 0546     		mov	r5, r0
 1773              	.LVL168:
 1774              		.loc 1 668 0
 1775 005e FFF7FEFF 		bl	timeout_get_brake_current
 1776              	.LVL169:
 1777              		.loc 1 669 0
 1778 0062 4EF66020 		movw	r0, #60000
 1779              		.loc 1 668 0
 1780 0066 B0EE409A 		vmov.f32	s18, s0
 1781              	.LVL170:
 1782              		.loc 1 669 0
 1783 006a 9FED450A 		vldr.32	s0, .L126+8
 1784              	.LVL171:
 1785 006e FFF7FEFF 		bl	timeout_configure
 1786              	.LVL172:
 1787              		.loc 1 671 0
 1788 0072 FFF7FEFF 		bl	mc_interface_lock
 1789              	.LVL173:
 1790              		.loc 1 673 0
 1791 0076 FFF7FEFF 		bl	mc_interface_lock_override_once
 1792              	.LVL174:
 1793              		.loc 1 674 0
 1794 007a B0EE680A 		vmov.f32	s0, s17
 1795 007e FFF7FEFF 		bl	mc_interface_set_current
 1796              	.LVL175:
 1797              		.loc 1 677 0
 1798 0082 41F28834 		movw	r4, #5000
 1799 0086 03E0     		b	.L118
 1800              	.LVL176:
 1801              	.L120:
 1802              		.loc 1 678 0
 1803 0088 FFF7FEFF 		bl	chThdSleep
 1804              	.LVL177:
 1805              		.loc 1 680 0
 1806 008c 013C     		subs	r4, r4, #1
 1807              	.LVL178:
 1808 008e 61D0     		beq	.L125
 1809              	.LVL179:
 1810              	.L118:
 1811              		.loc 1 677 0
 1812 0090 FFF7FEFF 		bl	mc_interface_get_duty_cycle_now
 1813              	.LVL180:
 1814 0094 B4EEC80A 		vcmpe.f32	s0, s16
 1815 0098 F1EE10FA 		vmrs	APSR_nzcv, FPSCR
 1816              		.loc 1 678 0
 1817 009c 4FF00A00 		mov	r0, #10
 1818              		.loc 1 677 0
 1819 00a0 F2D4     		bmi	.L120
 1820              		.loc 1 689 0
 1821 00a2 FFF7FEFF 		bl	mc_interface_lock_override_once
 1822              	.LVL181:
 1823              		.loc 1 690 0
 1824 00a6 B0EE480A 		vmov.f32	s0, s16
ARM GAS  C:\Users\euanm\AppData\Local\Temp\ccmmPa0a.s 			page 33


 1825 00aa FFF7FEFF 		bl	mc_interface_set_duty
 1826              	.LVL182:
 1827              		.loc 1 695 0
 1828 00ae 9FED348A 		vldr.32	s16, .L126+8
 1829              	.LVL183:
 1830 00b2 344E     		ldr	r6, .L126+12
 1831              	.LBB24:
 1832              		.loc 1 697 0
 1833 00b4 9FED34BA 		vldr.32	s22, .L126+16
 1834 00b8 DFED34AA 		vldr.32	s21, .L126+20
 1835              	.LBE24:
 1836              		.loc 1 694 0
 1837 00bc F0EE489A 		vmov.f32	s19, s16
 1838              		.loc 1 693 0
 1839 00c0 F0EE488A 		vmov.f32	s17, s16
 1840              	.LVL184:
 1841              		.loc 1 692 0
 1842 00c4 B0EE489A 		vmov.f32	s18, s16
 1843              	.LVL185:
 1844              		.loc 1 690 0
 1845 00c8 4FF4FA65 		mov	r5, #2000
 1846              	.LVL186:
 1847              	.LBB25:
 1848              		.loc 1 700 0
 1849 00cc B7EE00AA 		vmov.f32	s20, #1.0e+0
 1850              	.LVL187:
 1851              	.L121:
 1852              		.loc 1 697 0 discriminator 3
 1853 00d0 338A     		ldrh	r3, [r6, #16]
 1854 00d2 9CB2     		uxth	r4, r3
 1855 00d4 FFF7FEFF 		bl	mc_interface_get_duty_cycle_now
 1856              	.LVL188:
 1857 00d8 07EE904A 		vmov	s15, r4	@ int
 1858 00dc F8EE677A 		vcvt.f32.u32	s15, s15
 1859 00e0 67EE8B7A 		vmul.f32	s15, s15, s22
 1860 00e4 67EEAA7A 		vmul.f32	s15, s15, s21
 1861 00e8 A7EE809A 		vfma.f32	s18, s15, s0
 1862              	.LVL189:
 1863              		.loc 1 698 0 discriminator 3
 1864 00ec FFF7FEFF 		bl	mc_interface_get_rpm
 1865              	.LVL190:
 1866 00f0 78EE808A 		vadd.f32	s17, s17, s0
 1867              	.LVL191:
 1868              		.loc 1 699 0 discriminator 3
 1869 00f4 FFF7FEFF 		bl	mc_interface_get_tot_current
 1870              	.LVL192:
 1871              		.loc 1 701 0 discriminator 3
 1872 00f8 0A20     		movs	r0, #10
 1873              		.loc 1 699 0 discriminator 3
 1874 00fa 79EE809A 		vadd.f32	s19, s19, s0
 1875              	.LVL193:
 1876              		.loc 1 701 0 discriminator 3
 1877 00fe FFF7FEFF 		bl	chThdSleep
 1878              	.LVL194:
 1879              		.loc 1 696 0 discriminator 3
 1880 0102 013D     		subs	r5, r5, #1
 1881              	.LVL195:
ARM GAS  C:\Users\euanm\AppData\Local\Temp\ccmmPa0a.s 			page 34


 1882              		.loc 1 700 0 discriminator 3
 1883 0104 38EE0A8A 		vadd.f32	s16, s16, s20
 1884              	.LVL196:
 1885              		.loc 1 696 0 discriminator 3
 1886 0108 E2D1     		bne	.L121
 1887              	.LBE25:
 1888              		.loc 1 704 0
 1889 010a 1C48     		ldr	r0, .L126+4
 1890 010c FFF7FEFF 		bl	mc_interface_set_configuration
 1891              	.LVL197:
 1892              		.loc 1 705 0
 1893 0110 FFF7FEFF 		bl	mc_interface_unlock
 1894              	.LVL198:
 1895              		.loc 1 706 0
 1896 0114 9FED1A0A 		vldr.32	s0, .L126+8
 1897 0118 FFF7FEFF 		bl	mc_interface_set_current
 1898              	.LVL199:
 1899              		.loc 1 713 0
 1900 011c C9EE886A 		vdiv.f32	s13, s19, s16
 1901              		.loc 1 715 0
 1902 0120 0120     		movs	r0, #1
 1903              		.loc 1 708 0
 1904 0122 C9EE087A 		vdiv.f32	s15, s18, s16
 1905              	.LVL200:
 1906              		.loc 1 713 0
 1907 0126 88EE887A 		vdiv.f32	s14, s17, s16
 1908              	.LVL201:
 1909 012a 6BEEE6BA 		vnmul.f32	s23, s23, s13
 1910              	.LVL202:
 1911 012e F0EE006A 		vmov.f32	s13, #2.0e+0
 1912 0132 EBEEA67A 		vfma.f32	s15, s23, s13
 1913              	.LVL203:
 1914              		.loc 1 716 0
 1915 0136 BDEC088B 		vldm	sp!, {d8-d11}
 1916              		.cfi_remember_state
 1917              		.cfi_restore 86
 1918              		.cfi_restore 87
 1919              		.cfi_restore 84
 1920              		.cfi_restore 85
 1921              		.cfi_restore 82
 1922              		.cfi_restore 83
 1923              		.cfi_restore 80
 1924              		.cfi_restore 81
 1925              		.cfi_def_cfa_offset 24
 1926              	.LVL204:
 1927              		.loc 1 713 0
 1928 013a DFED156A 		vldr.32	s13, .L126+24
 1929 013e 9FED156A 		vldr.32	s12, .L126+28
 1930 0142 27EE267A 		vmul.f32	s14, s14, s13
 1931              	.LVL205:
 1932 0146 67EE867A 		vmul.f32	s15, s15, s12
 1933 014a C7EE876A 		vdiv.f32	s13, s15, s14
 1934 014e C7ED006A 		vstr.32	s13, [r7]
 1935              		.loc 1 716 0
 1936 0152 F8BD     		pop	{r3, r4, r5, r6, r7, pc}
 1937              	.LVL206:
 1938              	.L125:
ARM GAS  C:\Users\euanm\AppData\Local\Temp\ccmmPa0a.s 			page 35


 1939              		.cfi_restore_state
 1940              		.loc 1 681 0
 1941 0154 9FED0A0A 		vldr.32	s0, .L126+8
 1942 0158 FFF7FEFF 		bl	mc_interface_set_current
 1943              	.LVL207:
 1944              		.loc 1 682 0
 1945 015c B0EE490A 		vmov.f32	s0, s18
 1946 0160 2846     		mov	r0, r5
 1947 0162 FFF7FEFF 		bl	timeout_configure
 1948              	.LVL208:
 1949              		.loc 1 683 0
 1950 0166 0548     		ldr	r0, .L126+4
 1951 0168 FFF7FEFF 		bl	mc_interface_set_configuration
 1952              	.LVL209:
 1953              		.loc 1 684 0
 1954 016c FFF7FEFF 		bl	mc_interface_unlock
 1955              	.LVL210:
 1956              		.loc 1 716 0
 1957 0170 BDEC088B 		vldm	sp!, {d8-d11}
 1958              		.cfi_restore 80
 1959              		.cfi_restore 81
 1960              		.cfi_restore 82
 1961              		.cfi_restore 83
 1962              		.cfi_restore 84
 1963              		.cfi_restore 85
 1964              		.cfi_restore 86
 1965              		.cfi_restore 87
 1966              		.cfi_def_cfa_offset 24
 1967              	.LVL211:
 1968              		.loc 1 685 0
 1969 0174 2046     		mov	r0, r4
 1970              		.loc 1 716 0
 1971 0176 F8BD     		pop	{r3, r4, r5, r6, r7, pc}
 1972              	.LVL212:
 1973              	.L127:
 1974              		.align	2
 1975              	.L126:
 1976 0178 00000000 		.word	.LANCHOR1
 1977 017c 00000000 		.word	.LANCHOR2
 1978 0180 00000000 		.word	0
 1979 0184 00000000 		.word	ADC_Value
 1980 0188 6740533A 		.word	978534503
 1981 018c D145FF41 		.word	1107248593
 1982 0190 EF1F2E41 		.word	1093541871
 1983 0194 00007042 		.word	1114636288
 1984              		.cfi_endproc
 1985              	.LFE227:
 1986              		.size	conf_general_measure_flux_linkage, .-conf_general_measure_flux_linkage
 1987              		.global	mcconf_old
 1988              		.global	mcconf
 1989              		.global	VirtAddVarTab
 1990              		.section	.bss.mcconf,"aw",%nobits
 1991              		.align	2
 1992              		.set	.LANCHOR1,. + 0
 1993              		.type	mcconf, %object
 1994              		.size	mcconf, 320
 1995              	mcconf:
ARM GAS  C:\Users\euanm\AppData\Local\Temp\ccmmPa0a.s 			page 36


 1996 0000 00000000 		.space	320
 1996      00000000 
 1996      00000000 
 1996      00000000 
 1996      00000000 
 1997              		.section	.bss.mcconf_old,"aw",%nobits
 1998              		.align	2
 1999              		.set	.LANCHOR2,. + 0
 2000              		.type	mcconf_old, %object
 2001              		.size	mcconf_old, 320
 2002              	mcconf_old:
 2003 0000 00000000 		.space	320
 2003      00000000 
 2003      00000000 
 2003      00000000 
 2003      00000000 
 2004              		.section	.bss.VirtAddVarTab,"aw",%nobits
 2005              		.align	2
 2006              		.set	.LANCHOR0,. + 0
 2007              		.type	VirtAddVarTab, %object
 2008              		.size	VirtAddVarTab, 510
 2009              	VirtAddVarTab:
 2010 0000 00000000 		.space	510
 2010      00000000 
 2010      00000000 
 2010      00000000 
 2010      00000000 
 2011              		.text
 2012              	.Letext0:
 2013              		.file 2 "c:\\program files (x86)\\gnu tools arm embedded\\5.4 2016q3\\arm-none-eabi\\include\\mach
 2014              		.file 3 "c:\\program files (x86)\\gnu tools arm embedded\\5.4 2016q3\\arm-none-eabi\\include\\sys\
 2015              		.file 4 "c:\\program files (x86)\\gnu tools arm embedded\\5.4 2016q3\\lib\\gcc\\arm-none-eabi\\5.4
 2016              		.file 5 "ChibiOS_3.0.2/os/rt/ports/ARMCMx/compilers/GCC/chtypes.h"
 2017              		.file 6 "ChibiOS_3.0.2/os/rt/include/chsystypes.h"
 2018              		.file 7 "ChibiOS_3.0.2/os/rt/include/chschd.h"
 2019              		.file 8 "ChibiOS_3.0.2/os/rt/ports/ARMCMx/chcore.h"
 2020              		.file 9 "ChibiOS_3.0.2/os/rt/ports/ARMCMx/chcore_v7m.h"
 2021              		.file 10 "ChibiOS_3.0.2/os/rt/include/chtm.h"
 2022              		.file 11 "ChibiOS_3.0.2/os/rt/include/chsem.h"
 2023              		.file 12 "ChibiOS_3.0.2/os/rt/include/chmtx.h"
 2024              		.file 13 "ChibiOS_3.0.2/os/ext/CMSIS/ST/stm32f4xx.h"
 2025              		.file 14 "datatypes.h"
 2026              		.file 15 "ChibiOS_3.0.2/ext/stdperiph_stm32f4/inc/stm32f4xx_flash.h"
 2027              		.file 16 "ChibiOS_3.0.2/os/ext/CMSIS/include/core_cm4.h"
 2028              		.file 17 "mc_interface.h"
 2029              		.file 18 "eeprom.h"
 2030              		.file 19 "ChibiOS_3.0.2/os/rt/include/chthreads.h"
 2031              		.file 20 "utils.h"
 2032              		.file 21 "ChibiOS_3.0.2/ext/stdperiph_stm32f4/inc/stm32f4xx_rcc.h"
 2033              		.file 22 "mcpwm.h"
 2034              		.file 23 "timeout.h"