ARM GAS  C:\Users\euanm\AppData\Local\Temp\ccWB0eah.s 			page 1


   1              		.syntax unified
   2              		.cpu cortex-m4
   3              		.eabi_attribute 27, 1
   4              		.eabi_attribute 28, 1
   5              		.fpu fpv4-sp-d16
   6              		.eabi_attribute 20, 1
   7              		.eabi_attribute 21, 1
   8              		.eabi_attribute 23, 3
   9              		.eabi_attribute 24, 1
  10              		.eabi_attribute 25, 1
  11              		.eabi_attribute 26, 1
  12              		.eabi_attribute 30, 2
  13              		.eabi_attribute 34, 1
  14              		.eabi_attribute 18, 4
  15              		.thumb
  16              		.syntax unified
  17              		.file	"encoder.c"
  18              		.text
  19              	.Ltext0:
  20              		.cfi_sections	.debug_frame
  21              		.section	.text.spi_transfer.isra.0.constprop.1,"ax",%progbits
  22              		.align	2
  23              		.p2align 4,,15
  24              		.thumb
  25              		.thumb_func
  26              		.type	spi_transfer.isra.0.constprop.1, %function
  27              	spi_transfer.isra.0.constprop.1:
  28              	.LFB271:
  29              		.file 1 "encoder.c"
  30              		.loc 1 228 0
  31              		.cfi_startproc
  32              		@ args = 0, pretend = 0, frame = 0
  33              		@ frame_needed = 0, uses_anonymous_args = 0
  34              		@ link register save eliminated.
  35              	.LVL0:
  36              	.LBB107:
  37              	.LBB108:
  38              	.LBB109:
  39              		.loc 1 238 0
  40 0000 1049     		ldr	r1, .L15
  41              	.LBE109:
  42              	.LBE108:
  43              	.LBE107:
  44              		.loc 1 228 0
  45 0002 30B4     		push	{r4, r5}
  46              		.cfi_def_cfa_offset 8
  47              		.cfi_offset 4, -8
  48              		.cfi_offset 5, -4
  49              		.loc 1 228 0
  50 0004 1022     		movs	r2, #16
  51 0006 0023     		movs	r3, #0
  52              	.LBB139:
  53              	.LBB138:
  54              	.LBB137:
  55              		.loc 1 238 0
  56 0008 4FF04004 		mov	r4, #64	@ movhi
  57              	.LVL1:
ARM GAS  C:\Users\euanm\AppData\Local\Temp\ccWB0eah.s 			page 2


  58              	.L3:
  59              	.LBB110:
  60              	.LBB111:
  61              	.LBB112:
  62              		.file 2 "ChibiOS_3.0.2/os/ext/CMSIS/include/core_cmInstr.h"
  63              		.loc 2 327 0
  64              		.syntax unified
  65              	@ 327 "ChibiOS_3.0.2/os/ext/CMSIS/include/core_cmInstr.h" 1
  66 000c 00BF     		nop
  67              	@ 0 "" 2
  68              		.thumb
  69              		.syntax unified
  70              	.LBE112:
  71              	.LBE111:
  72              	.LBB113:
  73              	.LBB114:
  74              		.syntax unified
  75              	@ 327 "ChibiOS_3.0.2/os/ext/CMSIS/include/core_cmInstr.h" 1
  76 000e 00BF     		nop
  77              	@ 0 "" 2
  78              		.thumb
  79              		.syntax unified
  80              	.LBE114:
  81              	.LBE113:
  82              	.LBB115:
  83              	.LBB116:
  84              		.syntax unified
  85              	@ 327 "ChibiOS_3.0.2/os/ext/CMSIS/include/core_cmInstr.h" 1
  86 0010 00BF     		nop
  87              	@ 0 "" 2
  88              		.thumb
  89              		.syntax unified
  90              	.LBE116:
  91              	.LBE115:
  92              	.LBB117:
  93              	.LBB118:
  94              		.syntax unified
  95              	@ 327 "ChibiOS_3.0.2/os/ext/CMSIS/include/core_cmInstr.h" 1
  96 0012 00BF     		nop
  97              	@ 0 "" 2
  98              		.thumb
  99              		.syntax unified
 100              	.LBE118:
 101              	.LBE117:
 102              	.LBE110:
 103              		.loc 1 238 0
 104 0014 0C83     		strh	r4, [r1, #24]	@ movhi
 105              	.LBB119:
 106              	.LBB120:
 107              	.LBB121:
 108              		.loc 2 327 0
 109              		.syntax unified
 110              	@ 327 "ChibiOS_3.0.2/os/ext/CMSIS/include/core_cmInstr.h" 1
 111 0016 00BF     		nop
 112              	@ 0 "" 2
 113              		.thumb
 114              		.syntax unified
ARM GAS  C:\Users\euanm\AppData\Local\Temp\ccWB0eah.s 			page 3


 115              	.LBE121:
 116              	.LBE120:
 117              	.LBB122:
 118              	.LBB123:
 119              		.syntax unified
 120              	@ 327 "ChibiOS_3.0.2/os/ext/CMSIS/include/core_cmInstr.h" 1
 121 0018 00BF     		nop
 122              	@ 0 "" 2
 123              		.thumb
 124              		.syntax unified
 125              	.LBE123:
 126              	.LBE122:
 127              	.LBB124:
 128              	.LBB125:
 129              		.syntax unified
 130              	@ 327 "ChibiOS_3.0.2/os/ext/CMSIS/include/core_cmInstr.h" 1
 131 001a 00BF     		nop
 132              	@ 0 "" 2
 133              		.thumb
 134              		.syntax unified
 135              	.LBE125:
 136              	.LBE124:
 137              	.LBB126:
 138              	.LBB127:
 139              		.syntax unified
 140              	@ 327 "ChibiOS_3.0.2/os/ext/CMSIS/include/core_cmInstr.h" 1
 141 001c 00BF     		nop
 142              	@ 0 "" 2
 143              		.thumb
 144              		.syntax unified
 145              	.LBE127:
 146              	.LBE126:
 147              	.LBE119:
 148              		.loc 1 242 0
 149 001e 0D69     		ldr	r5, [r1, #16]
 150              		.loc 1 241 0
 151 0020 5B00     		lsls	r3, r3, #1
 152              	.LVL2:
 153              		.loc 1 242 0
 154 0022 2D06     		lsls	r5, r5, #24
 155              		.loc 1 241 0
 156 0024 9BB2     		uxth	r3, r3
 157              	.LVL3:
 158              		.loc 1 242 0
 159 0026 01D5     		bpl	.L5
 160              		.loc 1 243 0
 161 0028 43F00103 		orr	r3, r3, #1
 162              	.LVL4:
 163              	.L5:
 164              		.loc 1 246 0
 165 002c 4C83     		strh	r4, [r1, #26]	@ movhi
 166              	.LBB128:
 167              	.LBB129:
 168              	.LBB130:
 169              		.loc 2 327 0
 170              		.syntax unified
 171              	@ 327 "ChibiOS_3.0.2/os/ext/CMSIS/include/core_cmInstr.h" 1
ARM GAS  C:\Users\euanm\AppData\Local\Temp\ccWB0eah.s 			page 4


 172 002e 00BF     		nop
 173              	@ 0 "" 2
 174              		.thumb
 175              		.syntax unified
 176              	.LBE130:
 177              	.LBE129:
 178              	.LBB131:
 179              	.LBB132:
 180              		.syntax unified
 181              	@ 327 "ChibiOS_3.0.2/os/ext/CMSIS/include/core_cmInstr.h" 1
 182 0030 00BF     		nop
 183              	@ 0 "" 2
 184              		.thumb
 185              		.syntax unified
 186              	.LBE132:
 187              	.LBE131:
 188              	.LBB133:
 189              	.LBB134:
 190              		.syntax unified
 191              	@ 327 "ChibiOS_3.0.2/os/ext/CMSIS/include/core_cmInstr.h" 1
 192 0032 00BF     		nop
 193              	@ 0 "" 2
 194              		.thumb
 195              		.syntax unified
 196              	.LBE134:
 197              	.LBE133:
 198              	.LBB135:
 199              	.LBB136:
 200              		.syntax unified
 201              	@ 327 "ChibiOS_3.0.2/os/ext/CMSIS/include/core_cmInstr.h" 1
 202 0034 00BF     		nop
 203              	@ 0 "" 2
 204              	.LVL5:
 205              		.thumb
 206              		.syntax unified
 207              	.LBE136:
 208              	.LBE135:
 209              	.LBE128:
 210              		.loc 1 233 0
 211 0036 013A     		subs	r2, r2, #1
 212              	.LVL6:
 213 0038 E8D1     		bne	.L3
 214              	.LBE137:
 215              		.loc 1 250 0
 216 003a 00B1     		cbz	r0, .L1
 217              		.loc 1 251 0
 218 003c 0380     		strh	r3, [r0]	@ movhi
 219              	.LVL7:
 220              	.L1:
 221              	.LBE138:
 222              	.LBE139:
 223              		.loc 1 254 0
 224 003e 30BC     		pop	{r4, r5}
 225              		.cfi_restore 5
 226              		.cfi_restore 4
 227              		.cfi_def_cfa_offset 0
 228 0040 7047     		bx	lr
ARM GAS  C:\Users\euanm\AppData\Local\Temp\ccWB0eah.s 			page 5


 229              	.L16:
 230 0042 00BF     		.align	2
 231              	.L15:
 232 0044 00040240 		.word	1073873920
 233              		.cfi_endproc
 234              	.LFE271:
 235              		.size	spi_transfer.isra.0.constprop.1, .-spi_transfer.isra.0.constprop.1
 236              		.section	.text.encoder_deinit,"ax",%progbits
 237              		.align	2
 238              		.p2align 4,,15
 239              		.global	encoder_deinit
 240              		.thumb
 241              		.thumb_func
 242              		.type	encoder_deinit, %function
 243              	encoder_deinit:
 244              	.LFB256:
 245              		.loc 1 56 0
 246              		.cfi_startproc
 247              		@ args = 0, pretend = 0, frame = 0
 248              		@ frame_needed = 0, uses_anonymous_args = 0
 249 0000 10B5     		push	{r4, lr}
 250              		.cfi_def_cfa_offset 8
 251              		.cfi_offset 4, -8
 252              		.cfi_offset 14, -4
 253              		.loc 1 57 0
 254 0002 2820     		movs	r0, #40
 255 0004 FFF7FEFF 		bl	nvicDisableVector
 256              	.LVL8:
 257              		.loc 1 62 0
 258 0008 144C     		ldr	r4, .L19
 259              		.loc 1 58 0
 260 000a 1E20     		movs	r0, #30
 261 000c FFF7FEFF 		bl	nvicDisableVector
 262              	.LVL9:
 263              		.loc 1 60 0
 264 0010 1348     		ldr	r0, .L19+4
 265 0012 FFF7FEFF 		bl	TIM_DeInit
 266              	.LVL10:
 267              		.loc 1 62 0
 268 0016 2046     		mov	r0, r4
 269 0018 2022     		movs	r2, #32
 270 001a 8021     		movs	r1, #128
 271 001c FFF7FEFF 		bl	_pal_lld_setgroupmode
 272              	.LVL11:
 273              		.loc 1 63 0
 274 0020 2046     		mov	r0, r4
 275 0022 2022     		movs	r2, #32
 276 0024 4021     		movs	r1, #64
 277 0026 FFF7FEFF 		bl	_pal_lld_setgroupmode
 278              	.LVL12:
 279              		.loc 1 64 0
 280 002a 2022     		movs	r2, #32
 281 002c 4FF40061 		mov	r1, #2048
 282 0030 0C48     		ldr	r0, .L19+8
 283 0032 FFF7FEFF 		bl	_pal_lld_setgroupmode
 284              	.LVL13:
 285              		.loc 1 66 0
ARM GAS  C:\Users\euanm\AppData\Local\Temp\ccWB0eah.s 			page 6


 286 0036 2046     		mov	r0, r4
 287 0038 2022     		movs	r2, #32
 288 003a 4021     		movs	r1, #64
 289 003c FFF7FEFF 		bl	_pal_lld_setgroupmode
 290              	.LVL14:
 291              		.loc 1 67 0
 292 0040 2046     		mov	r0, r4
 293 0042 2022     		movs	r2, #32
 294 0044 8021     		movs	r1, #128
 295 0046 FFF7FEFF 		bl	_pal_lld_setgroupmode
 296              	.LVL15:
 297              		.loc 1 69 0
 298 004a 074C     		ldr	r4, .L19+12
 299              		.loc 1 70 0
 300 004c 0748     		ldr	r0, .L19+16
 301              		.loc 1 71 0
 302 004e 084A     		ldr	r2, .L19+20
 303              		.loc 1 69 0
 304 0050 0023     		movs	r3, #0
 305              		.loc 1 71 0
 306 0052 0021     		movs	r1, #0
 307              		.loc 1 69 0
 308 0054 2370     		strb	r3, [r4]
 309              		.loc 1 70 0
 310 0056 0370     		strb	r3, [r0]
 311              		.loc 1 71 0
 312 0058 1160     		str	r1, [r2]	@ float
 313 005a 10BD     		pop	{r4, pc}
 314              	.L20:
 315              		.align	2
 316              	.L19:
 317 005c 00040240 		.word	1073873920
 318 0060 00080040 		.word	1073743872
 319 0064 00080240 		.word	1073874944
 320 0068 00000000 		.word	.LANCHOR0
 321 006c 00000000 		.word	.LANCHOR1
 322 0070 00000000 		.word	.LANCHOR2
 323              		.cfi_endproc
 324              	.LFE256:
 325              		.size	encoder_deinit, .-encoder_deinit
 326              		.section	.text.encoder_init_abi,"ax",%progbits
 327              		.align	2
 328              		.p2align 4,,15
 329              		.global	encoder_init_abi
 330              		.thumb
 331              		.thumb_func
 332              		.type	encoder_init_abi, %function
 333              	encoder_init_abi:
 334              	.LFB257:
 335              		.loc 1 74 0
 336              		.cfi_startproc
 337              		@ args = 0, pretend = 0, frame = 8
 338              		@ frame_needed = 0, uses_anonymous_args = 0
 339              	.LVL16:
 340 0000 70B5     		push	{r4, r5, r6, lr}
 341              		.cfi_def_cfa_offset 16
 342              		.cfi_offset 4, -16
ARM GAS  C:\Users\euanm\AppData\Local\Temp\ccWB0eah.s 			page 7


 343              		.cfi_offset 5, -12
 344              		.cfi_offset 6, -8
 345              		.cfi_offset 14, -4
 346              		.loc 1 79 0
 347 0002 234E     		ldr	r6, .L23
 348              		.loc 1 81 0
 349 0004 234D     		ldr	r5, .L23+4
 350              		.loc 1 78 0
 351 0006 244B     		ldr	r3, .L23+8
 352              		.loc 1 79 0
 353 0008 3060     		str	r0, [r6]
 354              		.loc 1 74 0
 355 000a 82B0     		sub	sp, sp, #8
 356              		.cfi_def_cfa_offset 24
 357              		.loc 1 78 0
 358 000c 0024     		movs	r4, #0
 359              		.loc 1 81 0
 360 000e 2846     		mov	r0, r5
 361              	.LVL17:
 362 0010 4FF48D72 		mov	r2, #282
 363 0014 4021     		movs	r1, #64
 364              		.loc 1 78 0
 365 0016 1C70     		strb	r4, [r3]
 366              		.loc 1 81 0
 367 0018 FFF7FEFF 		bl	_pal_lld_setgroupmode
 368              	.LVL18:
 369              		.loc 1 86 0
 370 001c 4FF48D72 		mov	r2, #282
 371 0020 2846     		mov	r0, r5
 372 0022 8021     		movs	r1, #128
 373 0024 FFF7FEFF 		bl	_pal_lld_setgroupmode
 374              	.LVL19:
 375              		.loc 1 92 0
 376 0028 0121     		movs	r1, #1
 377 002a 0420     		movs	r0, #4
 378 002c FFF7FEFF 		bl	RCC_APB1PeriphClockCmd
 379              	.LVL20:
 380              		.loc 1 97 0
 381 0030 A5F5FE35 		sub	r5, r5, #130048
 382              		.loc 1 95 0
 383 0034 0121     		movs	r1, #1
 384 0036 4FF48040 		mov	r0, #16384
 385 003a FFF7FEFF 		bl	RCC_APB2PeriphClockCmd
 386              	.LVL21:
 387              		.loc 1 97 0
 388 003e 2346     		mov	r3, r4
 389 0040 2246     		mov	r2, r4
 390 0042 2846     		mov	r0, r5
 391 0044 0321     		movs	r1, #3
 392 0046 FFF7FEFF 		bl	TIM_EncoderInterfaceConfig
 393              	.LVL22:
 394              		.loc 1 100 0
 395 004a 3168     		ldr	r1, [r6]
 396 004c 2846     		mov	r0, r5
 397 004e 0139     		subs	r1, r1, #1
 398 0050 FFF7FEFF 		bl	TIM_SetAutoreload
 399              	.LVL23:
ARM GAS  C:\Users\euanm\AppData\Local\Temp\ccWB0eah.s 			page 8


 400              		.loc 1 102 0
 401 0054 2846     		mov	r0, r5
 402 0056 0121     		movs	r1, #1
 403 0058 FFF7FEFF 		bl	TIM_Cmd
 404              	.LVL24:
 405              		.loc 1 107 0
 406 005c 0B21     		movs	r1, #11
 407 005e 0220     		movs	r0, #2
 408 0060 FFF7FEFF 		bl	SYSCFG_EXTILineConfig
 409              	.LVL25:
 410              		.loc 1 113 0
 411 0064 0125     		movs	r5, #1
 412              		.loc 1 110 0
 413 0066 4FF40062 		mov	r2, #2048
 414              		.loc 1 112 0
 415 006a 0823     		movs	r3, #8
 416              		.loc 1 114 0
 417 006c 6846     		mov	r0, sp
 418              		.loc 1 112 0
 419 006e 8DF80530 		strb	r3, [sp, #5]
 420              		.loc 1 110 0
 421 0072 0092     		str	r2, [sp]
 422              		.loc 1 111 0
 423 0074 8DF80440 		strb	r4, [sp, #4]
 424              		.loc 1 113 0
 425 0078 8DF80650 		strb	r5, [sp, #6]
 426              		.loc 1 114 0
 427 007c FFF7FEFF 		bl	EXTI_Init
 428              	.LVL26:
 429              		.loc 1 117 0
 430 0080 2146     		mov	r1, r4
 431 0082 2820     		movs	r0, #40
 432 0084 FFF7FEFF 		bl	nvicEnableVector
 433              	.LVL27:
 434              		.loc 1 119 0
 435 0088 044B     		ldr	r3, .L23+12
 436 008a 1D70     		strb	r5, [r3]
 437              		.loc 1 120 0
 438 008c 02B0     		add	sp, sp, #8
 439              		.cfi_def_cfa_offset 16
 440              		@ sp needed
 441 008e 70BD     		pop	{r4, r5, r6, pc}
 442              	.L24:
 443              		.align	2
 444              	.L23:
 445 0090 00000000 		.word	.LANCHOR3
 446 0094 00040240 		.word	1073873920
 447 0098 00000000 		.word	.LANCHOR0
 448 009c 00000000 		.word	.LANCHOR1
 449              		.cfi_endproc
 450              	.LFE257:
 451              		.size	encoder_init_abi, .-encoder_init_abi
 452              		.section	.text.encoder_init_as5047p_spi,"ax",%progbits
 453              		.align	2
 454              		.p2align 4,,15
 455              		.global	encoder_init_as5047p_spi
 456              		.thumb
ARM GAS  C:\Users\euanm\AppData\Local\Temp\ccWB0eah.s 			page 9


 457              		.thumb_func
 458              		.type	encoder_init_as5047p_spi, %function
 459              	encoder_init_as5047p_spi:
 460              	.LFB258:
 461              		.loc 1 122 0
 462              		.cfi_startproc
 463              		@ args = 0, pretend = 0, frame = 16
 464              		@ frame_needed = 0, uses_anonymous_args = 0
 465 0000 30B5     		push	{r4, r5, lr}
 466              		.cfi_def_cfa_offset 12
 467              		.cfi_offset 4, -12
 468              		.cfi_offset 5, -8
 469              		.cfi_offset 14, -4
 470              		.loc 1 125 0
 471 0002 1E4D     		ldr	r5, .L27
 472              		.loc 1 138 0
 473 0004 1E4C     		ldr	r4, .L27+4
 474              		.loc 1 122 0
 475 0006 85B0     		sub	sp, sp, #20
 476              		.cfi_def_cfa_offset 32
 477              		.loc 1 125 0
 478 0008 2846     		mov	r0, r5
 479 000a 0022     		movs	r2, #0
 480 000c 8021     		movs	r1, #128
 481 000e FFF7FEFF 		bl	_pal_lld_setgroupmode
 482              	.LVL28:
 483              		.loc 1 126 0
 484 0012 2846     		mov	r0, r5
 485 0014 1922     		movs	r2, #25
 486 0016 4021     		movs	r1, #64
 487 0018 FFF7FEFF 		bl	_pal_lld_setgroupmode
 488              	.LVL29:
 489              		.loc 1 127 0
 490 001c 1922     		movs	r2, #25
 491 001e 4FF40061 		mov	r1, #2048
 492 0022 1848     		ldr	r0, .L27+8
 493 0024 FFF7FEFF 		bl	_pal_lld_setgroupmode
 494              	.LVL30:
 495              		.loc 1 130 0
 496 0028 0121     		movs	r1, #1
 497 002a 0420     		movs	r0, #4
 498 002c FFF7FEFF 		bl	RCC_APB1PeriphClockCmd
 499              	.LVL31:
 500              		.loc 1 133 0
 501 0030 0023     		movs	r3, #0
 502              		.loc 1 138 0
 503 0032 2046     		mov	r0, r4
 504              		.loc 1 135 0
 505 0034 41F26702 		movw	r2, #4199
 506              		.loc 1 138 0
 507 0038 01A9     		add	r1, sp, #4
 508              		.loc 1 133 0
 509 003a ADF80430 		strh	r3, [sp, #4]	@ movhi
 510              		.loc 1 134 0
 511 003e ADF80630 		strh	r3, [sp, #6]	@ movhi
 512              		.loc 1 136 0
 513 0042 ADF80C30 		strh	r3, [sp, #12]	@ movhi
ARM GAS  C:\Users\euanm\AppData\Local\Temp\ccWB0eah.s 			page 10


 514              		.loc 1 137 0
 515 0046 8DF80E30 		strb	r3, [sp, #14]
 516              		.loc 1 135 0
 517 004a 0292     		str	r2, [sp, #8]
 518              		.loc 1 138 0
 519 004c FFF7FEFF 		bl	TIM_TimeBaseInit
 520              	.LVL32:
 521              		.loc 1 141 0
 522 0050 0122     		movs	r2, #1
 523 0052 1146     		mov	r1, r2
 524 0054 2046     		mov	r0, r4
 525 0056 FFF7FEFF 		bl	TIM_ITConfig
 526              	.LVL33:
 527              		.loc 1 144 0
 528 005a 2046     		mov	r0, r4
 529 005c 0121     		movs	r1, #1
 530 005e FFF7FEFF 		bl	TIM_Cmd
 531              	.LVL34:
 532              		.loc 1 146 0
 533 0062 0621     		movs	r1, #6
 534 0064 1E20     		movs	r0, #30
 535 0066 FFF7FEFF 		bl	nvicEnableVector
 536              	.LVL35:
 537              		.loc 1 148 0
 538 006a 0749     		ldr	r1, .L27+12
 539              		.loc 1 149 0
 540 006c 074B     		ldr	r3, .L27+16
 541              		.loc 1 148 0
 542 006e 0220     		movs	r0, #2
 543              		.loc 1 149 0
 544 0070 0122     		movs	r2, #1
 545              		.loc 1 148 0
 546 0072 0870     		strb	r0, [r1]
 547              		.loc 1 149 0
 548 0074 1A70     		strb	r2, [r3]
 549              		.loc 1 150 0
 550 0076 05B0     		add	sp, sp, #20
 551              		.cfi_def_cfa_offset 12
 552              		@ sp needed
 553 0078 30BD     		pop	{r4, r5, pc}
 554              	.L28:
 555 007a 00BF     		.align	2
 556              	.L27:
 557 007c 00040240 		.word	1073873920
 558 0080 00080040 		.word	1073743872
 559 0084 00080240 		.word	1073874944
 560 0088 00000000 		.word	.LANCHOR1
 561 008c 00000000 		.word	.LANCHOR0
 562              		.cfi_endproc
 563              	.LFE258:
 564              		.size	encoder_init_as5047p_spi, .-encoder_init_as5047p_spi
 565              		.section	.text.encoder_is_configured,"ax",%progbits
 566              		.align	2
 567              		.p2align 4,,15
 568              		.global	encoder_is_configured
 569              		.thumb
 570              		.thumb_func
ARM GAS  C:\Users\euanm\AppData\Local\Temp\ccWB0eah.s 			page 11


 571              		.type	encoder_is_configured, %function
 572              	encoder_is_configured:
 573              	.LFB259:
 574              		.loc 1 152 0
 575              		.cfi_startproc
 576              		@ args = 0, pretend = 0, frame = 0
 577              		@ frame_needed = 0, uses_anonymous_args = 0
 578              		@ link register save eliminated.
 579              		.loc 1 153 0
 580 0000 024B     		ldr	r3, .L30
 581 0002 1878     		ldrb	r0, [r3]	@ zero_extendqisi2
 582              		.loc 1 154 0
 583 0004 0030     		adds	r0, r0, #0
 584 0006 18BF     		it	ne
 585 0008 0120     		movne	r0, #1
 586 000a 7047     		bx	lr
 587              	.L31:
 588              		.align	2
 589              	.L30:
 590 000c 00000000 		.word	.LANCHOR1
 591              		.cfi_endproc
 592              	.LFE259:
 593              		.size	encoder_is_configured, .-encoder_is_configured
 594              		.section	.text.encoder_read_deg,"ax",%progbits
 595              		.align	2
 596              		.p2align 4,,15
 597              		.global	encoder_read_deg
 598              		.thumb
 599              		.thumb_func
 600              		.type	encoder_read_deg, %function
 601              	encoder_read_deg:
 602              	.LFB260:
 603              		.loc 1 156 0
 604              		.cfi_startproc
 605              		@ args = 0, pretend = 0, frame = 0
 606              		@ frame_needed = 0, uses_anonymous_args = 0
 607              		@ link register save eliminated.
 608              		.loc 1 159 0
 609 0000 124B     		ldr	r3, .L38
 610 0002 1B78     		ldrb	r3, [r3]	@ zero_extendqisi2
 611 0004 012B     		cmp	r3, #1
 612 0006 0CD0     		beq	.L34
 613 0008 022B     		cmp	r3, #2
 614 000a 06D1     		bne	.L37
 615              		.loc 1 165 0
 616 000c 104A     		ldr	r2, .L38+4
 617 000e 114B     		ldr	r3, .L38+8
 618 0010 92ED000A 		vldr.32	s0, [r2]
 619 0014 83ED000A 		vstr.32	s0, [r3]
 620              		.loc 1 173 0
 621 0018 7047     		bx	lr
 622              	.L37:
 623 001a 0E4B     		ldr	r3, .L38+8
 624 001c 93ED000A 		vldr.32	s0, [r3]
 625 0020 7047     		bx	lr
 626              	.L34:
 627              		.loc 1 161 0
ARM GAS  C:\Users\euanm\AppData\Local\Temp\ccWB0eah.s 			page 12


 628 0022 0D4A     		ldr	r2, .L38+12
 629 0024 0D4B     		ldr	r3, .L38+16
 630 0026 D2ED097A 		vldr.32	s15, [r2, #36]	@ int
 631 002a 93ED007A 		vldr.32	s14, [r3]	@ int
 632 002e DFED0C6A 		vldr.32	s13, .L38+20
 633 0032 084B     		ldr	r3, .L38+8
 634 0034 F8EE677A 		vcvt.f32.u32	s15, s15
 635 0038 B8EE477A 		vcvt.f32.u32	s14, s14
 636 003c 67EEA67A 		vmul.f32	s15, s15, s13
 637 0040 87EE870A 		vdiv.f32	s0, s15, s14
 638 0044 83ED000A 		vstr.32	s0, [r3]
 639              		.loc 1 162 0
 640 0048 7047     		bx	lr
 641              	.L39:
 642 004a 00BF     		.align	2
 643              	.L38:
 644 004c 00000000 		.word	.LANCHOR1
 645 0050 00000000 		.word	.LANCHOR2
 646 0054 00000000 		.word	.LANCHOR4
 647 0058 00080040 		.word	1073743872
 648 005c 00000000 		.word	.LANCHOR3
 649 0060 0000B443 		.word	1135869952
 650              		.cfi_endproc
 651              	.LFE260:
 652              		.size	encoder_read_deg, .-encoder_read_deg
 653              		.section	.text.encoder_reset,"ax",%progbits
 654              		.align	2
 655              		.p2align 4,,15
 656              		.global	encoder_reset
 657              		.thumb
 658              		.thumb_func
 659              		.type	encoder_reset, %function
 660              	encoder_reset:
 661              	.LFB261:
 662              		.loc 1 178 0
 663              		.cfi_startproc
 664              		@ args = 0, pretend = 0, frame = 0
 665              		@ frame_needed = 0, uses_anonymous_args = 0
 666              		@ link register save eliminated.
 667              		.loc 1 179 0
 668 0000 0349     		ldr	r1, .L41
 669              		.loc 1 180 0
 670 0002 044B     		ldr	r3, .L41+4
 671              		.loc 1 179 0
 672 0004 0020     		movs	r0, #0
 673              		.loc 1 180 0
 674 0006 0122     		movs	r2, #1
 675              		.loc 1 179 0
 676 0008 4862     		str	r0, [r1, #36]
 677              		.loc 1 180 0
 678 000a 1A70     		strb	r2, [r3]
 679 000c 7047     		bx	lr
 680              	.L42:
 681 000e 00BF     		.align	2
 682              	.L41:
 683 0010 00080040 		.word	1073743872
 684 0014 00000000 		.word	.LANCHOR0
ARM GAS  C:\Users\euanm\AppData\Local\Temp\ccWB0eah.s 			page 13


 685              		.cfi_endproc
 686              	.LFE261:
 687              		.size	encoder_reset, .-encoder_reset
 688              		.section	.text.encoder_tim_isr,"ax",%progbits
 689              		.align	2
 690              		.p2align 4,,15
 691              		.global	encoder_tim_isr
 692              		.thumb
 693              		.thumb_func
 694              		.type	encoder_tim_isr, %function
 695              	encoder_tim_isr:
 696              	.LFB262:
 697              		.loc 1 186 0
 698              		.cfi_startproc
 699              		@ args = 0, pretend = 0, frame = 8
 700              		@ frame_needed = 0, uses_anonymous_args = 0
 701 0000 30B5     		push	{r4, r5, lr}
 702              		.cfi_def_cfa_offset 12
 703              		.cfi_offset 4, -12
 704              		.cfi_offset 5, -8
 705              		.cfi_offset 14, -4
 706              	.LBB140:
 707              	.LBB141:
 708              		.loc 1 257 0
 709 0002 0F4C     		ldr	r4, .L45
 710              	.LBE141:
 711              	.LBE140:
 712              		.loc 1 186 0
 713 0004 83B0     		sub	sp, sp, #12
 714              		.cfi_def_cfa_offset 24
 715              	.LBB143:
 716              	.LBB142:
 717              		.loc 1 257 0
 718 0006 4FF40065 		mov	r5, #2048
 719 000a 6583     		strh	r5, [r4, #26]	@ movhi
 720              	.LBE142:
 721              	.LBE143:
 722              		.loc 1 190 0
 723 000c 0DF10600 		add	r0, sp, #6
 724 0010 FFF7FEFF 		bl	spi_transfer.isra.0.constprop.1
 725              	.LVL36:
 726              	.LBB144:
 727              	.LBB145:
 728              		.loc 1 261 0
 729 0014 2583     		strh	r5, [r4, #24]	@ movhi
 730              	.LVL37:
 731              	.LBE145:
 732              	.LBE144:
 733              		.loc 1 194 0
 734 0016 BDF80630 		ldrh	r3, [sp, #6]
 735 001a DFED0A7A 		vldr.32	s15, .L45+4
 736 001e DFED0A6A 		vldr.32	s13, .L45+8
 737 0022 0A4A     		ldr	r2, .L45+12
 738 0024 C3F30D03 		ubfx	r3, r3, #0, #14
 739 0028 07EE103A 		vmov	s14, r3	@ int
 740 002c B8EE477A 		vcvt.f32.u32	s14, s14
 741 0030 67EE277A 		vmul.f32	s15, s14, s15
ARM GAS  C:\Users\euanm\AppData\Local\Temp\ccWB0eah.s 			page 14


 742 0034 67EEA67A 		vmul.f32	s15, s15, s13
 743 0038 C2ED007A 		vstr.32	s15, [r2]
 744              		.loc 1 195 0
 745 003c 03B0     		add	sp, sp, #12
 746              		.cfi_def_cfa_offset 12
 747              		@ sp needed
 748 003e 30BD     		pop	{r4, r5, pc}
 749              	.LVL38:
 750              	.L46:
 751              		.align	2
 752              	.L45:
 753 0040 00080240 		.word	1073874944
 754 0044 0000B443 		.word	1135869952
 755 0048 00008038 		.word	947912704
 756 004c 00000000 		.word	.LANCHOR2
 757              		.cfi_endproc
 758              	.LFE262:
 759              		.size	encoder_tim_isr, .-encoder_tim_isr
 760              		.section	.text.encoder_set_counts,"ax",%progbits
 761              		.align	2
 762              		.p2align 4,,15
 763              		.global	encoder_set_counts
 764              		.thumb
 765              		.thumb_func
 766              		.type	encoder_set_counts, %function
 767              	encoder_set_counts:
 768              	.LFB263:
 769              		.loc 1 203 0
 770              		.cfi_startproc
 771              		@ args = 0, pretend = 0, frame = 0
 772              		@ frame_needed = 0, uses_anonymous_args = 0
 773              	.LVL39:
 774              		.loc 1 204 0
 775 0000 074A     		ldr	r2, .L50
 776              		.loc 1 203 0
 777 0002 08B5     		push	{r3, lr}
 778              		.cfi_def_cfa_offset 8
 779              		.cfi_offset 3, -8
 780              		.cfi_offset 14, -4
 781              		.loc 1 204 0
 782 0004 1368     		ldr	r3, [r2]
 783 0006 8342     		cmp	r3, r0
 784 0008 08D0     		beq	.L47
 785 000a 0346     		mov	r3, r0
 786              		.loc 1 206 0
 787 000c 411E     		subs	r1, r0, #1
 788 000e 0548     		ldr	r0, .L50+4
 789              	.LVL40:
 790              		.loc 1 205 0
 791 0010 1360     		str	r3, [r2]
 792              		.loc 1 206 0
 793 0012 FFF7FEFF 		bl	TIM_SetAutoreload
 794              	.LVL41:
 795              		.loc 1 207 0
 796 0016 044B     		ldr	r3, .L50+8
 797 0018 0022     		movs	r2, #0
 798 001a 1A70     		strb	r2, [r3]
ARM GAS  C:\Users\euanm\AppData\Local\Temp\ccWB0eah.s 			page 15


 799              	.L47:
 800 001c 08BD     		pop	{r3, pc}
 801              	.L51:
 802 001e 00BF     		.align	2
 803              	.L50:
 804 0020 00000000 		.word	.LANCHOR3
 805 0024 00080040 		.word	1073743872
 806 0028 00000000 		.word	.LANCHOR0
 807              		.cfi_endproc
 808              	.LFE263:
 809              		.size	encoder_set_counts, .-encoder_set_counts
 810              		.section	.text.encoder_index_found,"ax",%progbits
 811              		.align	2
 812              		.p2align 4,,15
 813              		.global	encoder_index_found
 814              		.thumb
 815              		.thumb_func
 816              		.type	encoder_index_found, %function
 817              	encoder_index_found:
 818              	.LFB264:
 819              		.loc 1 217 0
 820              		.cfi_startproc
 821              		@ args = 0, pretend = 0, frame = 0
 822              		@ frame_needed = 0, uses_anonymous_args = 0
 823              		@ link register save eliminated.
 824              		.loc 1 218 0
 825 0000 014B     		ldr	r3, .L53
 826              		.loc 1 219 0
 827 0002 1878     		ldrb	r0, [r3]	@ zero_extendqisi2
 828 0004 7047     		bx	lr
 829              	.L54:
 830 0006 00BF     		.align	2
 831              	.L53:
 832 0008 00000000 		.word	.LANCHOR0
 833              		.cfi_endproc
 834              	.LFE264:
 835              		.size	encoder_index_found, .-encoder_index_found
 836              		.section	.text.spi_exchange,"ax",%progbits
 837              		.align	2
 838              		.p2align 4,,15
 839              		.global	spi_exchange
 840              		.thumb
 841              		.thumb_func
 842              		.type	spi_exchange, %function
 843              	spi_exchange:
 844              	.LFB265:
 845              		.loc 1 222 0
 846              		.cfi_startproc
 847              		@ args = 0, pretend = 0, frame = 8
 848              		@ frame_needed = 0, uses_anonymous_args = 0
 849              	.LVL42:
 850 0000 00B5     		push	{lr}
 851              		.cfi_def_cfa_offset 4
 852              		.cfi_offset 14, -4
 853 0002 83B0     		sub	sp, sp, #12
 854              		.cfi_def_cfa_offset 16
 855              		.loc 1 224 0
ARM GAS  C:\Users\euanm\AppData\Local\Temp\ccWB0eah.s 			page 16


 856 0004 0DF10600 		add	r0, sp, #6
 857              	.LVL43:
 858 0008 FFF7FEFF 		bl	spi_transfer.isra.0.constprop.1
 859              	.LVL44:
 860              		.loc 1 226 0
 861 000c BDF80600 		ldrh	r0, [sp, #6]
 862 0010 03B0     		add	sp, sp, #12
 863              		.cfi_def_cfa_offset 4
 864              		@ sp needed
 865 0012 5DF804FB 		ldr	pc, [sp], #4
 866              		.cfi_endproc
 867              	.LFE265:
 868              		.size	spi_exchange, .-spi_exchange
 869 0016 00BF     		.section	.bss.angle.9326,"aw",%nobits
 870              		.align	2
 871              		.set	.LANCHOR4,. + 0
 872              		.type	angle.9326, %object
 873              		.size	angle.9326, 4
 874              	angle.9326:
 875 0000 00000000 		.space	4
 876              		.section	.data.enc_counts,"aw",%progbits
 877              		.align	2
 878              		.set	.LANCHOR3,. + 0
 879              		.type	enc_counts, %object
 880              		.size	enc_counts, 4
 881              	enc_counts:
 882 0000 10270000 		.word	10000
 883              		.section	.bss.index_found,"aw",%nobits
 884              		.set	.LANCHOR0,. + 0
 885              		.type	index_found, %object
 886              		.size	index_found, 1
 887              	index_found:
 888 0000 00       		.space	1
 889              		.section	.bss.mode,"aw",%nobits
 890              		.set	.LANCHOR1,. + 0
 891              		.type	mode, %object
 892              		.size	mode, 1
 893              	mode:
 894 0000 00       		.space	1
 895              		.section	.bss.last_enc_angle,"aw",%nobits
 896              		.align	2
 897              		.set	.LANCHOR2,. + 0
 898              		.type	last_enc_angle, %object
 899              		.size	last_enc_angle, 4
 900              	last_enc_angle:
 901 0000 00000000 		.space	4
 902              		.text
 903              	.Letext0:
 904              		.file 3 "c:\\program files (x86)\\gnu tools arm embedded\\5.4 2016q3\\arm-none-eabi\\include\\mach
 905              		.file 4 "c:\\program files (x86)\\gnu tools arm embedded\\5.4 2016q3\\arm-none-eabi\\include\\sys\
 906              		.file 5 "c:\\program files (x86)\\gnu tools arm embedded\\5.4 2016q3\\lib\\gcc\\arm-none-eabi\\5.4
 907              		.file 6 "ChibiOS_3.0.2/os/rt/ports/ARMCMx/compilers/GCC/chtypes.h"
 908              		.file 7 "ChibiOS_3.0.2/os/rt/include/chsystypes.h"
 909              		.file 8 "ChibiOS_3.0.2/os/rt/include/chschd.h"
 910              		.file 9 "ChibiOS_3.0.2/os/ext/CMSIS/ST/stm32f407xx.h"
 911              		.file 10 "ChibiOS_3.0.2/os/ext/CMSIS/ST/stm32f4xx.h"
 912              		.file 11 "ChibiOS_3.0.2/os/rt/ports/ARMCMx/chcore.h"
ARM GAS  C:\Users\euanm\AppData\Local\Temp\ccWB0eah.s 			page 17


 913              		.file 12 "ChibiOS_3.0.2/os/rt/ports/ARMCMx/chcore_v7m.h"
 914              		.file 13 "ChibiOS_3.0.2/os/rt/include/chtm.h"
 915              		.file 14 "ChibiOS_3.0.2/os/rt/include/chsem.h"
 916              		.file 15 "ChibiOS_3.0.2/os/rt/include/chmtx.h"
 917              		.file 16 "ChibiOS_3.0.2/os/hal/ports/STM32/LLD/GPIOv2/pal_lld.h"
 918              		.file 17 "ChibiOS_3.0.2/ext/stdperiph_stm32f4/inc/stm32f4xx_exti.h"
 919              		.file 18 "ChibiOS_3.0.2/ext/stdperiph_stm32f4/inc/stm32f4xx_tim.h"
 920              		.file 19 "ChibiOS_3.0.2/os/hal/ports/common/ARMCMx/nvic.h"
 921              		.file 20 "ChibiOS_3.0.2/ext/stdperiph_stm32f4/inc/stm32f4xx_rcc.h"
 922              		.file 21 "ChibiOS_3.0.2/ext/stdperiph_stm32f4/inc/stm32f4xx_syscfg.h"
 923              		.file 22 "ChibiOS_3.0.2/os/ext/CMSIS/include/core_cm4.h"