ARM GAS  C:\Users\euanm\AppData\Local\Temp\ccz9XhOH.s 			page 1


   1              		.syntax unified
   2              		.cpu cortex-m4
   3              		.eabi_attribute 27, 1
   4              		.eabi_attribute 28, 1
   5              		.fpu fpv4-sp-d16
   6              		.eabi_attribute 20, 1
   7              		.eabi_attribute 21, 1
   8              		.eabi_attribute 23, 3
   9              		.eabi_attribute 24, 1
  10              		.eabi_attribute 25, 1
  11              		.eabi_attribute 26, 1
  12              		.eabi_attribute 30, 2
  13              		.eabi_attribute 34, 1
  14              		.eabi_attribute 18, 4
  15              		.thumb
  16              		.syntax unified
  17              		.file	"hw_A200S.c"
  18              		.text
  19              	.Ltext0:
  20              		.cfi_sections	.debug_frame
  21              		.section	.text.hw_init_gpio,"ax",%progbits
  22              		.align	2
  23              		.p2align 4,,15
  24              		.global	hw_init_gpio
  25              		.thumb
  26              		.thumb_func
  27              		.type	hw_init_gpio, %function
  28              	hw_init_gpio:
  29              	.LFB256:
  30              		.file 1 "hwconf/hw_A200S.c"
  31              		.loc 1 36 0
  32              		.cfi_startproc
  33              		@ args = 0, pretend = 0, frame = 0
  34              		@ frame_needed = 0, uses_anonymous_args = 0
  35              		.loc 1 38 0
  36 0000 0121     		movs	r1, #1
  37              		.loc 1 36 0
  38 0002 F8B5     		push	{r3, r4, r5, r6, r7, lr}
  39              		.cfi_def_cfa_offset 24
  40              		.cfi_offset 3, -24
  41              		.cfi_offset 4, -20
  42              		.cfi_offset 5, -16
  43              		.cfi_offset 6, -12
  44              		.cfi_offset 7, -8
  45              		.cfi_offset 14, -4
  46              		.loc 1 38 0
  47 0004 0846     		mov	r0, r1
  48              		.loc 1 43 0
  49 0006 504C     		ldr	r4, .L3
  50              		.loc 1 57 0
  51 0008 504E     		ldr	r6, .L3+4
  52              		.loc 1 62 0
  53 000a 514D     		ldr	r5, .L3+8
  54              		.loc 1 38 0
  55 000c FFF7FEFF 		bl	RCC_AHB1PeriphClockCmd
  56              	.LVL0:
  57              		.loc 1 39 0
ARM GAS  C:\Users\euanm\AppData\Local\Temp\ccz9XhOH.s 			page 2


  58 0010 0121     		movs	r1, #1
  59 0012 0220     		movs	r0, #2
  60 0014 FFF7FEFF 		bl	RCC_AHB1PeriphClockCmd
  61              	.LVL1:
  62              		.loc 1 40 0
  63 0018 0121     		movs	r1, #1
  64 001a 0420     		movs	r0, #4
  65 001c FFF7FEFF 		bl	RCC_AHB1PeriphClockCmd
  66              	.LVL2:
  67              		.loc 1 43 0
  68 0020 2046     		mov	r0, r4
  69 0022 1922     		movs	r2, #25
  70 0024 1021     		movs	r1, #16
  71 0026 FFF7FEFF 		bl	_pal_lld_setgroupmode
  72              	.LVL3:
  73              		.loc 1 54 0
  74 002a 4FF48067 		mov	r7, #1024
  75              		.loc 1 46 0
  76 002e 2046     		mov	r0, r4
  77 0030 1922     		movs	r2, #25
  78 0032 2021     		movs	r1, #32
  79 0034 FFF7FEFF 		bl	_pal_lld_setgroupmode
  80              	.LVL4:
  81              		.loc 1 51 0
  82 0038 2046     		mov	r0, r4
  83 003a 3946     		mov	r1, r7
  84 003c 1922     		movs	r2, #25
  85 003e FFF7FEFF 		bl	_pal_lld_setgroupmode
  86              	.LVL5:
  87              		.loc 1 57 0
  88 0042 3046     		mov	r0, r6
  89              		.loc 1 54 0
  90 0044 6783     		strh	r7, [r4, #26]	@ movhi
  91              		.loc 1 57 0
  92 0046 1922     		movs	r2, #25
  93 0048 4FF48051 		mov	r1, #4096
  94 004c FFF7FEFF 		bl	_pal_lld_setgroupmode
  95              	.LVL6:
  96              		.loc 1 62 0
  97 0050 2846     		mov	r0, r5
  98 0052 9A22     		movs	r2, #154
  99 0054 4FF48071 		mov	r1, #256
 100 0058 FFF7FEFF 		bl	_pal_lld_setgroupmode
 101              	.LVL7:
 102              		.loc 1 65 0
 103 005c 2846     		mov	r0, r5
 104 005e 9A22     		movs	r2, #154
 105 0060 4FF40071 		mov	r1, #512
 106 0064 FFF7FEFF 		bl	_pal_lld_setgroupmode
 107              	.LVL8:
 108              		.loc 1 68 0
 109 0068 3946     		mov	r1, r7
 110 006a 2846     		mov	r0, r5
 111 006c 9A22     		movs	r2, #154
 112 006e FFF7FEFF 		bl	_pal_lld_setgroupmode
 113              	.LVL9:
 114              		.loc 1 72 0
ARM GAS  C:\Users\euanm\AppData\Local\Temp\ccz9XhOH.s 			page 3


 115 0072 3046     		mov	r0, r6
 116 0074 9A22     		movs	r2, #154
 117 0076 4FF40051 		mov	r1, #8192
 118 007a FFF7FEFF 		bl	_pal_lld_setgroupmode
 119              	.LVL10:
 120              		.loc 1 75 0
 121 007e 3046     		mov	r0, r6
 122 0080 9A22     		movs	r2, #154
 123 0082 4FF48041 		mov	r1, #16384
 124 0086 FFF7FEFF 		bl	_pal_lld_setgroupmode
 125              	.LVL11:
 126              		.loc 1 78 0
 127 008a 3046     		mov	r0, r6
 128 008c 9A22     		movs	r2, #154
 129 008e 4FF40041 		mov	r1, #32768
 130 0092 FFF7FEFF 		bl	_pal_lld_setgroupmode
 131              	.LVL12:
 132              		.loc 1 83 0
 133 0096 3046     		mov	r0, r6
 134 0098 2022     		movs	r2, #32
 135 009a 4021     		movs	r1, #64
 136 009c FFF7FEFF 		bl	_pal_lld_setgroupmode
 137              	.LVL13:
 138              		.loc 1 84 0
 139 00a0 3046     		mov	r0, r6
 140 00a2 2022     		movs	r2, #32
 141 00a4 8021     		movs	r1, #128
 142 00a6 FFF7FEFF 		bl	_pal_lld_setgroupmode
 143              	.LVL14:
 144              		.loc 1 85 0
 145 00aa 2046     		mov	r0, r4
 146 00ac 2022     		movs	r2, #32
 147 00ae 4FF40061 		mov	r1, #2048
 148 00b2 FFF7FEFF 		bl	_pal_lld_setgroupmode
 149              	.LVL15:
 150              		.loc 1 88 0
 151 00b6 2046     		mov	r0, r4
 152 00b8 2022     		movs	r2, #32
 153 00ba 4FF48051 		mov	r1, #4096
 154 00be FFF7FEFF 		bl	_pal_lld_setgroupmode
 155              	.LVL16:
 156              		.loc 1 91 0
 157 00c2 2846     		mov	r0, r5
 158 00c4 0322     		movs	r2, #3
 159 00c6 0121     		movs	r1, #1
 160 00c8 FFF7FEFF 		bl	_pal_lld_setgroupmode
 161              	.LVL17:
 162              		.loc 1 92 0
 163 00cc 2846     		mov	r0, r5
 164 00ce 0322     		movs	r2, #3
 165 00d0 0221     		movs	r1, #2
 166 00d2 FFF7FEFF 		bl	_pal_lld_setgroupmode
 167              	.LVL18:
 168              		.loc 1 93 0
 169 00d6 2846     		mov	r0, r5
 170 00d8 0322     		movs	r2, #3
 171 00da 0421     		movs	r1, #4
ARM GAS  C:\Users\euanm\AppData\Local\Temp\ccz9XhOH.s 			page 4


 172 00dc FFF7FEFF 		bl	_pal_lld_setgroupmode
 173              	.LVL19:
 174              		.loc 1 94 0
 175 00e0 2846     		mov	r0, r5
 176 00e2 0322     		movs	r2, #3
 177 00e4 0821     		movs	r1, #8
 178 00e6 FFF7FEFF 		bl	_pal_lld_setgroupmode
 179              	.LVL20:
 180              		.loc 1 95 0
 181 00ea 2846     		mov	r0, r5
 182 00ec 0322     		movs	r2, #3
 183 00ee 1021     		movs	r1, #16
 184 00f0 FFF7FEFF 		bl	_pal_lld_setgroupmode
 185              	.LVL21:
 186              		.loc 1 96 0
 187 00f4 2846     		mov	r0, r5
 188 00f6 0322     		movs	r2, #3
 189 00f8 2021     		movs	r1, #32
 190 00fa FFF7FEFF 		bl	_pal_lld_setgroupmode
 191              	.LVL22:
 192              		.loc 1 97 0
 193 00fe 2846     		mov	r0, r5
 194 0100 0322     		movs	r2, #3
 195 0102 4021     		movs	r1, #64
 196 0104 FFF7FEFF 		bl	_pal_lld_setgroupmode
 197              	.LVL23:
 198              		.loc 1 99 0
 199 0108 3046     		mov	r0, r6
 200 010a 0322     		movs	r2, #3
 201 010c 0121     		movs	r1, #1
 202 010e FFF7FEFF 		bl	_pal_lld_setgroupmode
 203              	.LVL24:
 204              		.loc 1 100 0
 205 0112 3046     		mov	r0, r6
 206 0114 0322     		movs	r2, #3
 207 0116 0221     		movs	r1, #2
 208 0118 FFF7FEFF 		bl	_pal_lld_setgroupmode
 209              	.LVL25:
 210              		.loc 1 102 0
 211 011c 2046     		mov	r0, r4
 212 011e 0322     		movs	r2, #3
 213 0120 0121     		movs	r1, #1
 214 0122 FFF7FEFF 		bl	_pal_lld_setgroupmode
 215              	.LVL26:
 216              		.loc 1 103 0
 217 0126 2046     		mov	r0, r4
 218 0128 0322     		movs	r2, #3
 219 012a 0221     		movs	r1, #2
 220 012c FFF7FEFF 		bl	_pal_lld_setgroupmode
 221              	.LVL27:
 222              		.loc 1 104 0
 223 0130 2046     		mov	r0, r4
 224 0132 0322     		movs	r2, #3
 225 0134 0421     		movs	r1, #4
 226 0136 FFF7FEFF 		bl	_pal_lld_setgroupmode
 227              	.LVL28:
 228              		.loc 1 105 0
ARM GAS  C:\Users\euanm\AppData\Local\Temp\ccz9XhOH.s 			page 5


 229 013a 2046     		mov	r0, r4
 230 013c 0322     		movs	r2, #3
 231 013e 0821     		movs	r1, #8
 232              		.loc 1 106 0
 233 0140 BDE8F840 		pop	{r3, r4, r5, r6, r7, lr}
 234              		.cfi_restore 14
 235              		.cfi_restore 7
 236              		.cfi_restore 6
 237              		.cfi_restore 5
 238              		.cfi_restore 4
 239              		.cfi_restore 3
 240              		.cfi_def_cfa_offset 0
 241              		.loc 1 105 0
 242 0144 FFF7FEBF 		b	_pal_lld_setgroupmode
 243              	.LVL29:
 244              	.L4:
 245              		.align	2
 246              	.L3:
 247 0148 00080240 		.word	1073874944
 248 014c 00040240 		.word	1073873920
 249 0150 00000240 		.word	1073872896
 250              		.cfi_endproc
 251              	.LFE256:
 252              		.size	hw_init_gpio, .-hw_init_gpio
 253              		.section	.text.hw_setup_adc_channels,"ax",%progbits
 254              		.align	2
 255              		.p2align 4,,15
 256              		.global	hw_setup_adc_channels
 257              		.thumb
 258              		.thumb_func
 259              		.type	hw_setup_adc_channels, %function
 260              	hw_setup_adc_channels:
 261              	.LFB257:
 262              		.loc 1 108 0
 263              		.cfi_startproc
 264              		@ args = 0, pretend = 0, frame = 0
 265              		@ frame_needed = 0, uses_anonymous_args = 0
 266 0000 70B5     		push	{r4, r5, r6, lr}
 267              		.cfi_def_cfa_offset 16
 268              		.cfi_offset 4, -16
 269              		.cfi_offset 5, -12
 270              		.cfi_offset 6, -8
 271              		.cfi_offset 14, -4
 272              		.loc 1 110 0
 273 0002 324D     		ldr	r5, .L7
 274              		.loc 1 116 0
 275 0004 324C     		ldr	r4, .L7+4
 276              		.loc 1 122 0
 277 0006 334E     		ldr	r6, .L7+8
 278              		.loc 1 110 0
 279 0008 0123     		movs	r3, #1
 280 000a 2846     		mov	r0, r5
 281 000c 1A46     		mov	r2, r3
 282 000e 0021     		movs	r1, #0
 283 0010 FFF7FEFF 		bl	ADC_RegularChannelConfig
 284              	.LVL30:
 285              		.loc 1 111 0
ARM GAS  C:\Users\euanm\AppData\Local\Temp\ccz9XhOH.s 			page 6


 286 0014 2846     		mov	r0, r5
 287 0016 0123     		movs	r3, #1
 288 0018 0222     		movs	r2, #2
 289 001a 0821     		movs	r1, #8
 290 001c FFF7FEFF 		bl	ADC_RegularChannelConfig
 291              	.LVL31:
 292              		.loc 1 112 0
 293 0020 2846     		mov	r0, r5
 294 0022 0123     		movs	r3, #1
 295 0024 0322     		movs	r2, #3
 296 0026 1121     		movs	r1, #17
 297 0028 FFF7FEFF 		bl	ADC_RegularChannelConfig
 298              	.LVL32:
 299              		.loc 1 113 0
 300 002c 0422     		movs	r2, #4
 301 002e 2846     		mov	r0, r5
 302 0030 1146     		mov	r1, r2
 303 0032 0123     		movs	r3, #1
 304 0034 FFF7FEFF 		bl	ADC_RegularChannelConfig
 305              	.LVL33:
 306              		.loc 1 116 0
 307 0038 0123     		movs	r3, #1
 308 003a 2046     		mov	r0, r4
 309 003c 1A46     		mov	r2, r3
 310 003e 1946     		mov	r1, r3
 311 0040 FFF7FEFF 		bl	ADC_RegularChannelConfig
 312              	.LVL34:
 313              		.loc 1 117 0
 314 0044 2046     		mov	r0, r4
 315 0046 0123     		movs	r3, #1
 316 0048 0222     		movs	r2, #2
 317 004a 0921     		movs	r1, #9
 318 004c FFF7FEFF 		bl	ADC_RegularChannelConfig
 319              	.LVL35:
 320              		.loc 1 118 0
 321 0050 2046     		mov	r0, r4
 322 0052 0123     		movs	r3, #1
 323 0054 0322     		movs	r2, #3
 324 0056 0621     		movs	r1, #6
 325 0058 FFF7FEFF 		bl	ADC_RegularChannelConfig
 326              	.LVL36:
 327              		.loc 1 119 0
 328 005c 2046     		mov	r0, r4
 329 005e 0123     		movs	r3, #1
 330 0060 0422     		movs	r2, #4
 331 0062 0521     		movs	r1, #5
 332 0064 FFF7FEFF 		bl	ADC_RegularChannelConfig
 333              	.LVL37:
 334              		.loc 1 122 0
 335 0068 0123     		movs	r3, #1
 336 006a 3046     		mov	r0, r6
 337 006c 1A46     		mov	r2, r3
 338 006e 0221     		movs	r1, #2
 339 0070 FFF7FEFF 		bl	ADC_RegularChannelConfig
 340              	.LVL38:
 341              		.loc 1 123 0
 342 0074 3046     		mov	r0, r6
ARM GAS  C:\Users\euanm\AppData\Local\Temp\ccz9XhOH.s 			page 7


 343 0076 0123     		movs	r3, #1
 344 0078 0222     		movs	r2, #2
 345 007a 0321     		movs	r1, #3
 346 007c FFF7FEFF 		bl	ADC_RegularChannelConfig
 347              	.LVL39:
 348              		.loc 1 124 0
 349 0080 3046     		mov	r0, r6
 350 0082 0123     		movs	r3, #1
 351 0084 0322     		movs	r2, #3
 352 0086 0C21     		movs	r1, #12
 353 0088 FFF7FEFF 		bl	ADC_RegularChannelConfig
 354              	.LVL40:
 355              		.loc 1 125 0
 356 008c 3046     		mov	r0, r6
 357 008e 0123     		movs	r3, #1
 358 0090 0422     		movs	r2, #4
 359 0092 0321     		movs	r1, #3
 360 0094 FFF7FEFF 		bl	ADC_RegularChannelConfig
 361              	.LVL41:
 362              		.loc 1 128 0
 363 0098 0123     		movs	r3, #1
 364 009a 2846     		mov	r0, r5
 365 009c 1A46     		mov	r2, r3
 366 009e 0921     		movs	r1, #9
 367 00a0 FFF7FEFF 		bl	ADC_InjectedChannelConfig
 368              	.LVL42:
 369              		.loc 1 129 0
 370 00a4 2846     		mov	r0, r5
 371 00a6 0123     		movs	r3, #1
 372 00a8 0222     		movs	r2, #2
 373 00aa 0821     		movs	r1, #8
 374 00ac FFF7FEFF 		bl	ADC_InjectedChannelConfig
 375              	.LVL43:
 376              		.loc 1 130 0
 377 00b0 0123     		movs	r3, #1
 378 00b2 2046     		mov	r0, r4
 379 00b4 1A46     		mov	r2, r3
 380 00b6 0821     		movs	r1, #8
 381 00b8 FFF7FEFF 		bl	ADC_InjectedChannelConfig
 382              	.LVL44:
 383              		.loc 1 131 0
 384 00bc 2046     		mov	r0, r4
 385 00be 0123     		movs	r3, #1
 386 00c0 0222     		movs	r2, #2
 387 00c2 0921     		movs	r1, #9
 388              		.loc 1 132 0
 389 00c4 BDE87040 		pop	{r4, r5, r6, lr}
 390              		.cfi_restore 14
 391              		.cfi_restore 6
 392              		.cfi_restore 5
 393              		.cfi_restore 4
 394              		.cfi_def_cfa_offset 0
 395              		.loc 1 131 0
 396 00c8 FFF7FEBF 		b	ADC_InjectedChannelConfig
 397              	.LVL45:
 398              	.L8:
 399              		.align	2
ARM GAS  C:\Users\euanm\AppData\Local\Temp\ccz9XhOH.s 			page 8


 400              	.L7:
 401 00cc 00200140 		.word	1073815552
 402 00d0 00210140 		.word	1073815808
 403 00d4 00220140 		.word	1073816064
 404              		.cfi_endproc
 405              	.LFE257:
 406              		.size	hw_setup_adc_channels, .-hw_setup_adc_channels
 407              		.section	.text.hw_setup_servo_outputs,"ax",%progbits
 408              		.align	2
 409              		.p2align 4,,15
 410              		.global	hw_setup_servo_outputs
 411              		.thumb
 412              		.thumb_func
 413              		.type	hw_setup_servo_outputs, %function
 414              	hw_setup_servo_outputs:
 415              	.LFB258:
 416              		.loc 1 134 0
 417              		.cfi_startproc
 418              		@ args = 0, pretend = 0, frame = 0
 419              		@ frame_needed = 0, uses_anonymous_args = 0
 420 0000 38B5     		push	{r3, r4, r5, lr}
 421              		.cfi_def_cfa_offset 16
 422              		.cfi_offset 3, -16
 423              		.cfi_offset 4, -12
 424              		.cfi_offset 5, -8
 425              		.cfi_offset 14, -4
 426              		.loc 1 136 0
 427 0002 0121     		movs	r1, #1
 428 0004 0220     		movs	r0, #2
 429 0006 FFF7FEFF 		bl	RCC_AHB1PeriphClockCmd
 430              	.LVL46:
 431              		.loc 1 139 0
 432 000a 074B     		ldr	r3, .L11
 433 000c 0749     		ldr	r1, .L11+4
 434 000e 5960     		str	r1, [r3, #4]
 435              		.loc 1 141 0
 436 0010 0022     		movs	r2, #0
 437              		.loc 1 140 0
 438 0012 0525     		movs	r5, #5
 439              		.loc 1 142 0
 440 0014 8024     		movs	r4, #128
 441              		.loc 1 145 0
 442 0016 0420     		movs	r0, #4
 443              		.loc 1 140 0
 444 0018 9D60     		str	r5, [r3, #8]
 445              		.loc 1 141 0
 446 001a 9A70     		strb	r2, [r3, #2]
 447              		.loc 1 142 0
 448 001c 1C80     		strh	r4, [r3]	@ movhi
 449              		.loc 1 144 0
 450 001e 1961     		str	r1, [r3, #16]
 451              		.loc 1 145 0
 452 0020 5861     		str	r0, [r3, #20]
 453              		.loc 1 146 0
 454 0022 9A73     		strb	r2, [r3, #14]
 455              		.loc 1 147 0
 456 0024 9A81     		strh	r2, [r3, #12]	@ movhi
ARM GAS  C:\Users\euanm\AppData\Local\Temp\ccz9XhOH.s 			page 9


 457 0026 38BD     		pop	{r3, r4, r5, pc}
 458              	.L12:
 459              		.align	2
 460              	.L11:
 461 0028 00000000 		.word	servos
 462 002c 00040240 		.word	1073873920
 463              		.cfi_endproc
 464              	.LFE258:
 465              		.size	hw_setup_servo_outputs, .-hw_setup_servo_outputs
 466              		.section	.text.hw_start_i2c,"ax",%progbits
 467              		.align	2
 468              		.p2align 4,,15
 469              		.global	hw_start_i2c
 470              		.thumb
 471              		.thumb_func
 472              		.type	hw_start_i2c, %function
 473              	hw_start_i2c:
 474              	.LFB259:
 475              		.loc 1 150 0
 476              		.cfi_startproc
 477              		@ args = 0, pretend = 0, frame = 0
 478              		@ frame_needed = 0, uses_anonymous_args = 0
 479 0000 10B5     		push	{r4, lr}
 480              		.cfi_def_cfa_offset 8
 481              		.cfi_offset 4, -8
 482              		.cfi_offset 14, -4
 483              		.loc 1 153 0
 484 0002 0F4C     		ldr	r4, .L17
 485              		.loc 1 151 0
 486 0004 0F48     		ldr	r0, .L17+4
 487 0006 FFF7FEFF 		bl	i2cAcquireBus
 488              	.LVL47:
 489              		.loc 1 153 0
 490 000a 2378     		ldrb	r3, [r4]	@ zero_extendqisi2
 491 000c 9BB9     		cbnz	r3, .L14
 492              		.loc 1 154 0
 493 000e 40F22E22 		movw	r2, #558
 494 0012 4FF48061 		mov	r1, #1024
 495 0016 0C48     		ldr	r0, .L17+8
 496 0018 FFF7FEFF 		bl	_pal_lld_setgroupmode
 497              	.LVL48:
 498              		.loc 1 159 0
 499 001c 40F22E22 		movw	r2, #558
 500 0020 4FF40061 		mov	r1, #2048
 501 0024 0848     		ldr	r0, .L17+8
 502 0026 FFF7FEFF 		bl	_pal_lld_setgroupmode
 503              	.LVL49:
 504              		.loc 1 165 0
 505 002a 0849     		ldr	r1, .L17+12
 506 002c 0548     		ldr	r0, .L17+4
 507 002e FFF7FEFF 		bl	i2cStart
 508              	.LVL50:
 509              		.loc 1 166 0
 510 0032 0123     		movs	r3, #1
 511 0034 2370     		strb	r3, [r4]
 512              	.L14:
 513              		.loc 1 169 0
ARM GAS  C:\Users\euanm\AppData\Local\Temp\ccz9XhOH.s 			page 10


 514 0036 0348     		ldr	r0, .L17+4
 515              		.loc 1 170 0
 516 0038 BDE81040 		pop	{r4, lr}
 517              		.cfi_restore 14
 518              		.cfi_restore 4
 519              		.cfi_def_cfa_offset 0
 520              		.loc 1 169 0
 521 003c FFF7FEBF 		b	i2cReleaseBus
 522              	.LVL51:
 523              	.L18:
 524              		.align	2
 525              	.L17:
 526 0040 00000000 		.word	.LANCHOR0
 527 0044 00000000 		.word	I2CD2
 528 0048 00040240 		.word	1073873920
 529 004c 00000000 		.word	.LANCHOR1
 530              		.cfi_endproc
 531              	.LFE259:
 532              		.size	hw_start_i2c, .-hw_start_i2c
 533              		.section	.text.hw_stop_i2c,"ax",%progbits
 534              		.align	2
 535              		.p2align 4,,15
 536              		.global	hw_stop_i2c
 537              		.thumb
 538              		.thumb_func
 539              		.type	hw_stop_i2c, %function
 540              	hw_stop_i2c:
 541              	.LFB260:
 542              		.loc 1 172 0
 543              		.cfi_startproc
 544              		@ args = 0, pretend = 0, frame = 0
 545              		@ frame_needed = 0, uses_anonymous_args = 0
 546 0000 10B5     		push	{r4, lr}
 547              		.cfi_def_cfa_offset 8
 548              		.cfi_offset 4, -8
 549              		.cfi_offset 14, -4
 550              		.loc 1 175 0
 551 0002 0E4C     		ldr	r4, .L25
 552              		.loc 1 173 0
 553 0004 0E48     		ldr	r0, .L25+4
 554 0006 FFF7FEFF 		bl	i2cAcquireBus
 555              	.LVL52:
 556              		.loc 1 175 0
 557 000a 2378     		ldrb	r3, [r4]	@ zero_extendqisi2
 558 000c 83B1     		cbz	r3, .L20
 559              		.loc 1 176 0
 560 000e 0022     		movs	r2, #0
 561 0010 4FF48061 		mov	r1, #1024
 562 0014 0B48     		ldr	r0, .L25+8
 563 0016 FFF7FEFF 		bl	_pal_lld_setgroupmode
 564              	.LVL53:
 565              		.loc 1 177 0
 566 001a 0022     		movs	r2, #0
 567 001c 4FF40061 		mov	r1, #2048
 568 0020 0848     		ldr	r0, .L25+8
 569 0022 FFF7FEFF 		bl	_pal_lld_setgroupmode
 570              	.LVL54:
ARM GAS  C:\Users\euanm\AppData\Local\Temp\ccz9XhOH.s 			page 11


 571              		.loc 1 179 0
 572 0026 0648     		ldr	r0, .L25+4
 573 0028 FFF7FEFF 		bl	i2cStop
 574              	.LVL55:
 575              		.loc 1 180 0
 576 002c 0023     		movs	r3, #0
 577 002e 2370     		strb	r3, [r4]
 578              	.L20:
 579              		.loc 1 184 0
 580 0030 0348     		ldr	r0, .L25+4
 581              		.loc 1 185 0
 582 0032 BDE81040 		pop	{r4, lr}
 583              		.cfi_restore 14
 584              		.cfi_restore 4
 585              		.cfi_def_cfa_offset 0
 586              		.loc 1 184 0
 587 0036 FFF7FEBF 		b	i2cReleaseBus
 588              	.LVL56:
 589              	.L26:
 590 003a 00BF     		.align	2
 591              	.L25:
 592 003c 00000000 		.word	.LANCHOR0
 593 0040 00000000 		.word	I2CD2
 594 0044 00040240 		.word	1073873920
 595              		.cfi_endproc
 596              	.LFE260:
 597              		.size	hw_stop_i2c, .-hw_stop_i2c
 598              		.section	.text.hw_try_restore_i2c,"ax",%progbits
 599              		.align	2
 600              		.p2align 4,,15
 601              		.global	hw_try_restore_i2c
 602              		.thumb
 603              		.thumb_func
 604              		.type	hw_try_restore_i2c, %function
 605              	hw_try_restore_i2c:
 606              	.LFB261:
 607              		.loc 1 190 0
 608              		.cfi_startproc
 609              		@ args = 0, pretend = 0, frame = 0
 610              		@ frame_needed = 0, uses_anonymous_args = 0
 611 0000 2DE9F843 		push	{r3, r4, r5, r6, r7, r8, r9, lr}
 612              		.cfi_def_cfa_offset 32
 613              		.cfi_offset 3, -32
 614              		.cfi_offset 4, -28
 615              		.cfi_offset 5, -24
 616              		.cfi_offset 6, -20
 617              		.cfi_offset 7, -16
 618              		.cfi_offset 8, -12
 619              		.cfi_offset 9, -8
 620              		.cfi_offset 14, -4
 621              		.loc 1 191 0
 622 0004 2B4B     		ldr	r3, .L33
 623 0006 1B78     		ldrb	r3, [r3]	@ zero_extendqisi2
 624 0008 0BB9     		cbnz	r3, .L32
 625 000a BDE8F883 		pop	{r3, r4, r5, r6, r7, r8, r9, pc}
 626              	.L32:
 627              		.loc 1 194 0
ARM GAS  C:\Users\euanm\AppData\Local\Temp\ccz9XhOH.s 			page 12


 628 000e 2A4D     		ldr	r5, .L33+4
 629              		.loc 1 192 0
 630 0010 2A48     		ldr	r0, .L33+8
 631 0012 FFF7FEFF 		bl	i2cAcquireBus
 632              	.LVL57:
 633              		.loc 1 194 0
 634 0016 2846     		mov	r0, r5
 635 0018 2C22     		movs	r2, #44
 636 001a 4FF48061 		mov	r1, #1024
 637 001e FFF7FEFF 		bl	_pal_lld_setgroupmode
 638              	.LVL58:
 639              		.loc 1 199 0
 640 0022 2846     		mov	r0, r5
 641 0024 2C22     		movs	r2, #44
 642 0026 4FF40061 		mov	r1, #2048
 643 002a FFF7FEFF 		bl	_pal_lld_setgroupmode
 644              	.LVL59:
 645              		.loc 1 204 0
 646 002e 4FF48067 		mov	r7, #1024
 647              		.loc 1 205 0
 648 0032 4FF40063 		mov	r3, #2048
 649              		.loc 1 204 0
 650 0036 2F83     		strh	r7, [r5, #24]	@ movhi
 651              		.loc 1 207 0
 652 0038 0120     		movs	r0, #1
 653              		.loc 1 205 0
 654 003a 2B83     		strh	r3, [r5, #24]	@ movhi
 655              		.loc 1 207 0
 656 003c FFF7FEFF 		bl	chThdSleep
 657              	.LVL60:
 658              	.LBB2:
 659              		.loc 1 210 0
 660 0040 B946     		mov	r9, r7	@ movhi
 661              	.LBE2:
 662              		.loc 1 207 0
 663 0042 1024     		movs	r4, #16
 664              	.LVL61:
 665              	.L29:
 666              	.LBB3:
 667              		.loc 1 211 0 discriminator 3
 668 0044 0120     		movs	r0, #1
 669              		.loc 1 210 0 discriminator 3
 670 0046 A5F81A90 		strh	r9, [r5, #26]	@ movhi
 671              		.loc 1 211 0 discriminator 3
 672 004a FFF7FEFF 		bl	chThdSleep
 673              	.LVL62:
 674              		.loc 1 212 0 discriminator 3
 675 004e 2F83     		strh	r7, [r5, #24]	@ movhi
 676              		.loc 1 213 0 discriminator 3
 677 0050 0120     		movs	r0, #1
 678 0052 FFF7FEFF 		bl	chThdSleep
 679              	.LVL63:
 680              		.loc 1 209 0 discriminator 3
 681 0056 013C     		subs	r4, r4, #1
 682              	.LVL64:
 683              		.loc 1 210 0 discriminator 3
 684 0058 174E     		ldr	r6, .L33+4
ARM GAS  C:\Users\euanm\AppData\Local\Temp\ccz9XhOH.s 			page 13


 685 005a 4FF48068 		mov	r8, #1024
 686              		.loc 1 209 0 discriminator 3
 687 005e F1D1     		bne	.L29
 688              	.LBE3:
 689              		.loc 1 217 0
 690 0060 4FF40065 		mov	r5, #2048
 691 0064 7583     		strh	r5, [r6, #26]	@ movhi
 692              		.loc 1 218 0
 693 0066 0120     		movs	r0, #1
 694 0068 FFF7FEFF 		bl	chThdSleep
 695              	.LVL65:
 696              		.loc 1 219 0
 697 006c A6F81A80 		strh	r8, [r6, #26]	@ movhi
 698              		.loc 1 220 0
 699 0070 0120     		movs	r0, #1
 700 0072 FFF7FEFF 		bl	chThdSleep
 701              	.LVL66:
 702              		.loc 1 221 0
 703 0076 A6F81880 		strh	r8, [r6, #24]	@ movhi
 704              		.loc 1 222 0
 705 007a 0120     		movs	r0, #1
 706 007c FFF7FEFF 		bl	chThdSleep
 707              	.LVL67:
 708              		.loc 1 237 0
 709 0080 0E4C     		ldr	r4, .L33+8
 710              	.LVL68:
 711              		.loc 1 223 0
 712 0082 3583     		strh	r5, [r6, #24]	@ movhi
 713              		.loc 1 225 0
 714 0084 4146     		mov	r1, r8
 715 0086 3046     		mov	r0, r6
 716 0088 40F22E22 		movw	r2, #558
 717 008c FFF7FEFF 		bl	_pal_lld_setgroupmode
 718              	.LVL69:
 719              		.loc 1 231 0
 720 0090 2946     		mov	r1, r5
 721 0092 3046     		mov	r0, r6
 722 0094 40F22E22 		movw	r2, #558
 723 0098 FFF7FEFF 		bl	_pal_lld_setgroupmode
 724              	.LVL70:
 725              		.loc 1 237 0
 726 009c 0123     		movs	r3, #1
 727              		.loc 1 238 0
 728 009e 2046     		mov	r0, r4
 729 00a0 0749     		ldr	r1, .L33+12
 730              		.loc 1 237 0
 731 00a2 2370     		strb	r3, [r4]
 732              		.loc 1 238 0
 733 00a4 FFF7FEFF 		bl	i2cStart
 734              	.LVL71:
 735              		.loc 1 240 0
 736 00a8 2046     		mov	r0, r4
 737              		.loc 1 242 0
 738 00aa BDE8F843 		pop	{r3, r4, r5, r6, r7, r8, r9, lr}
 739              		.cfi_restore 14
 740              		.cfi_restore 9
 741              		.cfi_restore 8
ARM GAS  C:\Users\euanm\AppData\Local\Temp\ccz9XhOH.s 			page 14


 742              		.cfi_restore 7
 743              		.cfi_restore 6
 744              		.cfi_restore 5
 745              		.cfi_restore 4
 746              		.cfi_restore 3
 747              		.cfi_def_cfa_offset 0
 748              		.loc 1 240 0
 749 00ae FFF7FEBF 		b	i2cReleaseBus
 750              	.LVL72:
 751              	.L34:
 752 00b2 00BF     		.align	2
 753              	.L33:
 754 00b4 00000000 		.word	.LANCHOR0
 755 00b8 00040240 		.word	1073873920
 756 00bc 00000000 		.word	I2CD2
 757 00c0 00000000 		.word	.LANCHOR1
 758              		.cfi_endproc
 759              	.LFE261:
 760              		.size	hw_try_restore_i2c, .-hw_try_restore_i2c
 761              		.section	.bss.i2c_running,"aw",%nobits
 762              		.set	.LANCHOR0,. + 0
 763              		.type	i2c_running, %object
 764              		.size	i2c_running, 1
 765              	i2c_running:
 766 0000 00       		.space	1
 767              		.section	.rodata.i2cfg,"a",%progbits
 768              		.align	2
 769              		.set	.LANCHOR1,. + 0
 770              		.type	i2cfg, %object
 771              		.size	i2cfg, 12
 772              	i2cfg:
 773 0000 01       		.byte	1
 774 0001 000000   		.space	3
 775 0004 A0860100 		.word	100000
 776 0008 01       		.byte	1
 777 0009 000000   		.space	3
 778              		.text
 779              	.Letext0:
 780              		.file 2 "c:\\program files (x86)\\gnu tools arm embedded\\5.4 2016q3\\arm-none-eabi\\include\\mach
 781              		.file 3 "c:\\program files (x86)\\gnu tools arm embedded\\5.4 2016q3\\arm-none-eabi\\include\\sys\
 782              		.file 4 "c:\\program files (x86)\\gnu tools arm embedded\\5.4 2016q3\\lib\\gcc\\arm-none-eabi\\5.4
 783              		.file 5 "ChibiOS_3.0.2/os/rt/ports/ARMCMx/compilers/GCC/chtypes.h"
 784              		.file 6 "ChibiOS_3.0.2/os/rt/include/chsystypes.h"
 785              		.file 7 "ChibiOS_3.0.2/os/rt/include/chschd.h"
 786              		.file 8 "ChibiOS_3.0.2/os/ext/CMSIS/ST/stm32f407xx.h"
 787              		.file 9 "ChibiOS_3.0.2/os/rt/ports/ARMCMx/chcore.h"
 788              		.file 10 "ChibiOS_3.0.2/os/rt/ports/ARMCMx/chcore_v7m.h"
 789              		.file 11 "ChibiOS_3.0.2/os/rt/include/chtm.h"
 790              		.file 12 "ChibiOS_3.0.2/os/rt/include/chsem.h"
 791              		.file 13 "ChibiOS_3.0.2/os/rt/include/chmtx.h"
 792              		.file 14 "ChibiOS_3.0.2/os/hal/ports/STM32/STM32F4xx/stm32_dma.h"
 793              		.file 15 "ChibiOS_3.0.2/os/hal/ports/STM32/LLD/GPIOv2/pal_lld.h"
 794              		.file 16 "ChibiOS_3.0.2/os/ext/CMSIS/ST/stm32f4xx.h"
 795              		.file 17 "ChibiOS_3.0.2/os/hal/include/i2c.h"
 796              		.file 18 "ChibiOS_3.0.2/os/hal/ports/STM32/LLD/I2Cv1/i2c_lld.h"
 797              		.file 19 "./servo.h"
 798              		.file 20 "ChibiOS_3.0.2/os/ext/CMSIS/include/core_cm4.h"
ARM GAS  C:\Users\euanm\AppData\Local\Temp\ccz9XhOH.s 			page 15


 799              		.file 21 "ChibiOS_3.0.2/ext/stdperiph_stm32f4/inc/stm32f4xx_rcc.h"
 800              		.file 22 "ChibiOS_3.0.2/ext/stdperiph_stm32f4/inc/stm32f4xx_adc.h"
 801              		.file 23 "ChibiOS_3.0.2/os/rt/include/chthreads.h"
 802              		.section	.debug_info,"",%progbits
 803              	.Ldebug_info0:
 804 0000 D2150000 		.4byte	0x15d2
 805 0004 0400     		.2byte	0x4
 806 0006 00000000 		.4byte	.Ldebug_abbrev0
 807 000a 04       		.byte	0x4
 808 000b 01       		.uleb128 0x1
 809 000c 8E020000 		.4byte	.LASF206
 810 0010 0C       		.byte	0xc
 811 0011 7B010000 		.4byte	.LASF207
 812 0015 0F080000 		.4byte	.LASF208
 813 0019 18000000 		.4byte	.Ldebug_ranges0+0x18
 814 001d 00000000 		.4byte	0
 815 0021 00000000 		.4byte	.Ldebug_line0
 816 0025 02       		.uleb128 0x2
 817 0026 01       		.byte	0x1
 818 0027 06       		.byte	0x6
 819 0028 BA080000 		.4byte	.LASF0
 820 002c 03       		.uleb128 0x3
 821 002d 0F070000 		.4byte	.LASF3
 822 0031 02       		.byte	0x2
 823 0032 1D       		.byte	0x1d
 824 0033 37000000 		.4byte	0x37
 825 0037 02       		.uleb128 0x2
 826 0038 01       		.byte	0x1
 827 0039 08       		.byte	0x8
 828 003a C1070000 		.4byte	.LASF1
 829 003e 02       		.uleb128 0x2
 830 003f 02       		.byte	0x2
 831 0040 05       		.byte	0x5
 832 0041 78060000 		.4byte	.LASF2
 833 0045 03       		.uleb128 0x3
 834 0046 F3010000 		.4byte	.LASF4
 835 004a 02       		.byte	0x2
 836 004b 2B       		.byte	0x2b
 837 004c 50000000 		.4byte	0x50
 838 0050 02       		.uleb128 0x2
 839 0051 02       		.byte	0x2
 840 0052 07       		.byte	0x7
 841 0053 C6080000 		.4byte	.LASF5
 842 0057 03       		.uleb128 0x3
 843 0058 BB000000 		.4byte	.LASF6
 844 005c 02       		.byte	0x2
 845 005d 3F       		.byte	0x3f
 846 005e 62000000 		.4byte	0x62
 847 0062 02       		.uleb128 0x2
 848 0063 04       		.byte	0x4
 849 0064 05       		.byte	0x5
 850 0065 9F060000 		.4byte	.LASF7
 851 0069 03       		.uleb128 0x3
 852 006a CF070000 		.4byte	.LASF8
 853 006e 02       		.byte	0x2
 854 006f 41       		.byte	0x41
 855 0070 74000000 		.4byte	0x74
ARM GAS  C:\Users\euanm\AppData\Local\Temp\ccz9XhOH.s 			page 16


 856 0074 02       		.uleb128 0x2
 857 0075 04       		.byte	0x4
 858 0076 07       		.byte	0x7
 859 0077 51070000 		.4byte	.LASF9
 860 007b 02       		.uleb128 0x2
 861 007c 08       		.byte	0x8
 862 007d 05       		.byte	0x5
 863 007e 82040000 		.4byte	.LASF10
 864 0082 03       		.uleb128 0x3
 865 0083 CE030000 		.4byte	.LASF11
 866 0087 02       		.byte	0x2
 867 0088 5B       		.byte	0x5b
 868 0089 8D000000 		.4byte	0x8d
 869 008d 02       		.uleb128 0x2
 870 008e 08       		.byte	0x8
 871 008f 07       		.byte	0x7
 872 0090 C8010000 		.4byte	.LASF12
 873 0094 04       		.uleb128 0x4
 874 0095 04       		.byte	0x4
 875 0096 05       		.byte	0x5
 876 0097 696E7400 		.ascii	"int\000"
 877 009b 02       		.uleb128 0x2
 878 009c 04       		.byte	0x4
 879 009d 07       		.byte	0x7
 880 009e 85000000 		.4byte	.LASF13
 881 00a2 03       		.uleb128 0x3
 882 00a3 AD040000 		.4byte	.LASF14
 883 00a7 03       		.byte	0x3
 884 00a8 18       		.byte	0x18
 885 00a9 2C000000 		.4byte	0x2c
 886 00ad 03       		.uleb128 0x3
 887 00ae 26060000 		.4byte	.LASF15
 888 00b2 03       		.byte	0x3
 889 00b3 24       		.byte	0x24
 890 00b4 45000000 		.4byte	0x45
 891 00b8 03       		.uleb128 0x3
 892 00b9 86070000 		.4byte	.LASF16
 893 00bd 03       		.byte	0x3
 894 00be 2C       		.byte	0x2c
 895 00bf 57000000 		.4byte	0x57
 896 00c3 03       		.uleb128 0x3
 897 00c4 2E010000 		.4byte	.LASF17
 898 00c8 03       		.byte	0x3
 899 00c9 30       		.byte	0x30
 900 00ca 69000000 		.4byte	0x69
 901 00ce 03       		.uleb128 0x3
 902 00cf FA060000 		.4byte	.LASF18
 903 00d3 03       		.byte	0x3
 904 00d4 3C       		.byte	0x3c
 905 00d5 82000000 		.4byte	0x82
 906 00d9 03       		.uleb128 0x3
 907 00da 73020000 		.4byte	.LASF19
 908 00de 04       		.byte	0x4
 909 00df D8       		.byte	0xd8
 910 00e0 9B000000 		.4byte	0x9b
 911 00e4 05       		.uleb128 0x5
 912 00e5 B8000000 		.4byte	0xb8
ARM GAS  C:\Users\euanm\AppData\Local\Temp\ccz9XhOH.s 			page 17


 913 00e9 05       		.uleb128 0x5
 914 00ea C3000000 		.4byte	0xc3
 915 00ee 03       		.uleb128 0x3
 916 00ef 42060000 		.4byte	.LASF20
 917 00f3 05       		.byte	0x5
 918 00f4 45       		.byte	0x45
 919 00f5 C3000000 		.4byte	0xc3
 920 00f9 03       		.uleb128 0x3
 921 00fa FF050000 		.4byte	.LASF21
 922 00fe 05       		.byte	0x5
 923 00ff 48       		.byte	0x48
 924 0100 A2000000 		.4byte	0xa2
 925 0104 03       		.uleb128 0x3
 926 0105 4F040000 		.4byte	.LASF22
 927 0109 05       		.byte	0x5
 928 010a 49       		.byte	0x49
 929 010b A2000000 		.4byte	0xa2
 930 010f 03       		.uleb128 0x3
 931 0110 49070000 		.4byte	.LASF23
 932 0114 05       		.byte	0x5
 933 0115 4A       		.byte	0x4a
 934 0116 A2000000 		.4byte	0xa2
 935 011a 03       		.uleb128 0x3
 936 011b C0050000 		.4byte	.LASF24
 937 011f 05       		.byte	0x5
 938 0120 4B       		.byte	0x4b
 939 0121 A2000000 		.4byte	0xa2
 940 0125 03       		.uleb128 0x3
 941 0126 9A010000 		.4byte	.LASF25
 942 012a 05       		.byte	0x5
 943 012b 4C       		.byte	0x4c
 944 012c C3000000 		.4byte	0xc3
 945 0130 03       		.uleb128 0x3
 946 0131 41050000 		.4byte	.LASF26
 947 0135 05       		.byte	0x5
 948 0136 4D       		.byte	0x4d
 949 0137 B8000000 		.4byte	0xb8
 950 013b 03       		.uleb128 0x3
 951 013c 50010000 		.4byte	.LASF27
 952 0140 05       		.byte	0x5
 953 0141 4F       		.byte	0x4f
 954 0142 C3000000 		.4byte	0xc3
 955 0146 03       		.uleb128 0x3
 956 0147 FE010000 		.4byte	.LASF28
 957 014b 05       		.byte	0x5
 958 014c 51       		.byte	0x51
 959 014d B8000000 		.4byte	0xb8
 960 0151 03       		.uleb128 0x3
 961 0152 F8030000 		.4byte	.LASF29
 962 0156 06       		.byte	0x6
 963 0157 33       		.byte	0x33
 964 0158 C3000000 		.4byte	0xc3
 965 015c 03       		.uleb128 0x3
 966 015d 6A020000 		.4byte	.LASF30
 967 0161 06       		.byte	0x6
 968 0162 3F       		.byte	0x3f
 969 0163 67010000 		.4byte	0x167
ARM GAS  C:\Users\euanm\AppData\Local\Temp\ccz9XhOH.s 			page 18


 970 0167 06       		.uleb128 0x6
 971 0168 D5040000 		.4byte	.LASF52
 972 016c 48       		.byte	0x48
 973 016d 07       		.byte	0x7
 974 016e C2       		.byte	0xc2
 975 016f 6C020000 		.4byte	0x26c
 976 0173 07       		.uleb128 0x7
 977 0174 F3060000 		.4byte	.LASF31
 978 0178 07       		.byte	0x7
 979 0179 C3       		.byte	0xc3
 980 017a 77020000 		.4byte	0x277
 981 017e 00       		.byte	0
 982 017f 07       		.uleb128 0x7
 983 0180 32070000 		.4byte	.LASF32
 984 0184 07       		.byte	0x7
 985 0185 C5       		.byte	0xc5
 986 0186 77020000 		.4byte	0x277
 987 018a 04       		.byte	0x4
 988 018b 07       		.uleb128 0x7
 989 018c 57000000 		.4byte	.LASF33
 990 0190 07       		.byte	0x7
 991 0191 C7       		.byte	0xc7
 992 0192 25010000 		.4byte	0x125
 993 0196 08       		.byte	0x8
 994 0197 07       		.uleb128 0x7
 995 0198 03070000 		.4byte	.LASF34
 996 019c 07       		.byte	0x7
 997 019d C8       		.byte	0xc8
 998 019e BC060000 		.4byte	0x6bc
 999 01a2 0C       		.byte	0xc
 1000 01a3 07       		.uleb128 0x7
 1001 01a4 2B020000 		.4byte	.LASF35
 1002 01a8 07       		.byte	0x7
 1003 01a9 CA       		.byte	0xca
 1004 01aa 77020000 		.4byte	0x277
 1005 01ae 10       		.byte	0x10
 1006 01af 07       		.uleb128 0x7
 1007 01b0 90040000 		.4byte	.LASF36
 1008 01b4 07       		.byte	0x7
 1009 01b5 CB       		.byte	0xcb
 1010 01b6 77020000 		.4byte	0x277
 1011 01ba 14       		.byte	0x14
 1012 01bb 07       		.uleb128 0x7
 1013 01bc 02040000 		.4byte	.LASF37
 1014 01c0 07       		.byte	0x7
 1015 01c1 D2       		.byte	0xd2
 1016 01c2 01090000 		.4byte	0x901
 1017 01c6 18       		.byte	0x18
 1018 01c7 07       		.uleb128 0x7
 1019 01c8 CD040000 		.4byte	.LASF38
 1020 01cc 07       		.byte	0x7
 1021 01cd DD       		.byte	0xdd
 1022 01ce 04010000 		.4byte	0x104
 1023 01d2 1C       		.byte	0x1c
 1024 01d3 07       		.uleb128 0x7
 1025 01d4 5C050000 		.4byte	.LASF39
 1026 01d8 07       		.byte	0x7
ARM GAS  C:\Users\euanm\AppData\Local\Temp\ccz9XhOH.s 			page 19


 1027 01d9 E1       		.byte	0xe1
 1028 01da F9000000 		.4byte	0xf9
 1029 01de 1D       		.byte	0x1d
 1030 01df 07       		.uleb128 0x7
 1031 01e0 FE070000 		.4byte	.LASF40
 1032 01e4 07       		.byte	0x7
 1033 01e5 E6       		.byte	0xe6
 1034 01e6 0F010000 		.4byte	0x10f
 1035 01ea 1E       		.byte	0x1e
 1036 01eb 07       		.uleb128 0x7
 1037 01ec 4F080000 		.4byte	.LASF41
 1038 01f0 07       		.byte	0x7
 1039 01f1 EC       		.byte	0xec
 1040 01f2 1A010000 		.4byte	0x11a
 1041 01f6 1F       		.byte	0x1f
 1042 01f7 07       		.uleb128 0x7
 1043 01f8 3D000000 		.4byte	.LASF42
 1044 01fc 07       		.byte	0x7
 1045 01fd F3       		.byte	0xf3
 1046 01fe 13090000 		.4byte	0x913
 1047 0202 20       		.byte	0x20
 1048 0203 08       		.uleb128 0x8
 1049 0204 705F7500 		.ascii	"p_u\000"
 1050 0208 07       		.byte	0x7
 1051 0209 3101     		.2byte	0x131
 1052 020b 3C080000 		.4byte	0x83c
 1053 020f 24       		.byte	0x24
 1054 0210 09       		.uleb128 0x9
 1055 0211 B1000000 		.4byte	.LASF43
 1056 0215 07       		.byte	0x7
 1057 0216 3601     		.2byte	0x136
 1058 0218 7D020000 		.4byte	0x27d
 1059 021c 28       		.byte	0x28
 1060 021d 09       		.uleb128 0x9
 1061 021e EA080000 		.4byte	.LASF44
 1062 0222 07       		.byte	0x7
 1063 0223 3C01     		.2byte	0x13c
 1064 0225 A1020000 		.4byte	0x2a1
 1065 0229 2C       		.byte	0x2c
 1066 022a 09       		.uleb128 0x9
 1067 022b F9050000 		.4byte	.LASF45
 1068 022f 07       		.byte	0x7
 1069 0230 4001     		.2byte	0x140
 1070 0232 30010000 		.4byte	0x130
 1071 0236 34       		.byte	0x34
 1072 0237 09       		.uleb128 0x9
 1073 0238 8C060000 		.4byte	.LASF46
 1074 023c 07       		.byte	0x7
 1075 023d 4601     		.2byte	0x146
 1076 023f 3B010000 		.4byte	0x13b
 1077 0243 38       		.byte	0x38
 1078 0244 09       		.uleb128 0x9
 1079 0245 C3040000 		.4byte	.LASF47
 1080 0249 07       		.byte	0x7
 1081 024a 4D01     		.2byte	0x14d
 1082 024c FB080000 		.4byte	0x8fb
 1083 0250 3C       		.byte	0x3c
ARM GAS  C:\Users\euanm\AppData\Local\Temp\ccz9XhOH.s 			page 20


 1084 0251 09       		.uleb128 0x9
 1085 0252 6D060000 		.4byte	.LASF48
 1086 0256 07       		.byte	0x7
 1087 0257 5101     		.2byte	0x151
 1088 0259 25010000 		.4byte	0x125
 1089 025d 40       		.byte	0x40
 1090 025e 09       		.uleb128 0x9
 1091 025f BB040000 		.4byte	.LASF49
 1092 0263 07       		.byte	0x7
 1093 0264 5801     		.2byte	0x158
 1094 0266 54030000 		.4byte	0x354
 1095 026a 44       		.byte	0x44
 1096 026b 00       		.byte	0
 1097 026c 03       		.uleb128 0x3
 1098 026d 2F060000 		.4byte	.LASF50
 1099 0271 06       		.byte	0x6
 1100 0272 44       		.byte	0x44
 1101 0273 77020000 		.4byte	0x277
 1102 0277 0A       		.uleb128 0xa
 1103 0278 04       		.byte	0x4
 1104 0279 5C010000 		.4byte	0x15c
 1105 027d 03       		.uleb128 0x3
 1106 027e A2000000 		.4byte	.LASF51
 1107 0282 06       		.byte	0x6
 1108 0283 49       		.byte	0x49
 1109 0284 88020000 		.4byte	0x288
 1110 0288 06       		.uleb128 0x6
 1111 0289 00000000 		.4byte	.LASF53
 1112 028d 04       		.byte	0x4
 1113 028e 07       		.byte	0x7
 1114 028f B0       		.byte	0xb0
 1115 0290 A1020000 		.4byte	0x2a1
 1116 0294 07       		.uleb128 0x7
 1117 0295 F3060000 		.4byte	.LASF31
 1118 0299 07       		.byte	0x7
 1119 029a B1       		.byte	0xb1
 1120 029b 77020000 		.4byte	0x277
 1121 029f 00       		.byte	0
 1122 02a0 00       		.byte	0
 1123 02a1 03       		.uleb128 0x3
 1124 02a2 10000000 		.4byte	.LASF54
 1125 02a6 06       		.byte	0x6
 1126 02a7 50       		.byte	0x50
 1127 02a8 AC020000 		.4byte	0x2ac
 1128 02ac 06       		.uleb128 0x6
 1129 02ad 03050000 		.4byte	.LASF55
 1130 02b1 08       		.byte	0x8
 1131 02b2 07       		.byte	0x7
 1132 02b3 B7       		.byte	0xb7
 1133 02b4 D1020000 		.4byte	0x2d1
 1134 02b8 07       		.uleb128 0x7
 1135 02b9 F3060000 		.4byte	.LASF31
 1136 02bd 07       		.byte	0x7
 1137 02be B8       		.byte	0xb8
 1138 02bf 77020000 		.4byte	0x277
 1139 02c3 00       		.byte	0
 1140 02c4 07       		.uleb128 0x7
ARM GAS  C:\Users\euanm\AppData\Local\Temp\ccz9XhOH.s 			page 21


 1141 02c5 32070000 		.4byte	.LASF32
 1142 02c9 07       		.byte	0x7
 1143 02ca B9       		.byte	0xb9
 1144 02cb 77020000 		.4byte	0x277
 1145 02cf 04       		.byte	0x4
 1146 02d0 00       		.byte	0
 1147 02d1 03       		.uleb128 0x3
 1148 02d2 63070000 		.4byte	.LASF56
 1149 02d6 06       		.byte	0x6
 1150 02d7 57       		.byte	0x57
 1151 02d8 DC020000 		.4byte	0x2dc
 1152 02dc 0B       		.uleb128 0xb
 1153 02dd D3000000 		.4byte	.LASF57
 1154 02e1 1C       		.byte	0x1c
 1155 02e2 07       		.byte	0x7
 1156 02e3 9001     		.2byte	0x190
 1157 02e5 38030000 		.4byte	0x338
 1158 02e9 09       		.uleb128 0x9
 1159 02ea 2E050000 		.4byte	.LASF58
 1160 02ee 07       		.byte	0x7
 1161 02ef 9101     		.2byte	0x191
 1162 02f1 A1020000 		.4byte	0x2a1
 1163 02f5 00       		.byte	0
 1164 02f6 09       		.uleb128 0x9
 1165 02f7 5C010000 		.4byte	.LASF59
 1166 02fb 07       		.byte	0x7
 1167 02fc 9201     		.2byte	0x192
 1168 02fe 25010000 		.4byte	0x125
 1169 0302 08       		.byte	0x8
 1170 0303 09       		.uleb128 0x9
 1171 0304 D9080000 		.4byte	.LASF60
 1172 0308 07       		.byte	0x7
 1173 0309 9401     		.2byte	0x194
 1174 030b BC060000 		.4byte	0x6bc
 1175 030f 0C       		.byte	0xc
 1176 0310 09       		.uleb128 0x9
 1177 0311 36040000 		.4byte	.LASF61
 1178 0315 07       		.byte	0x7
 1179 0316 9701     		.2byte	0x197
 1180 0318 77020000 		.4byte	0x277
 1181 031c 10       		.byte	0x10
 1182 031d 09       		.uleb128 0x9
 1183 031e CA050000 		.4byte	.LASF62
 1184 0322 07       		.byte	0x7
 1185 0323 9801     		.2byte	0x198
 1186 0325 77020000 		.4byte	0x277
 1187 0329 14       		.byte	0x14
 1188 032a 09       		.uleb128 0x9
 1189 032b 82060000 		.4byte	.LASF63
 1190 032f 07       		.byte	0x7
 1191 0330 9B01     		.2byte	0x19b
 1192 0332 77020000 		.4byte	0x277
 1193 0336 18       		.byte	0x18
 1194 0337 00       		.byte	0
 1195 0338 03       		.uleb128 0x3
 1196 0339 09010000 		.4byte	.LASF64
 1197 033d 06       		.byte	0x6
ARM GAS  C:\Users\euanm\AppData\Local\Temp\ccz9XhOH.s 			page 22


 1198 033e 5C       		.byte	0x5c
 1199 033f 43030000 		.4byte	0x343
 1200 0343 0A       		.uleb128 0xa
 1201 0344 04       		.byte	0x4
 1202 0345 49030000 		.4byte	0x349
 1203 0349 0C       		.uleb128 0xc
 1204 034a 54030000 		.4byte	0x354
 1205 034e 0D       		.uleb128 0xd
 1206 034f 54030000 		.4byte	0x354
 1207 0353 00       		.byte	0
 1208 0354 0E       		.uleb128 0xe
 1209 0355 04       		.byte	0x4
 1210 0356 03       		.uleb128 0x3
 1211 0357 64050000 		.4byte	.LASF65
 1212 035b 06       		.byte	0x6
 1213 035c 61       		.byte	0x61
 1214 035d 61030000 		.4byte	0x361
 1215 0361 0B       		.uleb128 0xb
 1216 0362 A2010000 		.4byte	.LASF66
 1217 0366 14       		.byte	0x14
 1218 0367 07       		.byte	0x7
 1219 0368 6B01     		.2byte	0x16b
 1220 036a B0030000 		.4byte	0x3b0
 1221 036e 09       		.uleb128 0x9
 1222 036f 70080000 		.4byte	.LASF67
 1223 0373 07       		.byte	0x7
 1224 0374 6C01     		.2byte	0x16c
 1225 0376 18090000 		.4byte	0x918
 1226 037a 00       		.byte	0
 1227 037b 09       		.uleb128 0x9
 1228 037c 0D090000 		.4byte	.LASF68
 1229 0380 07       		.byte	0x7
 1230 0381 6D01     		.2byte	0x16d
 1231 0383 18090000 		.4byte	0x918
 1232 0387 04       		.byte	0x4
 1233 0388 09       		.uleb128 0x9
 1234 0389 09040000 		.4byte	.LASF69
 1235 038d 07       		.byte	0x7
 1236 038e 6E01     		.2byte	0x16e
 1237 0390 51010000 		.4byte	0x151
 1238 0394 08       		.byte	0x8
 1239 0395 09       		.uleb128 0x9
 1240 0396 C0010000 		.4byte	.LASF70
 1241 039a 07       		.byte	0x7
 1242 039b 6F01     		.2byte	0x16f
 1243 039d 38030000 		.4byte	0x338
 1244 03a1 0C       		.byte	0xc
 1245 03a2 09       		.uleb128 0x9
 1246 03a3 68010000 		.4byte	.LASF71
 1247 03a7 07       		.byte	0x7
 1248 03a8 7101     		.2byte	0x171
 1249 03aa 54030000 		.4byte	0x354
 1250 03ae 10       		.byte	0x10
 1251 03af 00       		.byte	0
 1252 03b0 03       		.uleb128 0x3
 1253 03b1 E8070000 		.4byte	.LASF72
 1254 03b5 06       		.byte	0x6
ARM GAS  C:\Users\euanm\AppData\Local\Temp\ccz9XhOH.s 			page 23


 1255 03b6 66       		.byte	0x66
 1256 03b7 BB030000 		.4byte	0x3bb
 1257 03bb 0B       		.uleb128 0xb
 1258 03bc 39020000 		.4byte	.LASF73
 1259 03c0 10       		.byte	0x10
 1260 03c1 07       		.byte	0x7
 1261 03c2 7B01     		.2byte	0x17b
 1262 03c4 FD030000 		.4byte	0x3fd
 1263 03c8 09       		.uleb128 0x9
 1264 03c9 70080000 		.4byte	.LASF67
 1265 03cd 07       		.byte	0x7
 1266 03ce 7C01     		.2byte	0x17c
 1267 03d0 18090000 		.4byte	0x918
 1268 03d4 00       		.byte	0
 1269 03d5 09       		.uleb128 0x9
 1270 03d6 0D090000 		.4byte	.LASF68
 1271 03da 07       		.byte	0x7
 1272 03db 7E01     		.2byte	0x17e
 1273 03dd 18090000 		.4byte	0x918
 1274 03e1 04       		.byte	0x4
 1275 03e2 09       		.uleb128 0x9
 1276 03e3 09040000 		.4byte	.LASF69
 1277 03e7 07       		.byte	0x7
 1278 03e8 8001     		.2byte	0x180
 1279 03ea 51010000 		.4byte	0x151
 1280 03ee 08       		.byte	0x8
 1281 03ef 09       		.uleb128 0x9
 1282 03f0 6C000000 		.4byte	.LASF74
 1283 03f4 07       		.byte	0x7
 1284 03f5 8201     		.2byte	0x182
 1285 03f7 13090000 		.4byte	0x913
 1286 03fb 0C       		.byte	0xc
 1287 03fc 00       		.byte	0
 1288 03fd 03       		.uleb128 0x3
 1289 03fe DF040000 		.4byte	.LASF75
 1290 0402 06       		.byte	0x6
 1291 0403 6B       		.byte	0x6b
 1292 0404 08040000 		.4byte	0x408
 1293 0408 0B       		.uleb128 0xb
 1294 0409 18010000 		.4byte	.LASF76
 1295 040d 04       		.byte	0x4
 1296 040e 07       		.byte	0x7
 1297 040f A201     		.2byte	0x1a2
 1298 0411 23040000 		.4byte	0x423
 1299 0415 09       		.uleb128 0x9
 1300 0416 05080000 		.4byte	.LASF77
 1301 041a 07       		.byte	0x7
 1302 041b AA01     		.2byte	0x1aa
 1303 041d 1E090000 		.4byte	0x91e
 1304 0421 00       		.byte	0
 1305 0422 00       		.byte	0
 1306 0423 03       		.uleb128 0x3
 1307 0424 9A080000 		.4byte	.LASF78
 1308 0428 06       		.byte	0x6
 1309 0429 70       		.byte	0x70
 1310 042a 2E040000 		.4byte	0x42e
 1311 042e 0F       		.uleb128 0xf
ARM GAS  C:\Users\euanm\AppData\Local\Temp\ccz9XhOH.s 			page 24


 1312 042f E2060000 		.4byte	.LASF79
 1313 0433 5802     		.2byte	0x258
 1314 0435 07       		.byte	0x7
 1315 0436 C201     		.2byte	0x1c2
 1316 0438 8A040000 		.4byte	0x48a
 1317 043c 09       		.uleb128 0x9
 1318 043d 09070000 		.4byte	.LASF80
 1319 0441 07       		.byte	0x7
 1320 0442 C601     		.2byte	0x1c6
 1321 0444 D1020000 		.4byte	0x2d1
 1322 0448 00       		.byte	0
 1323 0449 09       		.uleb128 0x9
 1324 044a CC000000 		.4byte	.LASF81
 1325 044e 07       		.byte	0x7
 1326 044f CA01     		.2byte	0x1ca
 1327 0451 B0030000 		.4byte	0x3b0
 1328 0455 1C       		.byte	0x1c
 1329 0456 08       		.uleb128 0x8
 1330 0457 64626700 		.ascii	"dbg\000"
 1331 045b 07       		.byte	0x7
 1332 045c CE01     		.2byte	0x1ce
 1333 045e FD030000 		.4byte	0x3fd
 1334 0462 2C       		.byte	0x2c
 1335 0463 09       		.uleb128 0x9
 1336 0464 13060000 		.4byte	.LASF82
 1337 0468 07       		.byte	0x7
 1338 0469 D201     		.2byte	0x1d2
 1339 046b 5C010000 		.4byte	0x15c
 1340 046f 30       		.byte	0x30
 1341 0470 08       		.uleb128 0x8
 1342 0471 746D00   		.ascii	"tm\000"
 1343 0474 07       		.byte	0x7
 1344 0475 D701     		.2byte	0x1d7
 1345 0477 31080000 		.4byte	0x831
 1346 047b 78       		.byte	0x78
 1347 047c 09       		.uleb128 0x9
 1348 047d E1000000 		.4byte	.LASF83
 1349 0481 07       		.byte	0x7
 1350 0482 E301     		.2byte	0x1e3
 1351 0484 23090000 		.4byte	0x923
 1352 0488 80       		.byte	0x80
 1353 0489 00       		.byte	0
 1354 048a 02       		.uleb128 0x2
 1355 048b 04       		.byte	0x4
 1356 048c 07       		.byte	0x7
 1357 048d 40070000 		.4byte	.LASF84
 1358 0491 10       		.uleb128 0x10
 1359 0492 50       		.byte	0x50
 1360 0493 08       		.byte	0x8
 1361 0494 C4       		.byte	0xc4
 1362 0495 88050000 		.4byte	0x588
 1363 0499 11       		.uleb128 0x11
 1364 049a 535200   		.ascii	"SR\000"
 1365 049d 08       		.byte	0x8
 1366 049e C6       		.byte	0xc6
 1367 049f E9000000 		.4byte	0xe9
 1368 04a3 00       		.byte	0
ARM GAS  C:\Users\euanm\AppData\Local\Temp\ccz9XhOH.s 			page 25


 1369 04a4 11       		.uleb128 0x11
 1370 04a5 43523100 		.ascii	"CR1\000"
 1371 04a9 08       		.byte	0x8
 1372 04aa C7       		.byte	0xc7
 1373 04ab E9000000 		.4byte	0xe9
 1374 04af 04       		.byte	0x4
 1375 04b0 11       		.uleb128 0x11
 1376 04b1 43523200 		.ascii	"CR2\000"
 1377 04b5 08       		.byte	0x8
 1378 04b6 C8       		.byte	0xc8
 1379 04b7 E9000000 		.4byte	0xe9
 1380 04bb 08       		.byte	0x8
 1381 04bc 07       		.uleb128 0x7
 1382 04bd 07060000 		.4byte	.LASF85
 1383 04c1 08       		.byte	0x8
 1384 04c2 C9       		.byte	0xc9
 1385 04c3 E9000000 		.4byte	0xe9
 1386 04c7 0C       		.byte	0xc
 1387 04c8 07       		.uleb128 0x7
 1388 04c9 0D060000 		.4byte	.LASF86
 1389 04cd 08       		.byte	0x8
 1390 04ce CA       		.byte	0xca
 1391 04cf E9000000 		.4byte	0xe9
 1392 04d3 10       		.byte	0x10
 1393 04d4 07       		.uleb128 0x7
 1394 04d5 F5080000 		.4byte	.LASF87
 1395 04d9 08       		.byte	0x8
 1396 04da CB       		.byte	0xcb
 1397 04db E9000000 		.4byte	0xe9
 1398 04df 14       		.byte	0x14
 1399 04e0 07       		.uleb128 0x7
 1400 04e1 FB080000 		.4byte	.LASF88
 1401 04e5 08       		.byte	0x8
 1402 04e6 CC       		.byte	0xcc
 1403 04e7 E9000000 		.4byte	0xe9
 1404 04eb 18       		.byte	0x18
 1405 04ec 07       		.uleb128 0x7
 1406 04ed 01090000 		.4byte	.LASF89
 1407 04f1 08       		.byte	0x8
 1408 04f2 CD       		.byte	0xcd
 1409 04f3 E9000000 		.4byte	0xe9
 1410 04f7 1C       		.byte	0x1c
 1411 04f8 07       		.uleb128 0x7
 1412 04f9 07090000 		.4byte	.LASF90
 1413 04fd 08       		.byte	0x8
 1414 04fe CE       		.byte	0xce
 1415 04ff E9000000 		.4byte	0xe9
 1416 0503 20       		.byte	0x20
 1417 0504 11       		.uleb128 0x11
 1418 0505 48545200 		.ascii	"HTR\000"
 1419 0509 08       		.byte	0x8
 1420 050a CF       		.byte	0xcf
 1421 050b E9000000 		.4byte	0xe9
 1422 050f 24       		.byte	0x24
 1423 0510 11       		.uleb128 0x11
 1424 0511 4C545200 		.ascii	"LTR\000"
 1425 0515 08       		.byte	0x8
ARM GAS  C:\Users\euanm\AppData\Local\Temp\ccz9XhOH.s 			page 26


 1426 0516 D0       		.byte	0xd0
 1427 0517 E9000000 		.4byte	0xe9
 1428 051b 28       		.byte	0x28
 1429 051c 07       		.uleb128 0x7
 1430 051d 28070000 		.4byte	.LASF91
 1431 0521 08       		.byte	0x8
 1432 0522 D1       		.byte	0xd1
 1433 0523 E9000000 		.4byte	0xe9
 1434 0527 2C       		.byte	0x2c
 1435 0528 07       		.uleb128 0x7
 1436 0529 2D070000 		.4byte	.LASF92
 1437 052d 08       		.byte	0x8
 1438 052e D2       		.byte	0xd2
 1439 052f E9000000 		.4byte	0xe9
 1440 0533 30       		.byte	0x30
 1441 0534 07       		.uleb128 0x7
 1442 0535 82050000 		.4byte	.LASF93
 1443 0539 08       		.byte	0x8
 1444 053a D3       		.byte	0xd3
 1445 053b E9000000 		.4byte	0xe9
 1446 053f 34       		.byte	0x34
 1447 0540 07       		.uleb128 0x7
 1448 0541 D2050000 		.4byte	.LASF94
 1449 0545 08       		.byte	0x8
 1450 0546 D4       		.byte	0xd4
 1451 0547 E9000000 		.4byte	0xe9
 1452 054b 38       		.byte	0x38
 1453 054c 07       		.uleb128 0x7
 1454 054d 63060000 		.4byte	.LASF95
 1455 0551 08       		.byte	0x8
 1456 0552 D5       		.byte	0xd5
 1457 0553 E9000000 		.4byte	0xe9
 1458 0557 3C       		.byte	0x3c
 1459 0558 07       		.uleb128 0x7
 1460 0559 19070000 		.4byte	.LASF96
 1461 055d 08       		.byte	0x8
 1462 055e D6       		.byte	0xd6
 1463 055f E9000000 		.4byte	0xe9
 1464 0563 40       		.byte	0x40
 1465 0564 07       		.uleb128 0x7
 1466 0565 1E070000 		.4byte	.LASF97
 1467 0569 08       		.byte	0x8
 1468 056a D7       		.byte	0xd7
 1469 056b E9000000 		.4byte	0xe9
 1470 056f 44       		.byte	0x44
 1471 0570 07       		.uleb128 0x7
 1472 0571 68060000 		.4byte	.LASF98
 1473 0575 08       		.byte	0x8
 1474 0576 D8       		.byte	0xd8
 1475 0577 E9000000 		.4byte	0xe9
 1476 057b 48       		.byte	0x48
 1477 057c 11       		.uleb128 0x11
 1478 057d 445200   		.ascii	"DR\000"
 1479 0580 08       		.byte	0x8
 1480 0581 D9       		.byte	0xd9
 1481 0582 E9000000 		.4byte	0xe9
 1482 0586 4C       		.byte	0x4c
ARM GAS  C:\Users\euanm\AppData\Local\Temp\ccz9XhOH.s 			page 27


 1483 0587 00       		.byte	0
 1484 0588 03       		.uleb128 0x3
 1485 0589 F7040000 		.4byte	.LASF99
 1486 058d 08       		.byte	0x8
 1487 058e DA       		.byte	0xda
 1488 058f 91040000 		.4byte	0x491
 1489 0593 12       		.uleb128 0x12
 1490 0594 18       		.byte	0x18
 1491 0595 08       		.byte	0x8
 1492 0596 6B01     		.2byte	0x16b
 1493 0598 EA050000 		.4byte	0x5ea
 1494 059c 08       		.uleb128 0x8
 1495 059d 435200   		.ascii	"CR\000"
 1496 05a0 08       		.byte	0x8
 1497 05a1 6D01     		.2byte	0x16d
 1498 05a3 E9000000 		.4byte	0xe9
 1499 05a7 00       		.byte	0
 1500 05a8 09       		.uleb128 0x9
 1501 05a9 F0000000 		.4byte	.LASF100
 1502 05ad 08       		.byte	0x8
 1503 05ae 6E01     		.2byte	0x16e
 1504 05b0 E9000000 		.4byte	0xe9
 1505 05b4 04       		.byte	0x4
 1506 05b5 08       		.uleb128 0x8
 1507 05b6 50415200 		.ascii	"PAR\000"
 1508 05ba 08       		.byte	0x8
 1509 05bb 6F01     		.2byte	0x16f
 1510 05bd E9000000 		.4byte	0xe9
 1511 05c1 08       		.byte	0x8
 1512 05c2 09       		.uleb128 0x9
 1513 05c3 F3030000 		.4byte	.LASF101
 1514 05c7 08       		.byte	0x8
 1515 05c8 7001     		.2byte	0x170
 1516 05ca E9000000 		.4byte	0xe9
 1517 05ce 0C       		.byte	0xc
 1518 05cf 09       		.uleb128 0x9
 1519 05d0 23070000 		.4byte	.LASF102
 1520 05d4 08       		.byte	0x8
 1521 05d5 7101     		.2byte	0x171
 1522 05d7 E9000000 		.4byte	0xe9
 1523 05db 10       		.byte	0x10
 1524 05dc 08       		.uleb128 0x8
 1525 05dd 46435200 		.ascii	"FCR\000"
 1526 05e1 08       		.byte	0x8
 1527 05e2 7201     		.2byte	0x172
 1528 05e4 E9000000 		.4byte	0xe9
 1529 05e8 14       		.byte	0x14
 1530 05e9 00       		.byte	0
 1531 05ea 13       		.uleb128 0x13
 1532 05eb 87050000 		.4byte	.LASF103
 1533 05ef 08       		.byte	0x8
 1534 05f0 7301     		.2byte	0x173
 1535 05f2 93050000 		.4byte	0x593
 1536 05f6 12       		.uleb128 0x12
 1537 05f7 28       		.byte	0x28
 1538 05f8 08       		.byte	0x8
 1539 05f9 3F02     		.2byte	0x23f
ARM GAS  C:\Users\euanm\AppData\Local\Temp\ccz9XhOH.s 			page 28


 1540 05fb 81060000 		.4byte	0x681
 1541 05ff 08       		.uleb128 0x8
 1542 0600 43523100 		.ascii	"CR1\000"
 1543 0604 08       		.byte	0x8
 1544 0605 4102     		.2byte	0x241
 1545 0607 E9000000 		.4byte	0xe9
 1546 060b 00       		.byte	0
 1547 060c 08       		.uleb128 0x8
 1548 060d 43523200 		.ascii	"CR2\000"
 1549 0611 08       		.byte	0x8
 1550 0612 4202     		.2byte	0x242
 1551 0614 E9000000 		.4byte	0xe9
 1552 0618 04       		.byte	0x4
 1553 0619 09       		.uleb128 0x9
 1554 061a 20000000 		.4byte	.LASF104
 1555 061e 08       		.byte	0x8
 1556 061f 4302     		.2byte	0x243
 1557 0621 E9000000 		.4byte	0xe9
 1558 0625 08       		.byte	0x8
 1559 0626 09       		.uleb128 0x9
 1560 0627 C0030000 		.4byte	.LASF105
 1561 062b 08       		.byte	0x8
 1562 062c 4402     		.2byte	0x244
 1563 062e E9000000 		.4byte	0xe9
 1564 0632 0C       		.byte	0xc
 1565 0633 08       		.uleb128 0x8
 1566 0634 445200   		.ascii	"DR\000"
 1567 0637 08       		.byte	0x8
 1568 0638 4502     		.2byte	0x245
 1569 063a E9000000 		.4byte	0xe9
 1570 063e 10       		.byte	0x10
 1571 063f 08       		.uleb128 0x8
 1572 0640 53523100 		.ascii	"SR1\000"
 1573 0644 08       		.byte	0x8
 1574 0645 4602     		.2byte	0x246
 1575 0647 E9000000 		.4byte	0xe9
 1576 064b 14       		.byte	0x14
 1577 064c 08       		.uleb128 0x8
 1578 064d 53523200 		.ascii	"SR2\000"
 1579 0651 08       		.byte	0x8
 1580 0652 4702     		.2byte	0x247
 1581 0654 E9000000 		.4byte	0xe9
 1582 0658 18       		.byte	0x18
 1583 0659 08       		.uleb128 0x8
 1584 065a 43435200 		.ascii	"CCR\000"
 1585 065e 08       		.byte	0x8
 1586 065f 4802     		.2byte	0x248
 1587 0661 E9000000 		.4byte	0xe9
 1588 0665 1C       		.byte	0x1c
 1589 0666 09       		.uleb128 0x9
 1590 0667 B5040000 		.4byte	.LASF106
 1591 066b 08       		.byte	0x8
 1592 066c 4902     		.2byte	0x249
 1593 066e E9000000 		.4byte	0xe9
 1594 0672 20       		.byte	0x20
 1595 0673 09       		.uleb128 0x9
 1596 0674 D7050000 		.4byte	.LASF107
ARM GAS  C:\Users\euanm\AppData\Local\Temp\ccz9XhOH.s 			page 29


 1597 0678 08       		.byte	0x8
 1598 0679 4A02     		.2byte	0x24a
 1599 067b E9000000 		.4byte	0xe9
 1600 067f 24       		.byte	0x24
 1601 0680 00       		.byte	0
 1602 0681 13       		.uleb128 0x13
 1603 0682 2E080000 		.4byte	.LASF108
 1604 0686 08       		.byte	0x8
 1605 0687 4B02     		.2byte	0x24b
 1606 0689 F6050000 		.4byte	0x5f6
 1607 068d 14       		.uleb128 0x14
 1608 068e 01       		.byte	0x1
 1609 068f 37000000 		.4byte	0x37
 1610 0693 10       		.byte	0x10
 1611 0694 A8       		.byte	0xa8
 1612 0695 A6060000 		.4byte	0x6a6
 1613 0699 15       		.uleb128 0x15
 1614 069a 17040000 		.4byte	.LASF109
 1615 069e 00       		.byte	0
 1616 069f 15       		.uleb128 0x15
 1617 06a0 39070000 		.4byte	.LASF110
 1618 06a4 01       		.byte	0x1
 1619 06a5 00       		.byte	0
 1620 06a6 03       		.uleb128 0x3
 1621 06a7 4E000000 		.4byte	.LASF111
 1622 06ab 09       		.byte	0x9
 1623 06ac 65       		.byte	0x65
 1624 06ad 54030000 		.4byte	0x354
 1625 06b1 03       		.uleb128 0x3
 1626 06b2 DF080000 		.4byte	.LASF112
 1627 06b6 09       		.byte	0x9
 1628 06b7 6D       		.byte	0x6d
 1629 06b8 CE000000 		.4byte	0xce
 1630 06bc 06       		.uleb128 0x6
 1631 06bd 47050000 		.4byte	.LASF113
 1632 06c1 04       		.byte	0x4
 1633 06c2 09       		.byte	0x9
 1634 06c3 89       		.byte	0x89
 1635 06c4 D5060000 		.4byte	0x6d5
 1636 06c8 11       		.uleb128 0x11
 1637 06c9 72313300 		.ascii	"r13\000"
 1638 06cd 09       		.byte	0x9
 1639 06ce 8A       		.byte	0x8a
 1640 06cf 16080000 		.4byte	0x816
 1641 06d3 00       		.byte	0
 1642 06d4 00       		.byte	0
 1643 06d5 06       		.uleb128 0x6
 1644 06d6 A8060000 		.4byte	.LASF114
 1645 06da 64       		.byte	0x64
 1646 06db 0A       		.byte	0xa
 1647 06dc F4       		.byte	0xf4
 1648 06dd 16080000 		.4byte	0x816
 1649 06e1 11       		.uleb128 0x11
 1650 06e2 73313600 		.ascii	"s16\000"
 1651 06e6 0A       		.byte	0xa
 1652 06e7 F6       		.byte	0xf6
 1653 06e8 A6060000 		.4byte	0x6a6
ARM GAS  C:\Users\euanm\AppData\Local\Temp\ccz9XhOH.s 			page 30


 1654 06ec 00       		.byte	0
 1655 06ed 11       		.uleb128 0x11
 1656 06ee 73313700 		.ascii	"s17\000"
 1657 06f2 0A       		.byte	0xa
 1658 06f3 F7       		.byte	0xf7
 1659 06f4 A6060000 		.4byte	0x6a6
 1660 06f8 04       		.byte	0x4
 1661 06f9 11       		.uleb128 0x11
 1662 06fa 73313800 		.ascii	"s18\000"
 1663 06fe 0A       		.byte	0xa
 1664 06ff F8       		.byte	0xf8
 1665 0700 A6060000 		.4byte	0x6a6
 1666 0704 08       		.byte	0x8
 1667 0705 11       		.uleb128 0x11
 1668 0706 73313900 		.ascii	"s19\000"
 1669 070a 0A       		.byte	0xa
 1670 070b F9       		.byte	0xf9
 1671 070c A6060000 		.4byte	0x6a6
 1672 0710 0C       		.byte	0xc
 1673 0711 11       		.uleb128 0x11
 1674 0712 73323000 		.ascii	"s20\000"
 1675 0716 0A       		.byte	0xa
 1676 0717 FA       		.byte	0xfa
 1677 0718 A6060000 		.4byte	0x6a6
 1678 071c 10       		.byte	0x10
 1679 071d 11       		.uleb128 0x11
 1680 071e 73323100 		.ascii	"s21\000"
 1681 0722 0A       		.byte	0xa
 1682 0723 FB       		.byte	0xfb
 1683 0724 A6060000 		.4byte	0x6a6
 1684 0728 14       		.byte	0x14
 1685 0729 11       		.uleb128 0x11
 1686 072a 73323200 		.ascii	"s22\000"
 1687 072e 0A       		.byte	0xa
 1688 072f FC       		.byte	0xfc
 1689 0730 A6060000 		.4byte	0x6a6
 1690 0734 18       		.byte	0x18
 1691 0735 11       		.uleb128 0x11
 1692 0736 73323300 		.ascii	"s23\000"
 1693 073a 0A       		.byte	0xa
 1694 073b FD       		.byte	0xfd
 1695 073c A6060000 		.4byte	0x6a6
 1696 0740 1C       		.byte	0x1c
 1697 0741 11       		.uleb128 0x11
 1698 0742 73323400 		.ascii	"s24\000"
 1699 0746 0A       		.byte	0xa
 1700 0747 FE       		.byte	0xfe
 1701 0748 A6060000 		.4byte	0x6a6
 1702 074c 20       		.byte	0x20
 1703 074d 11       		.uleb128 0x11
 1704 074e 73323500 		.ascii	"s25\000"
 1705 0752 0A       		.byte	0xa
 1706 0753 FF       		.byte	0xff
 1707 0754 A6060000 		.4byte	0x6a6
 1708 0758 24       		.byte	0x24
 1709 0759 08       		.uleb128 0x8
 1710 075a 73323600 		.ascii	"s26\000"
ARM GAS  C:\Users\euanm\AppData\Local\Temp\ccz9XhOH.s 			page 31


 1711 075e 0A       		.byte	0xa
 1712 075f 0001     		.2byte	0x100
 1713 0761 A6060000 		.4byte	0x6a6
 1714 0765 28       		.byte	0x28
 1715 0766 08       		.uleb128 0x8
 1716 0767 73323700 		.ascii	"s27\000"
 1717 076b 0A       		.byte	0xa
 1718 076c 0101     		.2byte	0x101
 1719 076e A6060000 		.4byte	0x6a6
 1720 0772 2C       		.byte	0x2c
 1721 0773 08       		.uleb128 0x8
 1722 0774 73323800 		.ascii	"s28\000"
 1723 0778 0A       		.byte	0xa
 1724 0779 0201     		.2byte	0x102
 1725 077b A6060000 		.4byte	0x6a6
 1726 077f 30       		.byte	0x30
 1727 0780 08       		.uleb128 0x8
 1728 0781 73323900 		.ascii	"s29\000"
 1729 0785 0A       		.byte	0xa
 1730 0786 0301     		.2byte	0x103
 1731 0788 A6060000 		.4byte	0x6a6
 1732 078c 34       		.byte	0x34
 1733 078d 08       		.uleb128 0x8
 1734 078e 73333000 		.ascii	"s30\000"
 1735 0792 0A       		.byte	0xa
 1736 0793 0401     		.2byte	0x104
 1737 0795 A6060000 		.4byte	0x6a6
 1738 0799 38       		.byte	0x38
 1739 079a 08       		.uleb128 0x8
 1740 079b 73333100 		.ascii	"s31\000"
 1741 079f 0A       		.byte	0xa
 1742 07a0 0501     		.2byte	0x105
 1743 07a2 A6060000 		.4byte	0x6a6
 1744 07a6 3C       		.byte	0x3c
 1745 07a7 08       		.uleb128 0x8
 1746 07a8 723400   		.ascii	"r4\000"
 1747 07ab 0A       		.byte	0xa
 1748 07ac 0701     		.2byte	0x107
 1749 07ae A6060000 		.4byte	0x6a6
 1750 07b2 40       		.byte	0x40
 1751 07b3 08       		.uleb128 0x8
 1752 07b4 723500   		.ascii	"r5\000"
 1753 07b7 0A       		.byte	0xa
 1754 07b8 0801     		.2byte	0x108
 1755 07ba A6060000 		.4byte	0x6a6
 1756 07be 44       		.byte	0x44
 1757 07bf 08       		.uleb128 0x8
 1758 07c0 723600   		.ascii	"r6\000"
 1759 07c3 0A       		.byte	0xa
 1760 07c4 0901     		.2byte	0x109
 1761 07c6 A6060000 		.4byte	0x6a6
 1762 07ca 48       		.byte	0x48
 1763 07cb 08       		.uleb128 0x8
 1764 07cc 723700   		.ascii	"r7\000"
 1765 07cf 0A       		.byte	0xa
 1766 07d0 0A01     		.2byte	0x10a
 1767 07d2 A6060000 		.4byte	0x6a6
ARM GAS  C:\Users\euanm\AppData\Local\Temp\ccz9XhOH.s 			page 32


 1768 07d6 4C       		.byte	0x4c
 1769 07d7 08       		.uleb128 0x8
 1770 07d8 723800   		.ascii	"r8\000"
 1771 07db 0A       		.byte	0xa
 1772 07dc 0B01     		.2byte	0x10b
 1773 07de A6060000 		.4byte	0x6a6
 1774 07e2 50       		.byte	0x50
 1775 07e3 08       		.uleb128 0x8
 1776 07e4 723900   		.ascii	"r9\000"
 1777 07e7 0A       		.byte	0xa
 1778 07e8 0C01     		.2byte	0x10c
 1779 07ea A6060000 		.4byte	0x6a6
 1780 07ee 54       		.byte	0x54
 1781 07ef 08       		.uleb128 0x8
 1782 07f0 72313000 		.ascii	"r10\000"
 1783 07f4 0A       		.byte	0xa
 1784 07f5 0D01     		.2byte	0x10d
 1785 07f7 A6060000 		.4byte	0x6a6
 1786 07fb 58       		.byte	0x58
 1787 07fc 08       		.uleb128 0x8
 1788 07fd 72313100 		.ascii	"r11\000"
 1789 0801 0A       		.byte	0xa
 1790 0802 0E01     		.2byte	0x10e
 1791 0804 A6060000 		.4byte	0x6a6
 1792 0808 5C       		.byte	0x5c
 1793 0809 08       		.uleb128 0x8
 1794 080a 6C7200   		.ascii	"lr\000"
 1795 080d 0A       		.byte	0xa
 1796 080e 0F01     		.2byte	0x10f
 1797 0810 A6060000 		.4byte	0x6a6
 1798 0814 60       		.byte	0x60
 1799 0815 00       		.byte	0
 1800 0816 0A       		.uleb128 0xa
 1801 0817 04       		.byte	0x4
 1802 0818 D5060000 		.4byte	0x6d5
 1803 081c 10       		.uleb128 0x10
 1804 081d 04       		.byte	0x4
 1805 081e 0B       		.byte	0xb
 1806 081f 38       		.byte	0x38
 1807 0820 31080000 		.4byte	0x831
 1808 0824 07       		.uleb128 0x7
 1809 0825 81020000 		.4byte	.LASF115
 1810 0829 0B       		.byte	0xb
 1811 082a 3C       		.byte	0x3c
 1812 082b EE000000 		.4byte	0xee
 1813 082f 00       		.byte	0
 1814 0830 00       		.byte	0
 1815 0831 03       		.uleb128 0x3
 1816 0832 2C000000 		.4byte	.LASF116
 1817 0836 0B       		.byte	0xb
 1818 0837 3D       		.byte	0x3d
 1819 0838 1C080000 		.4byte	0x81c
 1820 083c 16       		.uleb128 0x16
 1821 083d 04       		.byte	0x4
 1822 083e 07       		.byte	0x7
 1823 083f FA       		.byte	0xfa
 1824 0840 99080000 		.4byte	0x899
ARM GAS  C:\Users\euanm\AppData\Local\Temp\ccz9XhOH.s 			page 33


 1825 0844 17       		.uleb128 0x17
 1826 0845 7A020000 		.4byte	.LASF117
 1827 0849 07       		.byte	0x7
 1828 084a 0101     		.2byte	0x101
 1829 084c 30010000 		.4byte	0x130
 1830 0850 17       		.uleb128 0x17
 1831 0851 1B090000 		.4byte	.LASF118
 1832 0855 07       		.byte	0x7
 1833 0856 0801     		.2byte	0x108
 1834 0858 30010000 		.4byte	0x130
 1835 085c 17       		.uleb128 0x17
 1836 085d C5000000 		.4byte	.LASF119
 1837 0861 07       		.byte	0x7
 1838 0862 0F01     		.2byte	0x10f
 1839 0864 54030000 		.4byte	0x354
 1840 0868 17       		.uleb128 0x17
 1841 0869 AD080000 		.4byte	.LASF120
 1842 086d 07       		.byte	0x7
 1843 086e 1601     		.2byte	0x116
 1844 0870 99080000 		.4byte	0x899
 1845 0874 17       		.uleb128 0x17
 1846 0875 A9070000 		.4byte	.LASF121
 1847 0879 07       		.byte	0x7
 1848 087a 1E01     		.2byte	0x11e
 1849 087c C4080000 		.4byte	0x8c4
 1850 0880 17       		.uleb128 0x17
 1851 0881 25000000 		.4byte	.LASF122
 1852 0885 07       		.byte	0x7
 1853 0886 2701     		.2byte	0x127
 1854 0888 FB080000 		.4byte	0x8fb
 1855 088c 17       		.uleb128 0x17
 1856 088d 02010000 		.4byte	.LASF123
 1857 0891 07       		.byte	0x7
 1858 0892 2F01     		.2byte	0x12f
 1859 0894 3B010000 		.4byte	0x13b
 1860 0898 00       		.byte	0
 1861 0899 0A       		.uleb128 0xa
 1862 089a 04       		.byte	0x4
 1863 089b 6C020000 		.4byte	0x26c
 1864 089f 06       		.uleb128 0x6
 1865 08a0 8D010000 		.4byte	.LASF124
 1866 08a4 0C       		.byte	0xc
 1867 08a5 0C       		.byte	0xc
 1868 08a6 34       		.byte	0x34
 1869 08a7 C4080000 		.4byte	0x8c4
 1870 08ab 07       		.uleb128 0x7
 1871 08ac 64000000 		.4byte	.LASF125
 1872 08b0 0C       		.byte	0xc
 1873 08b1 35       		.byte	0x35
 1874 08b2 A1020000 		.4byte	0x2a1
 1875 08b6 00       		.byte	0
 1876 08b7 07       		.uleb128 0x7
 1877 08b8 12010000 		.4byte	.LASF126
 1878 08bc 0C       		.byte	0xc
 1879 08bd 37       		.byte	0x37
 1880 08be 46010000 		.4byte	0x146
 1881 08c2 08       		.byte	0x8
ARM GAS  C:\Users\euanm\AppData\Local\Temp\ccz9XhOH.s 			page 34


 1882 08c3 00       		.byte	0
 1883 08c4 0A       		.uleb128 0xa
 1884 08c5 04       		.byte	0x4
 1885 08c6 9F080000 		.4byte	0x89f
 1886 08ca 06       		.uleb128 0x6
 1887 08cb C5030000 		.4byte	.LASF127
 1888 08cf 10       		.byte	0x10
 1889 08d0 0D       		.byte	0xd
 1890 08d1 39       		.byte	0x39
 1891 08d2 FB080000 		.4byte	0x8fb
 1892 08d6 07       		.uleb128 0x7
 1893 08d7 97060000 		.4byte	.LASF128
 1894 08db 0D       		.byte	0xd
 1895 08dc 3A       		.byte	0x3a
 1896 08dd A1020000 		.4byte	0x2a1
 1897 08e1 00       		.byte	0
 1898 08e2 07       		.uleb128 0x7
 1899 08e3 B8030000 		.4byte	.LASF129
 1900 08e7 0D       		.byte	0xd
 1901 08e8 3C       		.byte	0x3c
 1902 08e9 77020000 		.4byte	0x277
 1903 08ed 08       		.byte	0x8
 1904 08ee 07       		.uleb128 0x7
 1905 08ef B3080000 		.4byte	.LASF130
 1906 08f3 0D       		.byte	0xd
 1907 08f4 3E       		.byte	0x3e
 1908 08f5 3E090000 		.4byte	0x93e
 1909 08f9 0C       		.byte	0xc
 1910 08fa 00       		.byte	0
 1911 08fb 0A       		.uleb128 0xa
 1912 08fc 04       		.byte	0x4
 1913 08fd CA080000 		.4byte	0x8ca
 1914 0901 0A       		.uleb128 0xa
 1915 0902 04       		.byte	0x4
 1916 0903 0E090000 		.4byte	0x90e
 1917 0907 02       		.uleb128 0x2
 1918 0908 01       		.byte	0x1
 1919 0909 08       		.byte	0x8
 1920 090a 49000000 		.4byte	.LASF131
 1921 090e 18       		.uleb128 0x18
 1922 090f 07090000 		.4byte	0x907
 1923 0913 05       		.uleb128 0x5
 1924 0914 51010000 		.4byte	0x151
 1925 0918 0A       		.uleb128 0xa
 1926 0919 04       		.byte	0x4
 1927 091a 56030000 		.4byte	0x356
 1928 091e 05       		.uleb128 0x5
 1929 091f 01090000 		.4byte	0x901
 1930 0923 19       		.uleb128 0x19
 1931 0924 B1060000 		.4byte	0x6b1
 1932 0928 33090000 		.4byte	0x933
 1933 092c 1A       		.uleb128 0x1a
 1934 092d 8A040000 		.4byte	0x48a
 1935 0931 3A       		.byte	0x3a
 1936 0932 00       		.byte	0
 1937 0933 03       		.uleb128 0x3
 1938 0934 B9070000 		.4byte	.LASF132
ARM GAS  C:\Users\euanm\AppData\Local\Temp\ccz9XhOH.s 			page 35


 1939 0938 0D       		.byte	0xd
 1940 0939 34       		.byte	0x34
 1941 093a CA080000 		.4byte	0x8ca
 1942 093e 0A       		.uleb128 0xa
 1943 093f 04       		.byte	0x4
 1944 0940 33090000 		.4byte	0x933
 1945 0944 02       		.uleb128 0x2
 1946 0945 04       		.byte	0x4
 1947 0946 04       		.byte	0x4
 1948 0947 6F010000 		.4byte	.LASF133
 1949 094b 02       		.uleb128 0x2
 1950 094c 01       		.byte	0x1
 1951 094d 02       		.byte	0x2
 1952 094e 88020000 		.4byte	.LASF134
 1953 0952 10       		.uleb128 0x10
 1954 0953 0C       		.byte	0xc
 1955 0954 0E       		.byte	0xe
 1956 0955 DA       		.byte	0xda
 1957 0956 97090000 		.4byte	0x997
 1958 095a 07       		.uleb128 0x7
 1959 095b 5F090000 		.4byte	.LASF135
 1960 095f 0E       		.byte	0xe
 1961 0960 DB       		.byte	0xdb
 1962 0961 97090000 		.4byte	0x997
 1963 0965 00       		.byte	0
 1964 0966 07       		.uleb128 0x7
 1965 0967 63010000 		.4byte	.LASF136
 1966 096b 0E       		.byte	0xe
 1967 096c DC       		.byte	0xdc
 1968 096d 9D090000 		.4byte	0x99d
 1969 0971 04       		.byte	0x4
 1970 0972 07       		.uleb128 0x7
 1971 0973 48040000 		.4byte	.LASF137
 1972 0977 0E       		.byte	0xe
 1973 0978 DD       		.byte	0xdd
 1974 0979 A2000000 		.4byte	0xa2
 1975 097d 08       		.byte	0x8
 1976 097e 07       		.uleb128 0x7
 1977 097f 24090000 		.4byte	.LASF138
 1978 0983 0E       		.byte	0xe
 1979 0984 DF       		.byte	0xdf
 1980 0985 A2000000 		.4byte	0xa2
 1981 0989 09       		.byte	0x9
 1982 098a 07       		.uleb128 0x7
 1983 098b DF010000 		.4byte	.LASF139
 1984 098f 0E       		.byte	0xe
 1985 0990 E0       		.byte	0xe0
 1986 0991 A2000000 		.4byte	0xa2
 1987 0995 0A       		.byte	0xa
 1988 0996 00       		.byte	0
 1989 0997 0A       		.uleb128 0xa
 1990 0998 04       		.byte	0x4
 1991 0999 EA050000 		.4byte	0x5ea
 1992 099d 0A       		.uleb128 0xa
 1993 099e 04       		.byte	0x4
 1994 099f E9000000 		.4byte	0xe9
 1995 09a3 03       		.uleb128 0x3
ARM GAS  C:\Users\euanm\AppData\Local\Temp\ccz9XhOH.s 			page 36


 1996 09a4 6F040000 		.4byte	.LASF140
 1997 09a8 0E       		.byte	0xe
 1998 09a9 E1       		.byte	0xe1
 1999 09aa 52090000 		.4byte	0x952
 2000 09ae 10       		.uleb128 0x10
 2001 09af 04       		.byte	0x4
 2002 09b0 0F       		.byte	0xf
 2003 09b1 B3       		.byte	0xb3
 2004 09b2 CF090000 		.4byte	0x9cf
 2005 09b6 11       		.uleb128 0x11
 2006 09b7 73657400 		.ascii	"set\000"
 2007 09bb 0F       		.byte	0xf
 2008 09bc B4       		.byte	0xb4
 2009 09bd AD000000 		.4byte	0xad
 2010 09c1 00       		.byte	0
 2011 09c2 07       		.uleb128 0x7
 2012 09c3 33020000 		.4byte	.LASF141
 2013 09c7 0F       		.byte	0xf
 2014 09c8 B5       		.byte	0xb5
 2015 09c9 AD000000 		.4byte	0xad
 2016 09cd 02       		.byte	0x2
 2017 09ce 00       		.byte	0
 2018 09cf 16       		.uleb128 0x16
 2019 09d0 04       		.byte	0x4
 2020 09d1 0F       		.byte	0xf
 2021 09d2 B1       		.byte	0xb1
 2022 09d3 EA090000 		.4byte	0x9ea
 2023 09d7 1B       		.uleb128 0x1b
 2024 09d8 5700     		.ascii	"W\000"
 2025 09da 0F       		.byte	0xf
 2026 09db B2       		.byte	0xb2
 2027 09dc C3000000 		.4byte	0xc3
 2028 09e0 1B       		.uleb128 0x1b
 2029 09e1 4800     		.ascii	"H\000"
 2030 09e3 0F       		.byte	0xf
 2031 09e4 B6       		.byte	0xb6
 2032 09e5 AE090000 		.4byte	0x9ae
 2033 09e9 00       		.byte	0
 2034 09ea 10       		.uleb128 0x10
 2035 09eb 2C       		.byte	0x2c
 2036 09ec 0F       		.byte	0xf
 2037 09ed A9       		.byte	0xa9
 2038 09ee 770A0000 		.4byte	0xa77
 2039 09f2 07       		.uleb128 0x7
 2040 09f3 0E020000 		.4byte	.LASF142
 2041 09f7 0F       		.byte	0xf
 2042 09f8 AB       		.byte	0xab
 2043 09f9 E9000000 		.4byte	0xe9
 2044 09fd 00       		.byte	0
 2045 09fe 07       		.uleb128 0x7
 2046 09ff EC060000 		.4byte	.LASF143
 2047 0a03 0F       		.byte	0xf
 2048 0a04 AC       		.byte	0xac
 2049 0a05 E9000000 		.4byte	0xe9
 2050 0a09 04       		.byte	0x4
 2051 0a0a 07       		.uleb128 0x7
 2052 0a0b 1E060000 		.4byte	.LASF144
ARM GAS  C:\Users\euanm\AppData\Local\Temp\ccz9XhOH.s 			page 37


 2053 0a0f 0F       		.byte	0xf
 2054 0a10 AD       		.byte	0xad
 2055 0a11 E9000000 		.4byte	0xe9
 2056 0a15 08       		.byte	0x8
 2057 0a16 07       		.uleb128 0x7
 2058 0a17 B2030000 		.4byte	.LASF145
 2059 0a1b 0F       		.byte	0xf
 2060 0a1c AE       		.byte	0xae
 2061 0a1d E9000000 		.4byte	0xe9
 2062 0a21 0C       		.byte	0xc
 2063 0a22 11       		.uleb128 0x11
 2064 0a23 49445200 		.ascii	"IDR\000"
 2065 0a27 0F       		.byte	0xf
 2066 0a28 AF       		.byte	0xaf
 2067 0a29 E9000000 		.4byte	0xe9
 2068 0a2d 10       		.byte	0x10
 2069 0a2e 11       		.uleb128 0x11
 2070 0a2f 4F445200 		.ascii	"ODR\000"
 2071 0a33 0F       		.byte	0xf
 2072 0a34 B0       		.byte	0xb0
 2073 0a35 E9000000 		.4byte	0xe9
 2074 0a39 14       		.byte	0x14
 2075 0a3a 07       		.uleb128 0x7
 2076 0a3b 44000000 		.4byte	.LASF146
 2077 0a3f 0F       		.byte	0xf
 2078 0a40 B7       		.byte	0xb7
 2079 0a41 770A0000 		.4byte	0xa77
 2080 0a45 18       		.byte	0x18
 2081 0a46 07       		.uleb128 0x7
 2082 0a47 47090000 		.4byte	.LASF147
 2083 0a4b 0F       		.byte	0xf
 2084 0a4c B8       		.byte	0xb8
 2085 0a4d E9000000 		.4byte	0xe9
 2086 0a51 1C       		.byte	0x1c
 2087 0a52 07       		.uleb128 0x7
 2088 0a53 26020000 		.4byte	.LASF148
 2089 0a57 0F       		.byte	0xf
 2090 0a58 B9       		.byte	0xb9
 2091 0a59 E9000000 		.4byte	0xe9
 2092 0a5d 20       		.byte	0x20
 2093 0a5e 07       		.uleb128 0x7
 2094 0a5f 14020000 		.4byte	.LASF149
 2095 0a63 0F       		.byte	0xf
 2096 0a64 BA       		.byte	0xba
 2097 0a65 E9000000 		.4byte	0xe9
 2098 0a69 24       		.byte	0x24
 2099 0a6a 11       		.uleb128 0x11
 2100 0a6b 42525200 		.ascii	"BRR\000"
 2101 0a6f 0F       		.byte	0xf
 2102 0a70 BB       		.byte	0xbb
 2103 0a71 E9000000 		.4byte	0xe9
 2104 0a75 28       		.byte	0x28
 2105 0a76 00       		.byte	0
 2106 0a77 05       		.uleb128 0x5
 2107 0a78 CF090000 		.4byte	0x9cf
 2108 0a7c 03       		.uleb128 0x3
 2109 0a7d 19020000 		.4byte	.LASF150
ARM GAS  C:\Users\euanm\AppData\Local\Temp\ccz9XhOH.s 			page 38


 2110 0a81 0F       		.byte	0xf
 2111 0a82 BC       		.byte	0xbc
 2112 0a83 EA090000 		.4byte	0x9ea
 2113 0a87 13       		.uleb128 0x13
 2114 0a88 4F050000 		.4byte	.LASF151
 2115 0a8c 0F       		.byte	0xf
 2116 0a8d 0E01     		.2byte	0x10e
 2117 0a8f C3000000 		.4byte	0xc3
 2118 0a93 0A       		.uleb128 0xa
 2119 0a94 04       		.byte	0x4
 2120 0a95 7C0A0000 		.4byte	0xa7c
 2121 0a99 14       		.uleb128 0x14
 2122 0a9a 01       		.byte	0x1
 2123 0a9b 37000000 		.4byte	0x37
 2124 0a9f 11       		.byte	0x11
 2125 0aa0 4C       		.byte	0x4c
 2126 0aa1 CA0A0000 		.4byte	0xaca
 2127 0aa5 15       		.uleb128 0x15
 2128 0aa6 36050000 		.4byte	.LASF152
 2129 0aaa 00       		.byte	0
 2130 0aab 15       		.uleb128 0x15
 2131 0aac B0070000 		.4byte	.LASF153
 2132 0ab0 01       		.byte	0x1
 2133 0ab1 15       		.uleb128 0x15
 2134 0ab2 52060000 		.4byte	.LASF154
 2135 0ab6 02       		.byte	0x2
 2136 0ab7 15       		.uleb128 0x15
 2137 0ab8 42010000 		.4byte	.LASF155
 2138 0abc 03       		.byte	0x3
 2139 0abd 15       		.uleb128 0x15
 2140 0abe 77000000 		.4byte	.LASF156
 2141 0ac2 04       		.byte	0x4
 2142 0ac3 15       		.uleb128 0x15
 2143 0ac4 CB060000 		.4byte	.LASF157
 2144 0ac8 05       		.byte	0x5
 2145 0ac9 00       		.byte	0
 2146 0aca 03       		.uleb128 0x3
 2147 0acb DC050000 		.4byte	.LASF158
 2148 0acf 11       		.byte	0x11
 2149 0ad0 53       		.byte	0x53
 2150 0ad1 990A0000 		.4byte	0xa99
 2151 0ad5 13       		.uleb128 0x13
 2152 0ad6 B4060000 		.4byte	.LASF159
 2153 0ada 12       		.byte	0x12
 2154 0adb 6A01     		.2byte	0x16a
 2155 0add AD000000 		.4byte	0xad
 2156 0ae1 13       		.uleb128 0x13
 2157 0ae2 5F020000 		.4byte	.LASF160
 2158 0ae6 12       		.byte	0x12
 2159 0ae7 6F01     		.2byte	0x16f
 2160 0ae9 C3000000 		.4byte	0xc3
 2161 0aed 1C       		.uleb128 0x1c
 2162 0aee 01       		.byte	0x1
 2163 0aef 37000000 		.4byte	0x37
 2164 0af3 12       		.byte	0x12
 2165 0af4 7401     		.2byte	0x174
 2166 0af6 0D0B0000 		.4byte	0xb0d
ARM GAS  C:\Users\euanm\AppData\Local\Temp\ccz9XhOH.s 			page 39


 2167 0afa 15       		.uleb128 0x15
 2168 0afb 37010000 		.4byte	.LASF161
 2169 0aff 01       		.byte	0x1
 2170 0b00 15       		.uleb128 0x15
 2171 0b01 8E070000 		.4byte	.LASF162
 2172 0b05 02       		.byte	0x2
 2173 0b06 15       		.uleb128 0x15
 2174 0b07 14050000 		.4byte	.LASF163
 2175 0b0b 03       		.byte	0x3
 2176 0b0c 00       		.byte	0
 2177 0b0d 13       		.uleb128 0x13
 2178 0b0e 59080000 		.4byte	.LASF164
 2179 0b12 12       		.byte	0x12
 2180 0b13 7801     		.2byte	0x178
 2181 0b15 ED0A0000 		.4byte	0xaed
 2182 0b19 1C       		.uleb128 0x1c
 2183 0b1a 01       		.byte	0x1
 2184 0b1b 37000000 		.4byte	0x37
 2185 0b1f 12       		.byte	0x12
 2186 0b20 7D01     		.2byte	0x17d
 2187 0b22 390B0000 		.4byte	0xb39
 2188 0b26 15       		.uleb128 0x15
 2189 0b27 D9030000 		.4byte	.LASF165
 2190 0b2b 01       		.byte	0x1
 2191 0b2c 15       		.uleb128 0x15
 2192 0b2d E7050000 		.4byte	.LASF166
 2193 0b31 02       		.byte	0x2
 2194 0b32 15       		.uleb128 0x15
 2195 0b33 98040000 		.4byte	.LASF167
 2196 0b37 03       		.byte	0x3
 2197 0b38 00       		.byte	0
 2198 0b39 13       		.uleb128 0x13
 2199 0b3a 50020000 		.4byte	.LASF168
 2200 0b3e 12       		.byte	0x12
 2201 0b3f 8101     		.2byte	0x181
 2202 0b41 190B0000 		.4byte	0xb19
 2203 0b45 12       		.uleb128 0x12
 2204 0b46 0C       		.byte	0xc
 2205 0b47 12       		.byte	0x12
 2206 0b48 8601     		.2byte	0x186
 2207 0b4a 760B0000 		.4byte	0xb76
 2208 0b4e 09       		.uleb128 0x9
 2209 0b4f 4A060000 		.4byte	.LASF169
 2210 0b53 12       		.byte	0x12
 2211 0b54 8801     		.2byte	0x188
 2212 0b56 0D0B0000 		.4byte	0xb0d
 2213 0b5a 00       		.byte	0
 2214 0b5b 09       		.uleb128 0x9
 2215 0b5c B4050000 		.4byte	.LASF170
 2216 0b60 12       		.byte	0x12
 2217 0b61 8901     		.2byte	0x189
 2218 0b63 C3000000 		.4byte	0xc3
 2219 0b67 04       		.byte	0x4
 2220 0b68 09       		.uleb128 0x9
 2221 0b69 E8030000 		.4byte	.LASF171
 2222 0b6d 12       		.byte	0x12
 2223 0b6e 8C01     		.2byte	0x18c
ARM GAS  C:\Users\euanm\AppData\Local\Temp\ccz9XhOH.s 			page 40


 2224 0b70 390B0000 		.4byte	0xb39
 2225 0b74 08       		.byte	0x8
 2226 0b75 00       		.byte	0
 2227 0b76 13       		.uleb128 0x13
 2228 0b77 04020000 		.4byte	.LASF172
 2229 0b7b 12       		.byte	0x12
 2230 0b7c 8E01     		.2byte	0x18e
 2231 0b7e 450B0000 		.4byte	0xb45
 2232 0b82 13       		.uleb128 0x13
 2233 0b83 92000000 		.4byte	.LASF173
 2234 0b87 12       		.byte	0x12
 2235 0b88 9301     		.2byte	0x193
 2236 0b8a 8E0B0000 		.4byte	0xb8e
 2237 0b8e 0B       		.uleb128 0xb
 2238 0b8f 92000000 		.4byte	.LASF173
 2239 0b93 38       		.byte	0x38
 2240 0b94 12       		.byte	0x12
 2241 0b95 9801     		.2byte	0x198
 2242 0b97 2B0C0000 		.4byte	0xc2b
 2243 0b9b 09       		.uleb128 0x9
 2244 0b9c 6A080000 		.4byte	.LASF174
 2245 0ba0 12       		.byte	0x12
 2246 0ba1 9C01     		.2byte	0x19c
 2247 0ba3 CA0A0000 		.4byte	0xaca
 2248 0ba7 00       		.byte	0
 2249 0ba8 09       		.uleb128 0x9
 2250 0ba9 5C060000 		.4byte	.LASF175
 2251 0bad 12       		.byte	0x12
 2252 0bae A001     		.2byte	0x1a0
 2253 0bb0 2B0C0000 		.4byte	0xc2b
 2254 0bb4 04       		.byte	0x4
 2255 0bb5 09       		.uleb128 0x9
 2256 0bb6 E6010000 		.4byte	.LASF176
 2257 0bba 12       		.byte	0x12
 2258 0bbb A401     		.2byte	0x1a4
 2259 0bbd E10A0000 		.4byte	0xae1
 2260 0bc1 08       		.byte	0x8
 2261 0bc2 09       		.uleb128 0x9
 2262 0bc3 75010000 		.4byte	.LASF177
 2263 0bc7 12       		.byte	0x12
 2264 0bc8 A901     		.2byte	0x1a9
 2265 0bca 33090000 		.4byte	0x933
 2266 0bce 0C       		.byte	0xc
 2267 0bcf 09       		.uleb128 0x9
 2268 0bd0 A2070000 		.4byte	.LASF178
 2269 0bd4 12       		.byte	0x12
 2270 0bd5 B201     		.2byte	0x1b2
 2271 0bd7 6C020000 		.4byte	0x26c
 2272 0bdb 1C       		.byte	0x1c
 2273 0bdc 09       		.uleb128 0x9
 2274 0bdd 65080000 		.4byte	.LASF179
 2275 0be1 12       		.byte	0x12
 2276 0be2 B601     		.2byte	0x1b6
 2277 0be4 D50A0000 		.4byte	0xad5
 2278 0be8 20       		.byte	0x20
 2279 0be9 09       		.uleb128 0x9
 2280 0bea 45080000 		.4byte	.LASF180
ARM GAS  C:\Users\euanm\AppData\Local\Temp\ccz9XhOH.s 			page 41


 2281 0bee 12       		.byte	0x12
 2282 0bef BA01     		.2byte	0x1ba
 2283 0bf1 C3000000 		.4byte	0xc3
 2284 0bf5 24       		.byte	0x24
 2285 0bf6 09       		.uleb128 0x9
 2286 0bf7 3E040000 		.4byte	.LASF181
 2287 0bfb 12       		.byte	0x12
 2288 0bfc BE01     		.2byte	0x1be
 2289 0bfe C3000000 		.4byte	0xc3
 2290 0c02 28       		.byte	0x28
 2291 0c03 09       		.uleb128 0x9
 2292 0c04 5E000000 		.4byte	.LASF182
 2293 0c08 12       		.byte	0x12
 2294 0c09 C201     		.2byte	0x1c2
 2295 0c0b 360C0000 		.4byte	0xc36
 2296 0c0f 2C       		.byte	0x2c
 2297 0c10 09       		.uleb128 0x9
 2298 0c11 28010000 		.4byte	.LASF183
 2299 0c15 12       		.byte	0x12
 2300 0c16 C601     		.2byte	0x1c6
 2301 0c18 360C0000 		.4byte	0xc36
 2302 0c1c 30       		.byte	0x30
 2303 0c1d 08       		.uleb128 0x8
 2304 0c1e 69326300 		.ascii	"i2c\000"
 2305 0c22 12       		.byte	0x12
 2306 0c23 CA01     		.2byte	0x1ca
 2307 0c25 410C0000 		.4byte	0xc41
 2308 0c29 34       		.byte	0x34
 2309 0c2a 00       		.byte	0
 2310 0c2b 0A       		.uleb128 0xa
 2311 0c2c 04       		.byte	0x4
 2312 0c2d 310C0000 		.4byte	0xc31
 2313 0c31 18       		.uleb128 0x18
 2314 0c32 760B0000 		.4byte	0xb76
 2315 0c36 0A       		.uleb128 0xa
 2316 0c37 04       		.byte	0x4
 2317 0c38 3C0C0000 		.4byte	0xc3c
 2318 0c3c 18       		.uleb128 0x18
 2319 0c3d A3090000 		.4byte	0x9a3
 2320 0c41 0A       		.uleb128 0xa
 2321 0c42 04       		.byte	0x4
 2322 0c43 81060000 		.4byte	0x681
 2323 0c47 10       		.uleb128 0x10
 2324 0c48 0C       		.byte	0xc
 2325 0c49 13       		.byte	0x13
 2326 0c4a 88       		.byte	0x88
 2327 0c4b 800C0000 		.4byte	0xc80
 2328 0c4f 11       		.uleb128 0x11
 2329 0c50 706F7300 		.ascii	"pos\000"
 2330 0c54 13       		.byte	0x13
 2331 0c55 89       		.byte	0x89
 2332 0c56 800C0000 		.4byte	0xc80
 2333 0c5a 00       		.byte	0
 2334 0c5b 07       		.uleb128 0x7
 2335 0c5c 81020000 		.4byte	.LASF115
 2336 0c60 13       		.byte	0x13
 2337 0c61 8A       		.byte	0x8a
ARM GAS  C:\Users\euanm\AppData\Local\Temp\ccz9XhOH.s 			page 42


 2338 0c62 850C0000 		.4byte	0xc85
 2339 0c66 02       		.byte	0x2
 2340 0c67 07       		.uleb128 0x7
 2341 0c68 12040000 		.4byte	.LASF184
 2342 0c6c 13       		.byte	0x13
 2343 0c6d 8B       		.byte	0x8b
 2344 0c6e 930A0000 		.4byte	0xa93
 2345 0c72 04       		.byte	0x4
 2346 0c73 11       		.uleb128 0x11
 2347 0c74 70696E00 		.ascii	"pin\000"
 2348 0c78 13       		.byte	0x13
 2349 0c79 8C       		.byte	0x8c
 2350 0c7a 8A0C0000 		.4byte	0xc8a
 2351 0c7e 08       		.byte	0x8
 2352 0c7f 00       		.byte	0
 2353 0c80 05       		.uleb128 0x5
 2354 0c81 3E000000 		.4byte	0x3e
 2355 0c85 05       		.uleb128 0x5
 2356 0c86 37000000 		.4byte	0x37
 2357 0c8a 05       		.uleb128 0x5
 2358 0c8b 9B000000 		.4byte	0x9b
 2359 0c8f 03       		.uleb128 0x3
 2360 0c90 9C000000 		.4byte	.LASF185
 2361 0c94 13       		.byte	0x13
 2362 0c95 8D       		.byte	0x8d
 2363 0c96 470C0000 		.4byte	0xc47
 2364 0c9a 1D       		.uleb128 0x1d
 2365 0c9b F5000000 		.4byte	.LASF186
 2366 0c9f 01       		.byte	0x1
 2367 0ca0 24       		.byte	0x24
 2368 0ca1 00000000 		.4byte	.LFB256
 2369 0ca5 54010000 		.4byte	.LFE256-.LFB256
 2370 0ca9 01       		.uleb128 0x1
 2371 0caa 9C       		.byte	0x9c
 2372 0cab 42100000 		.4byte	0x1042
 2373 0caf 1E       		.uleb128 0x1e
 2374 0cb0 10000000 		.4byte	.LVL0
 2375 0cb4 6E150000 		.4byte	0x156e
 2376 0cb8 C70C0000 		.4byte	0xcc7
 2377 0cbc 1F       		.uleb128 0x1f
 2378 0cbd 01       		.uleb128 0x1
 2379 0cbe 50       		.byte	0x50
 2380 0cbf 01       		.uleb128 0x1
 2381 0cc0 31       		.byte	0x31
 2382 0cc1 1F       		.uleb128 0x1f
 2383 0cc2 01       		.uleb128 0x1
 2384 0cc3 51       		.byte	0x51
 2385 0cc4 01       		.uleb128 0x1
 2386 0cc5 31       		.byte	0x31
 2387 0cc6 00       		.byte	0
 2388 0cc7 1E       		.uleb128 0x1e
 2389 0cc8 18000000 		.4byte	.LVL1
 2390 0ccc 6E150000 		.4byte	0x156e
 2391 0cd0 DF0C0000 		.4byte	0xcdf
 2392 0cd4 1F       		.uleb128 0x1f
 2393 0cd5 01       		.uleb128 0x1
 2394 0cd6 50       		.byte	0x50
ARM GAS  C:\Users\euanm\AppData\Local\Temp\ccz9XhOH.s 			page 43


 2395 0cd7 01       		.uleb128 0x1
 2396 0cd8 32       		.byte	0x32
 2397 0cd9 1F       		.uleb128 0x1f
 2398 0cda 01       		.uleb128 0x1
 2399 0cdb 51       		.byte	0x51
 2400 0cdc 01       		.uleb128 0x1
 2401 0cdd 31       		.byte	0x31
 2402 0cde 00       		.byte	0
 2403 0cdf 1E       		.uleb128 0x1e
 2404 0ce0 20000000 		.4byte	.LVL2
 2405 0ce4 6E150000 		.4byte	0x156e
 2406 0ce8 F70C0000 		.4byte	0xcf7
 2407 0cec 1F       		.uleb128 0x1f
 2408 0ced 01       		.uleb128 0x1
 2409 0cee 50       		.byte	0x50
 2410 0cef 01       		.uleb128 0x1
 2411 0cf0 34       		.byte	0x34
 2412 0cf1 1F       		.uleb128 0x1f
 2413 0cf2 01       		.uleb128 0x1
 2414 0cf3 51       		.byte	0x51
 2415 0cf4 01       		.uleb128 0x1
 2416 0cf5 31       		.byte	0x31
 2417 0cf6 00       		.byte	0
 2418 0cf7 1E       		.uleb128 0x1e
 2419 0cf8 2A000000 		.4byte	.LVL3
 2420 0cfc 7A150000 		.4byte	0x157a
 2421 0d00 150D0000 		.4byte	0xd15
 2422 0d04 1F       		.uleb128 0x1f
 2423 0d05 01       		.uleb128 0x1
 2424 0d06 50       		.byte	0x50
 2425 0d07 02       		.uleb128 0x2
 2426 0d08 74       		.byte	0x74
 2427 0d09 00       		.sleb128 0
 2428 0d0a 1F       		.uleb128 0x1f
 2429 0d0b 01       		.uleb128 0x1
 2430 0d0c 51       		.byte	0x51
 2431 0d0d 01       		.uleb128 0x1
 2432 0d0e 40       		.byte	0x40
 2433 0d0f 1F       		.uleb128 0x1f
 2434 0d10 01       		.uleb128 0x1
 2435 0d11 52       		.byte	0x52
 2436 0d12 01       		.uleb128 0x1
 2437 0d13 49       		.byte	0x49
 2438 0d14 00       		.byte	0
 2439 0d15 1E       		.uleb128 0x1e
 2440 0d16 38000000 		.4byte	.LVL4
 2441 0d1a 7A150000 		.4byte	0x157a
 2442 0d1e 340D0000 		.4byte	0xd34
 2443 0d22 1F       		.uleb128 0x1f
 2444 0d23 01       		.uleb128 0x1
 2445 0d24 50       		.byte	0x50
 2446 0d25 02       		.uleb128 0x2
 2447 0d26 74       		.byte	0x74
 2448 0d27 00       		.sleb128 0
 2449 0d28 1F       		.uleb128 0x1f
 2450 0d29 01       		.uleb128 0x1
 2451 0d2a 51       		.byte	0x51
ARM GAS  C:\Users\euanm\AppData\Local\Temp\ccz9XhOH.s 			page 44


 2452 0d2b 02       		.uleb128 0x2
 2453 0d2c 08       		.byte	0x8
 2454 0d2d 20       		.byte	0x20
 2455 0d2e 1F       		.uleb128 0x1f
 2456 0d2f 01       		.uleb128 0x1
 2457 0d30 52       		.byte	0x52
 2458 0d31 01       		.uleb128 0x1
 2459 0d32 49       		.byte	0x49
 2460 0d33 00       		.byte	0
 2461 0d34 1E       		.uleb128 0x1e
 2462 0d35 42000000 		.4byte	.LVL5
 2463 0d39 7A150000 		.4byte	0x157a
 2464 0d3d 530D0000 		.4byte	0xd53
 2465 0d41 1F       		.uleb128 0x1f
 2466 0d42 01       		.uleb128 0x1
 2467 0d43 50       		.byte	0x50
 2468 0d44 02       		.uleb128 0x2
 2469 0d45 74       		.byte	0x74
 2470 0d46 00       		.sleb128 0
 2471 0d47 1F       		.uleb128 0x1f
 2472 0d48 01       		.uleb128 0x1
 2473 0d49 51       		.byte	0x51
 2474 0d4a 02       		.uleb128 0x2
 2475 0d4b 77       		.byte	0x77
 2476 0d4c 00       		.sleb128 0
 2477 0d4d 1F       		.uleb128 0x1f
 2478 0d4e 01       		.uleb128 0x1
 2479 0d4f 52       		.byte	0x52
 2480 0d50 01       		.uleb128 0x1
 2481 0d51 49       		.byte	0x49
 2482 0d52 00       		.byte	0
 2483 0d53 1E       		.uleb128 0x1e
 2484 0d54 50000000 		.4byte	.LVL6
 2485 0d58 7A150000 		.4byte	0x157a
 2486 0d5c 730D0000 		.4byte	0xd73
 2487 0d60 1F       		.uleb128 0x1f
 2488 0d61 01       		.uleb128 0x1
 2489 0d62 50       		.byte	0x50
 2490 0d63 02       		.uleb128 0x2
 2491 0d64 76       		.byte	0x76
 2492 0d65 00       		.sleb128 0
 2493 0d66 1F       		.uleb128 0x1f
 2494 0d67 01       		.uleb128 0x1
 2495 0d68 51       		.byte	0x51
 2496 0d69 03       		.uleb128 0x3
 2497 0d6a 0A       		.byte	0xa
 2498 0d6b 0010     		.2byte	0x1000
 2499 0d6d 1F       		.uleb128 0x1f
 2500 0d6e 01       		.uleb128 0x1
 2501 0d6f 52       		.byte	0x52
 2502 0d70 01       		.uleb128 0x1
 2503 0d71 49       		.byte	0x49
 2504 0d72 00       		.byte	0
 2505 0d73 1E       		.uleb128 0x1e
 2506 0d74 5C000000 		.4byte	.LVL7
 2507 0d78 7A150000 		.4byte	0x157a
 2508 0d7c 940D0000 		.4byte	0xd94
ARM GAS  C:\Users\euanm\AppData\Local\Temp\ccz9XhOH.s 			page 45


 2509 0d80 1F       		.uleb128 0x1f
 2510 0d81 01       		.uleb128 0x1
 2511 0d82 50       		.byte	0x50
 2512 0d83 02       		.uleb128 0x2
 2513 0d84 75       		.byte	0x75
 2514 0d85 00       		.sleb128 0
 2515 0d86 1F       		.uleb128 0x1f
 2516 0d87 01       		.uleb128 0x1
 2517 0d88 51       		.byte	0x51
 2518 0d89 03       		.uleb128 0x3
 2519 0d8a 0A       		.byte	0xa
 2520 0d8b 0001     		.2byte	0x100
 2521 0d8d 1F       		.uleb128 0x1f
 2522 0d8e 01       		.uleb128 0x1
 2523 0d8f 52       		.byte	0x52
 2524 0d90 02       		.uleb128 0x2
 2525 0d91 08       		.byte	0x8
 2526 0d92 9A       		.byte	0x9a
 2527 0d93 00       		.byte	0
 2528 0d94 1E       		.uleb128 0x1e
 2529 0d95 68000000 		.4byte	.LVL8
 2530 0d99 7A150000 		.4byte	0x157a
 2531 0d9d B50D0000 		.4byte	0xdb5
 2532 0da1 1F       		.uleb128 0x1f
 2533 0da2 01       		.uleb128 0x1
 2534 0da3 50       		.byte	0x50
 2535 0da4 02       		.uleb128 0x2
 2536 0da5 75       		.byte	0x75
 2537 0da6 00       		.sleb128 0
 2538 0da7 1F       		.uleb128 0x1f
 2539 0da8 01       		.uleb128 0x1
 2540 0da9 51       		.byte	0x51
 2541 0daa 03       		.uleb128 0x3
 2542 0dab 0A       		.byte	0xa
 2543 0dac 0002     		.2byte	0x200
 2544 0dae 1F       		.uleb128 0x1f
 2545 0daf 01       		.uleb128 0x1
 2546 0db0 52       		.byte	0x52
 2547 0db1 02       		.uleb128 0x2
 2548 0db2 08       		.byte	0x8
 2549 0db3 9A       		.byte	0x9a
 2550 0db4 00       		.byte	0
 2551 0db5 1E       		.uleb128 0x1e
 2552 0db6 72000000 		.4byte	.LVL9
 2553 0dba 7A150000 		.4byte	0x157a
 2554 0dbe D50D0000 		.4byte	0xdd5
 2555 0dc2 1F       		.uleb128 0x1f
 2556 0dc3 01       		.uleb128 0x1
 2557 0dc4 50       		.byte	0x50
 2558 0dc5 02       		.uleb128 0x2
 2559 0dc6 75       		.byte	0x75
 2560 0dc7 00       		.sleb128 0
 2561 0dc8 1F       		.uleb128 0x1f
 2562 0dc9 01       		.uleb128 0x1
 2563 0dca 51       		.byte	0x51
 2564 0dcb 02       		.uleb128 0x2
 2565 0dcc 77       		.byte	0x77
ARM GAS  C:\Users\euanm\AppData\Local\Temp\ccz9XhOH.s 			page 46


 2566 0dcd 00       		.sleb128 0
 2567 0dce 1F       		.uleb128 0x1f
 2568 0dcf 01       		.uleb128 0x1
 2569 0dd0 52       		.byte	0x52
 2570 0dd1 02       		.uleb128 0x2
 2571 0dd2 08       		.byte	0x8
 2572 0dd3 9A       		.byte	0x9a
 2573 0dd4 00       		.byte	0
 2574 0dd5 1E       		.uleb128 0x1e
 2575 0dd6 7E000000 		.4byte	.LVL10
 2576 0dda 7A150000 		.4byte	0x157a
 2577 0dde F60D0000 		.4byte	0xdf6
 2578 0de2 1F       		.uleb128 0x1f
 2579 0de3 01       		.uleb128 0x1
 2580 0de4 50       		.byte	0x50
 2581 0de5 02       		.uleb128 0x2
 2582 0de6 76       		.byte	0x76
 2583 0de7 00       		.sleb128 0
 2584 0de8 1F       		.uleb128 0x1f
 2585 0de9 01       		.uleb128 0x1
 2586 0dea 51       		.byte	0x51
 2587 0deb 03       		.uleb128 0x3
 2588 0dec 0A       		.byte	0xa
 2589 0ded 0020     		.2byte	0x2000
 2590 0def 1F       		.uleb128 0x1f
 2591 0df0 01       		.uleb128 0x1
 2592 0df1 52       		.byte	0x52
 2593 0df2 02       		.uleb128 0x2
 2594 0df3 08       		.byte	0x8
 2595 0df4 9A       		.byte	0x9a
 2596 0df5 00       		.byte	0
 2597 0df6 1E       		.uleb128 0x1e
 2598 0df7 8A000000 		.4byte	.LVL11
 2599 0dfb 7A150000 		.4byte	0x157a
 2600 0dff 170E0000 		.4byte	0xe17
 2601 0e03 1F       		.uleb128 0x1f
 2602 0e04 01       		.uleb128 0x1
 2603 0e05 50       		.byte	0x50
 2604 0e06 02       		.uleb128 0x2
 2605 0e07 76       		.byte	0x76
 2606 0e08 00       		.sleb128 0
 2607 0e09 1F       		.uleb128 0x1f
 2608 0e0a 01       		.uleb128 0x1
 2609 0e0b 51       		.byte	0x51
 2610 0e0c 03       		.uleb128 0x3
 2611 0e0d 0A       		.byte	0xa
 2612 0e0e 0040     		.2byte	0x4000
 2613 0e10 1F       		.uleb128 0x1f
 2614 0e11 01       		.uleb128 0x1
 2615 0e12 52       		.byte	0x52
 2616 0e13 02       		.uleb128 0x2
 2617 0e14 08       		.byte	0x8
 2618 0e15 9A       		.byte	0x9a
 2619 0e16 00       		.byte	0
 2620 0e17 1E       		.uleb128 0x1e
 2621 0e18 96000000 		.4byte	.LVL12
 2622 0e1c 7A150000 		.4byte	0x157a
ARM GAS  C:\Users\euanm\AppData\Local\Temp\ccz9XhOH.s 			page 47


 2623 0e20 380E0000 		.4byte	0xe38
 2624 0e24 1F       		.uleb128 0x1f
 2625 0e25 01       		.uleb128 0x1
 2626 0e26 50       		.byte	0x50
 2627 0e27 02       		.uleb128 0x2
 2628 0e28 76       		.byte	0x76
 2629 0e29 00       		.sleb128 0
 2630 0e2a 1F       		.uleb128 0x1f
 2631 0e2b 01       		.uleb128 0x1
 2632 0e2c 51       		.byte	0x51
 2633 0e2d 03       		.uleb128 0x3
 2634 0e2e 0A       		.byte	0xa
 2635 0e2f 0080     		.2byte	0x8000
 2636 0e31 1F       		.uleb128 0x1f
 2637 0e32 01       		.uleb128 0x1
 2638 0e33 52       		.byte	0x52
 2639 0e34 02       		.uleb128 0x2
 2640 0e35 08       		.byte	0x8
 2641 0e36 9A       		.byte	0x9a
 2642 0e37 00       		.byte	0
 2643 0e38 1E       		.uleb128 0x1e
 2644 0e39 A0000000 		.4byte	.LVL13
 2645 0e3d 7A150000 		.4byte	0x157a
 2646 0e41 580E0000 		.4byte	0xe58
 2647 0e45 1F       		.uleb128 0x1f
 2648 0e46 01       		.uleb128 0x1
 2649 0e47 50       		.byte	0x50
 2650 0e48 02       		.uleb128 0x2
 2651 0e49 76       		.byte	0x76
 2652 0e4a 00       		.sleb128 0
 2653 0e4b 1F       		.uleb128 0x1f
 2654 0e4c 01       		.uleb128 0x1
 2655 0e4d 51       		.byte	0x51
 2656 0e4e 02       		.uleb128 0x2
 2657 0e4f 08       		.byte	0x8
 2658 0e50 40       		.byte	0x40
 2659 0e51 1F       		.uleb128 0x1f
 2660 0e52 01       		.uleb128 0x1
 2661 0e53 52       		.byte	0x52
 2662 0e54 02       		.uleb128 0x2
 2663 0e55 08       		.byte	0x8
 2664 0e56 20       		.byte	0x20
 2665 0e57 00       		.byte	0
 2666 0e58 1E       		.uleb128 0x1e
 2667 0e59 AA000000 		.4byte	.LVL14
 2668 0e5d 7A150000 		.4byte	0x157a
 2669 0e61 780E0000 		.4byte	0xe78
 2670 0e65 1F       		.uleb128 0x1f
 2671 0e66 01       		.uleb128 0x1
 2672 0e67 50       		.byte	0x50
 2673 0e68 02       		.uleb128 0x2
 2674 0e69 76       		.byte	0x76
 2675 0e6a 00       		.sleb128 0
 2676 0e6b 1F       		.uleb128 0x1f
 2677 0e6c 01       		.uleb128 0x1
 2678 0e6d 51       		.byte	0x51
 2679 0e6e 02       		.uleb128 0x2
ARM GAS  C:\Users\euanm\AppData\Local\Temp\ccz9XhOH.s 			page 48


 2680 0e6f 08       		.byte	0x8
 2681 0e70 80       		.byte	0x80
 2682 0e71 1F       		.uleb128 0x1f
 2683 0e72 01       		.uleb128 0x1
 2684 0e73 52       		.byte	0x52
 2685 0e74 02       		.uleb128 0x2
 2686 0e75 08       		.byte	0x8
 2687 0e76 20       		.byte	0x20
 2688 0e77 00       		.byte	0
 2689 0e78 1E       		.uleb128 0x1e
 2690 0e79 B6000000 		.4byte	.LVL15
 2691 0e7d 7A150000 		.4byte	0x157a
 2692 0e81 990E0000 		.4byte	0xe99
 2693 0e85 1F       		.uleb128 0x1f
 2694 0e86 01       		.uleb128 0x1
 2695 0e87 50       		.byte	0x50
 2696 0e88 02       		.uleb128 0x2
 2697 0e89 74       		.byte	0x74
 2698 0e8a 00       		.sleb128 0
 2699 0e8b 1F       		.uleb128 0x1f
 2700 0e8c 01       		.uleb128 0x1
 2701 0e8d 51       		.byte	0x51
 2702 0e8e 03       		.uleb128 0x3
 2703 0e8f 0A       		.byte	0xa
 2704 0e90 0008     		.2byte	0x800
 2705 0e92 1F       		.uleb128 0x1f
 2706 0e93 01       		.uleb128 0x1
 2707 0e94 52       		.byte	0x52
 2708 0e95 02       		.uleb128 0x2
 2709 0e96 08       		.byte	0x8
 2710 0e97 20       		.byte	0x20
 2711 0e98 00       		.byte	0
 2712 0e99 1E       		.uleb128 0x1e
 2713 0e9a C2000000 		.4byte	.LVL16
 2714 0e9e 7A150000 		.4byte	0x157a
 2715 0ea2 BA0E0000 		.4byte	0xeba
 2716 0ea6 1F       		.uleb128 0x1f
 2717 0ea7 01       		.uleb128 0x1
 2718 0ea8 50       		.byte	0x50
 2719 0ea9 02       		.uleb128 0x2
 2720 0eaa 74       		.byte	0x74
 2721 0eab 00       		.sleb128 0
 2722 0eac 1F       		.uleb128 0x1f
 2723 0ead 01       		.uleb128 0x1
 2724 0eae 51       		.byte	0x51
 2725 0eaf 03       		.uleb128 0x3
 2726 0eb0 0A       		.byte	0xa
 2727 0eb1 0010     		.2byte	0x1000
 2728 0eb3 1F       		.uleb128 0x1f
 2729 0eb4 01       		.uleb128 0x1
 2730 0eb5 52       		.byte	0x52
 2731 0eb6 02       		.uleb128 0x2
 2732 0eb7 08       		.byte	0x8
 2733 0eb8 20       		.byte	0x20
 2734 0eb9 00       		.byte	0
 2735 0eba 1E       		.uleb128 0x1e
 2736 0ebb CC000000 		.4byte	.LVL17
ARM GAS  C:\Users\euanm\AppData\Local\Temp\ccz9XhOH.s 			page 49


 2737 0ebf 7A150000 		.4byte	0x157a
 2738 0ec3 D80E0000 		.4byte	0xed8
 2739 0ec7 1F       		.uleb128 0x1f
 2740 0ec8 01       		.uleb128 0x1
 2741 0ec9 50       		.byte	0x50
 2742 0eca 02       		.uleb128 0x2
 2743 0ecb 75       		.byte	0x75
 2744 0ecc 00       		.sleb128 0
 2745 0ecd 1F       		.uleb128 0x1f
 2746 0ece 01       		.uleb128 0x1
 2747 0ecf 51       		.byte	0x51
 2748 0ed0 01       		.uleb128 0x1
 2749 0ed1 31       		.byte	0x31
 2750 0ed2 1F       		.uleb128 0x1f
 2751 0ed3 01       		.uleb128 0x1
 2752 0ed4 52       		.byte	0x52
 2753 0ed5 01       		.uleb128 0x1
 2754 0ed6 33       		.byte	0x33
 2755 0ed7 00       		.byte	0
 2756 0ed8 1E       		.uleb128 0x1e
 2757 0ed9 D6000000 		.4byte	.LVL18
 2758 0edd 7A150000 		.4byte	0x157a
 2759 0ee1 F60E0000 		.4byte	0xef6
 2760 0ee5 1F       		.uleb128 0x1f
 2761 0ee6 01       		.uleb128 0x1
 2762 0ee7 50       		.byte	0x50
 2763 0ee8 02       		.uleb128 0x2
 2764 0ee9 75       		.byte	0x75
 2765 0eea 00       		.sleb128 0
 2766 0eeb 1F       		.uleb128 0x1f
 2767 0eec 01       		.uleb128 0x1
 2768 0eed 51       		.byte	0x51
 2769 0eee 01       		.uleb128 0x1
 2770 0eef 32       		.byte	0x32
 2771 0ef0 1F       		.uleb128 0x1f
 2772 0ef1 01       		.uleb128 0x1
 2773 0ef2 52       		.byte	0x52
 2774 0ef3 01       		.uleb128 0x1
 2775 0ef4 33       		.byte	0x33
 2776 0ef5 00       		.byte	0
 2777 0ef6 1E       		.uleb128 0x1e
 2778 0ef7 E0000000 		.4byte	.LVL19
 2779 0efb 7A150000 		.4byte	0x157a
 2780 0eff 140F0000 		.4byte	0xf14
 2781 0f03 1F       		.uleb128 0x1f
 2782 0f04 01       		.uleb128 0x1
 2783 0f05 50       		.byte	0x50
 2784 0f06 02       		.uleb128 0x2
 2785 0f07 75       		.byte	0x75
 2786 0f08 00       		.sleb128 0
 2787 0f09 1F       		.uleb128 0x1f
 2788 0f0a 01       		.uleb128 0x1
 2789 0f0b 51       		.byte	0x51
 2790 0f0c 01       		.uleb128 0x1
 2791 0f0d 34       		.byte	0x34
 2792 0f0e 1F       		.uleb128 0x1f
 2793 0f0f 01       		.uleb128 0x1
ARM GAS  C:\Users\euanm\AppData\Local\Temp\ccz9XhOH.s 			page 50


 2794 0f10 52       		.byte	0x52
 2795 0f11 01       		.uleb128 0x1
 2796 0f12 33       		.byte	0x33
 2797 0f13 00       		.byte	0
 2798 0f14 1E       		.uleb128 0x1e
 2799 0f15 EA000000 		.4byte	.LVL20
 2800 0f19 7A150000 		.4byte	0x157a
 2801 0f1d 320F0000 		.4byte	0xf32
 2802 0f21 1F       		.uleb128 0x1f
 2803 0f22 01       		.uleb128 0x1
 2804 0f23 50       		.byte	0x50
 2805 0f24 02       		.uleb128 0x2
 2806 0f25 75       		.byte	0x75
 2807 0f26 00       		.sleb128 0
 2808 0f27 1F       		.uleb128 0x1f
 2809 0f28 01       		.uleb128 0x1
 2810 0f29 51       		.byte	0x51
 2811 0f2a 01       		.uleb128 0x1
 2812 0f2b 38       		.byte	0x38
 2813 0f2c 1F       		.uleb128 0x1f
 2814 0f2d 01       		.uleb128 0x1
 2815 0f2e 52       		.byte	0x52
 2816 0f2f 01       		.uleb128 0x1
 2817 0f30 33       		.byte	0x33
 2818 0f31 00       		.byte	0
 2819 0f32 1E       		.uleb128 0x1e
 2820 0f33 F4000000 		.4byte	.LVL21
 2821 0f37 7A150000 		.4byte	0x157a
 2822 0f3b 500F0000 		.4byte	0xf50
 2823 0f3f 1F       		.uleb128 0x1f
 2824 0f40 01       		.uleb128 0x1
 2825 0f41 50       		.byte	0x50
 2826 0f42 02       		.uleb128 0x2
 2827 0f43 75       		.byte	0x75
 2828 0f44 00       		.sleb128 0
 2829 0f45 1F       		.uleb128 0x1f
 2830 0f46 01       		.uleb128 0x1
 2831 0f47 51       		.byte	0x51
 2832 0f48 01       		.uleb128 0x1
 2833 0f49 40       		.byte	0x40
 2834 0f4a 1F       		.uleb128 0x1f
 2835 0f4b 01       		.uleb128 0x1
 2836 0f4c 52       		.byte	0x52
 2837 0f4d 01       		.uleb128 0x1
 2838 0f4e 33       		.byte	0x33
 2839 0f4f 00       		.byte	0
 2840 0f50 1E       		.uleb128 0x1e
 2841 0f51 FE000000 		.4byte	.LVL22
 2842 0f55 7A150000 		.4byte	0x157a
 2843 0f59 6F0F0000 		.4byte	0xf6f
 2844 0f5d 1F       		.uleb128 0x1f
 2845 0f5e 01       		.uleb128 0x1
 2846 0f5f 50       		.byte	0x50
 2847 0f60 02       		.uleb128 0x2
 2848 0f61 75       		.byte	0x75
 2849 0f62 00       		.sleb128 0
 2850 0f63 1F       		.uleb128 0x1f
ARM GAS  C:\Users\euanm\AppData\Local\Temp\ccz9XhOH.s 			page 51


 2851 0f64 01       		.uleb128 0x1
 2852 0f65 51       		.byte	0x51
 2853 0f66 02       		.uleb128 0x2
 2854 0f67 08       		.byte	0x8
 2855 0f68 20       		.byte	0x20
 2856 0f69 1F       		.uleb128 0x1f
 2857 0f6a 01       		.uleb128 0x1
 2858 0f6b 52       		.byte	0x52
 2859 0f6c 01       		.uleb128 0x1
 2860 0f6d 33       		.byte	0x33
 2861 0f6e 00       		.byte	0
 2862 0f6f 1E       		.uleb128 0x1e
 2863 0f70 08010000 		.4byte	.LVL23
 2864 0f74 7A150000 		.4byte	0x157a
 2865 0f78 8E0F0000 		.4byte	0xf8e
 2866 0f7c 1F       		.uleb128 0x1f
 2867 0f7d 01       		.uleb128 0x1
 2868 0f7e 50       		.byte	0x50
 2869 0f7f 02       		.uleb128 0x2
 2870 0f80 75       		.byte	0x75
 2871 0f81 00       		.sleb128 0
 2872 0f82 1F       		.uleb128 0x1f
 2873 0f83 01       		.uleb128 0x1
 2874 0f84 51       		.byte	0x51
 2875 0f85 02       		.uleb128 0x2
 2876 0f86 08       		.byte	0x8
 2877 0f87 40       		.byte	0x40
 2878 0f88 1F       		.uleb128 0x1f
 2879 0f89 01       		.uleb128 0x1
 2880 0f8a 52       		.byte	0x52
 2881 0f8b 01       		.uleb128 0x1
 2882 0f8c 33       		.byte	0x33
 2883 0f8d 00       		.byte	0
 2884 0f8e 1E       		.uleb128 0x1e
 2885 0f8f 12010000 		.4byte	.LVL24
 2886 0f93 7A150000 		.4byte	0x157a
 2887 0f97 AC0F0000 		.4byte	0xfac
 2888 0f9b 1F       		.uleb128 0x1f
 2889 0f9c 01       		.uleb128 0x1
 2890 0f9d 50       		.byte	0x50
 2891 0f9e 02       		.uleb128 0x2
 2892 0f9f 76       		.byte	0x76
 2893 0fa0 00       		.sleb128 0
 2894 0fa1 1F       		.uleb128 0x1f
 2895 0fa2 01       		.uleb128 0x1
 2896 0fa3 51       		.byte	0x51
 2897 0fa4 01       		.uleb128 0x1
 2898 0fa5 31       		.byte	0x31
 2899 0fa6 1F       		.uleb128 0x1f
 2900 0fa7 01       		.uleb128 0x1
 2901 0fa8 52       		.byte	0x52
 2902 0fa9 01       		.uleb128 0x1
 2903 0faa 33       		.byte	0x33
 2904 0fab 00       		.byte	0
 2905 0fac 1E       		.uleb128 0x1e
 2906 0fad 1C010000 		.4byte	.LVL25
 2907 0fb1 7A150000 		.4byte	0x157a
ARM GAS  C:\Users\euanm\AppData\Local\Temp\ccz9XhOH.s 			page 52


 2908 0fb5 CA0F0000 		.4byte	0xfca
 2909 0fb9 1F       		.uleb128 0x1f
 2910 0fba 01       		.uleb128 0x1
 2911 0fbb 50       		.byte	0x50
 2912 0fbc 02       		.uleb128 0x2
 2913 0fbd 76       		.byte	0x76
 2914 0fbe 00       		.sleb128 0
 2915 0fbf 1F       		.uleb128 0x1f
 2916 0fc0 01       		.uleb128 0x1
 2917 0fc1 51       		.byte	0x51
 2918 0fc2 01       		.uleb128 0x1
 2919 0fc3 32       		.byte	0x32
 2920 0fc4 1F       		.uleb128 0x1f
 2921 0fc5 01       		.uleb128 0x1
 2922 0fc6 52       		.byte	0x52
 2923 0fc7 01       		.uleb128 0x1
 2924 0fc8 33       		.byte	0x33
 2925 0fc9 00       		.byte	0
 2926 0fca 1E       		.uleb128 0x1e
 2927 0fcb 26010000 		.4byte	.LVL26
 2928 0fcf 7A150000 		.4byte	0x157a
 2929 0fd3 E80F0000 		.4byte	0xfe8
 2930 0fd7 1F       		.uleb128 0x1f
 2931 0fd8 01       		.uleb128 0x1
 2932 0fd9 50       		.byte	0x50
 2933 0fda 02       		.uleb128 0x2
 2934 0fdb 74       		.byte	0x74
 2935 0fdc 00       		.sleb128 0
 2936 0fdd 1F       		.uleb128 0x1f
 2937 0fde 01       		.uleb128 0x1
 2938 0fdf 51       		.byte	0x51
 2939 0fe0 01       		.uleb128 0x1
 2940 0fe1 31       		.byte	0x31
 2941 0fe2 1F       		.uleb128 0x1f
 2942 0fe3 01       		.uleb128 0x1
 2943 0fe4 52       		.byte	0x52
 2944 0fe5 01       		.uleb128 0x1
 2945 0fe6 33       		.byte	0x33
 2946 0fe7 00       		.byte	0
 2947 0fe8 1E       		.uleb128 0x1e
 2948 0fe9 30010000 		.4byte	.LVL27
 2949 0fed 7A150000 		.4byte	0x157a
 2950 0ff1 06100000 		.4byte	0x1006
 2951 0ff5 1F       		.uleb128 0x1f
 2952 0ff6 01       		.uleb128 0x1
 2953 0ff7 50       		.byte	0x50
 2954 0ff8 02       		.uleb128 0x2
 2955 0ff9 74       		.byte	0x74
 2956 0ffa 00       		.sleb128 0
 2957 0ffb 1F       		.uleb128 0x1f
 2958 0ffc 01       		.uleb128 0x1
 2959 0ffd 51       		.byte	0x51
 2960 0ffe 01       		.uleb128 0x1
 2961 0fff 32       		.byte	0x32
 2962 1000 1F       		.uleb128 0x1f
 2963 1001 01       		.uleb128 0x1
 2964 1002 52       		.byte	0x52
ARM GAS  C:\Users\euanm\AppData\Local\Temp\ccz9XhOH.s 			page 53


 2965 1003 01       		.uleb128 0x1
 2966 1004 33       		.byte	0x33
 2967 1005 00       		.byte	0
 2968 1006 1E       		.uleb128 0x1e
 2969 1007 3A010000 		.4byte	.LVL28
 2970 100b 7A150000 		.4byte	0x157a
 2971 100f 24100000 		.4byte	0x1024
 2972 1013 1F       		.uleb128 0x1f
 2973 1014 01       		.uleb128 0x1
 2974 1015 50       		.byte	0x50
 2975 1016 02       		.uleb128 0x2
 2976 1017 74       		.byte	0x74
 2977 1018 00       		.sleb128 0
 2978 1019 1F       		.uleb128 0x1f
 2979 101a 01       		.uleb128 0x1
 2980 101b 51       		.byte	0x51
 2981 101c 01       		.uleb128 0x1
 2982 101d 34       		.byte	0x34
 2983 101e 1F       		.uleb128 0x1f
 2984 101f 01       		.uleb128 0x1
 2985 1020 52       		.byte	0x52
 2986 1021 01       		.uleb128 0x1
 2987 1022 33       		.byte	0x33
 2988 1023 00       		.byte	0
 2989 1024 20       		.uleb128 0x20
 2990 1025 48010000 		.4byte	.LVL29
 2991 1029 7A150000 		.4byte	0x157a
 2992 102d 1F       		.uleb128 0x1f
 2993 102e 01       		.uleb128 0x1
 2994 102f 50       		.byte	0x50
 2995 1030 05       		.uleb128 0x5
 2996 1031 0C       		.byte	0xc
 2997 1032 00080240 		.4byte	0x40020800
 2998 1036 1F       		.uleb128 0x1f
 2999 1037 01       		.uleb128 0x1
 3000 1038 51       		.byte	0x51
 3001 1039 01       		.uleb128 0x1
 3002 103a 38       		.byte	0x38
 3003 103b 1F       		.uleb128 0x1f
 3004 103c 01       		.uleb128 0x1
 3005 103d 52       		.byte	0x52
 3006 103e 01       		.uleb128 0x1
 3007 103f 33       		.byte	0x33
 3008 1040 00       		.byte	0
 3009 1041 00       		.byte	0
 3010 1042 1D       		.uleb128 0x1d
 3011 1043 70070000 		.4byte	.LASF187
 3012 1047 01       		.byte	0x1
 3013 1048 6C       		.byte	0x6c
 3014 1049 00000000 		.4byte	.LFB257
 3015 104d D8000000 		.4byte	.LFE257-.LFB257
 3016 1051 01       		.uleb128 0x1
 3017 1052 9C       		.byte	0x9c
 3018 1053 87120000 		.4byte	0x1287
 3019 1057 1E       		.uleb128 0x1e
 3020 1058 14000000 		.4byte	.LVL30
 3021 105c 86150000 		.4byte	0x1586
ARM GAS  C:\Users\euanm\AppData\Local\Temp\ccz9XhOH.s 			page 54


 3022 1060 7A100000 		.4byte	0x107a
 3023 1064 1F       		.uleb128 0x1f
 3024 1065 01       		.uleb128 0x1
 3025 1066 50       		.byte	0x50
 3026 1067 02       		.uleb128 0x2
 3027 1068 75       		.byte	0x75
 3028 1069 00       		.sleb128 0
 3029 106a 1F       		.uleb128 0x1f
 3030 106b 01       		.uleb128 0x1
 3031 106c 51       		.byte	0x51
 3032 106d 01       		.uleb128 0x1
 3033 106e 30       		.byte	0x30
 3034 106f 1F       		.uleb128 0x1f
 3035 1070 01       		.uleb128 0x1
 3036 1071 52       		.byte	0x52
 3037 1072 01       		.uleb128 0x1
 3038 1073 31       		.byte	0x31
 3039 1074 1F       		.uleb128 0x1f
 3040 1075 01       		.uleb128 0x1
 3041 1076 53       		.byte	0x53
 3042 1077 01       		.uleb128 0x1
 3043 1078 31       		.byte	0x31
 3044 1079 00       		.byte	0
 3045 107a 1E       		.uleb128 0x1e
 3046 107b 20000000 		.4byte	.LVL31
 3047 107f 86150000 		.4byte	0x1586
 3048 1083 9D100000 		.4byte	0x109d
 3049 1087 1F       		.uleb128 0x1f
 3050 1088 01       		.uleb128 0x1
 3051 1089 50       		.byte	0x50
 3052 108a 02       		.uleb128 0x2
 3053 108b 75       		.byte	0x75
 3054 108c 00       		.sleb128 0
 3055 108d 1F       		.uleb128 0x1f
 3056 108e 01       		.uleb128 0x1
 3057 108f 51       		.byte	0x51
 3058 1090 01       		.uleb128 0x1
 3059 1091 38       		.byte	0x38
 3060 1092 1F       		.uleb128 0x1f
 3061 1093 01       		.uleb128 0x1
 3062 1094 52       		.byte	0x52
 3063 1095 01       		.uleb128 0x1
 3064 1096 32       		.byte	0x32
 3065 1097 1F       		.uleb128 0x1f
 3066 1098 01       		.uleb128 0x1
 3067 1099 53       		.byte	0x53
 3068 109a 01       		.uleb128 0x1
 3069 109b 31       		.byte	0x31
 3070 109c 00       		.byte	0
 3071 109d 1E       		.uleb128 0x1e
 3072 109e 2C000000 		.4byte	.LVL32
 3073 10a2 86150000 		.4byte	0x1586
 3074 10a6 C0100000 		.4byte	0x10c0
 3075 10aa 1F       		.uleb128 0x1f
 3076 10ab 01       		.uleb128 0x1
 3077 10ac 50       		.byte	0x50
 3078 10ad 02       		.uleb128 0x2
ARM GAS  C:\Users\euanm\AppData\Local\Temp\ccz9XhOH.s 			page 55


 3079 10ae 75       		.byte	0x75
 3080 10af 00       		.sleb128 0
 3081 10b0 1F       		.uleb128 0x1f
 3082 10b1 01       		.uleb128 0x1
 3083 10b2 51       		.byte	0x51
 3084 10b3 01       		.uleb128 0x1
 3085 10b4 41       		.byte	0x41
 3086 10b5 1F       		.uleb128 0x1f
 3087 10b6 01       		.uleb128 0x1
 3088 10b7 52       		.byte	0x52
 3089 10b8 01       		.uleb128 0x1
 3090 10b9 33       		.byte	0x33
 3091 10ba 1F       		.uleb128 0x1f
 3092 10bb 01       		.uleb128 0x1
 3093 10bc 53       		.byte	0x53
 3094 10bd 01       		.uleb128 0x1
 3095 10be 31       		.byte	0x31
 3096 10bf 00       		.byte	0
 3097 10c0 1E       		.uleb128 0x1e
 3098 10c1 38000000 		.4byte	.LVL33
 3099 10c5 86150000 		.4byte	0x1586
 3100 10c9 E3100000 		.4byte	0x10e3
 3101 10cd 1F       		.uleb128 0x1f
 3102 10ce 01       		.uleb128 0x1
 3103 10cf 50       		.byte	0x50
 3104 10d0 02       		.uleb128 0x2
 3105 10d1 75       		.byte	0x75
 3106 10d2 00       		.sleb128 0
 3107 10d3 1F       		.uleb128 0x1f
 3108 10d4 01       		.uleb128 0x1
 3109 10d5 51       		.byte	0x51
 3110 10d6 01       		.uleb128 0x1
 3111 10d7 34       		.byte	0x34
 3112 10d8 1F       		.uleb128 0x1f
 3113 10d9 01       		.uleb128 0x1
 3114 10da 52       		.byte	0x52
 3115 10db 01       		.uleb128 0x1
 3116 10dc 34       		.byte	0x34
 3117 10dd 1F       		.uleb128 0x1f
 3118 10de 01       		.uleb128 0x1
 3119 10df 53       		.byte	0x53
 3120 10e0 01       		.uleb128 0x1
 3121 10e1 31       		.byte	0x31
 3122 10e2 00       		.byte	0
 3123 10e3 1E       		.uleb128 0x1e
 3124 10e4 44000000 		.4byte	.LVL34
 3125 10e8 86150000 		.4byte	0x1586
 3126 10ec 06110000 		.4byte	0x1106
 3127 10f0 1F       		.uleb128 0x1f
 3128 10f1 01       		.uleb128 0x1
 3129 10f2 50       		.byte	0x50
 3130 10f3 02       		.uleb128 0x2
 3131 10f4 74       		.byte	0x74
 3132 10f5 00       		.sleb128 0
 3133 10f6 1F       		.uleb128 0x1f
 3134 10f7 01       		.uleb128 0x1
 3135 10f8 51       		.byte	0x51
ARM GAS  C:\Users\euanm\AppData\Local\Temp\ccz9XhOH.s 			page 56


 3136 10f9 01       		.uleb128 0x1
 3137 10fa 31       		.byte	0x31
 3138 10fb 1F       		.uleb128 0x1f
 3139 10fc 01       		.uleb128 0x1
 3140 10fd 52       		.byte	0x52
 3141 10fe 01       		.uleb128 0x1
 3142 10ff 31       		.byte	0x31
 3143 1100 1F       		.uleb128 0x1f
 3144 1101 01       		.uleb128 0x1
 3145 1102 53       		.byte	0x53
 3146 1103 01       		.uleb128 0x1
 3147 1104 31       		.byte	0x31
 3148 1105 00       		.byte	0
 3149 1106 1E       		.uleb128 0x1e
 3150 1107 50000000 		.4byte	.LVL35
 3151 110b 86150000 		.4byte	0x1586
 3152 110f 29110000 		.4byte	0x1129
 3153 1113 1F       		.uleb128 0x1f
 3154 1114 01       		.uleb128 0x1
 3155 1115 50       		.byte	0x50
 3156 1116 02       		.uleb128 0x2
 3157 1117 74       		.byte	0x74
 3158 1118 00       		.sleb128 0
 3159 1119 1F       		.uleb128 0x1f
 3160 111a 01       		.uleb128 0x1
 3161 111b 51       		.byte	0x51
 3162 111c 01       		.uleb128 0x1
 3163 111d 39       		.byte	0x39
 3164 111e 1F       		.uleb128 0x1f
 3165 111f 01       		.uleb128 0x1
 3166 1120 52       		.byte	0x52
 3167 1121 01       		.uleb128 0x1
 3168 1122 32       		.byte	0x32
 3169 1123 1F       		.uleb128 0x1f
 3170 1124 01       		.uleb128 0x1
 3171 1125 53       		.byte	0x53
 3172 1126 01       		.uleb128 0x1
 3173 1127 31       		.byte	0x31
 3174 1128 00       		.byte	0
 3175 1129 1E       		.uleb128 0x1e
 3176 112a 5C000000 		.4byte	.LVL36
 3177 112e 86150000 		.4byte	0x1586
 3178 1132 4C110000 		.4byte	0x114c
 3179 1136 1F       		.uleb128 0x1f
 3180 1137 01       		.uleb128 0x1
 3181 1138 50       		.byte	0x50
 3182 1139 02       		.uleb128 0x2
 3183 113a 74       		.byte	0x74
 3184 113b 00       		.sleb128 0
 3185 113c 1F       		.uleb128 0x1f
 3186 113d 01       		.uleb128 0x1
 3187 113e 51       		.byte	0x51
 3188 113f 01       		.uleb128 0x1
 3189 1140 36       		.byte	0x36
 3190 1141 1F       		.uleb128 0x1f
 3191 1142 01       		.uleb128 0x1
 3192 1143 52       		.byte	0x52
ARM GAS  C:\Users\euanm\AppData\Local\Temp\ccz9XhOH.s 			page 57


 3193 1144 01       		.uleb128 0x1
 3194 1145 33       		.byte	0x33
 3195 1146 1F       		.uleb128 0x1f
 3196 1147 01       		.uleb128 0x1
 3197 1148 53       		.byte	0x53
 3198 1149 01       		.uleb128 0x1
 3199 114a 31       		.byte	0x31
 3200 114b 00       		.byte	0
 3201 114c 1E       		.uleb128 0x1e
 3202 114d 68000000 		.4byte	.LVL37
 3203 1151 86150000 		.4byte	0x1586
 3204 1155 6F110000 		.4byte	0x116f
 3205 1159 1F       		.uleb128 0x1f
 3206 115a 01       		.uleb128 0x1
 3207 115b 50       		.byte	0x50
 3208 115c 02       		.uleb128 0x2
 3209 115d 74       		.byte	0x74
 3210 115e 00       		.sleb128 0
 3211 115f 1F       		.uleb128 0x1f
 3212 1160 01       		.uleb128 0x1
 3213 1161 51       		.byte	0x51
 3214 1162 01       		.uleb128 0x1
 3215 1163 35       		.byte	0x35
 3216 1164 1F       		.uleb128 0x1f
 3217 1165 01       		.uleb128 0x1
 3218 1166 52       		.byte	0x52
 3219 1167 01       		.uleb128 0x1
 3220 1168 34       		.byte	0x34
 3221 1169 1F       		.uleb128 0x1f
 3222 116a 01       		.uleb128 0x1
 3223 116b 53       		.byte	0x53
 3224 116c 01       		.uleb128 0x1
 3225 116d 31       		.byte	0x31
 3226 116e 00       		.byte	0
 3227 116f 1E       		.uleb128 0x1e
 3228 1170 74000000 		.4byte	.LVL38
 3229 1174 86150000 		.4byte	0x1586
 3230 1178 92110000 		.4byte	0x1192
 3231 117c 1F       		.uleb128 0x1f
 3232 117d 01       		.uleb128 0x1
 3233 117e 50       		.byte	0x50
 3234 117f 02       		.uleb128 0x2
 3235 1180 76       		.byte	0x76
 3236 1181 00       		.sleb128 0
 3237 1182 1F       		.uleb128 0x1f
 3238 1183 01       		.uleb128 0x1
 3239 1184 51       		.byte	0x51
 3240 1185 01       		.uleb128 0x1
 3241 1186 32       		.byte	0x32
 3242 1187 1F       		.uleb128 0x1f
 3243 1188 01       		.uleb128 0x1
 3244 1189 52       		.byte	0x52
 3245 118a 01       		.uleb128 0x1
 3246 118b 31       		.byte	0x31
 3247 118c 1F       		.uleb128 0x1f
 3248 118d 01       		.uleb128 0x1
 3249 118e 53       		.byte	0x53
ARM GAS  C:\Users\euanm\AppData\Local\Temp\ccz9XhOH.s 			page 58


 3250 118f 01       		.uleb128 0x1
 3251 1190 31       		.byte	0x31
 3252 1191 00       		.byte	0
 3253 1192 1E       		.uleb128 0x1e
 3254 1193 80000000 		.4byte	.LVL39
 3255 1197 86150000 		.4byte	0x1586
 3256 119b B5110000 		.4byte	0x11b5
 3257 119f 1F       		.uleb128 0x1f
 3258 11a0 01       		.uleb128 0x1
 3259 11a1 50       		.byte	0x50
 3260 11a2 02       		.uleb128 0x2
 3261 11a3 76       		.byte	0x76
 3262 11a4 00       		.sleb128 0
 3263 11a5 1F       		.uleb128 0x1f
 3264 11a6 01       		.uleb128 0x1
 3265 11a7 51       		.byte	0x51
 3266 11a8 01       		.uleb128 0x1
 3267 11a9 33       		.byte	0x33
 3268 11aa 1F       		.uleb128 0x1f
 3269 11ab 01       		.uleb128 0x1
 3270 11ac 52       		.byte	0x52
 3271 11ad 01       		.uleb128 0x1
 3272 11ae 32       		.byte	0x32
 3273 11af 1F       		.uleb128 0x1f
 3274 11b0 01       		.uleb128 0x1
 3275 11b1 53       		.byte	0x53
 3276 11b2 01       		.uleb128 0x1
 3277 11b3 31       		.byte	0x31
 3278 11b4 00       		.byte	0
 3279 11b5 1E       		.uleb128 0x1e
 3280 11b6 8C000000 		.4byte	.LVL40
 3281 11ba 86150000 		.4byte	0x1586
 3282 11be D8110000 		.4byte	0x11d8
 3283 11c2 1F       		.uleb128 0x1f
 3284 11c3 01       		.uleb128 0x1
 3285 11c4 50       		.byte	0x50
 3286 11c5 02       		.uleb128 0x2
 3287 11c6 76       		.byte	0x76
 3288 11c7 00       		.sleb128 0
 3289 11c8 1F       		.uleb128 0x1f
 3290 11c9 01       		.uleb128 0x1
 3291 11ca 51       		.byte	0x51
 3292 11cb 01       		.uleb128 0x1
 3293 11cc 3C       		.byte	0x3c
 3294 11cd 1F       		.uleb128 0x1f
 3295 11ce 01       		.uleb128 0x1
 3296 11cf 52       		.byte	0x52
 3297 11d0 01       		.uleb128 0x1
 3298 11d1 33       		.byte	0x33
 3299 11d2 1F       		.uleb128 0x1f
 3300 11d3 01       		.uleb128 0x1
 3301 11d4 53       		.byte	0x53
 3302 11d5 01       		.uleb128 0x1
 3303 11d6 31       		.byte	0x31
 3304 11d7 00       		.byte	0
 3305 11d8 1E       		.uleb128 0x1e
 3306 11d9 98000000 		.4byte	.LVL41
ARM GAS  C:\Users\euanm\AppData\Local\Temp\ccz9XhOH.s 			page 59


 3307 11dd 86150000 		.4byte	0x1586
 3308 11e1 FB110000 		.4byte	0x11fb
 3309 11e5 1F       		.uleb128 0x1f
 3310 11e6 01       		.uleb128 0x1
 3311 11e7 50       		.byte	0x50
 3312 11e8 02       		.uleb128 0x2
 3313 11e9 76       		.byte	0x76
 3314 11ea 00       		.sleb128 0
 3315 11eb 1F       		.uleb128 0x1f
 3316 11ec 01       		.uleb128 0x1
 3317 11ed 51       		.byte	0x51
 3318 11ee 01       		.uleb128 0x1
 3319 11ef 33       		.byte	0x33
 3320 11f0 1F       		.uleb128 0x1f
 3321 11f1 01       		.uleb128 0x1
 3322 11f2 52       		.byte	0x52
 3323 11f3 01       		.uleb128 0x1
 3324 11f4 34       		.byte	0x34
 3325 11f5 1F       		.uleb128 0x1f
 3326 11f6 01       		.uleb128 0x1
 3327 11f7 53       		.byte	0x53
 3328 11f8 01       		.uleb128 0x1
 3329 11f9 31       		.byte	0x31
 3330 11fa 00       		.byte	0
 3331 11fb 1E       		.uleb128 0x1e
 3332 11fc A4000000 		.4byte	.LVL42
 3333 1200 92150000 		.4byte	0x1592
 3334 1204 1E120000 		.4byte	0x121e
 3335 1208 1F       		.uleb128 0x1f
 3336 1209 01       		.uleb128 0x1
 3337 120a 50       		.byte	0x50
 3338 120b 02       		.uleb128 0x2
 3339 120c 75       		.byte	0x75
 3340 120d 00       		.sleb128 0
 3341 120e 1F       		.uleb128 0x1f
 3342 120f 01       		.uleb128 0x1
 3343 1210 51       		.byte	0x51
 3344 1211 01       		.uleb128 0x1
 3345 1212 39       		.byte	0x39
 3346 1213 1F       		.uleb128 0x1f
 3347 1214 01       		.uleb128 0x1
 3348 1215 52       		.byte	0x52
 3349 1216 01       		.uleb128 0x1
 3350 1217 31       		.byte	0x31
 3351 1218 1F       		.uleb128 0x1f
 3352 1219 01       		.uleb128 0x1
 3353 121a 53       		.byte	0x53
 3354 121b 01       		.uleb128 0x1
 3355 121c 31       		.byte	0x31
 3356 121d 00       		.byte	0
 3357 121e 1E       		.uleb128 0x1e
 3358 121f B0000000 		.4byte	.LVL43
 3359 1223 92150000 		.4byte	0x1592
 3360 1227 41120000 		.4byte	0x1241
 3361 122b 1F       		.uleb128 0x1f
 3362 122c 01       		.uleb128 0x1
 3363 122d 50       		.byte	0x50
ARM GAS  C:\Users\euanm\AppData\Local\Temp\ccz9XhOH.s 			page 60


 3364 122e 02       		.uleb128 0x2
 3365 122f 75       		.byte	0x75
 3366 1230 00       		.sleb128 0
 3367 1231 1F       		.uleb128 0x1f
 3368 1232 01       		.uleb128 0x1
 3369 1233 51       		.byte	0x51
 3370 1234 01       		.uleb128 0x1
 3371 1235 38       		.byte	0x38
 3372 1236 1F       		.uleb128 0x1f
 3373 1237 01       		.uleb128 0x1
 3374 1238 52       		.byte	0x52
 3375 1239 01       		.uleb128 0x1
 3376 123a 32       		.byte	0x32
 3377 123b 1F       		.uleb128 0x1f
 3378 123c 01       		.uleb128 0x1
 3379 123d 53       		.byte	0x53
 3380 123e 01       		.uleb128 0x1
 3381 123f 31       		.byte	0x31
 3382 1240 00       		.byte	0
 3383 1241 1E       		.uleb128 0x1e
 3384 1242 BC000000 		.4byte	.LVL44
 3385 1246 92150000 		.4byte	0x1592
 3386 124a 64120000 		.4byte	0x1264
 3387 124e 1F       		.uleb128 0x1f
 3388 124f 01       		.uleb128 0x1
 3389 1250 50       		.byte	0x50
 3390 1251 02       		.uleb128 0x2
 3391 1252 74       		.byte	0x74
 3392 1253 00       		.sleb128 0
 3393 1254 1F       		.uleb128 0x1f
 3394 1255 01       		.uleb128 0x1
 3395 1256 51       		.byte	0x51
 3396 1257 01       		.uleb128 0x1
 3397 1258 38       		.byte	0x38
 3398 1259 1F       		.uleb128 0x1f
 3399 125a 01       		.uleb128 0x1
 3400 125b 52       		.byte	0x52
 3401 125c 01       		.uleb128 0x1
 3402 125d 31       		.byte	0x31
 3403 125e 1F       		.uleb128 0x1f
 3404 125f 01       		.uleb128 0x1
 3405 1260 53       		.byte	0x53
 3406 1261 01       		.uleb128 0x1
 3407 1262 31       		.byte	0x31
 3408 1263 00       		.byte	0
 3409 1264 20       		.uleb128 0x20
 3410 1265 CC000000 		.4byte	.LVL45
 3411 1269 92150000 		.4byte	0x1592
 3412 126d 1F       		.uleb128 0x1f
 3413 126e 01       		.uleb128 0x1
 3414 126f 50       		.byte	0x50
 3415 1270 05       		.uleb128 0x5
 3416 1271 0C       		.byte	0xc
 3417 1272 00210140 		.4byte	0x40012100
 3418 1276 1F       		.uleb128 0x1f
 3419 1277 01       		.uleb128 0x1
 3420 1278 51       		.byte	0x51
ARM GAS  C:\Users\euanm\AppData\Local\Temp\ccz9XhOH.s 			page 61


 3421 1279 01       		.uleb128 0x1
 3422 127a 39       		.byte	0x39
 3423 127b 1F       		.uleb128 0x1f
 3424 127c 01       		.uleb128 0x1
 3425 127d 52       		.byte	0x52
 3426 127e 01       		.uleb128 0x1
 3427 127f 32       		.byte	0x32
 3428 1280 1F       		.uleb128 0x1f
 3429 1281 01       		.uleb128 0x1
 3430 1282 53       		.byte	0x53
 3431 1283 01       		.uleb128 0x1
 3432 1284 31       		.byte	0x31
 3433 1285 00       		.byte	0
 3434 1286 00       		.byte	0
 3435 1287 1D       		.uleb128 0x1d
 3436 1288 58040000 		.4byte	.LASF188
 3437 128c 01       		.byte	0x1
 3438 128d 86       		.byte	0x86
 3439 128e 00000000 		.4byte	.LFB258
 3440 1292 30000000 		.4byte	.LFE258-.LFB258
 3441 1296 01       		.uleb128 0x1
 3442 1297 9C       		.byte	0x9c
 3443 1298 B1120000 		.4byte	0x12b1
 3444 129c 21       		.uleb128 0x21
 3445 129d 0A000000 		.4byte	.LVL46
 3446 12a1 6E150000 		.4byte	0x156e
 3447 12a5 1F       		.uleb128 0x1f
 3448 12a6 01       		.uleb128 0x1
 3449 12a7 50       		.byte	0x50
 3450 12a8 01       		.uleb128 0x1
 3451 12a9 32       		.byte	0x32
 3452 12aa 1F       		.uleb128 0x1f
 3453 12ab 01       		.uleb128 0x1
 3454 12ac 51       		.byte	0x51
 3455 12ad 01       		.uleb128 0x1
 3456 12ae 31       		.byte	0x31
 3457 12af 00       		.byte	0
 3458 12b0 00       		.byte	0
 3459 12b1 1D       		.uleb128 0x1d
 3460 12b2 B3010000 		.4byte	.LASF189
 3461 12b6 01       		.byte	0x1
 3462 12b7 96       		.byte	0x96
 3463 12b8 00000000 		.4byte	.LFB259
 3464 12bc 50000000 		.4byte	.LFE259-.LFB259
 3465 12c0 01       		.uleb128 0x1
 3466 12c1 9C       		.byte	0x9c
 3467 12c2 3A130000 		.4byte	0x133a
 3468 12c6 22       		.uleb128 0x22
 3469 12c7 0A000000 		.4byte	.LVL47
 3470 12cb 9E150000 		.4byte	0x159e
 3471 12cf 1E       		.uleb128 0x1e
 3472 12d0 1C000000 		.4byte	.LVL48
 3473 12d4 7A150000 		.4byte	0x157a
 3474 12d8 F4120000 		.4byte	0x12f4
 3475 12dc 1F       		.uleb128 0x1f
 3476 12dd 01       		.uleb128 0x1
 3477 12de 50       		.byte	0x50
ARM GAS  C:\Users\euanm\AppData\Local\Temp\ccz9XhOH.s 			page 62


 3478 12df 05       		.uleb128 0x5
 3479 12e0 0C       		.byte	0xc
 3480 12e1 00040240 		.4byte	0x40020400
 3481 12e5 1F       		.uleb128 0x1f
 3482 12e6 01       		.uleb128 0x1
 3483 12e7 51       		.byte	0x51
 3484 12e8 03       		.uleb128 0x3
 3485 12e9 0A       		.byte	0xa
 3486 12ea 0004     		.2byte	0x400
 3487 12ec 1F       		.uleb128 0x1f
 3488 12ed 01       		.uleb128 0x1
 3489 12ee 52       		.byte	0x52
 3490 12ef 03       		.uleb128 0x3
 3491 12f0 0A       		.byte	0xa
 3492 12f1 2E02     		.2byte	0x22e
 3493 12f3 00       		.byte	0
 3494 12f4 1E       		.uleb128 0x1e
 3495 12f5 2A000000 		.4byte	.LVL49
 3496 12f9 7A150000 		.4byte	0x157a
 3497 12fd 19130000 		.4byte	0x1319
 3498 1301 1F       		.uleb128 0x1f
 3499 1302 01       		.uleb128 0x1
 3500 1303 50       		.byte	0x50
 3501 1304 05       		.uleb128 0x5
 3502 1305 0C       		.byte	0xc
 3503 1306 00040240 		.4byte	0x40020400
 3504 130a 1F       		.uleb128 0x1f
 3505 130b 01       		.uleb128 0x1
 3506 130c 51       		.byte	0x51
 3507 130d 03       		.uleb128 0x3
 3508 130e 0A       		.byte	0xa
 3509 130f 0008     		.2byte	0x800
 3510 1311 1F       		.uleb128 0x1f
 3511 1312 01       		.uleb128 0x1
 3512 1313 52       		.byte	0x52
 3513 1314 03       		.uleb128 0x3
 3514 1315 0A       		.byte	0xa
 3515 1316 2E02     		.2byte	0x22e
 3516 1318 00       		.byte	0
 3517 1319 1E       		.uleb128 0x1e
 3518 131a 32000000 		.4byte	.LVL50
 3519 131e A9150000 		.4byte	0x15a9
 3520 1322 30130000 		.4byte	0x1330
 3521 1326 1F       		.uleb128 0x1f
 3522 1327 01       		.uleb128 0x1
 3523 1328 51       		.byte	0x51
 3524 1329 05       		.uleb128 0x5
 3525 132a 03       		.byte	0x3
 3526 132b 00000000 		.4byte	.LANCHOR1
 3527 132f 00       		.byte	0
 3528 1330 23       		.uleb128 0x23
 3529 1331 40000000 		.4byte	.LVL51
 3530 1335 B4150000 		.4byte	0x15b4
 3531 1339 00       		.byte	0
 3532 133a 1D       		.uleb128 0x1d
 3533 133b D6060000 		.4byte	.LASF190
 3534 133f 01       		.byte	0x1
ARM GAS  C:\Users\euanm\AppData\Local\Temp\ccz9XhOH.s 			page 63


 3535 1340 AC       		.byte	0xac
 3536 1341 00000000 		.4byte	.LFB260
 3537 1345 48000000 		.4byte	.LFE260-.LFB260
 3538 1349 01       		.uleb128 0x1
 3539 134a 9C       		.byte	0x9c
 3540 134b B1130000 		.4byte	0x13b1
 3541 134f 22       		.uleb128 0x22
 3542 1350 0A000000 		.4byte	.LVL52
 3543 1354 9E150000 		.4byte	0x159e
 3544 1358 1E       		.uleb128 0x1e
 3545 1359 1A000000 		.4byte	.LVL53
 3546 135d 7A150000 		.4byte	0x157a
 3547 1361 7B130000 		.4byte	0x137b
 3548 1365 1F       		.uleb128 0x1f
 3549 1366 01       		.uleb128 0x1
 3550 1367 50       		.byte	0x50
 3551 1368 05       		.uleb128 0x5
 3552 1369 0C       		.byte	0xc
 3553 136a 00040240 		.4byte	0x40020400
 3554 136e 1F       		.uleb128 0x1f
 3555 136f 01       		.uleb128 0x1
 3556 1370 51       		.byte	0x51
 3557 1371 03       		.uleb128 0x3
 3558 1372 0A       		.byte	0xa
 3559 1373 0004     		.2byte	0x400
 3560 1375 1F       		.uleb128 0x1f
 3561 1376 01       		.uleb128 0x1
 3562 1377 52       		.byte	0x52
 3563 1378 01       		.uleb128 0x1
 3564 1379 30       		.byte	0x30
 3565 137a 00       		.byte	0
 3566 137b 1E       		.uleb128 0x1e
 3567 137c 26000000 		.4byte	.LVL54
 3568 1380 7A150000 		.4byte	0x157a
 3569 1384 9E130000 		.4byte	0x139e
 3570 1388 1F       		.uleb128 0x1f
 3571 1389 01       		.uleb128 0x1
 3572 138a 50       		.byte	0x50
 3573 138b 05       		.uleb128 0x5
 3574 138c 0C       		.byte	0xc
 3575 138d 00040240 		.4byte	0x40020400
 3576 1391 1F       		.uleb128 0x1f
 3577 1392 01       		.uleb128 0x1
 3578 1393 51       		.byte	0x51
 3579 1394 03       		.uleb128 0x3
 3580 1395 0A       		.byte	0xa
 3581 1396 0008     		.2byte	0x800
 3582 1398 1F       		.uleb128 0x1f
 3583 1399 01       		.uleb128 0x1
 3584 139a 52       		.byte	0x52
 3585 139b 01       		.uleb128 0x1
 3586 139c 30       		.byte	0x30
 3587 139d 00       		.byte	0
 3588 139e 22       		.uleb128 0x22
 3589 139f 2C000000 		.4byte	.LVL55
 3590 13a3 BF150000 		.4byte	0x15bf
 3591 13a7 23       		.uleb128 0x23
ARM GAS  C:\Users\euanm\AppData\Local\Temp\ccz9XhOH.s 			page 64


 3592 13a8 3A000000 		.4byte	.LVL56
 3593 13ac B4150000 		.4byte	0x15b4
 3594 13b0 00       		.byte	0
 3595 13b1 1D       		.uleb128 0x1d
 3596 13b2 4C090000 		.4byte	.LASF191
 3597 13b6 01       		.byte	0x1
 3598 13b7 BE       		.byte	0xbe
 3599 13b8 00000000 		.4byte	.LFB261
 3600 13bc C4000000 		.4byte	.LFE261-.LFB261
 3601 13c0 01       		.uleb128 0x1
 3602 13c1 9C       		.byte	0x9c
 3603 13c2 FF140000 		.4byte	0x14ff
 3604 13c6 24       		.uleb128 0x24
 3605 13c7 00000000 		.4byte	.Ldebug_ranges0+0
 3606 13cb FF130000 		.4byte	0x13ff
 3607 13cf 25       		.uleb128 0x25
 3608 13d0 6900     		.ascii	"i\000"
 3609 13d2 01       		.byte	0x1
 3610 13d3 D1       		.byte	0xd1
 3611 13d4 94000000 		.4byte	0x94
 3612 13d8 00000000 		.4byte	.LLST0
 3613 13dc 1E       		.uleb128 0x1e
 3614 13dd 4E000000 		.4byte	.LVL62
 3615 13e1 CA150000 		.4byte	0x15ca
 3616 13e5 EF130000 		.4byte	0x13ef
 3617 13e9 1F       		.uleb128 0x1f
 3618 13ea 01       		.uleb128 0x1
 3619 13eb 50       		.byte	0x50
 3620 13ec 01       		.uleb128 0x1
 3621 13ed 31       		.byte	0x31
 3622 13ee 00       		.byte	0
 3623 13ef 21       		.uleb128 0x21
 3624 13f0 56000000 		.4byte	.LVL63
 3625 13f4 CA150000 		.4byte	0x15ca
 3626 13f8 1F       		.uleb128 0x1f
 3627 13f9 01       		.uleb128 0x1
 3628 13fa 50       		.byte	0x50
 3629 13fb 01       		.uleb128 0x1
 3630 13fc 31       		.byte	0x31
 3631 13fd 00       		.byte	0
 3632 13fe 00       		.byte	0
 3633 13ff 22       		.uleb128 0x22
 3634 1400 16000000 		.4byte	.LVL57
 3635 1404 9E150000 		.4byte	0x159e
 3636 1408 1E       		.uleb128 0x1e
 3637 1409 22000000 		.4byte	.LVL58
 3638 140d 7A150000 		.4byte	0x157a
 3639 1411 29140000 		.4byte	0x1429
 3640 1415 1F       		.uleb128 0x1f
 3641 1416 01       		.uleb128 0x1
 3642 1417 50       		.byte	0x50
 3643 1418 02       		.uleb128 0x2
 3644 1419 75       		.byte	0x75
 3645 141a 00       		.sleb128 0
 3646 141b 1F       		.uleb128 0x1f
 3647 141c 01       		.uleb128 0x1
 3648 141d 51       		.byte	0x51
ARM GAS  C:\Users\euanm\AppData\Local\Temp\ccz9XhOH.s 			page 65


 3649 141e 03       		.uleb128 0x3
 3650 141f 0A       		.byte	0xa
 3651 1420 0004     		.2byte	0x400
 3652 1422 1F       		.uleb128 0x1f
 3653 1423 01       		.uleb128 0x1
 3654 1424 52       		.byte	0x52
 3655 1425 02       		.uleb128 0x2
 3656 1426 08       		.byte	0x8
 3657 1427 2C       		.byte	0x2c
 3658 1428 00       		.byte	0
 3659 1429 1E       		.uleb128 0x1e
 3660 142a 2E000000 		.4byte	.LVL59
 3661 142e 7A150000 		.4byte	0x157a
 3662 1432 4A140000 		.4byte	0x144a
 3663 1436 1F       		.uleb128 0x1f
 3664 1437 01       		.uleb128 0x1
 3665 1438 50       		.byte	0x50
 3666 1439 02       		.uleb128 0x2
 3667 143a 75       		.byte	0x75
 3668 143b 00       		.sleb128 0
 3669 143c 1F       		.uleb128 0x1f
 3670 143d 01       		.uleb128 0x1
 3671 143e 51       		.byte	0x51
 3672 143f 03       		.uleb128 0x3
 3673 1440 0A       		.byte	0xa
 3674 1441 0008     		.2byte	0x800
 3675 1443 1F       		.uleb128 0x1f
 3676 1444 01       		.uleb128 0x1
 3677 1445 52       		.byte	0x52
 3678 1446 02       		.uleb128 0x2
 3679 1447 08       		.byte	0x8
 3680 1448 2C       		.byte	0x2c
 3681 1449 00       		.byte	0
 3682 144a 1E       		.uleb128 0x1e
 3683 144b 40000000 		.4byte	.LVL60
 3684 144f CA150000 		.4byte	0x15ca
 3685 1453 5D140000 		.4byte	0x145d
 3686 1457 1F       		.uleb128 0x1f
 3687 1458 01       		.uleb128 0x1
 3688 1459 50       		.byte	0x50
 3689 145a 01       		.uleb128 0x1
 3690 145b 31       		.byte	0x31
 3691 145c 00       		.byte	0
 3692 145d 1E       		.uleb128 0x1e
 3693 145e 6C000000 		.4byte	.LVL65
 3694 1462 CA150000 		.4byte	0x15ca
 3695 1466 70140000 		.4byte	0x1470
 3696 146a 1F       		.uleb128 0x1f
 3697 146b 01       		.uleb128 0x1
 3698 146c 50       		.byte	0x50
 3699 146d 01       		.uleb128 0x1
 3700 146e 31       		.byte	0x31
 3701 146f 00       		.byte	0
 3702 1470 1E       		.uleb128 0x1e
 3703 1471 76000000 		.4byte	.LVL66
 3704 1475 CA150000 		.4byte	0x15ca
 3705 1479 83140000 		.4byte	0x1483
ARM GAS  C:\Users\euanm\AppData\Local\Temp\ccz9XhOH.s 			page 66


 3706 147d 1F       		.uleb128 0x1f
 3707 147e 01       		.uleb128 0x1
 3708 147f 50       		.byte	0x50
 3709 1480 01       		.uleb128 0x1
 3710 1481 31       		.byte	0x31
 3711 1482 00       		.byte	0
 3712 1483 1E       		.uleb128 0x1e
 3713 1484 80000000 		.4byte	.LVL67
 3714 1488 CA150000 		.4byte	0x15ca
 3715 148c 96140000 		.4byte	0x1496
 3716 1490 1F       		.uleb128 0x1f
 3717 1491 01       		.uleb128 0x1
 3718 1492 50       		.byte	0x50
 3719 1493 01       		.uleb128 0x1
 3720 1494 31       		.byte	0x31
 3721 1495 00       		.byte	0
 3722 1496 1E       		.uleb128 0x1e
 3723 1497 90000000 		.4byte	.LVL69
 3724 149b 7A150000 		.4byte	0x157a
 3725 149f B7140000 		.4byte	0x14b7
 3726 14a3 1F       		.uleb128 0x1f
 3727 14a4 01       		.uleb128 0x1
 3728 14a5 50       		.byte	0x50
 3729 14a6 02       		.uleb128 0x2
 3730 14a7 76       		.byte	0x76
 3731 14a8 00       		.sleb128 0
 3732 14a9 1F       		.uleb128 0x1f
 3733 14aa 01       		.uleb128 0x1
 3734 14ab 51       		.byte	0x51
 3735 14ac 02       		.uleb128 0x2
 3736 14ad 77       		.byte	0x77
 3737 14ae 00       		.sleb128 0
 3738 14af 1F       		.uleb128 0x1f
 3739 14b0 01       		.uleb128 0x1
 3740 14b1 52       		.byte	0x52
 3741 14b2 03       		.uleb128 0x3
 3742 14b3 0A       		.byte	0xa
 3743 14b4 2E02     		.2byte	0x22e
 3744 14b6 00       		.byte	0
 3745 14b7 1E       		.uleb128 0x1e
 3746 14b8 9C000000 		.4byte	.LVL70
 3747 14bc 7A150000 		.4byte	0x157a
 3748 14c0 D8140000 		.4byte	0x14d8
 3749 14c4 1F       		.uleb128 0x1f
 3750 14c5 01       		.uleb128 0x1
 3751 14c6 50       		.byte	0x50
 3752 14c7 02       		.uleb128 0x2
 3753 14c8 76       		.byte	0x76
 3754 14c9 00       		.sleb128 0
 3755 14ca 1F       		.uleb128 0x1f
 3756 14cb 01       		.uleb128 0x1
 3757 14cc 51       		.byte	0x51
 3758 14cd 02       		.uleb128 0x2
 3759 14ce 75       		.byte	0x75
 3760 14cf 00       		.sleb128 0
 3761 14d0 1F       		.uleb128 0x1f
 3762 14d1 01       		.uleb128 0x1
ARM GAS  C:\Users\euanm\AppData\Local\Temp\ccz9XhOH.s 			page 67


 3763 14d2 52       		.byte	0x52
 3764 14d3 03       		.uleb128 0x3
 3765 14d4 0A       		.byte	0xa
 3766 14d5 2E02     		.2byte	0x22e
 3767 14d7 00       		.byte	0
 3768 14d8 1E       		.uleb128 0x1e
 3769 14d9 A8000000 		.4byte	.LVL71
 3770 14dd A9150000 		.4byte	0x15a9
 3771 14e1 F5140000 		.4byte	0x14f5
 3772 14e5 1F       		.uleb128 0x1f
 3773 14e6 01       		.uleb128 0x1
 3774 14e7 50       		.byte	0x50
 3775 14e8 02       		.uleb128 0x2
 3776 14e9 74       		.byte	0x74
 3777 14ea 00       		.sleb128 0
 3778 14eb 1F       		.uleb128 0x1f
 3779 14ec 01       		.uleb128 0x1
 3780 14ed 51       		.byte	0x51
 3781 14ee 05       		.uleb128 0x5
 3782 14ef 03       		.byte	0x3
 3783 14f0 00000000 		.4byte	.LANCHOR1
 3784 14f4 00       		.byte	0
 3785 14f5 23       		.uleb128 0x23
 3786 14f6 B2000000 		.4byte	.LVL72
 3787 14fa B4150000 		.4byte	0x15b4
 3788 14fe 00       		.byte	0
 3789 14ff 26       		.uleb128 0x26
 3790 1500 78080000 		.4byte	.LASF192
 3791 1504 01       		.byte	0x1
 3792 1505 1B       		.byte	0x1b
 3793 1506 10150000 		.4byte	0x1510
 3794 150a 05       		.uleb128 0x5
 3795 150b 03       		.byte	0x3
 3796 150c 00000000 		.4byte	i2c_running
 3797 1510 05       		.uleb128 0x5
 3798 1511 4B090000 		.4byte	0x94b
 3799 1515 26       		.uleb128 0x26
 3800 1516 ED010000 		.4byte	.LASF193
 3801 151a 01       		.byte	0x1
 3802 151b 1E       		.byte	0x1e
 3803 151c 310C0000 		.4byte	0xc31
 3804 1520 05       		.uleb128 0x5
 3805 1521 03       		.byte	0x3
 3806 1522 00000000 		.4byte	i2cfg
 3807 1526 27       		.uleb128 0x27
 3808 1527 BE060000 		.4byte	.LASF194
 3809 152b 14       		.byte	0x14
 3810 152c A706     		.2byte	0x6a7
 3811 152e E4000000 		.4byte	0xe4
 3812 1532 28       		.uleb128 0x28
 3813 1533 636800   		.ascii	"ch\000"
 3814 1536 07       		.byte	0x7
 3815 1537 0902     		.2byte	0x209
 3816 1539 23040000 		.4byte	0x423
 3817 153d 27       		.uleb128 0x27
 3818 153e 15090000 		.4byte	.LASF195
 3819 1542 12       		.byte	0x12
ARM GAS  C:\Users\euanm\AppData\Local\Temp\ccz9XhOH.s 			page 68


 3820 1543 E401     		.2byte	0x1e4
 3821 1545 820B0000 		.4byte	0xb82
 3822 1549 19       		.uleb128 0x19
 3823 154a 59150000 		.4byte	0x1559
 3824 154e 59150000 		.4byte	0x1559
 3825 1552 1A       		.uleb128 0x1a
 3826 1553 8A040000 		.4byte	0x48a
 3827 1557 01       		.byte	0x1
 3828 1558 00       		.byte	0
 3829 1559 05       		.uleb128 0x5
 3830 155a 8F0C0000 		.4byte	0xc8f
 3831 155e 29       		.uleb128 0x29
 3832 155f A6080000 		.4byte	.LASF196
 3833 1563 13       		.byte	0x13
 3834 1564 F8       		.byte	0xf8
 3835 1565 69150000 		.4byte	0x1569
 3836 1569 05       		.uleb128 0x5
 3837 156a 49150000 		.4byte	0x1549
 3838 156e 2A       		.uleb128 0x2a
 3839 156f 1F040000 		.4byte	.LASF197
 3840 1573 1F040000 		.4byte	.LASF197
 3841 1577 15       		.byte	0x15
 3842 1578 5803     		.2byte	0x358
 3843 157a 2A       		.uleb128 0x2a
 3844 157b 84080000 		.4byte	.LASF198
 3845 157f 84080000 		.4byte	.LASF198
 3846 1583 0F       		.byte	0xf
 3847 1584 E001     		.2byte	0x1e0
 3848 1586 2A       		.uleb128 0x2a
 3849 1587 2E090000 		.4byte	.LASF199
 3850 158b 2E090000 		.4byte	.LASF199
 3851 158f 16       		.byte	0x16
 3852 1590 6002     		.2byte	0x260
 3853 1592 2A       		.uleb128 0x2a
 3854 1593 9A050000 		.4byte	.LASF200
 3855 1597 9A050000 		.4byte	.LASF200
 3856 159b 16       		.byte	0x16
 3857 159c 7002     		.2byte	0x270
 3858 159e 2B       		.uleb128 0x2b
 3859 159f DA070000 		.4byte	.LASF201
 3860 15a3 DA070000 		.4byte	.LASF201
 3861 15a7 11       		.byte	0x11
 3862 15a8 9A       		.byte	0x9a
 3863 15a9 2B       		.uleb128 0x2b
 3864 15aa EE040000 		.4byte	.LASF202
 3865 15ae EE040000 		.4byte	.LASF202
 3866 15b2 11       		.byte	0x11
 3867 15b3 8D       		.byte	0x8d
 3868 15b4 2B       		.uleb128 0x2b
 3869 15b5 74050000 		.4byte	.LASF203
 3870 15b9 74050000 		.4byte	.LASF203
 3871 15bd 11       		.byte	0x11
 3872 15be 9B       		.byte	0x9b
 3873 15bf 2B       		.uleb128 0x2b
 3874 15c0 26050000 		.4byte	.LASF204
 3875 15c4 26050000 		.4byte	.LASF204
 3876 15c8 11       		.byte	0x11
ARM GAS  C:\Users\euanm\AppData\Local\Temp\ccz9XhOH.s 			page 69


 3877 15c9 8E       		.byte	0x8e
 3878 15ca 2B       		.uleb128 0x2b
 3879 15cb 3A080000 		.4byte	.LASF205
 3880 15cf 3A080000 		.4byte	.LASF205
 3881 15d3 17       		.byte	0x17
 3882 15d4 96       		.byte	0x96
 3883 15d5 00       		.byte	0
 3884              		.section	.debug_abbrev,"",%progbits
 3885              	.Ldebug_abbrev0:
 3886 0000 01       		.uleb128 0x1
 3887 0001 11       		.uleb128 0x11
 3888 0002 01       		.byte	0x1
 3889 0003 25       		.uleb128 0x25
 3890 0004 0E       		.uleb128 0xe
 3891 0005 13       		.uleb128 0x13
 3892 0006 0B       		.uleb128 0xb
 3893 0007 03       		.uleb128 0x3
 3894 0008 0E       		.uleb128 0xe
 3895 0009 1B       		.uleb128 0x1b
 3896 000a 0E       		.uleb128 0xe
 3897 000b 55       		.uleb128 0x55
 3898 000c 17       		.uleb128 0x17
 3899 000d 11       		.uleb128 0x11
 3900 000e 01       		.uleb128 0x1
 3901 000f 10       		.uleb128 0x10
 3902 0010 17       		.uleb128 0x17
 3903 0011 00       		.byte	0
 3904 0012 00       		.byte	0
 3905 0013 02       		.uleb128 0x2
 3906 0014 24       		.uleb128 0x24
 3907 0015 00       		.byte	0
 3908 0016 0B       		.uleb128 0xb
 3909 0017 0B       		.uleb128 0xb
 3910 0018 3E       		.uleb128 0x3e
 3911 0019 0B       		.uleb128 0xb
 3912 001a 03       		.uleb128 0x3
 3913 001b 0E       		.uleb128 0xe
 3914 001c 00       		.byte	0
 3915 001d 00       		.byte	0
 3916 001e 03       		.uleb128 0x3
 3917 001f 16       		.uleb128 0x16
 3918 0020 00       		.byte	0
 3919 0021 03       		.uleb128 0x3
 3920 0022 0E       		.uleb128 0xe
 3921 0023 3A       		.uleb128 0x3a
 3922 0024 0B       		.uleb128 0xb
 3923 0025 3B       		.uleb128 0x3b
 3924 0026 0B       		.uleb128 0xb
 3925 0027 49       		.uleb128 0x49
 3926 0028 13       		.uleb128 0x13
 3927 0029 00       		.byte	0
 3928 002a 00       		.byte	0
 3929 002b 04       		.uleb128 0x4
 3930 002c 24       		.uleb128 0x24
 3931 002d 00       		.byte	0
 3932 002e 0B       		.uleb128 0xb
 3933 002f 0B       		.uleb128 0xb
ARM GAS  C:\Users\euanm\AppData\Local\Temp\ccz9XhOH.s 			page 70


 3934 0030 3E       		.uleb128 0x3e
 3935 0031 0B       		.uleb128 0xb
 3936 0032 03       		.uleb128 0x3
 3937 0033 08       		.uleb128 0x8
 3938 0034 00       		.byte	0
 3939 0035 00       		.byte	0
 3940 0036 05       		.uleb128 0x5
 3941 0037 35       		.uleb128 0x35
 3942 0038 00       		.byte	0
 3943 0039 49       		.uleb128 0x49
 3944 003a 13       		.uleb128 0x13
 3945 003b 00       		.byte	0
 3946 003c 00       		.byte	0
 3947 003d 06       		.uleb128 0x6
 3948 003e 13       		.uleb128 0x13
 3949 003f 01       		.byte	0x1
 3950 0040 03       		.uleb128 0x3
 3951 0041 0E       		.uleb128 0xe
 3952 0042 0B       		.uleb128 0xb
 3953 0043 0B       		.uleb128 0xb
 3954 0044 3A       		.uleb128 0x3a
 3955 0045 0B       		.uleb128 0xb
 3956 0046 3B       		.uleb128 0x3b
 3957 0047 0B       		.uleb128 0xb
 3958 0048 01       		.uleb128 0x1
 3959 0049 13       		.uleb128 0x13
 3960 004a 00       		.byte	0
 3961 004b 00       		.byte	0
 3962 004c 07       		.uleb128 0x7
 3963 004d 0D       		.uleb128 0xd
 3964 004e 00       		.byte	0
 3965 004f 03       		.uleb128 0x3
 3966 0050 0E       		.uleb128 0xe
 3967 0051 3A       		.uleb128 0x3a
 3968 0052 0B       		.uleb128 0xb
 3969 0053 3B       		.uleb128 0x3b
 3970 0054 0B       		.uleb128 0xb
 3971 0055 49       		.uleb128 0x49
 3972 0056 13       		.uleb128 0x13
 3973 0057 38       		.uleb128 0x38
 3974 0058 0B       		.uleb128 0xb
 3975 0059 00       		.byte	0
 3976 005a 00       		.byte	0
 3977 005b 08       		.uleb128 0x8
 3978 005c 0D       		.uleb128 0xd
 3979 005d 00       		.byte	0
 3980 005e 03       		.uleb128 0x3
 3981 005f 08       		.uleb128 0x8
 3982 0060 3A       		.uleb128 0x3a
 3983 0061 0B       		.uleb128 0xb
 3984 0062 3B       		.uleb128 0x3b
 3985 0063 05       		.uleb128 0x5
 3986 0064 49       		.uleb128 0x49
 3987 0065 13       		.uleb128 0x13
 3988 0066 38       		.uleb128 0x38
 3989 0067 0B       		.uleb128 0xb
 3990 0068 00       		.byte	0
ARM GAS  C:\Users\euanm\AppData\Local\Temp\ccz9XhOH.s 			page 71


 3991 0069 00       		.byte	0
 3992 006a 09       		.uleb128 0x9
 3993 006b 0D       		.uleb128 0xd
 3994 006c 00       		.byte	0
 3995 006d 03       		.uleb128 0x3
 3996 006e 0E       		.uleb128 0xe
 3997 006f 3A       		.uleb128 0x3a
 3998 0070 0B       		.uleb128 0xb
 3999 0071 3B       		.uleb128 0x3b
 4000 0072 05       		.uleb128 0x5
 4001 0073 49       		.uleb128 0x49
 4002 0074 13       		.uleb128 0x13
 4003 0075 38       		.uleb128 0x38
 4004 0076 0B       		.uleb128 0xb
 4005 0077 00       		.byte	0
 4006 0078 00       		.byte	0
 4007 0079 0A       		.uleb128 0xa
 4008 007a 0F       		.uleb128 0xf
 4009 007b 00       		.byte	0
 4010 007c 0B       		.uleb128 0xb
 4011 007d 0B       		.uleb128 0xb
 4012 007e 49       		.uleb128 0x49
 4013 007f 13       		.uleb128 0x13
 4014 0080 00       		.byte	0
 4015 0081 00       		.byte	0
 4016 0082 0B       		.uleb128 0xb
 4017 0083 13       		.uleb128 0x13
 4018 0084 01       		.byte	0x1
 4019 0085 03       		.uleb128 0x3
 4020 0086 0E       		.uleb128 0xe
 4021 0087 0B       		.uleb128 0xb
 4022 0088 0B       		.uleb128 0xb
 4023 0089 3A       		.uleb128 0x3a
 4024 008a 0B       		.uleb128 0xb
 4025 008b 3B       		.uleb128 0x3b
 4026 008c 05       		.uleb128 0x5
 4027 008d 01       		.uleb128 0x1
 4028 008e 13       		.uleb128 0x13
 4029 008f 00       		.byte	0
 4030 0090 00       		.byte	0
 4031 0091 0C       		.uleb128 0xc
 4032 0092 15       		.uleb128 0x15
 4033 0093 01       		.byte	0x1
 4034 0094 27       		.uleb128 0x27
 4035 0095 19       		.uleb128 0x19
 4036 0096 01       		.uleb128 0x1
 4037 0097 13       		.uleb128 0x13
 4038 0098 00       		.byte	0
 4039 0099 00       		.byte	0
 4040 009a 0D       		.uleb128 0xd
 4041 009b 05       		.uleb128 0x5
 4042 009c 00       		.byte	0
 4043 009d 49       		.uleb128 0x49
 4044 009e 13       		.uleb128 0x13
 4045 009f 00       		.byte	0
 4046 00a0 00       		.byte	0
 4047 00a1 0E       		.uleb128 0xe
ARM GAS  C:\Users\euanm\AppData\Local\Temp\ccz9XhOH.s 			page 72


 4048 00a2 0F       		.uleb128 0xf
 4049 00a3 00       		.byte	0
 4050 00a4 0B       		.uleb128 0xb
 4051 00a5 0B       		.uleb128 0xb
 4052 00a6 00       		.byte	0
 4053 00a7 00       		.byte	0
 4054 00a8 0F       		.uleb128 0xf
 4055 00a9 13       		.uleb128 0x13
 4056 00aa 01       		.byte	0x1
 4057 00ab 03       		.uleb128 0x3
 4058 00ac 0E       		.uleb128 0xe
 4059 00ad 0B       		.uleb128 0xb
 4060 00ae 05       		.uleb128 0x5
 4061 00af 3A       		.uleb128 0x3a
 4062 00b0 0B       		.uleb128 0xb
 4063 00b1 3B       		.uleb128 0x3b
 4064 00b2 05       		.uleb128 0x5
 4065 00b3 01       		.uleb128 0x1
 4066 00b4 13       		.uleb128 0x13
 4067 00b5 00       		.byte	0
 4068 00b6 00       		.byte	0
 4069 00b7 10       		.uleb128 0x10
 4070 00b8 13       		.uleb128 0x13
 4071 00b9 01       		.byte	0x1
 4072 00ba 0B       		.uleb128 0xb
 4073 00bb 0B       		.uleb128 0xb
 4074 00bc 3A       		.uleb128 0x3a
 4075 00bd 0B       		.uleb128 0xb
 4076 00be 3B       		.uleb128 0x3b
 4077 00bf 0B       		.uleb128 0xb
 4078 00c0 01       		.uleb128 0x1
 4079 00c1 13       		.uleb128 0x13
 4080 00c2 00       		.byte	0
 4081 00c3 00       		.byte	0
 4082 00c4 11       		.uleb128 0x11
 4083 00c5 0D       		.uleb128 0xd
 4084 00c6 00       		.byte	0
 4085 00c7 03       		.uleb128 0x3
 4086 00c8 08       		.uleb128 0x8
 4087 00c9 3A       		.uleb128 0x3a
 4088 00ca 0B       		.uleb128 0xb
 4089 00cb 3B       		.uleb128 0x3b
 4090 00cc 0B       		.uleb128 0xb
 4091 00cd 49       		.uleb128 0x49
 4092 00ce 13       		.uleb128 0x13
 4093 00cf 38       		.uleb128 0x38
 4094 00d0 0B       		.uleb128 0xb
 4095 00d1 00       		.byte	0
 4096 00d2 00       		.byte	0
 4097 00d3 12       		.uleb128 0x12
 4098 00d4 13       		.uleb128 0x13
 4099 00d5 01       		.byte	0x1
 4100 00d6 0B       		.uleb128 0xb
 4101 00d7 0B       		.uleb128 0xb
 4102 00d8 3A       		.uleb128 0x3a
 4103 00d9 0B       		.uleb128 0xb
 4104 00da 3B       		.uleb128 0x3b
ARM GAS  C:\Users\euanm\AppData\Local\Temp\ccz9XhOH.s 			page 73


 4105 00db 05       		.uleb128 0x5
 4106 00dc 01       		.uleb128 0x1
 4107 00dd 13       		.uleb128 0x13
 4108 00de 00       		.byte	0
 4109 00df 00       		.byte	0
 4110 00e0 13       		.uleb128 0x13
 4111 00e1 16       		.uleb128 0x16
 4112 00e2 00       		.byte	0
 4113 00e3 03       		.uleb128 0x3
 4114 00e4 0E       		.uleb128 0xe
 4115 00e5 3A       		.uleb128 0x3a
 4116 00e6 0B       		.uleb128 0xb
 4117 00e7 3B       		.uleb128 0x3b
 4118 00e8 05       		.uleb128 0x5
 4119 00e9 49       		.uleb128 0x49
 4120 00ea 13       		.uleb128 0x13
 4121 00eb 00       		.byte	0
 4122 00ec 00       		.byte	0
 4123 00ed 14       		.uleb128 0x14
 4124 00ee 04       		.uleb128 0x4
 4125 00ef 01       		.byte	0x1
 4126 00f0 0B       		.uleb128 0xb
 4127 00f1 0B       		.uleb128 0xb
 4128 00f2 49       		.uleb128 0x49
 4129 00f3 13       		.uleb128 0x13
 4130 00f4 3A       		.uleb128 0x3a
 4131 00f5 0B       		.uleb128 0xb
 4132 00f6 3B       		.uleb128 0x3b
 4133 00f7 0B       		.uleb128 0xb
 4134 00f8 01       		.uleb128 0x1
 4135 00f9 13       		.uleb128 0x13
 4136 00fa 00       		.byte	0
 4137 00fb 00       		.byte	0
 4138 00fc 15       		.uleb128 0x15
 4139 00fd 28       		.uleb128 0x28
 4140 00fe 00       		.byte	0
 4141 00ff 03       		.uleb128 0x3
 4142 0100 0E       		.uleb128 0xe
 4143 0101 1C       		.uleb128 0x1c
 4144 0102 0B       		.uleb128 0xb
 4145 0103 00       		.byte	0
 4146 0104 00       		.byte	0
 4147 0105 16       		.uleb128 0x16
 4148 0106 17       		.uleb128 0x17
 4149 0107 01       		.byte	0x1
 4150 0108 0B       		.uleb128 0xb
 4151 0109 0B       		.uleb128 0xb
 4152 010a 3A       		.uleb128 0x3a
 4153 010b 0B       		.uleb128 0xb
 4154 010c 3B       		.uleb128 0x3b
 4155 010d 0B       		.uleb128 0xb
 4156 010e 01       		.uleb128 0x1
 4157 010f 13       		.uleb128 0x13
 4158 0110 00       		.byte	0
 4159 0111 00       		.byte	0
 4160 0112 17       		.uleb128 0x17
 4161 0113 0D       		.uleb128 0xd
ARM GAS  C:\Users\euanm\AppData\Local\Temp\ccz9XhOH.s 			page 74


 4162 0114 00       		.byte	0
 4163 0115 03       		.uleb128 0x3
 4164 0116 0E       		.uleb128 0xe
 4165 0117 3A       		.uleb128 0x3a
 4166 0118 0B       		.uleb128 0xb
 4167 0119 3B       		.uleb128 0x3b
 4168 011a 05       		.uleb128 0x5
 4169 011b 49       		.uleb128 0x49
 4170 011c 13       		.uleb128 0x13
 4171 011d 00       		.byte	0
 4172 011e 00       		.byte	0
 4173 011f 18       		.uleb128 0x18
 4174 0120 26       		.uleb128 0x26
 4175 0121 00       		.byte	0
 4176 0122 49       		.uleb128 0x49
 4177 0123 13       		.uleb128 0x13
 4178 0124 00       		.byte	0
 4179 0125 00       		.byte	0
 4180 0126 19       		.uleb128 0x19
 4181 0127 01       		.uleb128 0x1
 4182 0128 01       		.byte	0x1
 4183 0129 49       		.uleb128 0x49
 4184 012a 13       		.uleb128 0x13
 4185 012b 01       		.uleb128 0x1
 4186 012c 13       		.uleb128 0x13
 4187 012d 00       		.byte	0
 4188 012e 00       		.byte	0
 4189 012f 1A       		.uleb128 0x1a
 4190 0130 21       		.uleb128 0x21
 4191 0131 00       		.byte	0
 4192 0132 49       		.uleb128 0x49
 4193 0133 13       		.uleb128 0x13
 4194 0134 2F       		.uleb128 0x2f
 4195 0135 0B       		.uleb128 0xb
 4196 0136 00       		.byte	0
 4197 0137 00       		.byte	0
 4198 0138 1B       		.uleb128 0x1b
 4199 0139 0D       		.uleb128 0xd
 4200 013a 00       		.byte	0
 4201 013b 03       		.uleb128 0x3
 4202 013c 08       		.uleb128 0x8
 4203 013d 3A       		.uleb128 0x3a
 4204 013e 0B       		.uleb128 0xb
 4205 013f 3B       		.uleb128 0x3b
 4206 0140 0B       		.uleb128 0xb
 4207 0141 49       		.uleb128 0x49
 4208 0142 13       		.uleb128 0x13
 4209 0143 00       		.byte	0
 4210 0144 00       		.byte	0
 4211 0145 1C       		.uleb128 0x1c
 4212 0146 04       		.uleb128 0x4
 4213 0147 01       		.byte	0x1
 4214 0148 0B       		.uleb128 0xb
 4215 0149 0B       		.uleb128 0xb
 4216 014a 49       		.uleb128 0x49
 4217 014b 13       		.uleb128 0x13
 4218 014c 3A       		.uleb128 0x3a
ARM GAS  C:\Users\euanm\AppData\Local\Temp\ccz9XhOH.s 			page 75


 4219 014d 0B       		.uleb128 0xb
 4220 014e 3B       		.uleb128 0x3b
 4221 014f 05       		.uleb128 0x5
 4222 0150 01       		.uleb128 0x1
 4223 0151 13       		.uleb128 0x13
 4224 0152 00       		.byte	0
 4225 0153 00       		.byte	0
 4226 0154 1D       		.uleb128 0x1d
 4227 0155 2E       		.uleb128 0x2e
 4228 0156 01       		.byte	0x1
 4229 0157 3F       		.uleb128 0x3f
 4230 0158 19       		.uleb128 0x19
 4231 0159 03       		.uleb128 0x3
 4232 015a 0E       		.uleb128 0xe
 4233 015b 3A       		.uleb128 0x3a
 4234 015c 0B       		.uleb128 0xb
 4235 015d 3B       		.uleb128 0x3b
 4236 015e 0B       		.uleb128 0xb
 4237 015f 27       		.uleb128 0x27
 4238 0160 19       		.uleb128 0x19
 4239 0161 11       		.uleb128 0x11
 4240 0162 01       		.uleb128 0x1
 4241 0163 12       		.uleb128 0x12
 4242 0164 06       		.uleb128 0x6
 4243 0165 40       		.uleb128 0x40
 4244 0166 18       		.uleb128 0x18
 4245 0167 9742     		.uleb128 0x2117
 4246 0169 19       		.uleb128 0x19
 4247 016a 01       		.uleb128 0x1
 4248 016b 13       		.uleb128 0x13
 4249 016c 00       		.byte	0
 4250 016d 00       		.byte	0
 4251 016e 1E       		.uleb128 0x1e
 4252 016f 898201   		.uleb128 0x4109
 4253 0172 01       		.byte	0x1
 4254 0173 11       		.uleb128 0x11
 4255 0174 01       		.uleb128 0x1
 4256 0175 31       		.uleb128 0x31
 4257 0176 13       		.uleb128 0x13
 4258 0177 01       		.uleb128 0x1
 4259 0178 13       		.uleb128 0x13
 4260 0179 00       		.byte	0
 4261 017a 00       		.byte	0
 4262 017b 1F       		.uleb128 0x1f
 4263 017c 8A8201   		.uleb128 0x410a
 4264 017f 00       		.byte	0
 4265 0180 02       		.uleb128 0x2
 4266 0181 18       		.uleb128 0x18
 4267 0182 9142     		.uleb128 0x2111
 4268 0184 18       		.uleb128 0x18
 4269 0185 00       		.byte	0
 4270 0186 00       		.byte	0
 4271 0187 20       		.uleb128 0x20
 4272 0188 898201   		.uleb128 0x4109
 4273 018b 01       		.byte	0x1
 4274 018c 11       		.uleb128 0x11
 4275 018d 01       		.uleb128 0x1
ARM GAS  C:\Users\euanm\AppData\Local\Temp\ccz9XhOH.s 			page 76


 4276 018e 9542     		.uleb128 0x2115
 4277 0190 19       		.uleb128 0x19
 4278 0191 31       		.uleb128 0x31
 4279 0192 13       		.uleb128 0x13
 4280 0193 00       		.byte	0
 4281 0194 00       		.byte	0
 4282 0195 21       		.uleb128 0x21
 4283 0196 898201   		.uleb128 0x4109
 4284 0199 01       		.byte	0x1
 4285 019a 11       		.uleb128 0x11
 4286 019b 01       		.uleb128 0x1
 4287 019c 31       		.uleb128 0x31
 4288 019d 13       		.uleb128 0x13
 4289 019e 00       		.byte	0
 4290 019f 00       		.byte	0
 4291 01a0 22       		.uleb128 0x22
 4292 01a1 898201   		.uleb128 0x4109
 4293 01a4 00       		.byte	0
 4294 01a5 11       		.uleb128 0x11
 4295 01a6 01       		.uleb128 0x1
 4296 01a7 31       		.uleb128 0x31
 4297 01a8 13       		.uleb128 0x13
 4298 01a9 00       		.byte	0
 4299 01aa 00       		.byte	0
 4300 01ab 23       		.uleb128 0x23
 4301 01ac 898201   		.uleb128 0x4109
 4302 01af 00       		.byte	0
 4303 01b0 11       		.uleb128 0x11
 4304 01b1 01       		.uleb128 0x1
 4305 01b2 9542     		.uleb128 0x2115
 4306 01b4 19       		.uleb128 0x19
 4307 01b5 31       		.uleb128 0x31
 4308 01b6 13       		.uleb128 0x13
 4309 01b7 00       		.byte	0
 4310 01b8 00       		.byte	0
 4311 01b9 24       		.uleb128 0x24
 4312 01ba 0B       		.uleb128 0xb
 4313 01bb 01       		.byte	0x1
 4314 01bc 55       		.uleb128 0x55
 4315 01bd 17       		.uleb128 0x17
 4316 01be 01       		.uleb128 0x1
 4317 01bf 13       		.uleb128 0x13
 4318 01c0 00       		.byte	0
 4319 01c1 00       		.byte	0
 4320 01c2 25       		.uleb128 0x25
 4321 01c3 34       		.uleb128 0x34
 4322 01c4 00       		.byte	0
 4323 01c5 03       		.uleb128 0x3
 4324 01c6 08       		.uleb128 0x8
 4325 01c7 3A       		.uleb128 0x3a
 4326 01c8 0B       		.uleb128 0xb
 4327 01c9 3B       		.uleb128 0x3b
 4328 01ca 0B       		.uleb128 0xb
 4329 01cb 49       		.uleb128 0x49
 4330 01cc 13       		.uleb128 0x13
 4331 01cd 02       		.uleb128 0x2
 4332 01ce 17       		.uleb128 0x17
ARM GAS  C:\Users\euanm\AppData\Local\Temp\ccz9XhOH.s 			page 77


 4333 01cf 00       		.byte	0
 4334 01d0 00       		.byte	0
 4335 01d1 26       		.uleb128 0x26
 4336 01d2 34       		.uleb128 0x34
 4337 01d3 00       		.byte	0
 4338 01d4 03       		.uleb128 0x3
 4339 01d5 0E       		.uleb128 0xe
 4340 01d6 3A       		.uleb128 0x3a
 4341 01d7 0B       		.uleb128 0xb
 4342 01d8 3B       		.uleb128 0x3b
 4343 01d9 0B       		.uleb128 0xb
 4344 01da 49       		.uleb128 0x49
 4345 01db 13       		.uleb128 0x13
 4346 01dc 02       		.uleb128 0x2
 4347 01dd 18       		.uleb128 0x18
 4348 01de 00       		.byte	0
 4349 01df 00       		.byte	0
 4350 01e0 27       		.uleb128 0x27
 4351 01e1 34       		.uleb128 0x34
 4352 01e2 00       		.byte	0
 4353 01e3 03       		.uleb128 0x3
 4354 01e4 0E       		.uleb128 0xe
 4355 01e5 3A       		.uleb128 0x3a
 4356 01e6 0B       		.uleb128 0xb
 4357 01e7 3B       		.uleb128 0x3b
 4358 01e8 05       		.uleb128 0x5
 4359 01e9 49       		.uleb128 0x49
 4360 01ea 13       		.uleb128 0x13
 4361 01eb 3F       		.uleb128 0x3f
 4362 01ec 19       		.uleb128 0x19
 4363 01ed 3C       		.uleb128 0x3c
 4364 01ee 19       		.uleb128 0x19
 4365 01ef 00       		.byte	0
 4366 01f0 00       		.byte	0
 4367 01f1 28       		.uleb128 0x28
 4368 01f2 34       		.uleb128 0x34
 4369 01f3 00       		.byte	0
 4370 01f4 03       		.uleb128 0x3
 4371 01f5 08       		.uleb128 0x8
 4372 01f6 3A       		.uleb128 0x3a
 4373 01f7 0B       		.uleb128 0xb
 4374 01f8 3B       		.uleb128 0x3b
 4375 01f9 05       		.uleb128 0x5
 4376 01fa 49       		.uleb128 0x49
 4377 01fb 13       		.uleb128 0x13
 4378 01fc 3F       		.uleb128 0x3f
 4379 01fd 19       		.uleb128 0x19
 4380 01fe 3C       		.uleb128 0x3c
 4381 01ff 19       		.uleb128 0x19
 4382 0200 00       		.byte	0
 4383 0201 00       		.byte	0
 4384 0202 29       		.uleb128 0x29
 4385 0203 34       		.uleb128 0x34
 4386 0204 00       		.byte	0
 4387 0205 03       		.uleb128 0x3
 4388 0206 0E       		.uleb128 0xe
 4389 0207 3A       		.uleb128 0x3a
ARM GAS  C:\Users\euanm\AppData\Local\Temp\ccz9XhOH.s 			page 78


 4390 0208 0B       		.uleb128 0xb
 4391 0209 3B       		.uleb128 0x3b
 4392 020a 0B       		.uleb128 0xb
 4393 020b 49       		.uleb128 0x49
 4394 020c 13       		.uleb128 0x13
 4395 020d 3F       		.uleb128 0x3f
 4396 020e 19       		.uleb128 0x19
 4397 020f 3C       		.uleb128 0x3c
 4398 0210 19       		.uleb128 0x19
 4399 0211 00       		.byte	0
 4400 0212 00       		.byte	0
 4401 0213 2A       		.uleb128 0x2a
 4402 0214 2E       		.uleb128 0x2e
 4403 0215 00       		.byte	0
 4404 0216 3F       		.uleb128 0x3f
 4405 0217 19       		.uleb128 0x19
 4406 0218 3C       		.uleb128 0x3c
 4407 0219 19       		.uleb128 0x19
 4408 021a 6E       		.uleb128 0x6e
 4409 021b 0E       		.uleb128 0xe
 4410 021c 03       		.uleb128 0x3
 4411 021d 0E       		.uleb128 0xe
 4412 021e 3A       		.uleb128 0x3a
 4413 021f 0B       		.uleb128 0xb
 4414 0220 3B       		.uleb128 0x3b
 4415 0221 05       		.uleb128 0x5
 4416 0222 00       		.byte	0
 4417 0223 00       		.byte	0
 4418 0224 2B       		.uleb128 0x2b
 4419 0225 2E       		.uleb128 0x2e
 4420 0226 00       		.byte	0
 4421 0227 3F       		.uleb128 0x3f
 4422 0228 19       		.uleb128 0x19
 4423 0229 3C       		.uleb128 0x3c
 4424 022a 19       		.uleb128 0x19
 4425 022b 6E       		.uleb128 0x6e
 4426 022c 0E       		.uleb128 0xe
 4427 022d 03       		.uleb128 0x3
 4428 022e 0E       		.uleb128 0xe
 4429 022f 3A       		.uleb128 0x3a
 4430 0230 0B       		.uleb128 0xb
 4431 0231 3B       		.uleb128 0x3b
 4432 0232 0B       		.uleb128 0xb
 4433 0233 00       		.byte	0
 4434 0234 00       		.byte	0
 4435 0235 00       		.byte	0
 4436              		.section	.debug_loc,"",%progbits
 4437              	.Ldebug_loc0:
 4438              	.LLST0:
 4439 0000 40000000 		.4byte	.LVL60
 4440 0004 44000000 		.4byte	.LVL61
 4441 0008 0200     		.2byte	0x2
 4442 000a 30       		.byte	0x30
 4443 000b 9F       		.byte	0x9f
 4444 000c 44000000 		.4byte	.LVL61
 4445 0010 56000000 		.4byte	.LVL63
 4446 0014 0500     		.2byte	0x5
ARM GAS  C:\Users\euanm\AppData\Local\Temp\ccz9XhOH.s 			page 79


 4447 0016 40       		.byte	0x40
 4448 0017 74       		.byte	0x74
 4449 0018 00       		.sleb128 0
 4450 0019 1C       		.byte	0x1c
 4451 001a 9F       		.byte	0x9f
 4452 001b 56000000 		.4byte	.LVL63
 4453 001f 58000000 		.4byte	.LVL64
 4454 0023 0500     		.2byte	0x5
 4455 0025 41       		.byte	0x41
 4456 0026 74       		.byte	0x74
 4457 0027 00       		.sleb128 0
 4458 0028 1C       		.byte	0x1c
 4459 0029 9F       		.byte	0x9f
 4460 002a 58000000 		.4byte	.LVL64
 4461 002e 82000000 		.4byte	.LVL68
 4462 0032 0500     		.2byte	0x5
 4463 0034 40       		.byte	0x40
 4464 0035 74       		.byte	0x74
 4465 0036 00       		.sleb128 0
 4466 0037 1C       		.byte	0x1c
 4467 0038 9F       		.byte	0x9f
 4468 0039 00000000 		.4byte	0
 4469 003d 00000000 		.4byte	0
 4470              		.section	.debug_aranges,"",%progbits
 4471 0000 44000000 		.4byte	0x44
 4472 0004 0200     		.2byte	0x2
 4473 0006 00000000 		.4byte	.Ldebug_info0
 4474 000a 04       		.byte	0x4
 4475 000b 00       		.byte	0
 4476 000c 0000     		.2byte	0
 4477 000e 0000     		.2byte	0
 4478 0010 00000000 		.4byte	.LFB256
 4479 0014 54010000 		.4byte	.LFE256-.LFB256
 4480 0018 00000000 		.4byte	.LFB257
 4481 001c D8000000 		.4byte	.LFE257-.LFB257
 4482 0020 00000000 		.4byte	.LFB258
 4483 0024 30000000 		.4byte	.LFE258-.LFB258
 4484 0028 00000000 		.4byte	.LFB259
 4485 002c 50000000 		.4byte	.LFE259-.LFB259
 4486 0030 00000000 		.4byte	.LFB260
 4487 0034 48000000 		.4byte	.LFE260-.LFB260
 4488 0038 00000000 		.4byte	.LFB261
 4489 003c C4000000 		.4byte	.LFE261-.LFB261
 4490 0040 00000000 		.4byte	0
 4491 0044 00000000 		.4byte	0
 4492              		.section	.debug_ranges,"",%progbits
 4493              	.Ldebug_ranges0:
 4494 0000 40000000 		.4byte	.LBB2
 4495 0004 42000000 		.4byte	.LBE2
 4496 0008 44000000 		.4byte	.LBB3
 4497 000c 60000000 		.4byte	.LBE3
 4498 0010 00000000 		.4byte	0
 4499 0014 00000000 		.4byte	0
 4500 0018 00000000 		.4byte	.LFB256
 4501 001c 54010000 		.4byte	.LFE256
 4502 0020 00000000 		.4byte	.LFB257
 4503 0024 D8000000 		.4byte	.LFE257
ARM GAS  C:\Users\euanm\AppData\Local\Temp\ccz9XhOH.s 			page 80


 4504 0028 00000000 		.4byte	.LFB258
 4505 002c 30000000 		.4byte	.LFE258
 4506 0030 00000000 		.4byte	.LFB259
 4507 0034 50000000 		.4byte	.LFE259
 4508 0038 00000000 		.4byte	.LFB260
 4509 003c 48000000 		.4byte	.LFE260
 4510 0040 00000000 		.4byte	.LFB261
 4511 0044 C4000000 		.4byte	.LFE261
 4512 0048 00000000 		.4byte	0
 4513 004c 00000000 		.4byte	0
 4514              		.section	.debug_line,"",%progbits
 4515              	.Ldebug_line0:
 4516 0000 EF040000 		.section	.debug_str,"MS",%progbits,1
 4516      0200D703 
 4516      00000201 
 4516      FB0E0D00 
 4516      01010101 
 4517              	.LASF53:
 4518 0000 63685F74 		.ascii	"ch_threads_list\000"
 4518      68726561 
 4518      64735F6C 
 4518      69737400 
 4519              	.LASF54:
 4520 0010 74687265 		.ascii	"threads_queue_t\000"
 4520      6164735F 
 4520      71756575 
 4520      655F7400 
 4521              	.LASF104:
 4522 0020 4F415231 		.ascii	"OAR1\000"
 4522      00
 4523              	.LASF122:
 4524 0025 77746D74 		.ascii	"wtmtxp\000"
 4524      787000
 4525              	.LASF116:
 4526 002c 746D5F63 		.ascii	"tm_calibration_t\000"
 4526      616C6962 
 4526      72617469 
 4526      6F6E5F74 
 4526      00
 4527              	.LASF42:
 4528 003d 705F7469 		.ascii	"p_time\000"
 4528      6D6500
 4529              	.LASF146:
 4530 0044 42535252 		.ascii	"BSRR\000"
 4530      00
 4531              	.LASF131:
 4532 0049 63686172 		.ascii	"char\000"
 4532      00
 4533              	.LASF111:
 4534 004e 72656761 		.ascii	"regarm_t\000"
 4534      726D5F74 
 4534      00
 4535              	.LASF33:
 4536 0057 705F7072 		.ascii	"p_prio\000"
 4536      696F00
 4537              	.LASF182:
 4538 005e 646D6172 		.ascii	"dmarx\000"
ARM GAS  C:\Users\euanm\AppData\Local\Temp\ccz9XhOH.s 			page 81


 4538      7800
 4539              	.LASF125:
 4540 0064 735F7175 		.ascii	"s_queue\000"
 4540      65756500 
 4541              	.LASF74:
 4542 006c 76745F73 		.ascii	"vt_systime\000"
 4542      79737469 
 4542      6D6500
 4543              	.LASF156:
 4544 0077 4932435F 		.ascii	"I2C_ACTIVE_RX\000"
 4544      41435449 
 4544      56455F52 
 4544      5800
 4545              	.LASF13:
 4546 0085 756E7369 		.ascii	"unsigned int\000"
 4546      676E6564 
 4546      20696E74 
 4546      00
 4547              	.LASF173:
 4548 0092 49324344 		.ascii	"I2CDriver\000"
 4548      72697665 
 4548      7200
 4549              	.LASF185:
 4550 009c 53455256 		.ascii	"SERVO\000"
 4550      4F00
 4551              	.LASF51:
 4552 00a2 74687265 		.ascii	"threads_list_t\000"
 4552      6164735F 
 4552      6C697374 
 4552      5F7400
 4553              	.LASF43:
 4554 00b1 705F7761 		.ascii	"p_waiting\000"
 4554      6974696E 
 4554      6700
 4555              	.LASF6:
 4556 00bb 5F5F696E 		.ascii	"__int32_t\000"
 4556      7433325F 
 4556      7400
 4557              	.LASF119:
 4558 00c5 77746F62 		.ascii	"wtobjp\000"
 4558      6A7000
 4559              	.LASF81:
 4560 00cc 76746C69 		.ascii	"vtlist\000"
 4560      737400
 4561              	.LASF57:
 4562 00d3 63685F72 		.ascii	"ch_ready_list\000"
 4562      65616479 
 4562      5F6C6973 
 4562      7400
 4563              	.LASF83:
 4564 00e1 69646C65 		.ascii	"idle_thread_wa\000"
 4564      5F746872 
 4564      6561645F 
 4564      776100
 4565              	.LASF100:
 4566 00f0 4E445452 		.ascii	"NDTR\000"
 4566      00
ARM GAS  C:\Users\euanm\AppData\Local\Temp\ccz9XhOH.s 			page 82


 4567              	.LASF186:
 4568 00f5 68775F69 		.ascii	"hw_init_gpio\000"
 4568      6E69745F 
 4568      6770696F 
 4568      00
 4569              	.LASF123:
 4570 0102 65776D61 		.ascii	"ewmask\000"
 4570      736B00
 4571              	.LASF64:
 4572 0109 76746675 		.ascii	"vtfunc_t\000"
 4572      6E635F74 
 4572      00
 4573              	.LASF126:
 4574 0112 735F636E 		.ascii	"s_cnt\000"
 4574      7400
 4575              	.LASF76:
 4576 0118 63685F73 		.ascii	"ch_system_debug\000"
 4576      79737465 
 4576      6D5F6465 
 4576      62756700 
 4577              	.LASF183:
 4578 0128 646D6174 		.ascii	"dmatx\000"
 4578      7800
 4579              	.LASF17:
 4580 012e 75696E74 		.ascii	"uint32_t\000"
 4580      33325F74 
 4580      00
 4581              	.LASF161:
 4582 0137 4F504D4F 		.ascii	"OPMODE_I2C\000"
 4582      44455F49 
 4582      324300
 4583              	.LASF155:
 4584 0142 4932435F 		.ascii	"I2C_ACTIVE_TX\000"
 4584      41435449 
 4584      56455F54 
 4584      5800
 4585              	.LASF27:
 4586 0150 6576656E 		.ascii	"eventmask_t\000"
 4586      746D6173 
 4586      6B5F7400 
 4587              	.LASF59:
 4588 015c 725F7072 		.ascii	"r_prio\000"
 4588      696F00
 4589              	.LASF136:
 4590 0163 69666372 		.ascii	"ifcr\000"
 4590      00
 4591              	.LASF71:
 4592 0168 76745F70 		.ascii	"vt_par\000"
 4592      617200
 4593              	.LASF133:
 4594 016f 666C6F61 		.ascii	"float\000"
 4594      7400
 4595              	.LASF177:
 4596 0175 6D757465 		.ascii	"mutex\000"
 4596      7800
 4597              	.LASF207:
 4598 017b 6877636F 		.ascii	"hwconf/hw_A200S.c\000"
ARM GAS  C:\Users\euanm\AppData\Local\Temp\ccz9XhOH.s 			page 83


 4598      6E662F68 
 4598      775F4132 
 4598      3030532E 
 4598      6300
 4599              	.LASF124:
 4600 018d 63685F73 		.ascii	"ch_semaphore\000"
 4600      656D6170 
 4600      686F7265 
 4600      00
 4601              	.LASF25:
 4602 019a 74707269 		.ascii	"tprio_t\000"
 4602      6F5F7400 
 4603              	.LASF66:
 4604 01a2 63685F76 		.ascii	"ch_virtual_timer\000"
 4604      69727475 
 4604      616C5F74 
 4604      696D6572 
 4604      00
 4605              	.LASF189:
 4606 01b3 68775F73 		.ascii	"hw_start_i2c\000"
 4606      74617274 
 4606      5F693263 
 4606      00
 4607              	.LASF70:
 4608 01c0 76745F66 		.ascii	"vt_func\000"
 4608      756E6300 
 4609              	.LASF12:
 4610 01c8 6C6F6E67 		.ascii	"long long unsigned int\000"
 4610      206C6F6E 
 4610      6720756E 
 4610      7369676E 
 4610      65642069 
 4611              	.LASF139:
 4612 01df 76656374 		.ascii	"vector\000"
 4612      6F7200
 4613              	.LASF176:
 4614 01e6 6572726F 		.ascii	"errors\000"
 4614      727300
 4615              	.LASF193:
 4616 01ed 69326366 		.ascii	"i2cfg\000"
 4616      6700
 4617              	.LASF4:
 4618 01f3 5F5F7569 		.ascii	"__uint16_t\000"
 4618      6E743136 
 4618      5F7400
 4619              	.LASF28:
 4620 01fe 636E745F 		.ascii	"cnt_t\000"
 4620      7400
 4621              	.LASF172:
 4622 0204 49324343 		.ascii	"I2CConfig\000"
 4622      6F6E6669 
 4622      6700
 4623              	.LASF142:
 4624 020e 4D4F4445 		.ascii	"MODER\000"
 4624      5200
 4625              	.LASF149:
 4626 0214 41465248 		.ascii	"AFRH\000"
ARM GAS  C:\Users\euanm\AppData\Local\Temp\ccz9XhOH.s 			page 84


 4626      00
 4627              	.LASF150:
 4628 0219 73746D33 		.ascii	"stm32_gpio_t\000"
 4628      325F6770 
 4628      696F5F74 
 4628      00
 4629              	.LASF148:
 4630 0226 4146524C 		.ascii	"AFRL\000"
 4630      00
 4631              	.LASF35:
 4632 022b 705F6E65 		.ascii	"p_newer\000"
 4632      77657200 
 4633              	.LASF141:
 4634 0233 636C6561 		.ascii	"clear\000"
 4634      7200
 4635              	.LASF73:
 4636 0239 63685F76 		.ascii	"ch_virtual_timers_list\000"
 4636      69727475 
 4636      616C5F74 
 4636      696D6572 
 4636      735F6C69 
 4637              	.LASF168:
 4638 0250 69326364 		.ascii	"i2cdutycycle_t\000"
 4638      75747963 
 4638      79636C65 
 4638      5F7400
 4639              	.LASF160:
 4640 025f 69326366 		.ascii	"i2cflags_t\000"
 4640      6C616773 
 4640      5F7400
 4641              	.LASF30:
 4642 026a 74687265 		.ascii	"thread_t\000"
 4642      61645F74 
 4642      00
 4643              	.LASF19:
 4644 0273 73697A65 		.ascii	"size_t\000"
 4644      5F7400
 4645              	.LASF117:
 4646 027a 7264796D 		.ascii	"rdymsg\000"
 4646      736700
 4647              	.LASF115:
 4648 0281 6F666673 		.ascii	"offset\000"
 4648      657400
 4649              	.LASF134:
 4650 0288 5F426F6F 		.ascii	"_Bool\000"
 4650      6C00
 4651              	.LASF206:
 4652 028e 474E5520 		.ascii	"GNU C99 5.4.1 20160919 (release) [ARM/embedded-5-br"
 4652      43393920 
 4652      352E342E 
 4652      31203230 
 4652      31363039 
 4653 02c1 616E6368 		.ascii	"anch revision 240496] -mcpu=cortex-m4 -mfloat-abi=h"
 4653      20726576 
 4653      6973696F 
 4653      6E203234 
 4653      30343936 
ARM GAS  C:\Users\euanm\AppData\Local\Temp\ccz9XhOH.s 			page 85


 4654 02f4 61726420 		.ascii	"ard -mfpu=fpv4-sp-d16 -mno-thumb-interwork -mthumb "
 4654      2D6D6670 
 4654      753D6670 
 4654      76342D73 
 4654      702D6431 
 4655 0327 2D676764 		.ascii	"-ggdb -O2 -std=gnu99 -fomit-frame-pointer -falign-f"
 4655      62202D4F 
 4655      32202D73 
 4655      74643D67 
 4655      6E753939 
 4656 035a 756E6374 		.ascii	"unctions=16 -ffunction-sections -fdata-sections -fn"
 4656      696F6E73 
 4656      3D313620 
 4656      2D666675 
 4656      6E637469 
 4657 038d 6F2D636F 		.ascii	"o-common -fsingle-precision-constant\000"
 4657      6D6D6F6E 
 4657      202D6673 
 4657      696E676C 
 4657      652D7072 
 4658              	.LASF145:
 4659 03b2 50555044 		.ascii	"PUPDR\000"
 4659      5200
 4660              	.LASF129:
 4661 03b8 6D5F6F77 		.ascii	"m_owner\000"
 4661      6E657200 
 4662              	.LASF105:
 4663 03c0 4F415232 		.ascii	"OAR2\000"
 4663      00
 4664              	.LASF127:
 4665 03c5 63685F6D 		.ascii	"ch_mutex\000"
 4665      75746578 
 4665      00
 4666              	.LASF11:
 4667 03ce 5F5F7569 		.ascii	"__uint64_t\000"
 4667      6E743634 
 4667      5F7400
 4668              	.LASF165:
 4669 03d9 5354445F 		.ascii	"STD_DUTY_CYCLE\000"
 4669      44555459 
 4669      5F435943 
 4669      4C4500
 4670              	.LASF171:
 4671 03e8 64757479 		.ascii	"duty_cycle\000"
 4671      5F637963 
 4671      6C6500
 4672              	.LASF101:
 4673 03f3 4D304152 		.ascii	"M0AR\000"
 4673      00
 4674              	.LASF29:
 4675 03f8 73797374 		.ascii	"systime_t\000"
 4675      696D655F 
 4675      7400
 4676              	.LASF37:
 4677 0402 705F6E61 		.ascii	"p_name\000"
 4677      6D6500
 4678              	.LASF69:
ARM GAS  C:\Users\euanm\AppData\Local\Temp\ccz9XhOH.s 			page 86


 4679 0409 76745F64 		.ascii	"vt_delta\000"
 4679      656C7461 
 4679      00
 4680              	.LASF184:
 4681 0412 6770696F 		.ascii	"gpio\000"
 4681      00
 4682              	.LASF109:
 4683 0417 44495341 		.ascii	"DISABLE\000"
 4683      424C4500 
 4684              	.LASF197:
 4685 041f 5243435F 		.ascii	"RCC_AHB1PeriphClockCmd\000"
 4685      41484231 
 4685      50657269 
 4685      7068436C 
 4685      6F636B43 
 4686              	.LASF61:
 4687 0436 725F6E65 		.ascii	"r_newer\000"
 4687      77657200 
 4688              	.LASF181:
 4689 043e 7478646D 		.ascii	"txdmamode\000"
 4689      616D6F64 
 4689      6500
 4690              	.LASF137:
 4691 0448 69736869 		.ascii	"ishift\000"
 4691      667400
 4692              	.LASF22:
 4693 044f 74737461 		.ascii	"tstate_t\000"
 4693      74655F74 
 4693      00
 4694              	.LASF188:
 4695 0458 68775F73 		.ascii	"hw_setup_servo_outputs\000"
 4695      65747570 
 4695      5F736572 
 4695      766F5F6F 
 4695      75747075 
 4696              	.LASF140:
 4697 046f 73746D33 		.ascii	"stm32_dma_stream_t\000"
 4697      325F646D 
 4697      615F7374 
 4697      7265616D 
 4697      5F7400
 4698              	.LASF10:
 4699 0482 6C6F6E67 		.ascii	"long long int\000"
 4699      206C6F6E 
 4699      6720696E 
 4699      7400
 4700              	.LASF36:
 4701 0490 705F6F6C 		.ascii	"p_older\000"
 4701      64657200 
 4702              	.LASF167:
 4703 0498 46415354 		.ascii	"FAST_DUTY_CYCLE_16_9\000"
 4703      5F445554 
 4703      595F4359 
 4703      434C455F 
 4703      31365F39 
 4704              	.LASF14:
 4705 04ad 75696E74 		.ascii	"uint8_t\000"
ARM GAS  C:\Users\euanm\AppData\Local\Temp\ccz9XhOH.s 			page 87


 4705      385F7400 
 4706              	.LASF106:
 4707 04b5 54524953 		.ascii	"TRISE\000"
 4707      4500
 4708              	.LASF49:
 4709 04bb 705F6D70 		.ascii	"p_mpool\000"
 4709      6F6F6C00 
 4710              	.LASF47:
 4711 04c3 705F6D74 		.ascii	"p_mtxlist\000"
 4711      786C6973 
 4711      7400
 4712              	.LASF38:
 4713 04cd 705F7374 		.ascii	"p_state\000"
 4713      61746500 
 4714              	.LASF52:
 4715 04d5 63685F74 		.ascii	"ch_thread\000"
 4715      68726561 
 4715      6400
 4716              	.LASF75:
 4717 04df 73797374 		.ascii	"system_debug_t\000"
 4717      656D5F64 
 4717      65627567 
 4717      5F7400
 4718              	.LASF202:
 4719 04ee 69326353 		.ascii	"i2cStart\000"
 4719      74617274 
 4719      00
 4720              	.LASF99:
 4721 04f7 4144435F 		.ascii	"ADC_TypeDef\000"
 4721      54797065 
 4721      44656600 
 4722              	.LASF55:
 4723 0503 63685F74 		.ascii	"ch_threads_queue\000"
 4723      68726561 
 4723      64735F71 
 4723      75657565 
 4723      00
 4724              	.LASF163:
 4725 0514 4F504D4F 		.ascii	"OPMODE_SMBUS_HOST\000"
 4725      44455F53 
 4725      4D425553 
 4725      5F484F53 
 4725      5400
 4726              	.LASF204:
 4727 0526 69326353 		.ascii	"i2cStop\000"
 4727      746F7000 
 4728              	.LASF58:
 4729 052e 725F7175 		.ascii	"r_queue\000"
 4729      65756500 
 4730              	.LASF152:
 4731 0536 4932435F 		.ascii	"I2C_UNINIT\000"
 4731      554E494E 
 4731      495400
 4732              	.LASF26:
 4733 0541 6D73675F 		.ascii	"msg_t\000"
 4733      7400
 4734              	.LASF113:
ARM GAS  C:\Users\euanm\AppData\Local\Temp\ccz9XhOH.s 			page 88


 4735 0547 636F6E74 		.ascii	"context\000"
 4735      65787400 
 4736              	.LASF151:
 4737 054f 696F706F 		.ascii	"ioportmask_t\000"
 4737      72746D61 
 4737      736B5F74 
 4737      00
 4738              	.LASF39:
 4739 055c 705F666C 		.ascii	"p_flags\000"
 4739      61677300 
 4740              	.LASF65:
 4741 0564 76697274 		.ascii	"virtual_timer_t\000"
 4741      75616C5F 
 4741      74696D65 
 4741      725F7400 
 4742              	.LASF203:
 4743 0574 69326352 		.ascii	"i2cReleaseBus\000"
 4743      656C6561 
 4743      73654275 
 4743      7300
 4744              	.LASF93:
 4745 0582 53515233 		.ascii	"SQR3\000"
 4745      00
 4746              	.LASF103:
 4747 0587 444D415F 		.ascii	"DMA_Stream_TypeDef\000"
 4747      53747265 
 4747      616D5F54 
 4747      79706544 
 4747      656600
 4748              	.LASF200:
 4749 059a 4144435F 		.ascii	"ADC_InjectedChannelConfig\000"
 4749      496E6A65 
 4749      63746564 
 4749      4368616E 
 4749      6E656C43 
 4750              	.LASF170:
 4751 05b4 636C6F63 		.ascii	"clock_speed\000"
 4751      6B5F7370 
 4751      65656400 
 4752              	.LASF24:
 4753 05c0 74736C69 		.ascii	"tslices_t\000"
 4753      6365735F 
 4753      7400
 4754              	.LASF62:
 4755 05ca 725F6F6C 		.ascii	"r_older\000"
 4755      64657200 
 4756              	.LASF94:
 4757 05d2 4A535152 		.ascii	"JSQR\000"
 4757      00
 4758              	.LASF107:
 4759 05d7 464C5452 		.ascii	"FLTR\000"
 4759      00
 4760              	.LASF158:
 4761 05dc 69326373 		.ascii	"i2cstate_t\000"
 4761      74617465 
 4761      5F7400
 4762              	.LASF166:
ARM GAS  C:\Users\euanm\AppData\Local\Temp\ccz9XhOH.s 			page 89


 4763 05e7 46415354 		.ascii	"FAST_DUTY_CYCLE_2\000"
 4763      5F445554 
 4763      595F4359 
 4763      434C455F 
 4763      3200
 4764              	.LASF45:
 4765 05f9 705F6D73 		.ascii	"p_msg\000"
 4765      6700
 4766              	.LASF21:
 4767 05ff 746D6F64 		.ascii	"tmode_t\000"
 4767      655F7400 
 4768              	.LASF85:
 4769 0607 534D5052 		.ascii	"SMPR1\000"
 4769      3100
 4770              	.LASF86:
 4771 060d 534D5052 		.ascii	"SMPR2\000"
 4771      3200
 4772              	.LASF82:
 4773 0613 6D61696E 		.ascii	"mainthread\000"
 4773      74687265 
 4773      616400
 4774              	.LASF144:
 4775 061e 4F535045 		.ascii	"OSPEEDR\000"
 4775      45445200 
 4776              	.LASF15:
 4777 0626 75696E74 		.ascii	"uint16_t\000"
 4777      31365F74 
 4777      00
 4778              	.LASF50:
 4779 062f 74687265 		.ascii	"thread_reference_t\000"
 4779      61645F72 
 4779      65666572 
 4779      656E6365 
 4779      5F7400
 4780              	.LASF20:
 4781 0642 7274636E 		.ascii	"rtcnt_t\000"
 4781      745F7400 
 4782              	.LASF169:
 4783 064a 6F705F6D 		.ascii	"op_mode\000"
 4783      6F646500 
 4784              	.LASF154:
 4785 0652 4932435F 		.ascii	"I2C_READY\000"
 4785      52454144 
 4785      5900
 4786              	.LASF175:
 4787 065c 636F6E66 		.ascii	"config\000"
 4787      696700
 4788              	.LASF95:
 4789 0663 4A445231 		.ascii	"JDR1\000"
 4789      00
 4790              	.LASF98:
 4791 0668 4A445234 		.ascii	"JDR4\000"
 4791      00
 4792              	.LASF48:
 4793 066d 705F7265 		.ascii	"p_realprio\000"
 4793      616C7072 
 4793      696F00
ARM GAS  C:\Users\euanm\AppData\Local\Temp\ccz9XhOH.s 			page 90


 4794              	.LASF2:
 4795 0678 73686F72 		.ascii	"short int\000"
 4795      7420696E 
 4795      7400
 4796              	.LASF63:
 4797 0682 725F6375 		.ascii	"r_current\000"
 4797      7272656E 
 4797      7400
 4798              	.LASF46:
 4799 068c 705F6570 		.ascii	"p_epending\000"
 4799      656E6469 
 4799      6E6700
 4800              	.LASF128:
 4801 0697 6D5F7175 		.ascii	"m_queue\000"
 4801      65756500 
 4802              	.LASF7:
 4803 069f 6C6F6E67 		.ascii	"long int\000"
 4803      20696E74 
 4803      00
 4804              	.LASF114:
 4805 06a8 706F7274 		.ascii	"port_intctx\000"
 4805      5F696E74 
 4805      63747800 
 4806              	.LASF159:
 4807 06b4 69326361 		.ascii	"i2caddr_t\000"
 4807      6464725F 
 4807      7400
 4808              	.LASF194:
 4809 06be 49544D5F 		.ascii	"ITM_RxBuffer\000"
 4809      52784275 
 4809      66666572 
 4809      00
 4810              	.LASF157:
 4811 06cb 4932435F 		.ascii	"I2C_LOCKED\000"
 4811      4C4F434B 
 4811      454400
 4812              	.LASF190:
 4813 06d6 68775F73 		.ascii	"hw_stop_i2c\000"
 4813      746F705F 
 4813      69326300 
 4814              	.LASF79:
 4815 06e2 63685F73 		.ascii	"ch_system\000"
 4815      79737465 
 4815      6D00
 4816              	.LASF143:
 4817 06ec 4F545950 		.ascii	"OTYPER\000"
 4817      455200
 4818              	.LASF31:
 4819 06f3 705F6E65 		.ascii	"p_next\000"
 4819      787400
 4820              	.LASF18:
 4821 06fa 75696E74 		.ascii	"uint64_t\000"
 4821      36345F74 
 4821      00
 4822              	.LASF34:
 4823 0703 705F6374 		.ascii	"p_ctx\000"
 4823      7800
ARM GAS  C:\Users\euanm\AppData\Local\Temp\ccz9XhOH.s 			page 91


 4824              	.LASF80:
 4825 0709 726C6973 		.ascii	"rlist\000"
 4825      7400
 4826              	.LASF3:
 4827 070f 5F5F7569 		.ascii	"__uint8_t\000"
 4827      6E74385F 
 4827      7400
 4828              	.LASF96:
 4829 0719 4A445232 		.ascii	"JDR2\000"
 4829      00
 4830              	.LASF97:
 4831 071e 4A445233 		.ascii	"JDR3\000"
 4831      00
 4832              	.LASF102:
 4833 0723 4D314152 		.ascii	"M1AR\000"
 4833      00
 4834              	.LASF91:
 4835 0728 53515231 		.ascii	"SQR1\000"
 4835      00
 4836              	.LASF92:
 4837 072d 53515232 		.ascii	"SQR2\000"
 4837      00
 4838              	.LASF32:
 4839 0732 705F7072 		.ascii	"p_prev\000"
 4839      657600
 4840              	.LASF110:
 4841 0739 454E4142 		.ascii	"ENABLE\000"
 4841      4C4500
 4842              	.LASF84:
 4843 0740 73697A65 		.ascii	"sizetype\000"
 4843      74797065 
 4843      00
 4844              	.LASF23:
 4845 0749 74726566 		.ascii	"trefs_t\000"
 4845      735F7400 
 4846              	.LASF9:
 4847 0751 6C6F6E67 		.ascii	"long unsigned int\000"
 4847      20756E73 
 4847      69676E65 
 4847      6420696E 
 4847      7400
 4848              	.LASF56:
 4849 0763 72656164 		.ascii	"ready_list_t\000"
 4849      795F6C69 
 4849      73745F74 
 4849      00
 4850              	.LASF187:
 4851 0770 68775F73 		.ascii	"hw_setup_adc_channels\000"
 4851      65747570 
 4851      5F616463 
 4851      5F636861 
 4851      6E6E656C 
 4852              	.LASF16:
 4853 0786 696E7433 		.ascii	"int32_t\000"
 4853      325F7400 
 4854              	.LASF162:
 4855 078e 4F504D4F 		.ascii	"OPMODE_SMBUS_DEVICE\000"
ARM GAS  C:\Users\euanm\AppData\Local\Temp\ccz9XhOH.s 			page 92


 4855      44455F53 
 4855      4D425553 
 4855      5F444556 
 4855      49434500 
 4856              	.LASF178:
 4857 07a2 74687265 		.ascii	"thread\000"
 4857      616400
 4858              	.LASF121:
 4859 07a9 77747365 		.ascii	"wtsemp\000"
 4859      6D7000
 4860              	.LASF153:
 4861 07b0 4932435F 		.ascii	"I2C_STOP\000"
 4861      53544F50 
 4861      00
 4862              	.LASF132:
 4863 07b9 6D757465 		.ascii	"mutex_t\000"
 4863      785F7400 
 4864              	.LASF1:
 4865 07c1 756E7369 		.ascii	"unsigned char\000"
 4865      676E6564 
 4865      20636861 
 4865      7200
 4866              	.LASF8:
 4867 07cf 5F5F7569 		.ascii	"__uint32_t\000"
 4867      6E743332 
 4867      5F7400
 4868              	.LASF201:
 4869 07da 69326341 		.ascii	"i2cAcquireBus\000"
 4869      63717569 
 4869      72654275 
 4869      7300
 4870              	.LASF72:
 4871 07e8 76697274 		.ascii	"virtual_timers_list_t\000"
 4871      75616C5F 
 4871      74696D65 
 4871      72735F6C 
 4871      6973745F 
 4872              	.LASF40:
 4873 07fe 705F7265 		.ascii	"p_refs\000"
 4873      667300
 4874              	.LASF77:
 4875 0805 70616E69 		.ascii	"panic_msg\000"
 4875      635F6D73 
 4875      6700
 4876              	.LASF208:
 4877 080f 633A5C75 		.ascii	"c:\\users\\euanm\\downloads\\A450S\000"
 4877      73657273 
 4877      5C657561 
 4877      6E6D5C64 
 4877      6F776E6C 
 4878              	.LASF108:
 4879 082e 4932435F 		.ascii	"I2C_TypeDef\000"
 4879      54797065 
 4879      44656600 
 4880              	.LASF205:
 4881 083a 63685468 		.ascii	"chThdSleep\000"
 4881      64536C65 
ARM GAS  C:\Users\euanm\AppData\Local\Temp\ccz9XhOH.s 			page 93


 4881      657000
 4882              	.LASF180:
 4883 0845 7278646D 		.ascii	"rxdmamode\000"
 4883      616D6F64 
 4883      6500
 4884              	.LASF41:
 4885 084f 705F7072 		.ascii	"p_preempt\000"
 4885      65656D70 
 4885      7400
 4886              	.LASF164:
 4887 0859 6932636F 		.ascii	"i2copmode_t\000"
 4887      706D6F64 
 4887      655F7400 
 4888              	.LASF179:
 4889 0865 61646472 		.ascii	"addr\000"
 4889      00
 4890              	.LASF174:
 4891 086a 73746174 		.ascii	"state\000"
 4891      6500
 4892              	.LASF67:
 4893 0870 76745F6E 		.ascii	"vt_next\000"
 4893      65787400 
 4894              	.LASF192:
 4895 0878 6932635F 		.ascii	"i2c_running\000"
 4895      72756E6E 
 4895      696E6700 
 4896              	.LASF198:
 4897 0884 5F70616C 		.ascii	"_pal_lld_setgroupmode\000"
 4897      5F6C6C64 
 4897      5F736574 
 4897      67726F75 
 4897      706D6F64 
 4898              	.LASF78:
 4899 089a 63685F73 		.ascii	"ch_system_t\000"
 4899      79737465 
 4899      6D5F7400 
 4900              	.LASF196:
 4901 08a6 73657276 		.ascii	"servos\000"
 4901      6F7300
 4902              	.LASF120:
 4903 08ad 77747472 		.ascii	"wttrp\000"
 4903      7000
 4904              	.LASF130:
 4905 08b3 6D5F6E65 		.ascii	"m_next\000"
 4905      787400
 4906              	.LASF0:
 4907 08ba 7369676E 		.ascii	"signed char\000"
 4907      65642063 
 4907      68617200 
 4908              	.LASF5:
 4909 08c6 73686F72 		.ascii	"short unsigned int\000"
 4909      7420756E 
 4909      7369676E 
 4909      65642069 
 4909      6E7400
 4910              	.LASF60:
 4911 08d9 725F6374 		.ascii	"r_ctx\000"
ARM GAS  C:\Users\euanm\AppData\Local\Temp\ccz9XhOH.s 			page 94


 4911      7800
 4912              	.LASF112:
 4913 08df 73746B61 		.ascii	"stkalign_t\000"
 4913      6C69676E 
 4913      5F7400
 4914              	.LASF44:
 4915 08ea 705F6D73 		.ascii	"p_msgqueue\000"
 4915      67717565 
 4915      756500
 4916              	.LASF87:
 4917 08f5 4A4F4652 		.ascii	"JOFR1\000"
 4917      3100
 4918              	.LASF88:
 4919 08fb 4A4F4652 		.ascii	"JOFR2\000"
 4919      3200
 4920              	.LASF89:
 4921 0901 4A4F4652 		.ascii	"JOFR3\000"
 4921      3300
 4922              	.LASF90:
 4923 0907 4A4F4652 		.ascii	"JOFR4\000"
 4923      3400
 4924              	.LASF68:
 4925 090d 76745F70 		.ascii	"vt_prev\000"
 4925      72657600 
 4926              	.LASF195:
 4927 0915 49324344 		.ascii	"I2CD2\000"
 4927      3200
 4928              	.LASF118:
 4929 091b 65786974 		.ascii	"exitcode\000"
 4929      636F6465 
 4929      00
 4930              	.LASF138:
 4931 0924 73656C66 		.ascii	"selfindex\000"
 4931      696E6465 
 4931      7800
 4932              	.LASF199:
 4933 092e 4144435F 		.ascii	"ADC_RegularChannelConfig\000"
 4933      52656775 
 4933      6C617243 
 4933      68616E6E 
 4933      656C436F 
 4934              	.LASF147:
 4935 0947 4C434B52 		.ascii	"LCKR\000"
 4935      00
 4936              	.LASF191:
 4937 094c 68775F74 		.ascii	"hw_try_restore_i2c\000"
 4937      72795F72 
 4937      6573746F 
 4937      72655F69 
 4937      326300
 4938              	.LASF135:
 4939 095f 73747265 		.ascii	"stream\000"
 4939      616D00
 4940              		.ident	"GCC: (GNU Tools for ARM Embedded Processors) 5.4.1 20160919 (release) [ARM/embedded-5-bran
ARM GAS  C:\Users\euanm\AppData\Local\Temp\ccz9XhOH.s 			page 95


DEFINED SYMBOLS
                            *ABS*:00000000 hw_A200S.c
C:\Users\euanm\AppData\Local\Temp\ccz9XhOH.s:22     .text.hw_init_gpio:00000000 $t
C:\Users\euanm\AppData\Local\Temp\ccz9XhOH.s:28     .text.hw_init_gpio:00000000 hw_init_gpio
C:\Users\euanm\AppData\Local\Temp\ccz9XhOH.s:247    .text.hw_init_gpio:00000148 $d
C:\Users\euanm\AppData\Local\Temp\ccz9XhOH.s:254    .text.hw_setup_adc_channels:00000000 $t
C:\Users\euanm\AppData\Local\Temp\ccz9XhOH.s:260    .text.hw_setup_adc_channels:00000000 hw_setup_adc_channels
C:\Users\euanm\AppData\Local\Temp\ccz9XhOH.s:401    .text.hw_setup_adc_channels:000000cc $d
C:\Users\euanm\AppData\Local\Temp\ccz9XhOH.s:408    .text.hw_setup_servo_outputs:00000000 $t
C:\Users\euanm\AppData\Local\Temp\ccz9XhOH.s:414    .text.hw_setup_servo_outputs:00000000 hw_setup_servo_outputs
C:\Users\euanm\AppData\Local\Temp\ccz9XhOH.s:461    .text.hw_setup_servo_outputs:00000028 $d
C:\Users\euanm\AppData\Local\Temp\ccz9XhOH.s:467    .text.hw_start_i2c:00000000 $t
C:\Users\euanm\AppData\Local\Temp\ccz9XhOH.s:473    .text.hw_start_i2c:00000000 hw_start_i2c
C:\Users\euanm\AppData\Local\Temp\ccz9XhOH.s:526    .text.hw_start_i2c:00000040 $d
C:\Users\euanm\AppData\Local\Temp\ccz9XhOH.s:534    .text.hw_stop_i2c:00000000 $t
C:\Users\euanm\AppData\Local\Temp\ccz9XhOH.s:540    .text.hw_stop_i2c:00000000 hw_stop_i2c
C:\Users\euanm\AppData\Local\Temp\ccz9XhOH.s:592    .text.hw_stop_i2c:0000003c $d
C:\Users\euanm\AppData\Local\Temp\ccz9XhOH.s:599    .text.hw_try_restore_i2c:00000000 $t
C:\Users\euanm\AppData\Local\Temp\ccz9XhOH.s:605    .text.hw_try_restore_i2c:00000000 hw_try_restore_i2c
C:\Users\euanm\AppData\Local\Temp\ccz9XhOH.s:754    .text.hw_try_restore_i2c:000000b4 $d
C:\Users\euanm\AppData\Local\Temp\ccz9XhOH.s:765    .bss.i2c_running:00000000 i2c_running
C:\Users\euanm\AppData\Local\Temp\ccz9XhOH.s:766    .bss.i2c_running:00000000 $d
C:\Users\euanm\AppData\Local\Temp\ccz9XhOH.s:768    .rodata.i2cfg:00000000 $d
C:\Users\euanm\AppData\Local\Temp\ccz9XhOH.s:772    .rodata.i2cfg:00000000 i2cfg
                     .debug_frame:00000010 $d

UNDEFINED SYMBOLS
RCC_AHB1PeriphClockCmd
_pal_lld_setgroupmode
ADC_RegularChannelConfig
ADC_InjectedChannelConfig
servos
i2cAcquireBus
i2cStart
i2cReleaseBus
I2CD2
i2cStop
chThdSleep
