ARM GAS  C:\Users\euanm\AppData\Local\Temp\ccz9XhOH.s 			page 1


   1              		.syntax unified
   2              		.cpu cortex-m4
   3              		.eabi_attribute 27, 1
   4              		.eabi_attribute 28, 1
   5              		.fpu fpv4-sp-d16
   6              		.eabi_attribute 20, 1
   7              		.eabi_attribute 21, 1
   8              		.eabi_attribute 23, 3
   9              		.eabi_attribute 24, 1
  10              		.eabi_attribute 25, 1
  11              		.eabi_attribute 26, 1
  12              		.eabi_attribute 30, 2
  13              		.eabi_attribute 34, 1
  14              		.eabi_attribute 18, 4
  15              		.thumb
  16              		.syntax unified
  17              		.file	"hw_A200S.c"
  18              		.text
  19              	.Ltext0:
  20              		.cfi_sections	.debug_frame
  21              		.section	.text.hw_init_gpio,"ax",%progbits
  22              		.align	2
  23              		.p2align 4,,15
  24              		.global	hw_init_gpio
  25              		.thumb
  26              		.thumb_func
  27              		.type	hw_init_gpio, %function
  28              	hw_init_gpio:
  29              	.LFB256:
  30              		.file 1 "hwconf/hw_A200S.c"
  31              		.loc 1 36 0
  32              		.cfi_startproc
  33              		@ args = 0, pretend = 0, frame = 0
  34              		@ frame_needed = 0, uses_anonymous_args = 0
  35              		.loc 1 38 0
  36 0000 0121     		movs	r1, #1
  37              		.loc 1 36 0
  38 0002 F8B5     		push	{r3, r4, r5, r6, r7, lr}
  39              		.cfi_def_cfa_offset 24
  40              		.cfi_offset 3, -24
  41              		.cfi_offset 4, -20
  42              		.cfi_offset 5, -16
  43              		.cfi_offset 6, -12
  44              		.cfi_offset 7, -8
  45              		.cfi_offset 14, -4
  46              		.loc 1 38 0
  47 0004 0846     		mov	r0, r1
  48              		.loc 1 43 0
  49 0006 504C     		ldr	r4, .L3
  50              		.loc 1 57 0
  51 0008 504E     		ldr	r6, .L3+4
  52              		.loc 1 62 0
  53 000a 514D     		ldr	r5, .L3+8
  54              		.loc 1 38 0
  55 000c FFF7FEFF 		bl	RCC_AHB1PeriphClockCmd
  56              	.LVL0:
  57              		.loc 1 39 0
ARM GAS  C:\Users\euanm\AppData\Local\Temp\ccz9XhOH.s 			page 2


  58 0010 0121     		movs	r1, #1
  59 0012 0220     		movs	r0, #2
  60 0014 FFF7FEFF 		bl	RCC_AHB1PeriphClockCmd
  61              	.LVL1:
  62              		.loc 1 40 0
  63 0018 0121     		movs	r1, #1
  64 001a 0420     		movs	r0, #4
  65 001c FFF7FEFF 		bl	RCC_AHB1PeriphClockCmd
  66              	.LVL2:
  67              		.loc 1 43 0
  68 0020 2046     		mov	r0, r4
  69 0022 1922     		movs	r2, #25
  70 0024 1021     		movs	r1, #16
  71 0026 FFF7FEFF 		bl	_pal_lld_setgroupmode
  72              	.LVL3:
  73              		.loc 1 54 0
  74 002a 4FF48067 		mov	r7, #1024
  75              		.loc 1 46 0
  76 002e 2046     		mov	r0, r4
  77 0030 1922     		movs	r2, #25
  78 0032 2021     		movs	r1, #32
  79 0034 FFF7FEFF 		bl	_pal_lld_setgroupmode
  80              	.LVL4:
  81              		.loc 1 51 0
  82 0038 2046     		mov	r0, r4
  83 003a 3946     		mov	r1, r7
  84 003c 1922     		movs	r2, #25
  85 003e FFF7FEFF 		bl	_pal_lld_setgroupmode
  86              	.LVL5:
  87              		.loc 1 57 0
  88 0042 3046     		mov	r0, r6
  89              		.loc 1 54 0
  90 0044 6783     		strh	r7, [r4, #26]	@ movhi
  91              		.loc 1 57 0
  92 0046 1922     		movs	r2, #25
  93 0048 4FF48051 		mov	r1, #4096
  94 004c FFF7FEFF 		bl	_pal_lld_setgroupmode
  95              	.LVL6:
  96              		.loc 1 62 0
  97 0050 2846     		mov	r0, r5
  98 0052 9A22     		movs	r2, #154
  99 0054 4FF48071 		mov	r1, #256
 100 0058 FFF7FEFF 		bl	_pal_lld_setgroupmode
 101              	.LVL7:
 102              		.loc 1 65 0
 103 005c 2846     		mov	r0, r5
 104 005e 9A22     		movs	r2, #154
 105 0060 4FF40071 		mov	r1, #512
 106 0064 FFF7FEFF 		bl	_pal_lld_setgroupmode
 107              	.LVL8:
 108              		.loc 1 68 0
 109 0068 3946     		mov	r1, r7
 110 006a 2846     		mov	r0, r5
 111 006c 9A22     		movs	r2, #154
 112 006e FFF7FEFF 		bl	_pal_lld_setgroupmode
 113              	.LVL9:
 114              		.loc 1 72 0
ARM GAS  C:\Users\euanm\AppData\Local\Temp\ccz9XhOH.s 			page 3


 115 0072 3046     		mov	r0, r6
 116 0074 9A22     		movs	r2, #154
 117 0076 4FF40051 		mov	r1, #8192
 118 007a FFF7FEFF 		bl	_pal_lld_setgroupmode
 119              	.LVL10:
 120              		.loc 1 75 0
 121 007e 3046     		mov	r0, r6
 122 0080 9A22     		movs	r2, #154
 123 0082 4FF48041 		mov	r1, #16384
 124 0086 FFF7FEFF 		bl	_pal_lld_setgroupmode
 125              	.LVL11:
 126              		.loc 1 78 0
 127 008a 3046     		mov	r0, r6
 128 008c 9A22     		movs	r2, #154
 129 008e 4FF40041 		mov	r1, #32768
 130 0092 FFF7FEFF 		bl	_pal_lld_setgroupmode
 131              	.LVL12:
 132              		.loc 1 83 0
 133 0096 3046     		mov	r0, r6
 134 0098 2022     		movs	r2, #32
 135 009a 4021     		movs	r1, #64
 136 009c FFF7FEFF 		bl	_pal_lld_setgroupmode
 137              	.LVL13:
 138              		.loc 1 84 0
 139 00a0 3046     		mov	r0, r6
 140 00a2 2022     		movs	r2, #32
 141 00a4 8021     		movs	r1, #128
 142 00a6 FFF7FEFF 		bl	_pal_lld_setgroupmode
 143              	.LVL14:
 144              		.loc 1 85 0
 145 00aa 2046     		mov	r0, r4
 146 00ac 2022     		movs	r2, #32
 147 00ae 4FF40061 		mov	r1, #2048
 148 00b2 FFF7FEFF 		bl	_pal_lld_setgroupmode
 149              	.LVL15:
 150              		.loc 1 88 0
 151 00b6 2046     		mov	r0, r4
 152 00b8 2022     		movs	r2, #32
 153 00ba 4FF48051 		mov	r1, #4096
 154 00be FFF7FEFF 		bl	_pal_lld_setgroupmode
 155              	.LVL16:
 156              		.loc 1 91 0
 157 00c2 2846     		mov	r0, r5
 158 00c4 0322     		movs	r2, #3
 159 00c6 0121     		movs	r1, #1
 160 00c8 FFF7FEFF 		bl	_pal_lld_setgroupmode
 161              	.LVL17:
 162              		.loc 1 92 0
 163 00cc 2846     		mov	r0, r5
 164 00ce 0322     		movs	r2, #3
 165 00d0 0221     		movs	r1, #2
 166 00d2 FFF7FEFF 		bl	_pal_lld_setgroupmode
 167              	.LVL18:
 168              		.loc 1 93 0
 169 00d6 2846     		mov	r0, r5
 170 00d8 0322     		movs	r2, #3
 171 00da 0421     		movs	r1, #4
ARM GAS  C:\Users\euanm\AppData\Local\Temp\ccz9XhOH.s 			page 4


 172 00dc FFF7FEFF 		bl	_pal_lld_setgroupmode
 173              	.LVL19:
 174              		.loc 1 94 0
 175 00e0 2846     		mov	r0, r5
 176 00e2 0322     		movs	r2, #3
 177 00e4 0821     		movs	r1, #8
 178 00e6 FFF7FEFF 		bl	_pal_lld_setgroupmode
 179              	.LVL20:
 180              		.loc 1 95 0
 181 00ea 2846     		mov	r0, r5
 182 00ec 0322     		movs	r2, #3
 183 00ee 1021     		movs	r1, #16
 184 00f0 FFF7FEFF 		bl	_pal_lld_setgroupmode
 185              	.LVL21:
 186              		.loc 1 96 0
 187 00f4 2846     		mov	r0, r5
 188 00f6 0322     		movs	r2, #3
 189 00f8 2021     		movs	r1, #32
 190 00fa FFF7FEFF 		bl	_pal_lld_setgroupmode
 191              	.LVL22:
 192              		.loc 1 97 0
 193 00fe 2846     		mov	r0, r5
 194 0100 0322     		movs	r2, #3
 195 0102 4021     		movs	r1, #64
 196 0104 FFF7FEFF 		bl	_pal_lld_setgroupmode
 197              	.LVL23:
 198              		.loc 1 99 0
 199 0108 3046     		mov	r0, r6
 200 010a 0322     		movs	r2, #3
 201 010c 0121     		movs	r1, #1
 202 010e FFF7FEFF 		bl	_pal_lld_setgroupmode
 203              	.LVL24:
 204              		.loc 1 100 0
 205 0112 3046     		mov	r0, r6
 206 0114 0322     		movs	r2, #3
 207 0116 0221     		movs	r1, #2
 208 0118 FFF7FEFF 		bl	_pal_lld_setgroupmode
 209              	.LVL25:
 210              		.loc 1 102 0
 211 011c 2046     		mov	r0, r4
 212 011e 0322     		movs	r2, #3
 213 0120 0121     		movs	r1, #1
 214 0122 FFF7FEFF 		bl	_pal_lld_setgroupmode
 215              	.LVL26:
 216              		.loc 1 103 0
 217 0126 2046     		mov	r0, r4
 218 0128 0322     		movs	r2, #3
 219 012a 0221     		movs	r1, #2
 220 012c FFF7FEFF 		bl	_pal_lld_setgroupmode
 221              	.LVL27:
 222              		.loc 1 104 0
 223 0130 2046     		mov	r0, r4
 224 0132 0322     		movs	r2, #3
 225 0134 0421     		movs	r1, #4
 226 0136 FFF7FEFF 		bl	_pal_lld_setgroupmode
 227              	.LVL28:
 228              		.loc 1 105 0
ARM GAS  C:\Users\euanm\AppData\Local\Temp\ccz9XhOH.s 			page 5


 229 013a 2046     		mov	r0, r4
 230 013c 0322     		movs	r2, #3
 231 013e 0821     		movs	r1, #8
 232              		.loc 1 106 0
 233 0140 BDE8F840 		pop	{r3, r4, r5, r6, r7, lr}
 234              		.cfi_restore 14
 235              		.cfi_restore 7
 236              		.cfi_restore 6
 237              		.cfi_restore 5
 238              		.cfi_restore 4
 239              		.cfi_restore 3
 240              		.cfi_def_cfa_offset 0
 241              		.loc 1 105 0
 242 0144 FFF7FEBF 		b	_pal_lld_setgroupmode
 243              	.LVL29:
 244              	.L4:
 245              		.align	2
 246              	.L3:
 247 0148 00080240 		.word	1073874944
 248 014c 00040240 		.word	1073873920
 249 0150 00000240 		.word	1073872896
 250              		.cfi_endproc
 251              	.LFE256:
 252              		.size	hw_init_gpio, .-hw_init_gpio
 253              		.section	.text.hw_setup_adc_channels,"ax",%progbits
 254              		.align	2
 255              		.p2align 4,,15
 256              		.global	hw_setup_adc_channels
 257              		.thumb
 258              		.thumb_func
 259              		.type	hw_setup_adc_channels, %function
 260              	hw_setup_adc_channels:
 261              	.LFB257:
 262              		.loc 1 108 0
 263              		.cfi_startproc
 264              		@ args = 0, pretend = 0, frame = 0
 265              		@ frame_needed = 0, uses_anonymous_args = 0
 266 0000 70B5     		push	{r4, r5, r6, lr}
 267              		.cfi_def_cfa_offset 16
 268              		.cfi_offset 4, -16
 269              		.cfi_offset 5, -12
 270              		.cfi_offset 6, -8
 271              		.cfi_offset 14, -4
 272              		.loc 1 110 0
 273 0002 324D     		ldr	r5, .L7
 274              		.loc 1 116 0
 275 0004 324C     		ldr	r4, .L7+4
 276              		.loc 1 122 0
 277 0006 334E     		ldr	r6, .L7+8
 278              		.loc 1 110 0
 279 0008 0123     		movs	r3, #1
 280 000a 2846     		mov	r0, r5
 281 000c 1A46     		mov	r2, r3
 282 000e 0021     		movs	r1, #0
 283 0010 FFF7FEFF 		bl	ADC_RegularChannelConfig
 284              	.LVL30:
 285              		.loc 1 111 0
ARM GAS  C:\Users\euanm\AppData\Local\Temp\ccz9XhOH.s 			page 6


 286 0014 2846     		mov	r0, r5
 287 0016 0123     		movs	r3, #1
 288 0018 0222     		movs	r2, #2
 289 001a 0821     		movs	r1, #8
 290 001c FFF7FEFF 		bl	ADC_RegularChannelConfig
 291              	.LVL31:
 292              		.loc 1 112 0
 293 0020 2846     		mov	r0, r5
 294 0022 0123     		movs	r3, #1
 295 0024 0322     		movs	r2, #3
 296 0026 1121     		movs	r1, #17
 297 0028 FFF7FEFF 		bl	ADC_RegularChannelConfig
 298              	.LVL32:
 299              		.loc 1 113 0
 300 002c 0422     		movs	r2, #4
 301 002e 2846     		mov	r0, r5
 302 0030 1146     		mov	r1, r2
 303 0032 0123     		movs	r3, #1
 304 0034 FFF7FEFF 		bl	ADC_RegularChannelConfig
 305              	.LVL33:
 306              		.loc 1 116 0
 307 0038 0123     		movs	r3, #1
 308 003a 2046     		mov	r0, r4
 309 003c 1A46     		mov	r2, r3
 310 003e 1946     		mov	r1, r3
 311 0040 FFF7FEFF 		bl	ADC_RegularChannelConfig
 312              	.LVL34:
 313              		.loc 1 117 0
 314 0044 2046     		mov	r0, r4
 315 0046 0123     		movs	r3, #1
 316 0048 0222     		movs	r2, #2
 317 004a 0921     		movs	r1, #9
 318 004c FFF7FEFF 		bl	ADC_RegularChannelConfig
 319              	.LVL35:
 320              		.loc 1 118 0
 321 0050 2046     		mov	r0, r4
 322 0052 0123     		movs	r3, #1
 323 0054 0322     		movs	r2, #3
 324 0056 0621     		movs	r1, #6
 325 0058 FFF7FEFF 		bl	ADC_RegularChannelConfig
 326              	.LVL36:
 327              		.loc 1 119 0
 328 005c 2046     		mov	r0, r4
 329 005e 0123     		movs	r3, #1
 330 0060 0422     		movs	r2, #4
 331 0062 0521     		movs	r1, #5
 332 0064 FFF7FEFF 		bl	ADC_RegularChannelConfig
 333              	.LVL37:
 334              		.loc 1 122 0
 335 0068 0123     		movs	r3, #1
 336 006a 3046     		mov	r0, r6
 337 006c 1A46     		mov	r2, r3
 338 006e 0221     		movs	r1, #2
 339 0070 FFF7FEFF 		bl	ADC_RegularChannelConfig
 340              	.LVL38:
 341              		.loc 1 123 0
 342 0074 3046     		mov	r0, r6
ARM GAS  C:\Users\euanm\AppData\Local\Temp\ccz9XhOH.s 			page 7


 343 0076 0123     		movs	r3, #1
 344 0078 0222     		movs	r2, #2
 345 007a 0321     		movs	r1, #3
 346 007c FFF7FEFF 		bl	ADC_RegularChannelConfig
 347              	.LVL39:
 348              		.loc 1 124 0
 349 0080 3046     		mov	r0, r6
 350 0082 0123     		movs	r3, #1
 351 0084 0322     		movs	r2, #3
 352 0086 0C21     		movs	r1, #12
 353 0088 FFF7FEFF 		bl	ADC_RegularChannelConfig
 354              	.LVL40:
 355              		.loc 1 125 0
 356 008c 3046     		mov	r0, r6
 357 008e 0123     		movs	r3, #1
 358 0090 0422     		movs	r2, #4
 359 0092 0321     		movs	r1, #3
 360 0094 FFF7FEFF 		bl	ADC_RegularChannelConfig
 361              	.LVL41:
 362              		.loc 1 128 0
 363 0098 0123     		movs	r3, #1
 364 009a 2846     		mov	r0, r5
 365 009c 1A46     		mov	r2, r3
 366 009e 0921     		movs	r1, #9
 367 00a0 FFF7FEFF 		bl	ADC_InjectedChannelConfig
 368              	.LVL42:
 369              		.loc 1 129 0
 370 00a4 2846     		mov	r0, r5
 371 00a6 0123     		movs	r3, #1
 372 00a8 0222     		movs	r2, #2
 373 00aa 0821     		movs	r1, #8
 374 00ac FFF7FEFF 		bl	ADC_InjectedChannelConfig
 375              	.LVL43:
 376              		.loc 1 130 0
 377 00b0 0123     		movs	r3, #1
 378 00b2 2046     		mov	r0, r4
 379 00b4 1A46     		mov	r2, r3
 380 00b6 0821     		movs	r1, #8
 381 00b8 FFF7FEFF 		bl	ADC_InjectedChannelConfig
 382              	.LVL44:
 383              		.loc 1 131 0
 384 00bc 2046     		mov	r0, r4
 385 00be 0123     		movs	r3, #1
 386 00c0 0222     		movs	r2, #2
 387 00c2 0921     		movs	r1, #9
 388              		.loc 1 132 0
 389 00c4 BDE87040 		pop	{r4, r5, r6, lr}
 390              		.cfi_restore 14
 391              		.cfi_restore 6
 392              		.cfi_restore 5
 393              		.cfi_restore 4
 394              		.cfi_def_cfa_offset 0
 395              		.loc 1 131 0
 396 00c8 FFF7FEBF 		b	ADC_InjectedChannelConfig
 397              	.LVL45:
 398              	.L8:
 399              		.align	2
ARM GAS  C:\Users\euanm\AppData\Local\Temp\ccz9XhOH.s 			page 8


 400              	.L7:
 401 00cc 00200140 		.word	1073815552
 402 00d0 00210140 		.word	1073815808
 403 00d4 00220140 		.word	1073816064
 404              		.cfi_endproc
 405              	.LFE257:
 406              		.size	hw_setup_adc_channels, .-hw_setup_adc_channels
 407              		.section	.text.hw_setup_servo_outputs,"ax",%progbits
 408              		.align	2
 409              		.p2align 4,,15
 410              		.global	hw_setup_servo_outputs
 411              		.thumb
 412              		.thumb_func
 413              		.type	hw_setup_servo_outputs, %function
 414              	hw_setup_servo_outputs:
 415              	.LFB258:
 416              		.loc 1 134 0
 417              		.cfi_startproc
 418              		@ args = 0, pretend = 0, frame = 0
 419              		@ frame_needed = 0, uses_anonymous_args = 0
 420 0000 38B5     		push	{r3, r4, r5, lr}
 421              		.cfi_def_cfa_offset 16
 422              		.cfi_offset 3, -16
 423              		.cfi_offset 4, -12
 424              		.cfi_offset 5, -8
 425              		.cfi_offset 14, -4
 426              		.loc 1 136 0
 427 0002 0121     		movs	r1, #1
 428 0004 0220     		movs	r0, #2
 429 0006 FFF7FEFF 		bl	RCC_AHB1PeriphClockCmd
 430              	.LVL46:
 431              		.loc 1 139 0
 432 000a 074B     		ldr	r3, .L11
 433 000c 0749     		ldr	r1, .L11+4
 434 000e 5960     		str	r1, [r3, #4]
 435              		.loc 1 141 0
 436 0010 0022     		movs	r2, #0
 437              		.loc 1 140 0
 438 0012 0525     		movs	r5, #5
 439              		.loc 1 142 0
 440 0014 8024     		movs	r4, #128
 441              		.loc 1 145 0
 442 0016 0420     		movs	r0, #4
 443              		.loc 1 140 0
 444 0018 9D60     		str	r5, [r3, #8]
 445              		.loc 1 141 0
 446 001a 9A70     		strb	r2, [r3, #2]
 447              		.loc 1 142 0
 448 001c 1C80     		strh	r4, [r3]	@ movhi
 449              		.loc 1 144 0
 450 001e 1961     		str	r1, [r3, #16]
 451              		.loc 1 145 0
 452 0020 5861     		str	r0, [r3, #20]
 453              		.loc 1 146 0
 454 0022 9A73     		strb	r2, [r3, #14]
 455              		.loc 1 147 0
 456 0024 9A81     		strh	r2, [r3, #12]	@ movhi
ARM GAS  C:\Users\euanm\AppData\Local\Temp\ccz9XhOH.s 			page 9


 457 0026 38BD     		pop	{r3, r4, r5, pc}
 458              	.L12:
 459              		.align	2
 460              	.L11:
 461 0028 00000000 		.word	servos
 462 002c 00040240 		.word	1073873920
 463              		.cfi_endproc
 464              	.LFE258:
 465              		.size	hw_setup_servo_outputs, .-hw_setup_servo_outputs
 466              		.section	.text.hw_start_i2c,"ax",%progbits
 467              		.align	2
 468              		.p2align 4,,15
 469              		.global	hw_start_i2c
 470              		.thumb
 471              		.thumb_func
 472              		.type	hw_start_i2c, %function
 473              	hw_start_i2c:
 474              	.LFB259:
 475              		.loc 1 150 0
 476              		.cfi_startproc
 477              		@ args = 0, pretend = 0, frame = 0
 478              		@ frame_needed = 0, uses_anonymous_args = 0
 479 0000 10B5     		push	{r4, lr}
 480              		.cfi_def_cfa_offset 8
 481              		.cfi_offset 4, -8
 482              		.cfi_offset 14, -4
 483              		.loc 1 153 0
 484 0002 0F4C     		ldr	r4, .L17
 485              		.loc 1 151 0
 486 0004 0F48     		ldr	r0, .L17+4
 487 0006 FFF7FEFF 		bl	i2cAcquireBus
 488              	.LVL47:
 489              		.loc 1 153 0
 490 000a 2378     		ldrb	r3, [r4]	@ zero_extendqisi2
 491 000c 9BB9     		cbnz	r3, .L14
 492              		.loc 1 154 0
 493 000e 40F22E22 		movw	r2, #558
 494 0012 4FF48061 		mov	r1, #1024
 495 0016 0C48     		ldr	r0, .L17+8
 496 0018 FFF7FEFF 		bl	_pal_lld_setgroupmode
 497              	.LVL48:
 498              		.loc 1 159 0
 499 001c 40F22E22 		movw	r2, #558
 500 0020 4FF40061 		mov	r1, #2048
 501 0024 0848     		ldr	r0, .L17+8
 502 0026 FFF7FEFF 		bl	_pal_lld_setgroupmode
 503              	.LVL49:
 504              		.loc 1 165 0
 505 002a 0849     		ldr	r1, .L17+12
 506 002c 0548     		ldr	r0, .L17+4
 507 002e FFF7FEFF 		bl	i2cStart
 508              	.LVL50:
 509              		.loc 1 166 0
 510 0032 0123     		movs	r3, #1
 511 0034 2370     		strb	r3, [r4]
 512              	.L14:
 513              		.loc 1 169 0
ARM GAS  C:\Users\euanm\AppData\Local\Temp\ccz9XhOH.s 			page 10


 514 0036 0348     		ldr	r0, .L17+4
 515              		.loc 1 170 0
 516 0038 BDE81040 		pop	{r4, lr}
 517              		.cfi_restore 14
 518              		.cfi_restore 4
 519              		.cfi_def_cfa_offset 0
 520              		.loc 1 169 0
 521 003c FFF7FEBF 		b	i2cReleaseBus
 522              	.LVL51:
 523              	.L18:
 524              		.align	2
 525              	.L17:
 526 0040 00000000 		.word	.LANCHOR0
 527 0044 00000000 		.word	I2CD2
 528 0048 00040240 		.word	1073873920
 529 004c 00000000 		.word	.LANCHOR1
 530              		.cfi_endproc
 531              	.LFE259:
 532              		.size	hw_start_i2c, .-hw_start_i2c
 533              		.section	.text.hw_stop_i2c,"ax",%progbits
 534              		.align	2
 535              		.p2align 4,,15
 536              		.global	hw_stop_i2c
 537              		.thumb
 538              		.thumb_func
 539              		.type	hw_stop_i2c, %function
 540              	hw_stop_i2c:
 541              	.LFB260:
 542              		.loc 1 172 0
 543              		.cfi_startproc
 544              		@ args = 0, pretend = 0, frame = 0
 545              		@ frame_needed = 0, uses_anonymous_args = 0
 546 0000 10B5     		push	{r4, lr}
 547              		.cfi_def_cfa_offset 8
 548              		.cfi_offset 4, -8
 549              		.cfi_offset 14, -4
 550              		.loc 1 175 0
 551 0002 0E4C     		ldr	r4, .L25
 552              		.loc 1 173 0
 553 0004 0E48     		ldr	r0, .L25+4
 554 0006 FFF7FEFF 		bl	i2cAcquireBus
 555              	.LVL52:
 556              		.loc 1 175 0
 557 000a 2378     		ldrb	r3, [r4]	@ zero_extendqisi2
 558 000c 83B1     		cbz	r3, .L20
 559              		.loc 1 176 0
 560 000e 0022     		movs	r2, #0
 561 0010 4FF48061 		mov	r1, #1024
 562 0014 0B48     		ldr	r0, .L25+8
 563 0016 FFF7FEFF 		bl	_pal_lld_setgroupmode
 564              	.LVL53:
 565              		.loc 1 177 0
 566 001a 0022     		movs	r2, #0
 567 001c 4FF40061 		mov	r1, #2048
 568 0020 0848     		ldr	r0, .L25+8
 569 0022 FFF7FEFF 		bl	_pal_lld_setgroupmode
 570              	.LVL54:
ARM GAS  C:\Users\euanm\AppData\Local\Temp\ccz9XhOH.s 			page 11


 571              		.loc 1 179 0
 572 0026 0648     		ldr	r0, .L25+4
 573 0028 FFF7FEFF 		bl	i2cStop
 574              	.LVL55:
 575              		.loc 1 180 0
 576 002c 0023     		movs	r3, #0
 577 002e 2370     		strb	r3, [r4]
 578              	.L20:
 579              		.loc 1 184 0
 580 0030 0348     		ldr	r0, .L25+4
 581              		.loc 1 185 0
 582 0032 BDE81040 		pop	{r4, lr}
 583              		.cfi_restore 14
 584              		.cfi_restore 4
 585              		.cfi_def_cfa_offset 0
 586              		.loc 1 184 0
 587 0036 FFF7FEBF 		b	i2cReleaseBus
 588              	.LVL56:
 589              	.L26:
 590 003a 00BF     		.align	2
 591              	.L25:
 592 003c 00000000 		.word	.LANCHOR0
 593 0040 00000000 		.word	I2CD2
 594 0044 00040240 		.word	1073873920
 595              		.cfi_endproc
 596              	.LFE260:
 597              		.size	hw_stop_i2c, .-hw_stop_i2c
 598              		.section	.text.hw_try_restore_i2c,"ax",%progbits
 599              		.align	2
 600              		.p2align 4,,15
 601              		.global	hw_try_restore_i2c
 602              		.thumb
 603              		.thumb_func
 604              		.type	hw_try_restore_i2c, %function
 605              	hw_try_restore_i2c:
 606              	.LFB261:
 607              		.loc 1 190 0
 608              		.cfi_startproc
 609              		@ args = 0, pretend = 0, frame = 0
 610              		@ frame_needed = 0, uses_anonymous_args = 0
 611 0000 2DE9F843 		push	{r3, r4, r5, r6, r7, r8, r9, lr}
 612              		.cfi_def_cfa_offset 32
 613              		.cfi_offset 3, -32
 614              		.cfi_offset 4, -28
 615              		.cfi_offset 5, -24
 616              		.cfi_offset 6, -20
 617              		.cfi_offset 7, -16
 618              		.cfi_offset 8, -12
 619              		.cfi_offset 9, -8
 620              		.cfi_offset 14, -4
 621              		.loc 1 191 0
 622 0004 2B4B     		ldr	r3, .L33
 623 0006 1B78     		ldrb	r3, [r3]	@ zero_extendqisi2
 624 0008 0BB9     		cbnz	r3, .L32
 625 000a BDE8F883 		pop	{r3, r4, r5, r6, r7, r8, r9, pc}
 626              	.L32:
 627              		.loc 1 194 0
ARM GAS  C:\Users\euanm\AppData\Local\Temp\ccz9XhOH.s 			page 12


 628 000e 2A4D     		ldr	r5, .L33+4
 629              		.loc 1 192 0
 630 0010 2A48     		ldr	r0, .L33+8
 631 0012 FFF7FEFF 		bl	i2cAcquireBus
 632              	.LVL57:
 633              		.loc 1 194 0
 634 0016 2846     		mov	r0, r5
 635 0018 2C22     		movs	r2, #44
 636 001a 4FF48061 		mov	r1, #1024
 637 001e FFF7FEFF 		bl	_pal_lld_setgroupmode
 638              	.LVL58:
 639              		.loc 1 199 0
 640 0022 2846     		mov	r0, r5
 641 0024 2C22     		movs	r2, #44
 642 0026 4FF40061 		mov	r1, #2048
 643 002a FFF7FEFF 		bl	_pal_lld_setgroupmode
 644              	.LVL59:
 645              		.loc 1 204 0
 646 002e 4FF48067 		mov	r7, #1024
 647              		.loc 1 205 0
 648 0032 4FF40063 		mov	r3, #2048
 649              		.loc 1 204 0
 650 0036 2F83     		strh	r7, [r5, #24]	@ movhi
 651              		.loc 1 207 0
 652 0038 0120     		movs	r0, #1
 653              		.loc 1 205 0
 654 003a 2B83     		strh	r3, [r5, #24]	@ movhi
 655              		.loc 1 207 0
 656 003c FFF7FEFF 		bl	chThdSleep
 657              	.LVL60:
 658              	.LBB2:
 659              		.loc 1 210 0
 660 0040 B946     		mov	r9, r7	@ movhi
 661              	.LBE2:
 662              		.loc 1 207 0
 663 0042 1024     		movs	r4, #16
 664              	.LVL61:
 665              	.L29:
 666              	.LBB3:
 667              		.loc 1 211 0 discriminator 3
 668 0044 0120     		movs	r0, #1
 669              		.loc 1 210 0 discriminator 3
 670 0046 A5F81A90 		strh	r9, [r5, #26]	@ movhi
 671              		.loc 1 211 0 discriminator 3
 672 004a FFF7FEFF 		bl	chThdSleep
 673              	.LVL62:
 674              		.loc 1 212 0 discriminator 3
 675 004e 2F83     		strh	r7, [r5, #24]	@ movhi
 676              		.loc 1 213 0 discriminator 3
 677 0050 0120     		movs	r0, #1
 678 0052 FFF7FEFF 		bl	chThdSleep
 679              	.LVL63:
 680              		.loc 1 209 0 discriminator 3
 681 0056 013C     		subs	r4, r4, #1
 682              	.LVL64:
 683              		.loc 1 210 0 discriminator 3
 684 0058 174E     		ldr	r6, .L33+4
ARM GAS  C:\Users\euanm\AppData\Local\Temp\ccz9XhOH.s 			page 13


 685 005a 4FF48068 		mov	r8, #1024
 686              		.loc 1 209 0 discriminator 3
 687 005e F1D1     		bne	.L29
 688              	.LBE3:
 689              		.loc 1 217 0
 690 0060 4FF40065 		mov	r5, #2048
 691 0064 7583     		strh	r5, [r6, #26]	@ movhi
 692              		.loc 1 218 0
 693 0066 0120     		movs	r0, #1
 694 0068 FFF7FEFF 		bl	chThdSleep
 695              	.LVL65:
 696              		.loc 1 219 0
 697 006c A6F81A80 		strh	r8, [r6, #26]	@ movhi
 698              		.loc 1 220 0
 699 0070 0120     		movs	r0, #1
 700 0072 FFF7FEFF 		bl	chThdSleep
 701              	.LVL66:
 702              		.loc 1 221 0
 703 0076 A6F81880 		strh	r8, [r6, #24]	@ movhi
 704              		.loc 1 222 0
 705 007a 0120     		movs	r0, #1
 706 007c FFF7FEFF 		bl	chThdSleep
 707              	.LVL67:
 708              		.loc 1 237 0
 709 0080 0E4C     		ldr	r4, .L33+8
 710              	.LVL68:
 711              		.loc 1 223 0
 712 0082 3583     		strh	r5, [r6, #24]	@ movhi
 713              		.loc 1 225 0
 714 0084 4146     		mov	r1, r8
 715 0086 3046     		mov	r0, r6
 716 0088 40F22E22 		movw	r2, #558
 717 008c FFF7FEFF 		bl	_pal_lld_setgroupmode
 718              	.LVL69:
 719              		.loc 1 231 0
 720 0090 2946     		mov	r1, r5
 721 0092 3046     		mov	r0, r6
 722 0094 40F22E22 		movw	r2, #558
 723 0098 FFF7FEFF 		bl	_pal_lld_setgroupmode
 724              	.LVL70:
 725              		.loc 1 237 0
 726 009c 0123     		movs	r3, #1
 727              		.loc 1 238 0
 728 009e 2046     		mov	r0, r4
 729 00a0 0749     		ldr	r1, .L33+12
 730              		.loc 1 237 0
 731 00a2 2370     		strb	r3, [r4]
 732              		.loc 1 238 0
 733 00a4 FFF7FEFF 		bl	i2cStart
 734              	.LVL71:
 735              		.loc 1 240 0
 736 00a8 2046     		mov	r0, r4
 737              		.loc 1 242 0
 738 00aa BDE8F843 		pop	{r3, r4, r5, r6, r7, r8, r9, lr}
 739              		.cfi_restore 14
 740              		.cfi_restore 9
 741              		.cfi_restore 8
ARM GAS  C:\Users\euanm\AppData\Local\Temp\ccz9XhOH.s 			page 14


 742              		.cfi_restore 7
 743              		.cfi_restore 6
 744              		.cfi_restore 5
 745              		.cfi_restore 4
 746              		.cfi_restore 3
 747              		.cfi_def_cfa_offset 0
 748              		.loc 1 240 0
 749 00ae FFF7FEBF 		b	i2cReleaseBus
 750              	.LVL72:
 751              	.L34:
 752 00b2 00BF     		.align	2
 753              	.L33:
 754 00b4 00000000 		.word	.LANCHOR0
 755 00b8 00040240 		.word	1073873920
 756 00bc 00000000 		.word	I2CD2
 757 00c0 00000000 		.word	.LANCHOR1
 758              		.cfi_endproc
 759              	.LFE261:
 760              		.size	hw_try_restore_i2c, .-hw_try_restore_i2c
 761              		.section	.bss.i2c_running,"aw",%nobits
 762              		.set	.LANCHOR0,. + 0
 763              		.type	i2c_running, %object
 764              		.size	i2c_running, 1
 765              	i2c_running:
 766 0000 00       		.space	1
 767              		.section	.rodata.i2cfg,"a",%progbits
 768              		.align	2
 769              		.set	.LANCHOR1,. + 0
 770              		.type	i2cfg, %object
 771              		.size	i2cfg, 12
 772              	i2cfg:
 773 0000 01       		.byte	1
 774 0001 000000   		.space	3
 775 0004 A0860100 		.word	100000
 776 0008 01       		.byte	1
 777 0009 000000   		.space	3
 778              		.text
 779              	.Letext0:
 780              		.file 2 "c:\\program files (x86)\\gnu tools arm embedded\\5.4 2016q3\\arm-none-eabi\\include\\mach
 781              		.file 3 "c:\\program files (x86)\\gnu tools arm embedded\\5.4 2016q3\\arm-none-eabi\\include\\sys\
 782              		.file 4 "c:\\program files (x86)\\gnu tools arm embedded\\5.4 2016q3\\lib\\gcc\\arm-none-eabi\\5.4
 783              		.file 5 "ChibiOS_3.0.2/os/rt/ports/ARMCMx/compilers/GCC/chtypes.h"
 784              		.file 6 "ChibiOS_3.0.2/os/rt/include/chsystypes.h"
 785              		.file 7 "ChibiOS_3.0.2/os/rt/include/chschd.h"
 786              		.file 8 "ChibiOS_3.0.2/os/ext/CMSIS/ST/stm32f407xx.h"
 787              		.file 9 "ChibiOS_3.0.2/os/rt/ports/ARMCMx/chcore.h"
 788              		.file 10 "ChibiOS_3.0.2/os/rt/ports/ARMCMx/chcore_v7m.h"
 789              		.file 11 "ChibiOS_3.0.2/os/rt/include/chtm.h"
 790              		.file 12 "ChibiOS_3.0.2/os/rt/include/chsem.h"
 791              		.file 13 "ChibiOS_3.0.2/os/rt/include/chmtx.h"
 792              		.file 14 "ChibiOS_3.0.2/os/hal/ports/STM32/STM32F4xx/stm32_dma.h"
 793              		.file 15 "ChibiOS_3.0.2/os/hal/ports/STM32/LLD/GPIOv2/pal_lld.h"
 794              		.file 16 "ChibiOS_3.0.2/os/ext/CMSIS/ST/stm32f4xx.h"
 795              		.file 17 "ChibiOS_3.0.2/os/hal/include/i2c.h"
 796              		.file 18 "ChibiOS_3.0.2/os/hal/ports/STM32/LLD/I2Cv1/i2c_lld.h"
 797              		.file 19 "./servo.h"
 798              		.file 20 "ChibiOS_3.0.2/os/ext/CMSIS/include/core_cm4.h"
ARM GAS  C:\Users\euanm\AppData\Local\Temp\ccz9XhOH.s 			page 15


 799              		.file 21 "ChibiOS_3.0.2/ext/stdperiph_stm32f4/inc/stm32f4xx_rcc.h"
 800              		.file 22 "ChibiOS_3.0.2/ext/stdperiph_stm32f4/inc/stm32f4xx_adc.h"
 801              		.file 23 "ChibiOS_3.0.2/os/rt/include/chthreads.h"