ARM GAS  C:\Users\euanm\AppData\Local\Temp\ccnlTGs7.s 			page 1


   1              		.syntax unified
   2              		.cpu cortex-m4
   3              		.eabi_attribute 27, 1
   4              		.eabi_attribute 28, 1
   5              		.fpu fpv4-sp-d16
   6              		.eabi_attribute 20, 1
   7              		.eabi_attribute 21, 1
   8              		.eabi_attribute 23, 3
   9              		.eabi_attribute 24, 1
  10              		.eabi_attribute 25, 1
  11              		.eabi_attribute 26, 1
  12              		.eabi_attribute 30, 2
  13              		.eabi_attribute 34, 1
  14              		.eabi_attribute 18, 4
  15              		.thumb
  16              		.syntax unified
  17              		.file	"mc_interface.c"
  18              		.text
  19              	.Ltext0:
  20              		.cfi_sections	.debug_frame
  21              		.section	.text.sample_send_thread,"ax",%progbits
  22              		.align	2
  23              		.p2align 4,,15
  24              		.thumb
  25              		.thumb_func
  26              		.type	sample_send_thread, %function
  27              	sample_send_thread:
  28              	.LFB310:
  29              		.file 1 "mc_interface.c"
  30              		.loc 1 1252 0
  31              		.cfi_startproc
  32              		@ args = 0, pretend = 0, frame = 32
  33              		@ frame_needed = 0, uses_anonymous_args = 0
  34              	.LVL0:
  35 0000 2DE9F04F 		push	{r4, r5, r6, r7, r8, r9, r10, fp, lr}
  36              		.cfi_def_cfa_offset 36
  37              		.cfi_offset 4, -36
  38              		.cfi_offset 5, -32
  39              		.cfi_offset 6, -28
  40              		.cfi_offset 7, -24
  41              		.cfi_offset 8, -20
  42              		.cfi_offset 9, -16
  43              		.cfi_offset 10, -12
  44              		.cfi_offset 11, -8
  45              		.cfi_offset 14, -4
  46              	.LBB69:
  47              	.LBB70:
  48              		.file 2 "ChibiOS_3.0.2/os/rt/include/chregistry.h"
  49              		.loc 2 135 0
  50 0004 3D4B     		ldr	r3, .L9
  51              	.LBE70:
  52              	.LBE69:
  53              		.loc 1 1257 0
  54 0006 3E4A     		ldr	r2, .L9+4
  55              	.LBB72:
  56              	.LBB71:
  57              		.loc 2 135 0
ARM GAS  C:\Users\euanm\AppData\Local\Temp\ccnlTGs7.s 			page 2


  58 0008 9B69     		ldr	r3, [r3, #24]
  59 000a 3E49     		ldr	r1, .L9+8
  60 000c DFF810B1 		ldr	fp, .L9+36
  61 0010 DFF810A1 		ldr	r10, .L9+40
  62 0014 DFF81091 		ldr	r9, .L9+44
  63 0018 DFF81081 		ldr	r8, .L9+48
  64 001c 3A4F     		ldr	r7, .L9+12
  65 001e 3B4E     		ldr	r6, .L9+16
  66 0020 3B4D     		ldr	r5, .L9+20
  67 0022 3C4C     		ldr	r4, .L9+24
  68 0024 9961     		str	r1, [r3, #24]
  69              	.LVL1:
  70              	.LBE71:
  71              	.LBE72:
  72              		.loc 1 1252 0
  73 0026 89B0     		sub	sp, sp, #36
  74              		.cfi_def_cfa_offset 72
  75              		.loc 1 1257 0
  76 0028 1360     		str	r3, [r2]
  77              	.LVL2:
  78              	.L3:
  79              		.loc 1 1260 0
  80 002a 0120     		movs	r0, #1
  81 002c FFF7FEFF 		bl	chEvtWaitAny
  82              	.LVL3:
  83              	.LBB73:
  84              		.loc 1 1262 0
  85 0030 394B     		ldr	r3, .L9+28
  86 0032 1B68     		ldr	r3, [r3]
  87 0034 002B     		cmp	r3, #0
  88 0036 F8DD     		ble	.L3
  89              		.loc 1 1262 0 is_stmt 0 discriminator 3
  90 0038 0023     		movs	r3, #0
  91              	.LVL4:
  92              	.L4:
  93              	.LBB74:
  94              		.loc 1 1266 0 is_stmt 1 discriminator 3
  95 003a 3BF813E0 		ldrh	lr, [fp, r3, lsl #1]
  96              		.loc 1 1267 0 discriminator 3
  97 003e 3BF81310 		ldrh	r1, [fp, r3, lsl #1]
  98              		.loc 1 1268 0 discriminator 3
  99 0042 3AF81300 		ldrh	r0, [r10, r3, lsl #1]
 100              		.loc 1 1269 0 discriminator 3
 101 0046 3AF81320 		ldrh	r2, [r10, r3, lsl #1]
 102              		.loc 1 1267 0 discriminator 3
 103 004a 8DF80D10 		strb	r1, [sp, #13]
 104              		.loc 1 1269 0 discriminator 3
 105 004e 8DF80F20 		strb	r2, [sp, #15]
 106              		.loc 1 1270 0 discriminator 3
 107 0052 39F81310 		ldrh	r1, [r9, r3, lsl #1]
 108              		.loc 1 1271 0 discriminator 3
 109 0056 39F81320 		ldrh	r2, [r9, r3, lsl #1]
 110 005a 8DF81120 		strb	r2, [sp, #17]
 111              		.loc 1 1272 0 discriminator 3
 112 005e 38F81320 		ldrh	r2, [r8, r3, lsl #1]
 113              		.loc 1 1273 0 discriminator 3
 114 0062 38F813C0 		ldrh	ip, [r8, r3, lsl #1]
ARM GAS  C:\Users\euanm\AppData\Local\Temp\ccnlTGs7.s 			page 3


 115 0066 8DF813C0 		strb	ip, [sp, #19]
 116              		.loc 1 1272 0 discriminator 3
 117 006a 42F30722 		sbfx	r2, r2, #8, #8
 118 006e 8DF81220 		strb	r2, [sp, #18]
 119              		.loc 1 1278 0 discriminator 3
 120 0072 2A4A     		ldr	r2, .L9+32
 121              		.loc 1 1266 0 discriminator 3
 122 0074 4EF3072E 		sbfx	lr, lr, #8, #8
 123              		.loc 1 1268 0 discriminator 3
 124 0078 40F30720 		sbfx	r0, r0, #8, #8
 125              		.loc 1 1270 0 discriminator 3
 126 007c 41F30721 		sbfx	r1, r1, #8, #8
 127              		.loc 1 1266 0 discriminator 3
 128 0080 8DF80CE0 		strb	lr, [sp, #12]
 129              	.LVL5:
 130              		.loc 1 1268 0 discriminator 3
 131 0084 8DF80E00 		strb	r0, [sp, #14]
 132              	.LVL6:
 133              		.loc 1 1274 0 discriminator 3
 134 0088 37F813E0 		ldrh	lr, [r7, r3, lsl #1]
 135              		.loc 1 1270 0 discriminator 3
 136 008c 8DF81010 		strb	r1, [sp, #16]
 137              	.LVL7:
 138              		.loc 1 1275 0 discriminator 3
 139 0090 37F813C0 		ldrh	ip, [r7, r3, lsl #1]
 140              		.loc 1 1276 0 discriminator 3
 141 0094 36F81300 		ldrh	r0, [r6, r3, lsl #1]
 142              		.loc 1 1277 0 discriminator 3
 143 0098 36F81310 		ldrh	r1, [r6, r3, lsl #1]
 144              		.loc 1 1278 0 discriminator 3
 145 009c D25C     		ldrb	r2, [r2, r3]	@ zero_extendqisi2
 146              		.loc 1 1277 0 discriminator 3
 147 009e 8DF81710 		strb	r1, [sp, #23]
 148              		.loc 1 1278 0 discriminator 3
 149 00a2 8DF81820 		strb	r2, [sp, #24]
 150              		.loc 1 1279 0 discriminator 3
 151 00a6 35F81310 		ldrh	r1, [r5, r3, lsl #1]
 152              		.loc 1 1280 0 discriminator 3
 153 00aa 35F81320 		ldrh	r2, [r5, r3, lsl #1]
 154 00ae 8DF81A20 		strb	r2, [sp, #26]
 155              		.loc 1 1281 0 discriminator 3
 156 00b2 34F81320 		ldrh	r2, [r4, r3, lsl #1]
 157              		.loc 1 1275 0 discriminator 3
 158 00b6 8DF815C0 		strb	ip, [sp, #21]
 159              		.loc 1 1274 0 discriminator 3
 160 00ba 4EF3072E 		sbfx	lr, lr, #8, #8
 161              		.loc 1 1276 0 discriminator 3
 162 00be 40F30720 		sbfx	r0, r0, #8, #8
 163              		.loc 1 1279 0 discriminator 3
 164 00c2 41F30721 		sbfx	r1, r1, #8, #8
 165              		.loc 1 1281 0 discriminator 3
 166 00c6 42F30722 		sbfx	r2, r2, #8, #8
 167              		.loc 1 1274 0 discriminator 3
 168 00ca 8DF814E0 		strb	lr, [sp, #20]
 169              	.LVL8:
 170              		.loc 1 1276 0 discriminator 3
 171 00ce 8DF81600 		strb	r0, [sp, #22]
ARM GAS  C:\Users\euanm\AppData\Local\Temp\ccnlTGs7.s 			page 4


 172              	.LVL9:
 173              		.loc 1 1279 0 discriminator 3
 174 00d2 8DF81910 		strb	r1, [sp, #25]
 175              	.LVL10:
 176              		.loc 1 1281 0 discriminator 3
 177 00d6 8DF81B20 		strb	r2, [sp, #27]
 178              	.LVL11:
 179              		.loc 1 1284 0 discriminator 3
 180 00da 1121     		movs	r1, #17
 181              		.loc 1 1282 0 discriminator 3
 182 00dc 34F81320 		ldrh	r2, [r4, r3, lsl #1]
 183 00e0 8DF81C20 		strb	r2, [sp, #28]
 184              		.loc 1 1284 0 discriminator 3
 185 00e4 03A8     		add	r0, sp, #12
 186              		.loc 1 1282 0 discriminator 3
 187 00e6 0193     		str	r3, [sp, #4]
 188              		.loc 1 1284 0 discriminator 3
 189 00e8 FFF7FEFF 		bl	commands_send_samples
 190              	.LVL12:
 191              	.LBE74:
 192              		.loc 1 1262 0 discriminator 3
 193 00ec 0A4B     		ldr	r3, .L9+28
 194 00ee 1A68     		ldr	r2, [r3]
 195 00f0 019B     		ldr	r3, [sp, #4]
 196 00f2 0133     		adds	r3, r3, #1
 197              	.LVL13:
 198 00f4 9A42     		cmp	r2, r3
 199 00f6 A0DC     		bgt	.L4
 200 00f8 97E7     		b	.L3
 201              	.L10:
 202 00fa 00BF     		.align	2
 203              	.L9:
 204 00fc 00000000 		.word	ch
 205 0100 00000000 		.word	.LANCHOR0
 206 0104 00000000 		.word	.LC0
 207 0108 00000000 		.word	.LANCHOR6
 208 010c 00000000 		.word	.LANCHOR7
 209 0110 00000000 		.word	.LANCHOR9
 210 0114 00000000 		.word	.LANCHOR10
 211 0118 00000000 		.word	.LANCHOR1
 212 011c 00000000 		.word	.LANCHOR8
 213 0120 00000000 		.word	.LANCHOR2
 214 0124 00000000 		.word	.LANCHOR3
 215 0128 00000000 		.word	.LANCHOR4
 216 012c 00000000 		.word	.LANCHOR5
 217              	.LBE73:
 218              		.cfi_endproc
 219              	.LFE310:
 220              		.size	sample_send_thread, .-sample_send_thread
 221              		.section	.text.mc_interface_set_duty.part.1,"ax",%progbits
 222              		.align	2
 223              		.p2align 4,,15
 224              		.thumb
 225              		.thumb_func
 226              		.type	mc_interface_set_duty.part.1, %function
 227              	mc_interface_set_duty.part.1:
 228              	.LFB312:
ARM GAS  C:\Users\euanm\AppData\Local\Temp\ccnlTGs7.s 			page 5


 229              		.loc 1 302 0
 230              		.cfi_startproc
 231              		@ args = 0, pretend = 0, frame = 0
 232              		@ frame_needed = 0, uses_anonymous_args = 0
 233              		@ link register save eliminated.
 234              	.LVL14:
 235              		.loc 1 307 0
 236 0000 054B     		ldr	r3, .L17
 237 0002 9B78     		ldrb	r3, [r3, #2]	@ zero_extendqisi2
 238 0004 DBB2     		uxtb	r3, r3
 239 0006 012B     		cmp	r3, #1
 240 0008 04D9     		bls	.L13
 241 000a 022B     		cmp	r3, #2
 242 000c 01D1     		bne	.L16
 243              		.loc 1 314 0
 244 000e FFF7FEBF 		b	mcpwm_foc_set_duty
 245              	.LVL15:
 246              	.L16:
 247 0012 7047     		bx	lr
 248              	.L13:
 249              		.loc 1 310 0
 250 0014 FFF7FEBF 		b	mcpwm_set_duty
 251              	.LVL16:
 252              	.L18:
 253              		.align	2
 254              	.L17:
 255 0018 00000000 		.word	.LANCHOR11
 256              		.cfi_endproc
 257              	.LFE312:
 258              		.size	mc_interface_set_duty.part.1, .-mc_interface_set_duty.part.1
 259              		.section	.text.mc_interface_set_current.part.2,"ax",%progbits
 260              		.align	2
 261              		.p2align 4,,15
 262              		.thumb
 263              		.thumb_func
 264              		.type	mc_interface_set_current.part.2, %function
 265              	mc_interface_set_current.part.2:
 266              	.LFB313:
 267              		.loc 1 413 0
 268              		.cfi_startproc
 269              		@ args = 0, pretend = 0, frame = 0
 270              		@ frame_needed = 0, uses_anonymous_args = 0
 271              		@ link register save eliminated.
 272              	.LVL17:
 273              		.loc 1 418 0
 274 0000 054B     		ldr	r3, .L25
 275 0002 9B78     		ldrb	r3, [r3, #2]	@ zero_extendqisi2
 276 0004 DBB2     		uxtb	r3, r3
 277 0006 012B     		cmp	r3, #1
 278 0008 04D9     		bls	.L21
 279 000a 022B     		cmp	r3, #2
 280 000c 01D1     		bne	.L24
 281              		.loc 1 425 0
 282 000e FFF7FEBF 		b	mcpwm_foc_set_current
 283              	.LVL18:
 284              	.L24:
 285 0012 7047     		bx	lr
ARM GAS  C:\Users\euanm\AppData\Local\Temp\ccnlTGs7.s 			page 6


 286              	.L21:
 287              		.loc 1 421 0
 288 0014 FFF7FEBF 		b	mcpwm_set_current
 289              	.LVL19:
 290              	.L26:
 291              		.align	2
 292              	.L25:
 293 0018 00000000 		.word	.LANCHOR11
 294              		.cfi_endproc
 295              	.LFE313:
 296              		.size	mc_interface_set_current.part.2, .-mc_interface_set_current.part.2
 297              		.section	.text.mc_interface_init,"ax",%progbits
 298              		.align	2
 299              		.p2align 4,,15
 300              		.global	mc_interface_init
 301              		.thumb
 302              		.thumb_func
 303              		.type	mc_interface_init, %function
 304              	mc_interface_init:
 305              	.LFB256:
 306              		.loc 1 95 0
 307              		.cfi_startproc
 308              		@ args = 0, pretend = 0, frame = 0
 309              		@ frame_needed = 0, uses_anonymous_args = 0
 310              	.LVL20:
 311 0000 F0B5     		push	{r4, r5, r6, r7, lr}
 312              		.cfi_def_cfa_offset 20
 313              		.cfi_offset 4, -20
 314              		.cfi_offset 5, -16
 315              		.cfi_offset 6, -12
 316              		.cfi_offset 7, -8
 317              		.cfi_offset 14, -4
 318              		.loc 1 96 0
 319 0002 3D4D     		ldr	r5, .L39
 320              		.loc 1 103 0
 321 0004 3D4F     		ldr	r7, .L39+4
 322              		.loc 1 104 0
 323 0006 3E4E     		ldr	r6, .L39+8
 324              		.loc 1 95 0
 325 0008 83B0     		sub	sp, sp, #12
 326              		.cfi_def_cfa_offset 32
 327              		.loc 1 95 0
 328 000a 0446     		mov	r4, r0
 329              		.loc 1 96 0
 330 000c 0146     		mov	r1, r0
 331 000e 4FF4A072 		mov	r2, #320
 332 0012 2846     		mov	r0, r5
 333              	.LVL21:
 334 0014 FFF7FEFF 		bl	memcpy
 335              	.LVL22:
 336              		.loc 1 97 0
 337 0018 2146     		mov	r1, r4
 338 001a 4FF4A072 		mov	r2, #320
 339 001e 3948     		ldr	r0, .L39+12
 340 0020 FFF7FEFF 		bl	memcpy
 341              	.LVL23:
 342              		.loc 1 100 0
ARM GAS  C:\Users\euanm\AppData\Local\Temp\ccnlTGs7.s 			page 7


 343 0024 3848     		ldr	r0, .L39+16
 344              		.loc 1 101 0
 345 0026 3949     		ldr	r1, .L39+20
 346              		.loc 1 102 0
 347 0028 394A     		ldr	r2, .L39+24
 348              		.loc 1 113 0
 349 002a DFF834C1 		ldr	ip, .L39+104
 350              		.loc 1 115 0
 351 002e DFF834E1 		ldr	lr, .L39+108
 352              		.loc 1 98 0
 353 0032 0024     		movs	r4, #0
 354              	.LVL24:
 355              		.loc 1 123 0
 356 0034 0094     		str	r4, [sp]
 357              		.loc 1 100 0
 358 0036 0460     		str	r4, [r0]
 359              		.loc 1 101 0
 360 0038 0C70     		strb	r4, [r1]
 361              		.loc 1 105 0
 362 003a 3648     		ldr	r0, .L39+28
 363              		.loc 1 102 0
 364 003c 1470     		strb	r4, [r2]
 365              		.loc 1 106 0
 366 003e 3649     		ldr	r1, .L39+32
 367              		.loc 1 107 0
 368 0040 364A     		ldr	r2, .L39+36
 369              		.loc 1 103 0
 370 0042 0023     		movs	r3, #0
 371 0044 3B60     		str	r3, [r7]	@ float
 372              		.loc 1 104 0
 373 0046 3360     		str	r3, [r6]	@ float
 374              		.loc 1 108 0
 375 0048 354F     		ldr	r7, .L39+40
 376              		.loc 1 105 0
 377 004a 0360     		str	r3, [r0]	@ float
 378              		.loc 1 109 0
 379 004c 354E     		ldr	r6, .L39+44
 380              		.loc 1 106 0
 381 004e 0B60     		str	r3, [r1]	@ float
 382              		.loc 1 110 0
 383 0050 3548     		ldr	r0, .L39+48
 384              		.loc 1 107 0
 385 0052 1360     		str	r3, [r2]	@ float
 386              		.loc 1 111 0
 387 0054 3549     		ldr	r1, .L39+52
 388              		.loc 1 112 0
 389 0056 364A     		ldr	r2, .L39+56
 390              		.loc 1 108 0
 391 0058 3B60     		str	r3, [r7]	@ float
 392              		.loc 1 109 0
 393 005a 3360     		str	r3, [r6]	@ float
 394              		.loc 1 110 0
 395 005c 0360     		str	r3, [r0]	@ float
 396              		.loc 1 111 0
 397 005e 0B60     		str	r3, [r1]	@ float
 398              		.loc 1 112 0
 399 0060 1360     		str	r3, [r2]	@ float
ARM GAS  C:\Users\euanm\AppData\Local\Temp\ccnlTGs7.s 			page 8


 400              		.loc 1 113 0
 401 0062 0323     		movs	r3, #3
 402 0064 8CF80030 		strb	r3, [ip]
 403              		.loc 1 116 0
 404 0068 324F     		ldr	r7, .L39+60
 405              		.loc 1 117 0
 406 006a 334E     		ldr	r6, .L39+64
 407              		.loc 1 118 0
 408 006c 334A     		ldr	r2, .L39+68
 409              		.loc 1 119 0
 410 006e 3449     		ldr	r1, .L39+72
 411              		.loc 1 98 0
 412 0070 3448     		ldr	r0, .L39+76
 413              		.loc 1 115 0
 414 0072 4FF47A73 		mov	r3, #1000
 415 0076 CEF80030 		str	r3, [lr]
 416              		.loc 1 116 0
 417 007a 0123     		movs	r3, #1
 418 007c 3B60     		str	r3, [r7]
 419              		.loc 1 117 0
 420 007e 3360     		str	r3, [r6]
 421              		.loc 1 99 0
 422 0080 314F     		ldr	r7, .L39+80
 423              		.loc 1 120 0
 424 0082 324E     		ldr	r6, .L39+84
 425              		.loc 1 118 0
 426 0084 1460     		str	r4, [r2]
 427              		.loc 1 123 0
 428 0086 324B     		ldr	r3, .L39+88
 429              		.loc 1 119 0
 430 0088 0C60     		str	r4, [r1]
 431              		.loc 1 123 0
 432 008a 4022     		movs	r2, #64
 433 008c 4FF4B361 		mov	r1, #1432
 434              		.loc 1 98 0
 435 0090 0470     		strb	r4, [r0]
 436              		.loc 1 99 0
 437 0092 3C60     		str	r4, [r7]
 438              		.loc 1 123 0
 439 0094 2F48     		ldr	r0, .L39+92
 440              		.loc 1 120 0
 441 0096 3460     		str	r4, [r6]
 442              		.loc 1 123 0
 443 0098 FFF7FEFF 		bl	chThdCreateStatic
 444              	.LVL25:
 445              		.loc 1 124 0
 446 009c 2E4B     		ldr	r3, .L39+96
 447 009e 0094     		str	r4, [sp]
 448 00a0 2E48     		ldr	r0, .L39+100
 449 00a2 3F22     		movs	r2, #63
 450 00a4 4FF4B361 		mov	r1, #1432
 451 00a8 FFF7FEFF 		bl	chThdCreateStatic
 452              	.LVL26:
 453              		.loc 1 128 0
 454 00ac 95F83C31 		ldrb	r3, [r5, #316]	@ zero_extendqisi2
 455 00b0 DBB2     		uxtb	r3, r3
 456 00b2 012B     		cmp	r3, #1
ARM GAS  C:\Users\euanm\AppData\Local\Temp\ccnlTGs7.s 			page 9


 457 00b4 1BD0     		beq	.L29
 458 00b6 022B     		cmp	r3, #2
 459 00b8 0BD0     		beq	.L30
 460              	.L28:
 461              		.loc 1 143 0
 462 00ba AB78     		ldrb	r3, [r5, #2]	@ zero_extendqisi2
 463 00bc DBB2     		uxtb	r3, r3
 464 00be 012B     		cmp	r3, #1
 465 00c0 0DD9     		bls	.L32
 466              	.L38:
 467 00c2 022B     		cmp	r3, #2
 468 00c4 11D1     		bne	.L37
 469              		.loc 1 150 0
 470 00c6 0C48     		ldr	r0, .L39
 471              		.loc 1 156 0
 472 00c8 03B0     		add	sp, sp, #12
 473              		.cfi_remember_state
 474              		.cfi_def_cfa_offset 20
 475              		@ sp needed
 476 00ca BDE8F040 		pop	{r4, r5, r6, r7, lr}
 477              		.cfi_restore 14
 478              		.cfi_restore 7
 479              		.cfi_restore 6
 480              		.cfi_restore 5
 481              		.cfi_restore 4
 482              		.cfi_def_cfa_offset 0
 483              		.loc 1 150 0
 484 00ce FFF7FEBF 		b	mcpwm_foc_init
 485              	.LVL27:
 486              	.L30:
 487              		.cfi_restore_state
 488              		.loc 1 134 0
 489 00d2 FFF7FEFF 		bl	encoder_init_as5047p_spi
 490              	.LVL28:
 491              		.loc 1 143 0
 492 00d6 AB78     		ldrb	r3, [r5, #2]	@ zero_extendqisi2
 493 00d8 DBB2     		uxtb	r3, r3
 494 00da 012B     		cmp	r3, #1
 495 00dc F1D8     		bhi	.L38
 496              	.L32:
 497              		.loc 1 146 0
 498 00de 0648     		ldr	r0, .L39
 499              		.loc 1 156 0
 500 00e0 03B0     		add	sp, sp, #12
 501              		.cfi_remember_state
 502              		.cfi_def_cfa_offset 20
 503              		@ sp needed
 504 00e2 BDE8F040 		pop	{r4, r5, r6, r7, lr}
 505              		.cfi_restore 14
 506              		.cfi_restore 7
 507              		.cfi_restore 6
 508              		.cfi_restore 5
 509              		.cfi_restore 4
 510              		.cfi_def_cfa_offset 0
 511              		.loc 1 146 0
 512 00e6 FFF7FEBF 		b	mcpwm_init
 513              	.LVL29:
ARM GAS  C:\Users\euanm\AppData\Local\Temp\ccnlTGs7.s 			page 10


 514              	.L37:
 515              		.cfi_restore_state
 516              		.loc 1 156 0
 517 00ea 03B0     		add	sp, sp, #12
 518              		.cfi_remember_state
 519              		.cfi_def_cfa_offset 20
 520              		@ sp needed
 521 00ec F0BD     		pop	{r4, r5, r6, r7, pc}
 522              	.L29:
 523              		.cfi_restore_state
 524              		.loc 1 130 0
 525 00ee D5F83801 		ldr	r0, [r5, #312]
 526 00f2 FFF7FEFF 		bl	encoder_init_abi
 527              	.LVL30:
 528              		.loc 1 131 0
 529 00f6 E0E7     		b	.L28
 530              	.L40:
 531              		.align	2
 532              	.L39:
 533 00f8 00000000 		.word	.LANCHOR11
 534 00fc 00000000 		.word	.LANCHOR18
 535 0100 00000000 		.word	.LANCHOR19
 536 0104 00000000 		.word	.LANCHOR12
 537 0108 00000000 		.word	.LANCHOR15
 538 010c 00000000 		.word	.LANCHOR16
 539 0110 00000000 		.word	.LANCHOR17
 540 0114 00000000 		.word	.LANCHOR20
 541 0118 00000000 		.word	.LANCHOR21
 542 011c 00000000 		.word	.LANCHOR22
 543 0120 00000000 		.word	.LANCHOR23
 544 0124 00000000 		.word	.LANCHOR24
 545 0128 00000000 		.word	.LANCHOR25
 546 012c 00000000 		.word	.LANCHOR26
 547 0130 00000000 		.word	.LANCHOR27
 548 0134 00000000 		.word	.LANCHOR29
 549 0138 00000000 		.word	.LANCHOR30
 550 013c 00000000 		.word	.LANCHOR31
 551 0140 00000000 		.word	.LANCHOR32
 552 0144 00000000 		.word	.LANCHOR13
 553 0148 00000000 		.word	.LANCHOR14
 554 014c 00000000 		.word	.LANCHOR33
 555 0150 00000000 		.word	timer_thread
 556 0154 00000000 		.word	.LANCHOR34
 557 0158 00000000 		.word	sample_send_thread
 558 015c 00000000 		.word	.LANCHOR35
 559 0160 00000000 		.word	.LANCHOR28
 560 0164 00000000 		.word	.LANCHOR1
 561              		.cfi_endproc
 562              	.LFE256:
 563              		.size	mc_interface_init, .-mc_interface_init
 564              		.section	.text.mc_interface_get_configuration,"ax",%progbits
 565              		.align	2
 566              		.p2align 4,,15
 567              		.global	mc_interface_get_configuration
 568              		.thumb
 569              		.thumb_func
 570              		.type	mc_interface_get_configuration, %function
ARM GAS  C:\Users\euanm\AppData\Local\Temp\ccnlTGs7.s 			page 11


 571              	mc_interface_get_configuration:
 572              	.LFB257:
 573              		.loc 1 158 0
 574              		.cfi_startproc
 575              		@ args = 0, pretend = 0, frame = 0
 576              		@ frame_needed = 0, uses_anonymous_args = 0
 577              		@ link register save eliminated.
 578              		.loc 1 160 0
 579 0000 0048     		ldr	r0, .L42
 580 0002 7047     		bx	lr
 581              	.L43:
 582              		.align	2
 583              	.L42:
 584 0004 00000000 		.word	.LANCHOR11
 585              		.cfi_endproc
 586              	.LFE257:
 587              		.size	mc_interface_get_configuration, .-mc_interface_get_configuration
 588              		.section	.text.mc_interface_dccal_done,"ax",%progbits
 589              		.align	2
 590              		.p2align 4,,15
 591              		.global	mc_interface_dccal_done
 592              		.thumb
 593              		.thumb_func
 594              		.type	mc_interface_dccal_done, %function
 595              	mc_interface_dccal_done:
 596              	.LFB259:
 597              		.loc 1 216 0
 598              		.cfi_startproc
 599              		@ args = 0, pretend = 0, frame = 0
 600              		@ frame_needed = 0, uses_anonymous_args = 0
 601              		@ link register save eliminated.
 602              	.LVL31:
 603              		.loc 1 218 0
 604 0000 064B     		ldr	r3, .L51
 605 0002 9B78     		ldrb	r3, [r3, #2]	@ zero_extendqisi2
 606 0004 DBB2     		uxtb	r3, r3
 607 0006 012B     		cmp	r3, #1
 608 0008 05D9     		bls	.L46
 609 000a 022B     		cmp	r3, #2
 610 000c 01D1     		bne	.L50
 611              		.loc 1 225 0
 612 000e FFF7FEBF 		b	mcpwm_foc_is_dccal_done
 613              	.LVL32:
 614              	.L50:
 615              		.loc 1 233 0
 616 0012 0020     		movs	r0, #0
 617 0014 7047     		bx	lr
 618              	.L46:
 619              		.loc 1 221 0
 620 0016 FFF7FEBF 		b	mcpwm_is_dccal_done
 621              	.LVL33:
 622              	.L52:
 623 001a 00BF     		.align	2
 624              	.L51:
 625 001c 00000000 		.word	.LANCHOR11
 626              		.cfi_endproc
 627              	.LFE259:
ARM GAS  C:\Users\euanm\AppData\Local\Temp\ccnlTGs7.s 			page 12


 628              		.size	mc_interface_dccal_done, .-mc_interface_dccal_done
 629              		.section	.text.mc_interface_set_pwm_callback,"ax",%progbits
 630              		.align	2
 631              		.p2align 4,,15
 632              		.global	mc_interface_set_pwm_callback
 633              		.thumb
 634              		.thumb_func
 635              		.type	mc_interface_set_pwm_callback, %function
 636              	mc_interface_set_pwm_callback:
 637              	.LFB260:
 638              		.loc 1 241 0
 639              		.cfi_startproc
 640              		@ args = 0, pretend = 0, frame = 0
 641              		@ frame_needed = 0, uses_anonymous_args = 0
 642              		@ link register save eliminated.
 643              	.LVL34:
 644              		.loc 1 242 0
 645 0000 014B     		ldr	r3, .L54
 646 0002 1860     		str	r0, [r3]
 647 0004 7047     		bx	lr
 648              	.L55:
 649 0006 00BF     		.align	2
 650              	.L54:
 651 0008 00000000 		.word	.LANCHOR36
 652              		.cfi_endproc
 653              	.LFE260:
 654              		.size	mc_interface_set_pwm_callback, .-mc_interface_set_pwm_callback
 655              		.section	.text.mc_interface_lock,"ax",%progbits
 656              		.align	2
 657              		.p2align 4,,15
 658              		.global	mc_interface_lock
 659              		.thumb
 660              		.thumb_func
 661              		.type	mc_interface_lock, %function
 662              	mc_interface_lock:
 663              	.LFB261:
 664              		.loc 1 248 0
 665              		.cfi_startproc
 666              		@ args = 0, pretend = 0, frame = 0
 667              		@ frame_needed = 0, uses_anonymous_args = 0
 668              		@ link register save eliminated.
 669              		.loc 1 249 0
 670 0000 014B     		ldr	r3, .L57
 671 0002 0122     		movs	r2, #1
 672 0004 1A70     		strb	r2, [r3]
 673 0006 7047     		bx	lr
 674              	.L58:
 675              		.align	2
 676              	.L57:
 677 0008 00000000 		.word	.LANCHOR16
 678              		.cfi_endproc
 679              	.LFE261:
 680              		.size	mc_interface_lock, .-mc_interface_lock
 681              		.section	.text.mc_interface_unlock,"ax",%progbits
 682              		.align	2
 683              		.p2align 4,,15
 684              		.global	mc_interface_unlock
ARM GAS  C:\Users\euanm\AppData\Local\Temp\ccnlTGs7.s 			page 13


 685              		.thumb
 686              		.thumb_func
 687              		.type	mc_interface_unlock, %function
 688              	mc_interface_unlock:
 689              	.LFB262:
 690              		.loc 1 255 0
 691              		.cfi_startproc
 692              		@ args = 0, pretend = 0, frame = 0
 693              		@ frame_needed = 0, uses_anonymous_args = 0
 694              		@ link register save eliminated.
 695              		.loc 1 256 0
 696 0000 014B     		ldr	r3, .L60
 697 0002 0022     		movs	r2, #0
 698 0004 1A70     		strb	r2, [r3]
 699 0006 7047     		bx	lr
 700              	.L61:
 701              		.align	2
 702              	.L60:
 703 0008 00000000 		.word	.LANCHOR16
 704              		.cfi_endproc
 705              	.LFE262:
 706              		.size	mc_interface_unlock, .-mc_interface_unlock
 707              		.section	.text.mc_interface_lock_override_once,"ax",%progbits
 708              		.align	2
 709              		.p2align 4,,15
 710              		.global	mc_interface_lock_override_once
 711              		.thumb
 712              		.thumb_func
 713              		.type	mc_interface_lock_override_once, %function
 714              	mc_interface_lock_override_once:
 715              	.LFB263:
 716              		.loc 1 262 0
 717              		.cfi_startproc
 718              		@ args = 0, pretend = 0, frame = 0
 719              		@ frame_needed = 0, uses_anonymous_args = 0
 720              		@ link register save eliminated.
 721              		.loc 1 263 0
 722 0000 014B     		ldr	r3, .L63
 723 0002 0122     		movs	r2, #1
 724 0004 1A70     		strb	r2, [r3]
 725 0006 7047     		bx	lr
 726              	.L64:
 727              		.align	2
 728              	.L63:
 729 0008 00000000 		.word	.LANCHOR17
 730              		.cfi_endproc
 731              	.LFE263:
 732              		.size	mc_interface_lock_override_once, .-mc_interface_lock_override_once
 733              		.section	.text.mc_interface_get_fault,"ax",%progbits
 734              		.align	2
 735              		.p2align 4,,15
 736              		.global	mc_interface_get_fault
 737              		.thumb
 738              		.thumb_func
 739              		.type	mc_interface_get_fault, %function
 740              	mc_interface_get_fault:
 741              	.LFB264:
ARM GAS  C:\Users\euanm\AppData\Local\Temp\ccnlTGs7.s 			page 14


 742              		.loc 1 266 0
 743              		.cfi_startproc
 744              		@ args = 0, pretend = 0, frame = 0
 745              		@ frame_needed = 0, uses_anonymous_args = 0
 746              		@ link register save eliminated.
 747              		.loc 1 267 0
 748 0000 014B     		ldr	r3, .L66
 749              		.loc 1 268 0
 750 0002 1878     		ldrb	r0, [r3]	@ zero_extendqisi2
 751 0004 7047     		bx	lr
 752              	.L67:
 753 0006 00BF     		.align	2
 754              	.L66:
 755 0008 00000000 		.word	.LANCHOR13
 756              		.cfi_endproc
 757              	.LFE264:
 758              		.size	mc_interface_get_fault, .-mc_interface_get_fault
 759              		.section	.text.mc_interface_fault_to_string,"ax",%progbits
 760              		.align	2
 761              		.p2align 4,,15
 762              		.global	mc_interface_fault_to_string
 763              		.thumb
 764              		.thumb_func
 765              		.type	mc_interface_fault_to_string, %function
 766              	mc_interface_fault_to_string:
 767              	.LFB265:
 768              		.loc 1 270 0
 769              		.cfi_startproc
 770              		@ args = 0, pretend = 0, frame = 0
 771              		@ frame_needed = 0, uses_anonymous_args = 0
 772              		@ link register save eliminated.
 773              	.LVL35:
 774 0000 0628     		cmp	r0, #6
 775 0002 9ABF     		itte	ls
 776 0004 024B     		ldrls	r3, .L71
 777 0006 53F82000 		ldrls	r0, [r3, r0, lsl #2]
 778              	.LVL36:
 779              		.loc 1 270 0
 780 000a 0248     		ldrhi	r0, .L71+4
 781              		.loc 1 281 0
 782 000c 7047     		bx	lr
 783              	.L72:
 784 000e 00BF     		.align	2
 785              	.L71:
 786 0010 00000000 		.word	.LANCHOR37
 787 0014 10000000 		.word	.LC1
 788              		.cfi_endproc
 789              	.LFE265:
 790              		.size	mc_interface_fault_to_string, .-mc_interface_fault_to_string
 791              		.section	.text.mc_interface_get_state,"ax",%progbits
 792              		.align	2
 793              		.p2align 4,,15
 794              		.global	mc_interface_get_state
 795              		.thumb
 796              		.thumb_func
 797              		.type	mc_interface_get_state, %function
 798              	mc_interface_get_state:
ARM GAS  C:\Users\euanm\AppData\Local\Temp\ccnlTGs7.s 			page 15


 799              	.LFB266:
 800              		.loc 1 283 0
 801              		.cfi_startproc
 802              		@ args = 0, pretend = 0, frame = 0
 803              		@ frame_needed = 0, uses_anonymous_args = 0
 804              		@ link register save eliminated.
 805              	.LVL37:
 806              		.loc 1 285 0
 807 0000 064B     		ldr	r3, .L80
 808 0002 9B78     		ldrb	r3, [r3, #2]	@ zero_extendqisi2
 809 0004 DBB2     		uxtb	r3, r3
 810 0006 012B     		cmp	r3, #1
 811 0008 05D9     		bls	.L75
 812 000a 022B     		cmp	r3, #2
 813 000c 01D1     		bne	.L79
 814              		.loc 1 292 0
 815 000e FFF7FEBF 		b	mcpwm_foc_get_state
 816              	.LVL38:
 817              	.L79:
 818              		.loc 1 300 0
 819 0012 0020     		movs	r0, #0
 820 0014 7047     		bx	lr
 821              	.L75:
 822              		.loc 1 288 0
 823 0016 FFF7FEBF 		b	mcpwm_get_state
 824              	.LVL39:
 825              	.L81:
 826 001a 00BF     		.align	2
 827              	.L80:
 828 001c 00000000 		.word	.LANCHOR11
 829              		.cfi_endproc
 830              	.LFE266:
 831              		.size	mc_interface_get_state, .-mc_interface_get_state
 832              		.section	.text.mc_interface_get_cruise_control_status,"ax",%progbits
 833              		.align	2
 834              		.p2align 4,,15
 835              		.global	mc_interface_get_cruise_control_status
 836              		.thumb
 837              		.thumb_func
 838              		.type	mc_interface_get_cruise_control_status, %function
 839              	mc_interface_get_cruise_control_status:
 840              	.LFB271:
 841              		.loc 1 382 0
 842              		.cfi_startproc
 843              		@ args = 0, pretend = 0, frame = 0
 844              		@ frame_needed = 0, uses_anonymous_args = 0
 845              		@ link register save eliminated.
 846              		.loc 1 383 0
 847 0000 014B     		ldr	r3, .L83
 848 0002 1878     		ldrb	r0, [r3]	@ zero_extendqisi2
 849              		.loc 1 384 0
 850 0004 7047     		bx	lr
 851              	.L84:
 852 0006 00BF     		.align	2
 853              	.L83:
 854 0008 00000000 		.word	.LANCHOR28
 855              		.cfi_endproc
ARM GAS  C:\Users\euanm\AppData\Local\Temp\ccnlTGs7.s 			page 16


 856              	.LFE271:
 857              		.size	mc_interface_get_cruise_control_status, .-mc_interface_get_cruise_control_status
 858              		.section	.text.mc_interface_set_cruise_control_status,"ax",%progbits
 859              		.align	2
 860              		.p2align 4,,15
 861              		.global	mc_interface_set_cruise_control_status
 862              		.thumb
 863              		.thumb_func
 864              		.type	mc_interface_set_cruise_control_status, %function
 865              	mc_interface_set_cruise_control_status:
 866              	.LFB272:
 867              		.loc 1 387 0
 868              		.cfi_startproc
 869              		@ args = 0, pretend = 0, frame = 0
 870              		@ frame_needed = 0, uses_anonymous_args = 0
 871              		@ link register save eliminated.
 872              	.LVL40:
 873              		.loc 1 388 0
 874 0000 014B     		ldr	r3, .L86
 875 0002 1870     		strb	r0, [r3]
 876 0004 7047     		bx	lr
 877              	.L87:
 878 0006 00BF     		.align	2
 879              	.L86:
 880 0008 00000000 		.word	.LANCHOR28
 881              		.cfi_endproc
 882              	.LFE272:
 883              		.size	mc_interface_set_cruise_control_status, .-mc_interface_set_cruise_control_status
 884              		.section	.text.mc_interface_get_duty_cycle_set,"ax",%progbits
 885              		.align	2
 886              		.p2align 4,,15
 887              		.global	mc_interface_get_duty_cycle_set
 888              		.thumb
 889              		.thumb_func
 890              		.type	mc_interface_get_duty_cycle_set, %function
 891              	mc_interface_get_duty_cycle_set:
 892              	.LFB281:
 893              		.loc 1 556 0
 894              		.cfi_startproc
 895              		@ args = 0, pretend = 0, frame = 0
 896              		@ frame_needed = 0, uses_anonymous_args = 0
 897              		@ link register save eliminated.
 898              	.LVL41:
 899              		.loc 1 559 0
 900 0000 064B     		ldr	r3, .L95
 901 0002 9B78     		ldrb	r3, [r3, #2]	@ zero_extendqisi2
 902 0004 DBB2     		uxtb	r3, r3
 903 0006 012B     		cmp	r3, #1
 904 0008 06D9     		bls	.L90
 905 000a 022B     		cmp	r3, #2
 906 000c 01D1     		bne	.L94
 907              		.loc 1 566 0
 908 000e FFF7FEBF 		b	mcpwm_foc_get_duty_cycle_set
 909              	.LVL42:
 910              	.L94:
 911              		.loc 1 574 0
 912 0012 9FED030A 		vldr.32	s0, .L95+4
ARM GAS  C:\Users\euanm\AppData\Local\Temp\ccnlTGs7.s 			page 17


 913 0016 7047     		bx	lr
 914              	.L90:
 915              		.loc 1 562 0
 916 0018 FFF7FEBF 		b	mcpwm_get_duty_cycle_set
 917              	.LVL43:
 918              	.L96:
 919              		.align	2
 920              	.L95:
 921 001c 00000000 		.word	.LANCHOR11
 922 0020 00000000 		.word	0
 923              		.cfi_endproc
 924              	.LFE281:
 925              		.size	mc_interface_get_duty_cycle_set, .-mc_interface_get_duty_cycle_set
 926              		.section	.text.mc_interface_get_duty_cycle_now,"ax",%progbits
 927              		.align	2
 928              		.p2align 4,,15
 929              		.global	mc_interface_get_duty_cycle_now
 930              		.thumb
 931              		.thumb_func
 932              		.type	mc_interface_get_duty_cycle_now, %function
 933              	mc_interface_get_duty_cycle_now:
 934              	.LFB282:
 935              		.loc 1 576 0
 936              		.cfi_startproc
 937              		@ args = 0, pretend = 0, frame = 0
 938              		@ frame_needed = 0, uses_anonymous_args = 0
 939              		@ link register save eliminated.
 940              	.LVL44:
 941              		.loc 1 579 0
 942 0000 064B     		ldr	r3, .L104
 943 0002 9B78     		ldrb	r3, [r3, #2]	@ zero_extendqisi2
 944 0004 DBB2     		uxtb	r3, r3
 945 0006 012B     		cmp	r3, #1
 946 0008 06D9     		bls	.L99
 947 000a 022B     		cmp	r3, #2
 948 000c 01D1     		bne	.L103
 949              		.loc 1 586 0
 950 000e FFF7FEBF 		b	mcpwm_foc_get_duty_cycle_now
 951              	.LVL45:
 952              	.L103:
 953              		.loc 1 594 0
 954 0012 9FED030A 		vldr.32	s0, .L104+4
 955 0016 7047     		bx	lr
 956              	.L99:
 957              		.loc 1 582 0
 958 0018 FFF7FEBF 		b	mcpwm_get_duty_cycle_now
 959              	.LVL46:
 960              	.L105:
 961              		.align	2
 962              	.L104:
 963 001c 00000000 		.word	.LANCHOR11
 964 0020 00000000 		.word	0
 965              		.cfi_endproc
 966              	.LFE282:
 967              		.size	mc_interface_get_duty_cycle_now, .-mc_interface_get_duty_cycle_now
 968              		.section	.text.mc_interface_get_duty_cycle_for_watt_calculation,"ax",%progbits
 969              		.align	2
ARM GAS  C:\Users\euanm\AppData\Local\Temp\ccnlTGs7.s 			page 18


 970              		.p2align 4,,15
 971              		.global	mc_interface_get_duty_cycle_for_watt_calculation
 972              		.thumb
 973              		.thumb_func
 974              		.type	mc_interface_get_duty_cycle_for_watt_calculation, %function
 975              	mc_interface_get_duty_cycle_for_watt_calculation:
 976              	.LFB280:
 977              		.loc 1 532 0
 978              		.cfi_startproc
 979              		@ args = 0, pretend = 0, frame = 0
 980              		@ frame_needed = 0, uses_anonymous_args = 0
 981 0000 10B5     		push	{r4, lr}
 982              		.cfi_def_cfa_offset 8
 983              		.cfi_offset 4, -8
 984              		.cfi_offset 14, -4
 985              		.loc 1 535 0
 986 0002 0E4C     		ldr	r4, .L116
 987 0004 A378     		ldrb	r3, [r4, #2]	@ zero_extendqisi2
 988 0006 022B     		cmp	r3, #2
 989 0008 0ED0     		beq	.L115
 990              		.loc 1 545 0
 991 000a FFF7FEFF 		bl	mc_interface_get_duty_cycle_now
 992              	.LVL47:
 993 000e B0EEC00A 		vabs.f32	s0, s0
 994              	.LVL48:
 995              	.L108:
 996              		.loc 1 547 0
 997 0012 D4ED157A 		vldr.32	s15, [r4, #84]
 998 0016 094B     		ldr	r3, .L116
 999 0018 B4EEE70A 		vcmpe.f32	s0, s15
 1000 001c F1EE10FA 		vmrs	APSR_nzcv, FPSCR
 1001              		.loc 1 548 0
 1002 0020 48BF     		it	mi
 1003 0022 93ED150A 		vldrmi.32	s0, [r3, #84]
 1004              	.LVL49:
 1005              		.loc 1 551 0
 1006 0026 10BD     		pop	{r4, pc}
 1007              	.L115:
 1008              		.loc 1 542 0
 1009 0028 FFF7FEFF 		bl	mcpwm_foc_get_duty_cycle_now
 1010              	.LVL50:
 1011 002c DFED047A 		vldr.32	s15, .L116+4
 1012 0030 B0EEC00A 		vabs.f32	s0, s0
 1013 0034 20EE270A 		vmul.f32	s0, s0, s15
 1014              	.LVL51:
 1015 0038 EBE7     		b	.L108
 1016              	.L117:
 1017 003a 00BF     		.align	2
 1018              	.L116:
 1019 003c 00000000 		.word	.LANCHOR11
 1020 0040 D7B35D3F 		.word	1063105495
 1021              		.cfi_endproc
 1022              	.LFE280:
 1023              		.size	mc_interface_get_duty_cycle_for_watt_calculation, .-mc_interface_get_duty_cycle_for_watt_cal
 1024              		.section	.text.mc_interface_get_sampling_frequency_now,"ax",%progbits
 1025              		.align	2
 1026              		.p2align 4,,15
ARM GAS  C:\Users\euanm\AppData\Local\Temp\ccnlTGs7.s 			page 19


 1027              		.global	mc_interface_get_sampling_frequency_now
 1028              		.thumb
 1029              		.thumb_func
 1030              		.type	mc_interface_get_sampling_frequency_now, %function
 1031              	mc_interface_get_sampling_frequency_now:
 1032              	.LFB283:
 1033              		.loc 1 596 0
 1034              		.cfi_startproc
 1035              		@ args = 0, pretend = 0, frame = 0
 1036              		@ frame_needed = 0, uses_anonymous_args = 0
 1037              	.LVL52:
 1038 0000 08B5     		push	{r3, lr}
 1039              		.cfi_def_cfa_offset 8
 1040              		.cfi_offset 3, -8
 1041              		.cfi_offset 14, -4
 1042              		.loc 1 599 0
 1043 0002 0A4B     		ldr	r3, .L127
 1044 0004 9B78     		ldrb	r3, [r3, #2]	@ zero_extendqisi2
 1045 0006 DBB2     		uxtb	r3, r3
 1046 0008 012B     		cmp	r3, #1
 1047 000a 0BD9     		bls	.L120
 1048 000c 022B     		cmp	r3, #2
 1049 000e 06D1     		bne	.L126
 1050              	.LBB77:
 1051              	.LBB78:
 1052              		.loc 1 606 0
 1053 0010 FFF7FEFF 		bl	mcpwm_foc_get_switching_frequency_now
 1054              	.LVL53:
 1055 0014 F6EE007A 		vmov.f32	s15, #5.0e-1
 1056 0018 20EE270A 		vmul.f32	s0, s0, s15
 1057 001c 08BD     		pop	{r3, pc}
 1058              	.L126:
 1059              	.LBE78:
 1060              	.LBE77:
 1061              		.loc 1 597 0
 1062 001e 9FED040A 		vldr.32	s0, .L127+4
 1063              	.LVL54:
 1064              		.loc 1 614 0
 1065 0022 08BD     		pop	{r3, pc}
 1066              	.LVL55:
 1067              	.L120:
 1068 0024 BDE80840 		pop	{r3, lr}
 1069              		.cfi_restore 14
 1070              		.cfi_restore 3
 1071              		.cfi_def_cfa_offset 0
 1072              		.loc 1 602 0
 1073 0028 FFF7FEBF 		b	mcpwm_get_switching_frequency_now
 1074              	.LVL56:
 1075              	.L128:
 1076              		.align	2
 1077              	.L127:
 1078 002c 00000000 		.word	.LANCHOR11
 1079 0030 00000000 		.word	0
 1080              		.cfi_endproc
 1081              	.LFE283:
 1082              		.size	mc_interface_get_sampling_frequency_now, .-mc_interface_get_sampling_frequency_now
 1083              		.section	.text.mc_interface_get_rpm,"ax",%progbits
ARM GAS  C:\Users\euanm\AppData\Local\Temp\ccnlTGs7.s 			page 20


 1084              		.align	2
 1085              		.p2align 4,,15
 1086              		.global	mc_interface_get_rpm
 1087              		.thumb
 1088              		.thumb_func
 1089              		.type	mc_interface_get_rpm, %function
 1090              	mc_interface_get_rpm:
 1091              	.LFB284:
 1092              		.loc 1 616 0
 1093              		.cfi_startproc
 1094              		@ args = 0, pretend = 0, frame = 0
 1095              		@ frame_needed = 0, uses_anonymous_args = 0
 1096              		@ link register save eliminated.
 1097              	.LVL57:
 1098              		.loc 1 619 0
 1099 0000 064B     		ldr	r3, .L136
 1100 0002 9B78     		ldrb	r3, [r3, #2]	@ zero_extendqisi2
 1101 0004 DBB2     		uxtb	r3, r3
 1102 0006 012B     		cmp	r3, #1
 1103 0008 06D9     		bls	.L131
 1104 000a 022B     		cmp	r3, #2
 1105 000c 01D1     		bne	.L135
 1106              		.loc 1 626 0
 1107 000e FFF7FEBF 		b	mcpwm_foc_get_rpm
 1108              	.LVL58:
 1109              	.L135:
 1110              		.loc 1 634 0
 1111 0012 9FED030A 		vldr.32	s0, .L136+4
 1112 0016 7047     		bx	lr
 1113              	.L131:
 1114              		.loc 1 622 0
 1115 0018 FFF7FEBF 		b	mcpwm_get_rpm
 1116              	.LVL59:
 1117              	.L137:
 1118              		.align	2
 1119              	.L136:
 1120 001c 00000000 		.word	.LANCHOR11
 1121 0020 00000000 		.word	0
 1122              		.cfi_endproc
 1123              	.LFE284:
 1124              		.size	mc_interface_get_rpm, .-mc_interface_get_rpm
 1125              		.section	.text.mc_interface_get_amp_hours,"ax",%progbits
 1126              		.align	2
 1127              		.p2align 4,,15
 1128              		.global	mc_interface_get_amp_hours
 1129              		.thumb
 1130              		.thumb_func
 1131              		.type	mc_interface_get_amp_hours, %function
 1132              	mc_interface_get_amp_hours:
 1133              	.LFB285:
 1134              		.loc 1 645 0
 1135              		.cfi_startproc
 1136              		@ args = 0, pretend = 0, frame = 0
 1137              		@ frame_needed = 0, uses_anonymous_args = 0
 1138              		@ link register save eliminated.
 1139              	.LVL60:
 1140              		.loc 1 646 0
ARM GAS  C:\Users\euanm\AppData\Local\Temp\ccnlTGs7.s 			page 21


 1141 0000 054B     		ldr	r3, .L143
 1142 0002 DFED067A 		vldr.32	s15, .L143+4
 1143 0006 93ED007A 		vldr.32	s14, [r3]
 1144 000a 87EE270A 		vdiv.f32	s0, s14, s15
 1145              	.LVL61:
 1146              		.loc 1 648 0
 1147 000e 08B1     		cbz	r0, .L139
 1148              		.loc 1 649 0
 1149 0010 0022     		movs	r2, #0
 1150 0012 1A60     		str	r2, [r3]	@ float
 1151              	.L139:
 1152              		.loc 1 653 0
 1153 0014 7047     		bx	lr
 1154              	.L144:
 1155 0016 00BF     		.align	2
 1156              	.L143:
 1157 0018 00000000 		.word	.LANCHOR22
 1158 001c 00006145 		.word	1163984896
 1159              		.cfi_endproc
 1160              	.LFE285:
 1161              		.size	mc_interface_get_amp_hours, .-mc_interface_get_amp_hours
 1162              		.section	.text.mc_interface_get_amp_hours_charged,"ax",%progbits
 1163              		.align	2
 1164              		.p2align 4,,15
 1165              		.global	mc_interface_get_amp_hours_charged
 1166              		.thumb
 1167              		.thumb_func
 1168              		.type	mc_interface_get_amp_hours_charged, %function
 1169              	mc_interface_get_amp_hours_charged:
 1170              	.LFB286:
 1171              		.loc 1 664 0
 1172              		.cfi_startproc
 1173              		@ args = 0, pretend = 0, frame = 0
 1174              		@ frame_needed = 0, uses_anonymous_args = 0
 1175              		@ link register save eliminated.
 1176              	.LVL62:
 1177              		.loc 1 665 0
 1178 0000 054B     		ldr	r3, .L150
 1179 0002 DFED067A 		vldr.32	s15, .L150+4
 1180 0006 93ED007A 		vldr.32	s14, [r3]
 1181 000a 87EE270A 		vdiv.f32	s0, s14, s15
 1182              	.LVL63:
 1183              		.loc 1 667 0
 1184 000e 08B1     		cbz	r0, .L146
 1185              		.loc 1 668 0
 1186 0010 0022     		movs	r2, #0
 1187 0012 1A60     		str	r2, [r3]	@ float
 1188              	.L146:
 1189              		.loc 1 672 0
 1190 0014 7047     		bx	lr
 1191              	.L151:
 1192 0016 00BF     		.align	2
 1193              	.L150:
 1194 0018 00000000 		.word	.LANCHOR23
 1195 001c 00006145 		.word	1163984896
 1196              		.cfi_endproc
 1197              	.LFE286:
ARM GAS  C:\Users\euanm\AppData\Local\Temp\ccnlTGs7.s 			page 22


 1198              		.size	mc_interface_get_amp_hours_charged, .-mc_interface_get_amp_hours_charged
 1199              		.section	.text.mc_interface_get_watt_hours,"ax",%progbits
 1200              		.align	2
 1201              		.p2align 4,,15
 1202              		.global	mc_interface_get_watt_hours
 1203              		.thumb
 1204              		.thumb_func
 1205              		.type	mc_interface_get_watt_hours, %function
 1206              	mc_interface_get_watt_hours:
 1207              	.LFB287:
 1208              		.loc 1 683 0
 1209              		.cfi_startproc
 1210              		@ args = 0, pretend = 0, frame = 0
 1211              		@ frame_needed = 0, uses_anonymous_args = 0
 1212              		@ link register save eliminated.
 1213              	.LVL64:
 1214              		.loc 1 684 0
 1215 0000 054B     		ldr	r3, .L157
 1216 0002 DFED067A 		vldr.32	s15, .L157+4
 1217 0006 93ED007A 		vldr.32	s14, [r3]
 1218 000a 87EE270A 		vdiv.f32	s0, s14, s15
 1219              	.LVL65:
 1220              		.loc 1 686 0
 1221 000e 10B1     		cbz	r0, .L153
 1222              		.loc 1 687 0
 1223 0010 034B     		ldr	r3, .L157+8
 1224 0012 0022     		movs	r2, #0
 1225 0014 1A60     		str	r2, [r3]	@ float
 1226              	.L153:
 1227              		.loc 1 691 0
 1228 0016 7047     		bx	lr
 1229              	.L158:
 1230              		.align	2
 1231              	.L157:
 1232 0018 00000000 		.word	.LANCHOR24
 1233 001c 00006145 		.word	1163984896
 1234 0020 00000000 		.word	.LANCHOR22
 1235              		.cfi_endproc
 1236              	.LFE287:
 1237              		.size	mc_interface_get_watt_hours, .-mc_interface_get_watt_hours
 1238              		.section	.text.mc_interface_get_watt_hours_charged,"ax",%progbits
 1239              		.align	2
 1240              		.p2align 4,,15
 1241              		.global	mc_interface_get_watt_hours_charged
 1242              		.thumb
 1243              		.thumb_func
 1244              		.type	mc_interface_get_watt_hours_charged, %function
 1245              	mc_interface_get_watt_hours_charged:
 1246              	.LFB288:
 1247              		.loc 1 702 0
 1248              		.cfi_startproc
 1249              		@ args = 0, pretend = 0, frame = 0
 1250              		@ frame_needed = 0, uses_anonymous_args = 0
 1251              		@ link register save eliminated.
 1252              	.LVL66:
 1253              		.loc 1 703 0
 1254 0000 054B     		ldr	r3, .L164
ARM GAS  C:\Users\euanm\AppData\Local\Temp\ccnlTGs7.s 			page 23


 1255 0002 DFED067A 		vldr.32	s15, .L164+4
 1256 0006 93ED007A 		vldr.32	s14, [r3]
 1257 000a 87EE270A 		vdiv.f32	s0, s14, s15
 1258              	.LVL67:
 1259              		.loc 1 705 0
 1260 000e 08B1     		cbz	r0, .L160
 1261              		.loc 1 706 0
 1262 0010 0022     		movs	r2, #0
 1263 0012 1A60     		str	r2, [r3]	@ float
 1264              	.L160:
 1265              		.loc 1 710 0
 1266 0014 7047     		bx	lr
 1267              	.L165:
 1268 0016 00BF     		.align	2
 1269              	.L164:
 1270 0018 00000000 		.word	.LANCHOR25
 1271 001c 00006145 		.word	1163984896
 1272              		.cfi_endproc
 1273              	.LFE288:
 1274              		.size	mc_interface_get_watt_hours_charged, .-mc_interface_get_watt_hours_charged
 1275              		.section	.text.mc_interface_get_tot_current,"ax",%progbits
 1276              		.align	2
 1277              		.p2align 4,,15
 1278              		.global	mc_interface_get_tot_current
 1279              		.thumb
 1280              		.thumb_func
 1281              		.type	mc_interface_get_tot_current, %function
 1282              	mc_interface_get_tot_current:
 1283              	.LFB289:
 1284              		.loc 1 712 0
 1285              		.cfi_startproc
 1286              		@ args = 0, pretend = 0, frame = 0
 1287              		@ frame_needed = 0, uses_anonymous_args = 0
 1288              		@ link register save eliminated.
 1289              	.LVL68:
 1290              		.loc 1 715 0
 1291 0000 064B     		ldr	r3, .L173
 1292 0002 9B78     		ldrb	r3, [r3, #2]	@ zero_extendqisi2
 1293 0004 DBB2     		uxtb	r3, r3
 1294 0006 012B     		cmp	r3, #1
 1295 0008 06D9     		bls	.L168
 1296 000a 022B     		cmp	r3, #2
 1297 000c 01D1     		bne	.L172
 1298              		.loc 1 722 0
 1299 000e FFF7FEBF 		b	mcpwm_foc_get_tot_current
 1300              	.LVL69:
 1301              	.L172:
 1302              		.loc 1 730 0
 1303 0012 9FED030A 		vldr.32	s0, .L173+4
 1304 0016 7047     		bx	lr
 1305              	.L168:
 1306              		.loc 1 718 0
 1307 0018 FFF7FEBF 		b	mcpwm_get_tot_current
 1308              	.LVL70:
 1309              	.L174:
 1310              		.align	2
 1311              	.L173:
ARM GAS  C:\Users\euanm\AppData\Local\Temp\ccnlTGs7.s 			page 24


 1312 001c 00000000 		.word	.LANCHOR11
 1313 0020 00000000 		.word	0
 1314              		.cfi_endproc
 1315              	.LFE289:
 1316              		.size	mc_interface_get_tot_current, .-mc_interface_get_tot_current
 1317              		.section	.text.mc_interface_get_tot_current_filtered,"ax",%progbits
 1318              		.align	2
 1319              		.p2align 4,,15
 1320              		.global	mc_interface_get_tot_current_filtered
 1321              		.thumb
 1322              		.thumb_func
 1323              		.type	mc_interface_get_tot_current_filtered, %function
 1324              	mc_interface_get_tot_current_filtered:
 1325              	.LFB290:
 1326              		.loc 1 732 0
 1327              		.cfi_startproc
 1328              		@ args = 0, pretend = 0, frame = 0
 1329              		@ frame_needed = 0, uses_anonymous_args = 0
 1330              		@ link register save eliminated.
 1331              	.LVL71:
 1332              		.loc 1 735 0
 1333 0000 064B     		ldr	r3, .L182
 1334 0002 9B78     		ldrb	r3, [r3, #2]	@ zero_extendqisi2
 1335 0004 DBB2     		uxtb	r3, r3
 1336 0006 012B     		cmp	r3, #1
 1337 0008 06D9     		bls	.L177
 1338 000a 022B     		cmp	r3, #2
 1339 000c 01D1     		bne	.L181
 1340              		.loc 1 742 0
 1341 000e FFF7FEBF 		b	mcpwm_foc_get_tot_current_filtered
 1342              	.LVL72:
 1343              	.L181:
 1344              		.loc 1 750 0
 1345 0012 9FED030A 		vldr.32	s0, .L182+4
 1346 0016 7047     		bx	lr
 1347              	.L177:
 1348              		.loc 1 738 0
 1349 0018 FFF7FEBF 		b	mcpwm_get_tot_current_filtered
 1350              	.LVL73:
 1351              	.L183:
 1352              		.align	2
 1353              	.L182:
 1354 001c 00000000 		.word	.LANCHOR11
 1355 0020 00000000 		.word	0
 1356              		.cfi_endproc
 1357              	.LFE290:
 1358              		.size	mc_interface_get_tot_current_filtered, .-mc_interface_get_tot_current_filtered
 1359              		.section	.text.mc_interface_get_tot_current_directional,"ax",%progbits
 1360              		.align	2
 1361              		.p2align 4,,15
 1362              		.global	mc_interface_get_tot_current_directional
 1363              		.thumb
 1364              		.thumb_func
 1365              		.type	mc_interface_get_tot_current_directional, %function
 1366              	mc_interface_get_tot_current_directional:
 1367              	.LFB291:
 1368              		.loc 1 752 0
ARM GAS  C:\Users\euanm\AppData\Local\Temp\ccnlTGs7.s 			page 25


 1369              		.cfi_startproc
 1370              		@ args = 0, pretend = 0, frame = 0
 1371              		@ frame_needed = 0, uses_anonymous_args = 0
 1372              		@ link register save eliminated.
 1373              	.LVL74:
 1374              		.loc 1 755 0
 1375 0000 064B     		ldr	r3, .L191
 1376 0002 9B78     		ldrb	r3, [r3, #2]	@ zero_extendqisi2
 1377 0004 DBB2     		uxtb	r3, r3
 1378 0006 012B     		cmp	r3, #1
 1379 0008 06D9     		bls	.L186
 1380 000a 022B     		cmp	r3, #2
 1381 000c 01D1     		bne	.L190
 1382              		.loc 1 762 0
 1383 000e FFF7FEBF 		b	mcpwm_foc_get_tot_current_directional
 1384              	.LVL75:
 1385              	.L190:
 1386              		.loc 1 770 0
 1387 0012 9FED030A 		vldr.32	s0, .L191+4
 1388 0016 7047     		bx	lr
 1389              	.L186:
 1390              		.loc 1 758 0
 1391 0018 FFF7FEBF 		b	mcpwm_get_tot_current_directional
 1392              	.LVL76:
 1393              	.L192:
 1394              		.align	2
 1395              	.L191:
 1396 001c 00000000 		.word	.LANCHOR11
 1397 0020 00000000 		.word	0
 1398              		.cfi_endproc
 1399              	.LFE291:
 1400              		.size	mc_interface_get_tot_current_directional, .-mc_interface_get_tot_current_directional
 1401              		.section	.text.mc_interface_get_tot_current_directional_filtered,"ax",%progbits
 1402              		.align	2
 1403              		.p2align 4,,15
 1404              		.global	mc_interface_get_tot_current_directional_filtered
 1405              		.thumb
 1406              		.thumb_func
 1407              		.type	mc_interface_get_tot_current_directional_filtered, %function
 1408              	mc_interface_get_tot_current_directional_filtered:
 1409              	.LFB292:
 1410              		.loc 1 772 0
 1411              		.cfi_startproc
 1412              		@ args = 0, pretend = 0, frame = 0
 1413              		@ frame_needed = 0, uses_anonymous_args = 0
 1414              		@ link register save eliminated.
 1415              	.LVL77:
 1416              		.loc 1 775 0
 1417 0000 064B     		ldr	r3, .L200
 1418 0002 9B78     		ldrb	r3, [r3, #2]	@ zero_extendqisi2
 1419 0004 DBB2     		uxtb	r3, r3
 1420 0006 012B     		cmp	r3, #1
 1421 0008 06D9     		bls	.L195
 1422 000a 022B     		cmp	r3, #2
 1423 000c 01D1     		bne	.L199
 1424              		.loc 1 782 0
 1425 000e FFF7FEBF 		b	mcpwm_foc_get_tot_current_directional_filtered
ARM GAS  C:\Users\euanm\AppData\Local\Temp\ccnlTGs7.s 			page 26


 1426              	.LVL78:
 1427              	.L199:
 1428              		.loc 1 790 0
 1429 0012 9FED030A 		vldr.32	s0, .L200+4
 1430 0016 7047     		bx	lr
 1431              	.L195:
 1432              		.loc 1 778 0
 1433 0018 FFF7FEBF 		b	mcpwm_get_tot_current_directional_filtered
 1434              	.LVL79:
 1435              	.L201:
 1436              		.align	2
 1437              	.L200:
 1438 001c 00000000 		.word	.LANCHOR11
 1439 0020 00000000 		.word	0
 1440              		.cfi_endproc
 1441              	.LFE292:
 1442              		.size	mc_interface_get_tot_current_directional_filtered, .-mc_interface_get_tot_current_directiona
 1443              		.section	.text.mc_interface_get_tot_current_in,"ax",%progbits
 1444              		.align	2
 1445              		.p2align 4,,15
 1446              		.global	mc_interface_get_tot_current_in
 1447              		.thumb
 1448              		.thumb_func
 1449              		.type	mc_interface_get_tot_current_in, %function
 1450              	mc_interface_get_tot_current_in:
 1451              	.LFB293:
 1452              		.loc 1 792 0
 1453              		.cfi_startproc
 1454              		@ args = 0, pretend = 0, frame = 0
 1455              		@ frame_needed = 0, uses_anonymous_args = 0
 1456              		@ link register save eliminated.
 1457              	.LVL80:
 1458              		.loc 1 795 0
 1459 0000 064B     		ldr	r3, .L209
 1460 0002 9B78     		ldrb	r3, [r3, #2]	@ zero_extendqisi2
 1461 0004 DBB2     		uxtb	r3, r3
 1462 0006 012B     		cmp	r3, #1
 1463 0008 06D9     		bls	.L204
 1464 000a 022B     		cmp	r3, #2
 1465 000c 01D1     		bne	.L208
 1466              		.loc 1 802 0
 1467 000e FFF7FEBF 		b	mcpwm_foc_get_tot_current_in
 1468              	.LVL81:
 1469              	.L208:
 1470              		.loc 1 810 0
 1471 0012 9FED030A 		vldr.32	s0, .L209+4
 1472 0016 7047     		bx	lr
 1473              	.L204:
 1474              		.loc 1 798 0
 1475 0018 FFF7FEBF 		b	mcpwm_get_tot_current_in
 1476              	.LVL82:
 1477              	.L210:
 1478              		.align	2
 1479              	.L209:
 1480 001c 00000000 		.word	.LANCHOR11
 1481 0020 00000000 		.word	0
 1482              		.cfi_endproc
ARM GAS  C:\Users\euanm\AppData\Local\Temp\ccnlTGs7.s 			page 27


 1483              	.LFE293:
 1484              		.size	mc_interface_get_tot_current_in, .-mc_interface_get_tot_current_in
 1485              		.section	.text.mc_interface_get_tot_current_in_filtered,"ax",%progbits
 1486              		.align	2
 1487              		.p2align 4,,15
 1488              		.global	mc_interface_get_tot_current_in_filtered
 1489              		.thumb
 1490              		.thumb_func
 1491              		.type	mc_interface_get_tot_current_in_filtered, %function
 1492              	mc_interface_get_tot_current_in_filtered:
 1493              	.LFB294:
 1494              		.loc 1 812 0
 1495              		.cfi_startproc
 1496              		@ args = 0, pretend = 0, frame = 0
 1497              		@ frame_needed = 0, uses_anonymous_args = 0
 1498              		@ link register save eliminated.
 1499              	.LVL83:
 1500              		.loc 1 815 0
 1501 0000 064B     		ldr	r3, .L218
 1502 0002 9B78     		ldrb	r3, [r3, #2]	@ zero_extendqisi2
 1503 0004 DBB2     		uxtb	r3, r3
 1504 0006 012B     		cmp	r3, #1
 1505 0008 06D9     		bls	.L213
 1506 000a 022B     		cmp	r3, #2
 1507 000c 01D1     		bne	.L217
 1508              		.loc 1 822 0
 1509 000e FFF7FEBF 		b	mcpwm_foc_get_tot_current_in_filtered
 1510              	.LVL84:
 1511              	.L217:
 1512              		.loc 1 830 0
 1513 0012 9FED030A 		vldr.32	s0, .L218+4
 1514 0016 7047     		bx	lr
 1515              	.L213:
 1516              		.loc 1 818 0
 1517 0018 FFF7FEBF 		b	mcpwm_get_tot_current_in_filtered
 1518              	.LVL85:
 1519              	.L219:
 1520              		.align	2
 1521              	.L218:
 1522 001c 00000000 		.word	.LANCHOR11
 1523 0020 00000000 		.word	0
 1524              		.cfi_endproc
 1525              	.LFE294:
 1526              		.size	mc_interface_get_tot_current_in_filtered, .-mc_interface_get_tot_current_in_filtered
 1527              		.section	.text.mc_interface_get_tachometer_value,"ax",%progbits
 1528              		.align	2
 1529              		.p2align 4,,15
 1530              		.global	mc_interface_get_tachometer_value
 1531              		.thumb
 1532              		.thumb_func
 1533              		.type	mc_interface_get_tachometer_value, %function
 1534              	mc_interface_get_tachometer_value:
 1535              	.LFB295:
 1536              		.loc 1 832 0
 1537              		.cfi_startproc
 1538              		@ args = 0, pretend = 0, frame = 0
 1539              		@ frame_needed = 0, uses_anonymous_args = 0
ARM GAS  C:\Users\euanm\AppData\Local\Temp\ccnlTGs7.s 			page 28


 1540              		@ link register save eliminated.
 1541              	.LVL86:
 1542              		.loc 1 835 0
 1543 0000 064B     		ldr	r3, .L227
 1544 0002 9B78     		ldrb	r3, [r3, #2]	@ zero_extendqisi2
 1545 0004 DBB2     		uxtb	r3, r3
 1546 0006 012B     		cmp	r3, #1
 1547 0008 05D9     		bls	.L222
 1548 000a 022B     		cmp	r3, #2
 1549 000c 01D1     		bne	.L226
 1550              		.loc 1 842 0
 1551 000e FFF7FEBF 		b	mcpwm_foc_get_tachometer_value
 1552              	.LVL87:
 1553              	.L226:
 1554              		.loc 1 850 0
 1555 0012 0020     		movs	r0, #0
 1556              	.LVL88:
 1557 0014 7047     		bx	lr
 1558              	.LVL89:
 1559              	.L222:
 1560              		.loc 1 838 0
 1561 0016 FFF7FEBF 		b	mcpwm_get_tachometer_value
 1562              	.LVL90:
 1563              	.L228:
 1564 001a 00BF     		.align	2
 1565              	.L227:
 1566 001c 00000000 		.word	.LANCHOR11
 1567              		.cfi_endproc
 1568              	.LFE295:
 1569              		.size	mc_interface_get_tachometer_value, .-mc_interface_get_tachometer_value
 1570              		.section	.text.mc_interface_get_tachometer_abs_value,"ax",%progbits
 1571              		.align	2
 1572              		.p2align 4,,15
 1573              		.global	mc_interface_get_tachometer_abs_value
 1574              		.thumb
 1575              		.thumb_func
 1576              		.type	mc_interface_get_tachometer_abs_value, %function
 1577              	mc_interface_get_tachometer_abs_value:
 1578              	.LFB296:
 1579              		.loc 1 852 0
 1580              		.cfi_startproc
 1581              		@ args = 0, pretend = 0, frame = 0
 1582              		@ frame_needed = 0, uses_anonymous_args = 0
 1583              		@ link register save eliminated.
 1584              	.LVL91:
 1585              		.loc 1 855 0
 1586 0000 064B     		ldr	r3, .L236
 1587 0002 9B78     		ldrb	r3, [r3, #2]	@ zero_extendqisi2
 1588 0004 DBB2     		uxtb	r3, r3
 1589 0006 012B     		cmp	r3, #1
 1590 0008 05D9     		bls	.L231
 1591 000a 022B     		cmp	r3, #2
 1592 000c 01D1     		bne	.L235
 1593              		.loc 1 862 0
 1594 000e FFF7FEBF 		b	mcpwm_foc_get_tachometer_abs_value
 1595              	.LVL92:
 1596              	.L235:
ARM GAS  C:\Users\euanm\AppData\Local\Temp\ccnlTGs7.s 			page 29


 1597              		.loc 1 870 0
 1598 0012 0020     		movs	r0, #0
 1599              	.LVL93:
 1600 0014 7047     		bx	lr
 1601              	.LVL94:
 1602              	.L231:
 1603              		.loc 1 858 0
 1604 0016 FFF7FEBF 		b	mcpwm_get_tachometer_abs_value
 1605              	.LVL95:
 1606              	.L237:
 1607 001a 00BF     		.align	2
 1608              	.L236:
 1609 001c 00000000 		.word	.LANCHOR11
 1610              		.cfi_endproc
 1611              	.LFE296:
 1612              		.size	mc_interface_get_tachometer_abs_value, .-mc_interface_get_tachometer_abs_value
 1613              		.section	.text.mc_interface_get_last_inj_adc_isr_duration,"ax",%progbits
 1614              		.align	2
 1615              		.p2align 4,,15
 1616              		.global	mc_interface_get_last_inj_adc_isr_duration
 1617              		.thumb
 1618              		.thumb_func
 1619              		.type	mc_interface_get_last_inj_adc_isr_duration, %function
 1620              	mc_interface_get_last_inj_adc_isr_duration:
 1621              	.LFB297:
 1622              		.loc 1 872 0
 1623              		.cfi_startproc
 1624              		@ args = 0, pretend = 0, frame = 0
 1625              		@ frame_needed = 0, uses_anonymous_args = 0
 1626              		@ link register save eliminated.
 1627              	.LVL96:
 1628              		.loc 1 875 0
 1629 0000 064B     		ldr	r3, .L245
 1630 0002 9B78     		ldrb	r3, [r3, #2]	@ zero_extendqisi2
 1631 0004 DBB2     		uxtb	r3, r3
 1632 0006 012B     		cmp	r3, #1
 1633 0008 06D9     		bls	.L240
 1634 000a 022B     		cmp	r3, #2
 1635 000c 01D1     		bne	.L244
 1636              		.loc 1 882 0
 1637 000e FFF7FEBF 		b	mcpwm_foc_get_last_inj_adc_isr_duration
 1638              	.LVL97:
 1639              	.L244:
 1640              		.loc 1 890 0
 1641 0012 9FED030A 		vldr.32	s0, .L245+4
 1642 0016 7047     		bx	lr
 1643              	.L240:
 1644              		.loc 1 878 0
 1645 0018 FFF7FEBF 		b	mcpwm_get_last_inj_adc_isr_duration
 1646              	.LVL98:
 1647              	.L246:
 1648              		.align	2
 1649              	.L245:
 1650 001c 00000000 		.word	.LANCHOR11
 1651 0020 00000000 		.word	0
 1652              		.cfi_endproc
 1653              	.LFE297:
ARM GAS  C:\Users\euanm\AppData\Local\Temp\ccnlTGs7.s 			page 30


 1654              		.size	mc_interface_get_last_inj_adc_isr_duration, .-mc_interface_get_last_inj_adc_isr_duration
 1655              		.section	.text.mc_interface_read_reset_avg_motor_current,"ax",%progbits
 1656              		.align	2
 1657              		.p2align 4,,15
 1658              		.global	mc_interface_read_reset_avg_motor_current
 1659              		.thumb
 1660              		.thumb_func
 1661              		.type	mc_interface_read_reset_avg_motor_current, %function
 1662              	mc_interface_read_reset_avg_motor_current:
 1663              	.LFB298:
 1664              		.loc 1 892 0
 1665              		.cfi_startproc
 1666              		@ args = 0, pretend = 0, frame = 0
 1667              		@ frame_needed = 0, uses_anonymous_args = 0
 1668              		@ link register save eliminated.
 1669              		.loc 1 893 0
 1670 0000 0549     		ldr	r1, .L248
 1671 0002 064B     		ldr	r3, .L248+4
 1672 0004 91ED000A 		vldr.32	s0, [r1]
 1673 0008 D3ED007A 		vldr.32	s15, [r3]
 1674              	.LVL99:
 1675              		.loc 1 894 0
 1676 000c 0022     		movs	r2, #0
 1677 000e 0A60     		str	r2, [r1]	@ float
 1678              		.loc 1 897 0
 1679 0010 80EE270A 		vdiv.f32	s0, s0, s15
 1680              	.LVL100:
 1681              		.loc 1 895 0
 1682 0014 1A60     		str	r2, [r3]	@ float
 1683              		.loc 1 897 0
 1684 0016 7047     		bx	lr
 1685              	.L249:
 1686              		.align	2
 1687              	.L248:
 1688 0018 00000000 		.word	.LANCHOR18
 1689 001c 00000000 		.word	.LANCHOR20
 1690              		.cfi_endproc
 1691              	.LFE298:
 1692              		.size	mc_interface_read_reset_avg_motor_current, .-mc_interface_read_reset_avg_motor_current
 1693              		.section	.text.mc_interface_read_reset_avg_input_current,"ax",%progbits
 1694              		.align	2
 1695              		.p2align 4,,15
 1696              		.global	mc_interface_read_reset_avg_input_current
 1697              		.thumb
 1698              		.thumb_func
 1699              		.type	mc_interface_read_reset_avg_input_current, %function
 1700              	mc_interface_read_reset_avg_input_current:
 1701              	.LFB299:
 1702              		.loc 1 899 0
 1703              		.cfi_startproc
 1704              		@ args = 0, pretend = 0, frame = 0
 1705              		@ frame_needed = 0, uses_anonymous_args = 0
 1706              		@ link register save eliminated.
 1707              		.loc 1 900 0
 1708 0000 0549     		ldr	r1, .L251
 1709 0002 064B     		ldr	r3, .L251+4
 1710 0004 91ED000A 		vldr.32	s0, [r1]
ARM GAS  C:\Users\euanm\AppData\Local\Temp\ccnlTGs7.s 			page 31


 1711 0008 D3ED007A 		vldr.32	s15, [r3]
 1712              	.LVL101:
 1713              		.loc 1 901 0
 1714 000c 0022     		movs	r2, #0
 1715 000e 0A60     		str	r2, [r1]	@ float
 1716              		.loc 1 904 0
 1717 0010 80EE270A 		vdiv.f32	s0, s0, s15
 1718              	.LVL102:
 1719              		.loc 1 902 0
 1720 0014 1A60     		str	r2, [r3]	@ float
 1721              		.loc 1 904 0
 1722 0016 7047     		bx	lr
 1723              	.L252:
 1724              		.align	2
 1725              	.L251:
 1726 0018 00000000 		.word	.LANCHOR19
 1727 001c 00000000 		.word	.LANCHOR21
 1728              		.cfi_endproc
 1729              	.LFE299:
 1730              		.size	mc_interface_read_reset_avg_input_current, .-mc_interface_read_reset_avg_input_current
 1731              		.section	.text.mc_interface_get_pid_pos_set,"ax",%progbits
 1732              		.align	2
 1733              		.p2align 4,,15
 1734              		.global	mc_interface_get_pid_pos_set
 1735              		.thumb
 1736              		.thumb_func
 1737              		.type	mc_interface_get_pid_pos_set, %function
 1738              	mc_interface_get_pid_pos_set:
 1739              	.LFB300:
 1740              		.loc 1 906 0
 1741              		.cfi_startproc
 1742              		@ args = 0, pretend = 0, frame = 0
 1743              		@ frame_needed = 0, uses_anonymous_args = 0
 1744              		@ link register save eliminated.
 1745              		.loc 1 907 0
 1746 0000 014B     		ldr	r3, .L254
 1747 0002 93ED000A 		vldr.32	s0, [r3]
 1748              		.loc 1 908 0
 1749 0006 7047     		bx	lr
 1750              	.L255:
 1751              		.align	2
 1752              	.L254:
 1753 0008 00000000 		.word	.LANCHOR26
 1754              		.cfi_endproc
 1755              	.LFE300:
 1756              		.size	mc_interface_get_pid_pos_set, .-mc_interface_get_pid_pos_set
 1757              		.section	.text.mc_interface_get_pid_pos_now,"ax",%progbits
 1758              		.align	2
 1759              		.p2align 4,,15
 1760              		.global	mc_interface_get_pid_pos_now
 1761              		.thumb
 1762              		.thumb_func
 1763              		.type	mc_interface_get_pid_pos_now, %function
 1764              	mc_interface_get_pid_pos_now:
 1765              	.LFB301:
 1766              		.loc 1 910 0
 1767              		.cfi_startproc
ARM GAS  C:\Users\euanm\AppData\Local\Temp\ccnlTGs7.s 			page 32


 1768              		@ args = 0, pretend = 0, frame = 0
 1769              		@ frame_needed = 0, uses_anonymous_args = 0
 1770              		@ link register save eliminated.
 1771              	.LVL103:
 1772              		.loc 1 913 0
 1773 0000 064B     		ldr	r3, .L263
 1774 0002 9B78     		ldrb	r3, [r3, #2]	@ zero_extendqisi2
 1775 0004 DBB2     		uxtb	r3, r3
 1776 0006 012B     		cmp	r3, #1
 1777 0008 06D9     		bls	.L258
 1778 000a 022B     		cmp	r3, #2
 1779 000c 01D1     		bne	.L262
 1780              		.loc 1 920 0
 1781 000e FFF7FEBF 		b	mcpwm_foc_get_pid_pos_now
 1782              	.LVL104:
 1783              	.L262:
 1784              		.loc 1 928 0
 1785 0012 9FED030A 		vldr.32	s0, .L263+4
 1786 0016 7047     		bx	lr
 1787              	.L258:
 1788              		.loc 1 916 0
 1789 0018 FFF7FEBF 		b	encoder_read_deg
 1790              	.LVL105:
 1791              	.L264:
 1792              		.align	2
 1793              	.L263:
 1794 001c 00000000 		.word	.LANCHOR11
 1795 0020 00000000 		.word	0
 1796              		.cfi_endproc
 1797              	.LFE301:
 1798              		.size	mc_interface_get_pid_pos_now, .-mc_interface_get_pid_pos_now
 1799              		.section	.text.mc_interface_get_last_sample_adc_isr_duration,"ax",%progbits
 1800              		.align	2
 1801              		.p2align 4,,15
 1802              		.global	mc_interface_get_last_sample_adc_isr_duration
 1803              		.thumb
 1804              		.thumb_func
 1805              		.type	mc_interface_get_last_sample_adc_isr_duration, %function
 1806              	mc_interface_get_last_sample_adc_isr_duration:
 1807              	.LFB302:
 1808              		.loc 1 930 0
 1809              		.cfi_startproc
 1810              		@ args = 0, pretend = 0, frame = 0
 1811              		@ frame_needed = 0, uses_anonymous_args = 0
 1812              		@ link register save eliminated.
 1813              		.loc 1 931 0
 1814 0000 014B     		ldr	r3, .L266
 1815 0002 93ED000A 		vldr.32	s0, [r3]
 1816              		.loc 1 932 0
 1817 0006 7047     		bx	lr
 1818              	.L267:
 1819              		.align	2
 1820              	.L266:
 1821 0008 00000000 		.word	.LANCHOR27
 1822              		.cfi_endproc
 1823              	.LFE302:
 1824              		.size	mc_interface_get_last_sample_adc_isr_duration, .-mc_interface_get_last_sample_adc_isr_durati
ARM GAS  C:\Users\euanm\AppData\Local\Temp\ccnlTGs7.s 			page 33


 1825              		.section	.text.mc_interface_sample_print_data,"ax",%progbits
 1826              		.align	2
 1827              		.p2align 4,,15
 1828              		.global	mc_interface_sample_print_data
 1829              		.thumb
 1830              		.thumb_func
 1831              		.type	mc_interface_sample_print_data, %function
 1832              	mc_interface_sample_print_data:
 1833              	.LFB303:
 1834              		.loc 1 934 0
 1835              		.cfi_startproc
 1836              		@ args = 0, pretend = 0, frame = 0
 1837              		@ frame_needed = 0, uses_anonymous_args = 0
 1838              	.LVL106:
 1839 0000 10B5     		push	{r4, lr}
 1840              		.cfi_def_cfa_offset 8
 1841              		.cfi_offset 4, -8
 1842              		.cfi_offset 14, -4
 1843              		.loc 1 940 0
 1844 0002 0B4B     		ldr	r3, .L273
 1845              		.loc 1 939 0
 1846 0004 0B4C     		ldr	r4, .L273+4
 1847 0006 B1F5FA6F 		cmp	r1, #2000
 1848 000a 28BF     		it	cs
 1849 000c 4FF4FA61 		movcs	r1, #2000
 1850              	.LVL107:
 1851 0010 2160     		str	r1, [r4]
 1852              		.loc 1 940 0
 1853 0012 1A60     		str	r2, [r3]
 1854              		.loc 1 942 0
 1855 0014 20B9     		cbnz	r0, .L272
 1856              		.loc 1 946 0
 1857 0016 084A     		ldr	r2, .L273+8
 1858              	.LVL108:
 1859              		.loc 1 947 0
 1860 0018 084B     		ldr	r3, .L273+12
 1861              		.loc 1 946 0
 1862 001a 1060     		str	r0, [r2]
 1863              		.loc 1 947 0
 1864 001c 1860     		str	r0, [r3]
 1865 001e 10BD     		pop	{r4, pc}
 1866              	.LVL109:
 1867              	.L272:
 1868              		.loc 1 943 0
 1869 0020 074B     		ldr	r3, .L273+16
 1870 0022 0122     		movs	r2, #1
 1871              	.LVL110:
 1872 0024 1A60     		str	r2, [r3]
 1873              		.loc 1 944 0
 1874 0026 FFF7FEFF 		bl	mcpwm_get_comm_step
 1875              	.LVL111:
 1876 002a 064B     		ldr	r3, .L273+20
 1877 002c 1860     		str	r0, [r3]
 1878 002e 10BD     		pop	{r4, pc}
 1879              	.L274:
 1880              		.align	2
 1881              	.L273:
ARM GAS  C:\Users\euanm\AppData\Local\Temp\ccnlTGs7.s 			page 34


 1882 0030 00000000 		.word	.LANCHOR29
 1883 0034 00000000 		.word	.LANCHOR1
 1884 0038 00000000 		.word	.LANCHOR31
 1885 003c 00000000 		.word	.LANCHOR30
 1886 0040 00000000 		.word	.LANCHOR32
 1887 0044 00000000 		.word	.LANCHOR33
 1888              		.cfi_endproc
 1889              	.LFE303:
 1890              		.size	mc_interface_sample_print_data, .-mc_interface_sample_print_data
 1891              		.section	.text.mc_interface_try_input,"ax",%progbits
 1892              		.align	2
 1893              		.p2align 4,,15
 1894              		.global	mc_interface_try_input
 1895              		.thumb
 1896              		.thumb_func
 1897              		.type	mc_interface_try_input, %function
 1898              	mc_interface_try_input:
 1899              	.LFB304:
 1900              		.loc 1 960 0
 1901              		.cfi_startproc
 1902              		@ args = 0, pretend = 0, frame = 0
 1903              		@ frame_needed = 0, uses_anonymous_args = 0
 1904 0000 08B5     		push	{r3, lr}
 1905              		.cfi_def_cfa_offset 8
 1906              		.cfi_offset 3, -8
 1907              		.cfi_offset 14, -4
 1908              		.loc 1 962 0
 1909 0002 FFF7FEFF 		bl	mc_interface_get_state
 1910              	.LVL112:
 1911 0006 0128     		cmp	r0, #1
 1912 0008 0CD0     		beq	.L283
 1913              		.loc 1 967 0
 1914 000a 0A4B     		ldr	r3, .L284
 1915 000c 1868     		ldr	r0, [r3]
 1916              	.LVL113:
 1917              		.loc 1 969 0
 1918 000e 40B9     		cbnz	r0, .L277
 1919              		.loc 1 969 0 is_stmt 0 discriminator 1
 1920 0010 094B     		ldr	r3, .L284+4
 1921 0012 1B78     		ldrb	r3, [r3]	@ zero_extendqisi2
 1922 0014 2BB1     		cbz	r3, .L277
 1923              		.loc 1 970 0 is_stmt 1
 1924 0016 094B     		ldr	r3, .L284+8
 1925 0018 1A78     		ldrb	r2, [r3]	@ zero_extendqisi2
 1926 001a 0AB1     		cbz	r2, .L278
 1927              		.loc 1 973 0
 1928 001c 1870     		strb	r0, [r3]
 1929 001e 08BD     		pop	{r3, pc}
 1930              	.L278:
 1931              		.loc 1 971 0
 1932 0020 0120     		movs	r0, #1
 1933              	.LVL114:
 1934              	.L277:
 1935              		.loc 1 978 0
 1936 0022 08BD     		pop	{r3, pc}
 1937              	.LVL115:
 1938              	.L283:
ARM GAS  C:\Users\euanm\AppData\Local\Temp\ccnlTGs7.s 			page 35


 1939              		.loc 1 963 0
 1940 0024 FFF7FEFF 		bl	mcpwm_stop_pwm
 1941              	.LVL116:
 1942              		.loc 1 964 0
 1943 0028 024B     		ldr	r3, .L284
 1944 002a 4FF4FA70 		mov	r0, #500
 1945 002e 1860     		str	r0, [r3]
 1946              	.LVL117:
 1947 0030 08BD     		pop	{r3, pc}
 1948              	.L285:
 1949 0032 00BF     		.align	2
 1950              	.L284:
 1951 0034 00000000 		.word	.LANCHOR14
 1952 0038 00000000 		.word	.LANCHOR16
 1953 003c 00000000 		.word	.LANCHOR17
 1954              		.cfi_endproc
 1955              	.LFE304:
 1956              		.size	mc_interface_try_input, .-mc_interface_try_input
 1957              		.section	.text.mc_interface_set_duty,"ax",%progbits
 1958              		.align	2
 1959              		.p2align 4,,15
 1960              		.global	mc_interface_set_duty
 1961              		.thumb
 1962              		.thumb_func
 1963              		.type	mc_interface_set_duty, %function
 1964              	mc_interface_set_duty:
 1965              	.LFB267:
 1966              		.loc 1 302 0
 1967              		.cfi_startproc
 1968              		@ args = 0, pretend = 0, frame = 0
 1969              		@ frame_needed = 0, uses_anonymous_args = 0
 1970              	.LVL118:
 1971 0000 08B5     		push	{r3, lr}
 1972              		.cfi_def_cfa_offset 8
 1973              		.cfi_offset 3, -8
 1974              		.cfi_offset 14, -4
 1975 0002 2DED028B 		vpush.64	{d8}
 1976              		.cfi_def_cfa_offset 16
 1977              		.cfi_offset 80, -16
 1978              		.cfi_offset 81, -12
 1979              		.loc 1 302 0
 1980 0006 B0EE408A 		vmov.f32	s16, s0
 1981              		.loc 1 303 0
 1982 000a FFF7FEFF 		bl	mc_interface_try_input
 1983              	.LVL119:
 1984 000e 38B9     		cbnz	r0, .L286
 1985 0010 B0EE480A 		vmov.f32	s0, s16
 1986              		.loc 1 320 0
 1987 0014 BDEC028B 		vldm	sp!, {d8}
 1988              		.cfi_remember_state
 1989              		.cfi_restore 80
 1990              		.cfi_restore 81
 1991              		.cfi_def_cfa_offset 8
 1992              	.LVL120:
 1993 0018 BDE80840 		pop	{r3, lr}
 1994              		.cfi_restore 14
 1995              		.cfi_restore 3
ARM GAS  C:\Users\euanm\AppData\Local\Temp\ccnlTGs7.s 			page 36


 1996              		.cfi_def_cfa_offset 0
 1997 001c FFF7FEBF 		b	mc_interface_set_duty.part.1
 1998              	.LVL121:
 1999              	.L286:
 2000              		.cfi_restore_state
 2001 0020 BDEC028B 		vldm	sp!, {d8}
 2002              		.cfi_restore 80
 2003              		.cfi_restore 81
 2004              		.cfi_def_cfa_offset 8
 2005              	.LVL122:
 2006 0024 08BD     		pop	{r3, pc}
 2007              		.cfi_endproc
 2008              	.LFE267:
 2009              		.size	mc_interface_set_duty, .-mc_interface_set_duty
 2010 0026 00BF     		.section	.text.mc_interface_brake_now,"ax",%progbits
 2011              		.align	2
 2012              		.p2align 4,,15
 2013              		.global	mc_interface_brake_now
 2014              		.thumb
 2015              		.thumb_func
 2016              		.type	mc_interface_brake_now, %function
 2017              	mc_interface_brake_now:
 2018              	.LFB278:
 2019              		.loc 1 521 0
 2020              		.cfi_startproc
 2021              		@ args = 0, pretend = 0, frame = 0
 2022              		@ frame_needed = 0, uses_anonymous_args = 0
 2023              	.LVL123:
 2024 0000 08B5     		push	{r3, lr}
 2025              		.cfi_def_cfa_offset 8
 2026              		.cfi_offset 3, -8
 2027              		.cfi_offset 14, -4
 2028              	.LBB79:
 2029              	.LBB80:
 2030              		.loc 1 303 0
 2031 0002 FFF7FEFF 		bl	mc_interface_try_input
 2032              	.LVL124:
 2033 0006 00B1     		cbz	r0, .L292
 2034 0008 08BD     		pop	{r3, pc}
 2035              	.L292:
 2036 000a 9FED030A 		vldr.32	s0, .L293
 2037              	.LBE80:
 2038              	.LBE79:
 2039              		.loc 1 523 0
 2040 000e BDE80840 		pop	{r3, lr}
 2041              		.cfi_restore 14
 2042              		.cfi_restore 3
 2043              		.cfi_def_cfa_offset 0
 2044              	.LBB82:
 2045              	.LBB81:
 2046 0012 FFF7FEBF 		b	mc_interface_set_duty.part.1
 2047              	.LVL125:
 2048              	.L294:
 2049 0016 00BF     		.align	2
 2050              	.L293:
 2051 0018 00000000 		.word	0
 2052              	.LBE81:
ARM GAS  C:\Users\euanm\AppData\Local\Temp\ccnlTGs7.s 			page 37


 2053              	.LBE82:
 2054              		.cfi_endproc
 2055              	.LFE278:
 2056              		.size	mc_interface_brake_now, .-mc_interface_brake_now
 2057              		.section	.text.mc_interface_set_duty_noramp,"ax",%progbits
 2058              		.align	2
 2059              		.p2align 4,,15
 2060              		.global	mc_interface_set_duty_noramp
 2061              		.thumb
 2062              		.thumb_func
 2063              		.type	mc_interface_set_duty_noramp, %function
 2064              	mc_interface_set_duty_noramp:
 2065              	.LFB268:
 2066              		.loc 1 322 0
 2067              		.cfi_startproc
 2068              		@ args = 0, pretend = 0, frame = 0
 2069              		@ frame_needed = 0, uses_anonymous_args = 0
 2070              	.LVL126:
 2071 0000 08B5     		push	{r3, lr}
 2072              		.cfi_def_cfa_offset 8
 2073              		.cfi_offset 3, -8
 2074              		.cfi_offset 14, -4
 2075 0002 2DED028B 		vpush.64	{d8}
 2076              		.cfi_def_cfa_offset 16
 2077              		.cfi_offset 80, -16
 2078              		.cfi_offset 81, -12
 2079              		.loc 1 322 0
 2080 0006 B0EE408A 		vmov.f32	s16, s0
 2081              		.loc 1 323 0
 2082 000a FFF7FEFF 		bl	mc_interface_try_input
 2083              	.LVL127:
 2084 000e 70B9     		cbnz	r0, .L295
 2085              		.loc 1 327 0
 2086 0010 0C4B     		ldr	r3, .L300
 2087 0012 9B78     		ldrb	r3, [r3, #2]	@ zero_extendqisi2
 2088 0014 DBB2     		uxtb	r3, r3
 2089 0016 012B     		cmp	r3, #1
 2090 0018 0CD9     		bls	.L297
 2091 001a 022B     		cmp	r3, #2
 2092 001c 07D1     		bne	.L295
 2093              		.loc 1 334 0
 2094 001e B0EE480A 		vmov.f32	s0, s16
 2095              		.loc 1 340 0
 2096 0022 BDEC028B 		vldm	sp!, {d8}
 2097              		.cfi_remember_state
 2098              		.cfi_restore 80
 2099              		.cfi_restore 81
 2100              		.cfi_def_cfa_offset 8
 2101              	.LVL128:
 2102 0026 BDE80840 		pop	{r3, lr}
 2103              		.cfi_restore 14
 2104              		.cfi_restore 3
 2105              		.cfi_def_cfa_offset 0
 2106              		.loc 1 334 0
 2107 002a FFF7FEBF 		b	mcpwm_foc_set_duty_noramp
 2108              	.LVL129:
 2109              	.L295:
ARM GAS  C:\Users\euanm\AppData\Local\Temp\ccnlTGs7.s 			page 38


 2110              		.cfi_restore_state
 2111              		.loc 1 340 0
 2112 002e BDEC028B 		vldm	sp!, {d8}
 2113              		.cfi_remember_state
 2114              		.cfi_restore 80
 2115              		.cfi_restore 81
 2116              		.cfi_def_cfa_offset 8
 2117              	.LVL130:
 2118 0032 08BD     		pop	{r3, pc}
 2119              	.LVL131:
 2120              	.L297:
 2121              		.cfi_restore_state
 2122              		.loc 1 330 0
 2123 0034 B0EE480A 		vmov.f32	s0, s16
 2124              		.loc 1 340 0
 2125 0038 BDEC028B 		vldm	sp!, {d8}
 2126              		.cfi_restore 80
 2127              		.cfi_restore 81
 2128              		.cfi_def_cfa_offset 8
 2129              	.LVL132:
 2130 003c BDE80840 		pop	{r3, lr}
 2131              		.cfi_restore 14
 2132              		.cfi_restore 3
 2133              		.cfi_def_cfa_offset 0
 2134              		.loc 1 330 0
 2135 0040 FFF7FEBF 		b	mcpwm_set_duty_noramp
 2136              	.LVL133:
 2137              	.L301:
 2138              		.align	2
 2139              	.L300:
 2140 0044 00000000 		.word	.LANCHOR11
 2141              		.cfi_endproc
 2142              	.LFE268:
 2143              		.size	mc_interface_set_duty_noramp, .-mc_interface_set_duty_noramp
 2144              		.section	.text.mc_interface_set_pid_speed,"ax",%progbits
 2145              		.align	2
 2146              		.p2align 4,,15
 2147              		.global	mc_interface_set_pid_speed
 2148              		.thumb
 2149              		.thumb_func
 2150              		.type	mc_interface_set_pid_speed, %function
 2151              	mc_interface_set_pid_speed:
 2152              	.LFB269:
 2153              		.loc 1 342 0
 2154              		.cfi_startproc
 2155              		@ args = 0, pretend = 0, frame = 0
 2156              		@ frame_needed = 0, uses_anonymous_args = 0
 2157              	.LVL134:
 2158 0000 08B5     		push	{r3, lr}
 2159              		.cfi_def_cfa_offset 8
 2160              		.cfi_offset 3, -8
 2161              		.cfi_offset 14, -4
 2162 0002 2DED028B 		vpush.64	{d8}
 2163              		.cfi_def_cfa_offset 16
 2164              		.cfi_offset 80, -16
 2165              		.cfi_offset 81, -12
 2166              		.loc 1 342 0
ARM GAS  C:\Users\euanm\AppData\Local\Temp\ccnlTGs7.s 			page 39


 2167 0006 B0EE408A 		vmov.f32	s16, s0
 2168              		.loc 1 343 0
 2169 000a FFF7FEFF 		bl	mc_interface_try_input
 2170              	.LVL135:
 2171 000e 70B9     		cbnz	r0, .L302
 2172              		.loc 1 347 0
 2173 0010 0C4B     		ldr	r3, .L307
 2174 0012 9B78     		ldrb	r3, [r3, #2]	@ zero_extendqisi2
 2175 0014 DBB2     		uxtb	r3, r3
 2176 0016 012B     		cmp	r3, #1
 2177 0018 0CD9     		bls	.L304
 2178 001a 022B     		cmp	r3, #2
 2179 001c 07D1     		bne	.L302
 2180              		.loc 1 354 0
 2181 001e B0EE480A 		vmov.f32	s0, s16
 2182              		.loc 1 360 0
 2183 0022 BDEC028B 		vldm	sp!, {d8}
 2184              		.cfi_remember_state
 2185              		.cfi_restore 80
 2186              		.cfi_restore 81
 2187              		.cfi_def_cfa_offset 8
 2188              	.LVL136:
 2189 0026 BDE80840 		pop	{r3, lr}
 2190              		.cfi_restore 14
 2191              		.cfi_restore 3
 2192              		.cfi_def_cfa_offset 0
 2193              		.loc 1 354 0
 2194 002a FFF7FEBF 		b	mcpwm_foc_set_pid_speed
 2195              	.LVL137:
 2196              	.L302:
 2197              		.cfi_restore_state
 2198              		.loc 1 360 0
 2199 002e BDEC028B 		vldm	sp!, {d8}
 2200              		.cfi_remember_state
 2201              		.cfi_restore 80
 2202              		.cfi_restore 81
 2203              		.cfi_def_cfa_offset 8
 2204              	.LVL138:
 2205 0032 08BD     		pop	{r3, pc}
 2206              	.LVL139:
 2207              	.L304:
 2208              		.cfi_restore_state
 2209              		.loc 1 350 0
 2210 0034 B0EE480A 		vmov.f32	s0, s16
 2211              		.loc 1 360 0
 2212 0038 BDEC028B 		vldm	sp!, {d8}
 2213              		.cfi_restore 80
 2214              		.cfi_restore 81
 2215              		.cfi_def_cfa_offset 8
 2216              	.LVL140:
 2217 003c BDE80840 		pop	{r3, lr}
 2218              		.cfi_restore 14
 2219              		.cfi_restore 3
 2220              		.cfi_def_cfa_offset 0
 2221              		.loc 1 350 0
 2222 0040 FFF7FEBF 		b	mcpwm_set_pid_speed
 2223              	.LVL141:
ARM GAS  C:\Users\euanm\AppData\Local\Temp\ccnlTGs7.s 			page 40


 2224              	.L308:
 2225              		.align	2
 2226              	.L307:
 2227 0044 00000000 		.word	.LANCHOR11
 2228              		.cfi_endproc
 2229              	.LFE269:
 2230              		.size	mc_interface_set_pid_speed, .-mc_interface_set_pid_speed
 2231              		.section	.text.mc_interface_set_pid_speed_with_cruise_status,"ax",%progbits
 2232              		.align	2
 2233              		.p2align 4,,15
 2234              		.global	mc_interface_set_pid_speed_with_cruise_status
 2235              		.thumb
 2236              		.thumb_func
 2237              		.type	mc_interface_set_pid_speed_with_cruise_status, %function
 2238              	mc_interface_set_pid_speed_with_cruise_status:
 2239              	.LFB270:
 2240              		.loc 1 362 0
 2241              		.cfi_startproc
 2242              		@ args = 0, pretend = 0, frame = 0
 2243              		@ frame_needed = 0, uses_anonymous_args = 0
 2244              	.LVL142:
 2245 0000 10B5     		push	{r4, lr}
 2246              		.cfi_def_cfa_offset 8
 2247              		.cfi_offset 4, -8
 2248              		.cfi_offset 14, -4
 2249 0002 2DED028B 		vpush.64	{d8}
 2250              		.cfi_def_cfa_offset 16
 2251              		.cfi_offset 80, -16
 2252              		.cfi_offset 81, -12
 2253              		.loc 1 362 0
 2254 0006 0446     		mov	r4, r0
 2255 0008 B0EE408A 		vmov.f32	s16, s0
 2256              		.loc 1 363 0
 2257 000c FFF7FEFF 		bl	mc_interface_try_input
 2258              	.LVL143:
 2259 0010 78B9     		cbnz	r0, .L309
 2260              		.loc 1 367 0
 2261 0012 0E4B     		ldr	r3, .L314
 2262 0014 9B78     		ldrb	r3, [r3, #2]	@ zero_extendqisi2
 2263 0016 DBB2     		uxtb	r3, r3
 2264 0018 012B     		cmp	r3, #1
 2265 001a 0DD9     		bls	.L311
 2266 001c 022B     		cmp	r3, #2
 2267 001e 08D1     		bne	.L309
 2268              		.loc 1 374 0
 2269 0020 B0EE480A 		vmov.f32	s0, s16
 2270              		.loc 1 380 0
 2271 0024 BDEC028B 		vldm	sp!, {d8}
 2272              		.cfi_remember_state
 2273              		.cfi_restore 80
 2274              		.cfi_restore 81
 2275              		.cfi_def_cfa_offset 8
 2276              	.LVL144:
 2277              		.loc 1 374 0
 2278 0028 2046     		mov	r0, r4
 2279              		.loc 1 380 0
 2280 002a BDE81040 		pop	{r4, lr}
ARM GAS  C:\Users\euanm\AppData\Local\Temp\ccnlTGs7.s 			page 41


 2281              		.cfi_restore 14
 2282              		.cfi_restore 4
 2283              		.cfi_def_cfa_offset 0
 2284              		.loc 1 374 0
 2285 002e FFF7FEBF 		b	mcpwm_foc_set_pid_speed_with_cruise_status
 2286              	.LVL145:
 2287              	.L309:
 2288              		.cfi_restore_state
 2289              		.loc 1 380 0
 2290 0032 BDEC028B 		vldm	sp!, {d8}
 2291              		.cfi_remember_state
 2292              		.cfi_restore 80
 2293              		.cfi_restore 81
 2294              		.cfi_def_cfa_offset 8
 2295              	.LVL146:
 2296 0036 10BD     		pop	{r4, pc}
 2297              	.LVL147:
 2298              	.L311:
 2299              		.cfi_restore_state
 2300              		.loc 1 370 0
 2301 0038 B0EE480A 		vmov.f32	s0, s16
 2302              		.loc 1 380 0
 2303 003c BDEC028B 		vldm	sp!, {d8}
 2304              		.cfi_restore 80
 2305              		.cfi_restore 81
 2306              		.cfi_def_cfa_offset 8
 2307              	.LVL148:
 2308              		.loc 1 370 0
 2309 0040 2046     		mov	r0, r4
 2310              		.loc 1 380 0
 2311 0042 BDE81040 		pop	{r4, lr}
 2312              		.cfi_restore 14
 2313              		.cfi_restore 4
 2314              		.cfi_def_cfa_offset 0
 2315              		.loc 1 370 0
 2316 0046 FFF7FEBF 		b	mcpwm_set_pid_speed_with_cruise_status
 2317              	.LVL149:
 2318              	.L315:
 2319 004a 00BF     		.align	2
 2320              	.L314:
 2321 004c 00000000 		.word	.LANCHOR11
 2322              		.cfi_endproc
 2323              	.LFE270:
 2324              		.size	mc_interface_set_pid_speed_with_cruise_status, .-mc_interface_set_pid_speed_with_cruise_stat
 2325              		.section	.text.mc_interface_set_pid_pos,"ax",%progbits
 2326              		.align	2
 2327              		.p2align 4,,15
 2328              		.global	mc_interface_set_pid_pos
 2329              		.thumb
 2330              		.thumb_func
 2331              		.type	mc_interface_set_pid_pos, %function
 2332              	mc_interface_set_pid_pos:
 2333              	.LFB273:
 2334              		.loc 1 391 0
 2335              		.cfi_startproc
 2336              		@ args = 0, pretend = 0, frame = 0
 2337              		@ frame_needed = 0, uses_anonymous_args = 0
ARM GAS  C:\Users\euanm\AppData\Local\Temp\ccnlTGs7.s 			page 42


 2338              	.LVL150:
 2339 0000 08B5     		push	{r3, lr}
 2340              		.cfi_def_cfa_offset 8
 2341              		.cfi_offset 3, -8
 2342              		.cfi_offset 14, -4
 2343 0002 2DED028B 		vpush.64	{d8}
 2344              		.cfi_def_cfa_offset 16
 2345              		.cfi_offset 80, -16
 2346              		.cfi_offset 81, -12
 2347              		.loc 1 391 0
 2348 0006 B0EE408A 		vmov.f32	s16, s0
 2349              		.loc 1 392 0
 2350 000a FFF7FEFF 		bl	mc_interface_try_input
 2351              	.LVL151:
 2352 000e 88B9     		cbnz	r0, .L316
 2353              		.loc 1 396 0
 2354 0010 0E4A     		ldr	r2, .L321
 2355              		.loc 1 398 0
 2356 0012 0F4B     		ldr	r3, .L321+4
 2357              		.loc 1 396 0
 2358 0014 82ED008A 		vstr.32	s16, [r2]
 2359              		.loc 1 398 0
 2360 0018 9B78     		ldrb	r3, [r3, #2]	@ zero_extendqisi2
 2361 001a DBB2     		uxtb	r3, r3
 2362 001c 012B     		cmp	r3, #1
 2363 001e 0CD9     		bls	.L318
 2364 0020 022B     		cmp	r3, #2
 2365 0022 07D1     		bne	.L316
 2366              		.loc 1 405 0
 2367 0024 B0EE480A 		vmov.f32	s0, s16
 2368              		.loc 1 411 0
 2369 0028 BDEC028B 		vldm	sp!, {d8}
 2370              		.cfi_remember_state
 2371              		.cfi_restore 80
 2372              		.cfi_restore 81
 2373              		.cfi_def_cfa_offset 8
 2374              	.LVL152:
 2375 002c BDE80840 		pop	{r3, lr}
 2376              		.cfi_restore 14
 2377              		.cfi_restore 3
 2378              		.cfi_def_cfa_offset 0
 2379              		.loc 1 405 0
 2380 0030 FFF7FEBF 		b	mcpwm_foc_set_pid_pos
 2381              	.LVL153:
 2382              	.L316:
 2383              		.cfi_restore_state
 2384              		.loc 1 411 0
 2385 0034 BDEC028B 		vldm	sp!, {d8}
 2386              		.cfi_remember_state
 2387              		.cfi_restore 80
 2388              		.cfi_restore 81
 2389              		.cfi_def_cfa_offset 8
 2390              	.LVL154:
 2391 0038 08BD     		pop	{r3, pc}
 2392              	.LVL155:
 2393              	.L318:
 2394              		.cfi_restore_state
ARM GAS  C:\Users\euanm\AppData\Local\Temp\ccnlTGs7.s 			page 43


 2395              		.loc 1 401 0
 2396 003a B0EE480A 		vmov.f32	s0, s16
 2397              		.loc 1 411 0
 2398 003e BDEC028B 		vldm	sp!, {d8}
 2399              		.cfi_restore 80
 2400              		.cfi_restore 81
 2401              		.cfi_def_cfa_offset 8
 2402              	.LVL156:
 2403 0042 BDE80840 		pop	{r3, lr}
 2404              		.cfi_restore 14
 2405              		.cfi_restore 3
 2406              		.cfi_def_cfa_offset 0
 2407              		.loc 1 401 0
 2408 0046 FFF7FEBF 		b	mcpwm_set_pid_pos
 2409              	.LVL157:
 2410              	.L322:
 2411 004a 00BF     		.align	2
 2412              	.L321:
 2413 004c 00000000 		.word	.LANCHOR26
 2414 0050 00000000 		.word	.LANCHOR11
 2415              		.cfi_endproc
 2416              	.LFE273:
 2417              		.size	mc_interface_set_pid_pos, .-mc_interface_set_pid_pos
 2418              		.section	.text.mc_interface_set_current,"ax",%progbits
 2419              		.align	2
 2420              		.p2align 4,,15
 2421              		.global	mc_interface_set_current
 2422              		.thumb
 2423              		.thumb_func
 2424              		.type	mc_interface_set_current, %function
 2425              	mc_interface_set_current:
 2426              	.LFB274:
 2427              		.loc 1 413 0
 2428              		.cfi_startproc
 2429              		@ args = 0, pretend = 0, frame = 0
 2430              		@ frame_needed = 0, uses_anonymous_args = 0
 2431              	.LVL158:
 2432 0000 08B5     		push	{r3, lr}
 2433              		.cfi_def_cfa_offset 8
 2434              		.cfi_offset 3, -8
 2435              		.cfi_offset 14, -4
 2436 0002 2DED028B 		vpush.64	{d8}
 2437              		.cfi_def_cfa_offset 16
 2438              		.cfi_offset 80, -16
 2439              		.cfi_offset 81, -12
 2440              		.loc 1 413 0
 2441 0006 B0EE408A 		vmov.f32	s16, s0
 2442              		.loc 1 414 0
 2443 000a FFF7FEFF 		bl	mc_interface_try_input
 2444              	.LVL159:
 2445 000e 38B9     		cbnz	r0, .L323
 2446 0010 B0EE480A 		vmov.f32	s0, s16
 2447              		.loc 1 431 0
 2448 0014 BDEC028B 		vldm	sp!, {d8}
 2449              		.cfi_remember_state
 2450              		.cfi_restore 80
 2451              		.cfi_restore 81
ARM GAS  C:\Users\euanm\AppData\Local\Temp\ccnlTGs7.s 			page 44


 2452              		.cfi_def_cfa_offset 8
 2453              	.LVL160:
 2454 0018 BDE80840 		pop	{r3, lr}
 2455              		.cfi_restore 14
 2456              		.cfi_restore 3
 2457              		.cfi_def_cfa_offset 0
 2458 001c FFF7FEBF 		b	mc_interface_set_current.part.2
 2459              	.LVL161:
 2460              	.L323:
 2461              		.cfi_restore_state
 2462 0020 BDEC028B 		vldm	sp!, {d8}
 2463              		.cfi_restore 80
 2464              		.cfi_restore 81
 2465              		.cfi_def_cfa_offset 8
 2466              	.LVL162:
 2467 0024 08BD     		pop	{r3, pc}
 2468              		.cfi_endproc
 2469              	.LFE274:
 2470              		.size	mc_interface_set_current, .-mc_interface_set_current
 2471 0026 00BF     		.section	.text.mc_interface_release_motor,"ax",%progbits
 2472              		.align	2
 2473              		.p2align 4,,15
 2474              		.global	mc_interface_release_motor
 2475              		.thumb
 2476              		.thumb_func
 2477              		.type	mc_interface_release_motor, %function
 2478              	mc_interface_release_motor:
 2479              	.LFB279:
 2480              		.loc 1 528 0
 2481              		.cfi_startproc
 2482              		@ args = 0, pretend = 0, frame = 0
 2483              		@ frame_needed = 0, uses_anonymous_args = 0
 2484              	.LVL163:
 2485 0000 08B5     		push	{r3, lr}
 2486              		.cfi_def_cfa_offset 8
 2487              		.cfi_offset 3, -8
 2488              		.cfi_offset 14, -4
 2489              	.LBB83:
 2490              	.LBB84:
 2491              		.loc 1 414 0
 2492 0002 FFF7FEFF 		bl	mc_interface_try_input
 2493              	.LVL164:
 2494 0006 00B1     		cbz	r0, .L329
 2495 0008 08BD     		pop	{r3, pc}
 2496              	.L329:
 2497 000a 9FED030A 		vldr.32	s0, .L330
 2498              	.LBE84:
 2499              	.LBE83:
 2500              		.loc 1 530 0
 2501 000e BDE80840 		pop	{r3, lr}
 2502              		.cfi_restore 14
 2503              		.cfi_restore 3
 2504              		.cfi_def_cfa_offset 0
 2505              	.LBB86:
 2506              	.LBB85:
 2507 0012 FFF7FEBF 		b	mc_interface_set_current.part.2
 2508              	.LVL165:
ARM GAS  C:\Users\euanm\AppData\Local\Temp\ccnlTGs7.s 			page 45


 2509              	.L331:
 2510 0016 00BF     		.align	2
 2511              	.L330:
 2512 0018 00000000 		.word	0
 2513              	.LBE85:
 2514              	.LBE86:
 2515              		.cfi_endproc
 2516              	.LFE279:
 2517              		.size	mc_interface_release_motor, .-mc_interface_release_motor
 2518              		.section	.text.mc_interface_set_brake_current,"ax",%progbits
 2519              		.align	2
 2520              		.p2align 4,,15
 2521              		.global	mc_interface_set_brake_current
 2522              		.thumb
 2523              		.thumb_func
 2524              		.type	mc_interface_set_brake_current, %function
 2525              	mc_interface_set_brake_current:
 2526              	.LFB275:
 2527              		.loc 1 433 0
 2528              		.cfi_startproc
 2529              		@ args = 0, pretend = 0, frame = 0
 2530              		@ frame_needed = 0, uses_anonymous_args = 0
 2531              	.LVL166:
 2532 0000 08B5     		push	{r3, lr}
 2533              		.cfi_def_cfa_offset 8
 2534              		.cfi_offset 3, -8
 2535              		.cfi_offset 14, -4
 2536 0002 2DED028B 		vpush.64	{d8}
 2537              		.cfi_def_cfa_offset 16
 2538              		.cfi_offset 80, -16
 2539              		.cfi_offset 81, -12
 2540              		.loc 1 433 0
 2541 0006 B0EE408A 		vmov.f32	s16, s0
 2542              		.loc 1 434 0
 2543 000a FFF7FEFF 		bl	mc_interface_try_input
 2544              	.LVL167:
 2545 000e 70B9     		cbnz	r0, .L332
 2546              		.loc 1 438 0
 2547 0010 0C4B     		ldr	r3, .L337
 2548 0012 9B78     		ldrb	r3, [r3, #2]	@ zero_extendqisi2
 2549 0014 DBB2     		uxtb	r3, r3
 2550 0016 012B     		cmp	r3, #1
 2551 0018 0CD9     		bls	.L334
 2552 001a 022B     		cmp	r3, #2
 2553 001c 07D1     		bne	.L332
 2554              		.loc 1 445 0
 2555 001e B0EE480A 		vmov.f32	s0, s16
 2556              		.loc 1 451 0
 2557 0022 BDEC028B 		vldm	sp!, {d8}
 2558              		.cfi_remember_state
 2559              		.cfi_restore 80
 2560              		.cfi_restore 81
 2561              		.cfi_def_cfa_offset 8
 2562              	.LVL168:
 2563 0026 BDE80840 		pop	{r3, lr}
 2564              		.cfi_restore 14
 2565              		.cfi_restore 3
ARM GAS  C:\Users\euanm\AppData\Local\Temp\ccnlTGs7.s 			page 46


 2566              		.cfi_def_cfa_offset 0
 2567              		.loc 1 445 0
 2568 002a FFF7FEBF 		b	mcpwm_foc_set_brake_current
 2569              	.LVL169:
 2570              	.L332:
 2571              		.cfi_restore_state
 2572              		.loc 1 451 0
 2573 002e BDEC028B 		vldm	sp!, {d8}
 2574              		.cfi_remember_state
 2575              		.cfi_restore 80
 2576              		.cfi_restore 81
 2577              		.cfi_def_cfa_offset 8
 2578              	.LVL170:
 2579 0032 08BD     		pop	{r3, pc}
 2580              	.LVL171:
 2581              	.L334:
 2582              		.cfi_restore_state
 2583              		.loc 1 441 0
 2584 0034 B0EE480A 		vmov.f32	s0, s16
 2585              		.loc 1 451 0
 2586 0038 BDEC028B 		vldm	sp!, {d8}
 2587              		.cfi_restore 80
 2588              		.cfi_restore 81
 2589              		.cfi_def_cfa_offset 8
 2590              	.LVL172:
 2591 003c BDE80840 		pop	{r3, lr}
 2592              		.cfi_restore 14
 2593              		.cfi_restore 3
 2594              		.cfi_def_cfa_offset 0
 2595              		.loc 1 441 0
 2596 0040 FFF7FEBF 		b	mcpwm_set_brake_current
 2597              	.LVL173:
 2598              	.L338:
 2599              		.align	2
 2600              	.L337:
 2601 0044 00000000 		.word	.LANCHOR11
 2602              		.cfi_endproc
 2603              	.LFE275:
 2604              		.size	mc_interface_set_brake_current, .-mc_interface_set_brake_current
 2605              		.section	.text.mc_interface_set_servo,"ax",%progbits
 2606              		.align	2
 2607              		.p2align 4,,15
 2608              		.global	mc_interface_set_servo
 2609              		.thumb
 2610              		.thumb_func
 2611              		.type	mc_interface_set_servo, %function
 2612              	mc_interface_set_servo:
 2613              	.LFB276:
 2614              		.loc 1 453 0
 2615              		.cfi_startproc
 2616              		@ args = 0, pretend = 0, frame = 0
 2617              		@ frame_needed = 0, uses_anonymous_args = 0
 2618              	.LVL174:
 2619 0000 38B5     		push	{r3, r4, r5, lr}
 2620              		.cfi_def_cfa_offset 16
 2621              		.cfi_offset 3, -16
 2622              		.cfi_offset 4, -12
ARM GAS  C:\Users\euanm\AppData\Local\Temp\ccnlTGs7.s 			page 47


 2623              		.cfi_offset 5, -8
 2624              		.cfi_offset 14, -4
 2625 0002 2DED048B 		vpush.64	{d8, d9}
 2626              		.cfi_def_cfa_offset 32
 2627              		.cfi_offset 80, -32
 2628              		.cfi_offset 81, -28
 2629              		.cfi_offset 82, -24
 2630              		.cfi_offset 83, -20
 2631              		.loc 1 453 0
 2632 0006 0546     		mov	r5, r0
 2633 0008 B0EE408A 		vmov.f32	s16, s0
 2634              		.loc 1 454 0
 2635 000c FFF7FEFF 		bl	mc_interface_try_input
 2636              	.LVL175:
 2637 0010 A8BB     		cbnz	r0, .L339
 2638              	.LVL176:
 2639              		.loc 1 460 0
 2640 0012 B5EEC08A 		vcmpe.f32	s16, #0
 2641 0016 F1EE10FA 		vmrs	APSR_nzcv, FPSCR
 2642 001a 53DD     		ble	.L360
 2643              		.loc 1 461 0
 2644 001c 4F4C     		ldr	r4, .L366
 2645 001e 237E     		ldrb	r3, [r4, #24]	@ zero_extendqisi2
 2646 0020 83B3     		cbz	r3, .L343
 2647              		.loc 1 463 0
 2648 0022 4F4B     		ldr	r3, .L366+4
 2649              		.loc 1 462 0
 2650 0024 D4ED018A 		vldr.32	s17, [r4, #4]
 2651              		.loc 1 463 0
 2652 0028 D4ED076A 		vldr.32	s13, [r4, #28]
 2653 002c 1B8A     		ldrh	r3, [r3, #16]
 2654 002e DFED4D7A 		vldr.32	s15, .L366+8
 2655 0032 9FED4D6A 		vldr.32	s12, .L366+12
 2656 0036 9BB2     		uxth	r3, r3
 2657 0038 07EE103A 		vmov	s14, r3	@ int
 2658 003c B8EE477A 		vcvt.f32.u32	s14, s14
 2659              		.loc 1 462 0
 2660 0040 68EE288A 		vmul.f32	s17, s16, s17
 2661              		.loc 1 463 0
 2662 0044 67EE277A 		vmul.f32	s15, s14, s15
 2663 0048 67EE867A 		vmul.f32	s15, s15, s12
 2664 004c 86EEA79A 		vdiv.f32	s18, s13, s15
 2665 0050 FFF7FEFF 		bl	mc_interface_get_duty_cycle_for_watt_calculation
 2666              	.LVL177:
 2667              		.loc 1 462 0
 2668 0054 C9EE000A 		vdiv.f32	s1, s18, s0
 2669 0058 B0EE680A 		vmov.f32	s0, s17
 2670 005c 60EE880A 		vmul.f32	s1, s1, s16
 2671 0060 FFF7FEFF 		bl	utils_smallest_of_2
 2672              	.LVL178:
 2673              		.loc 1 468 0
 2674 0064 05BB     		cbnz	r5, .L363
 2675              	.LVL179:
 2676              	.L345:
 2677              		.loc 1 484 0
 2678 0066 A378     		ldrb	r3, [r4, #2]	@ zero_extendqisi2
 2679 0068 DBB2     		uxtb	r3, r3
ARM GAS  C:\Users\euanm\AppData\Local\Temp\ccnlTGs7.s 			page 48


 2680 006a 012B     		cmp	r3, #1
 2681 006c 24D9     		bls	.L349
 2682              	.L364:
 2683 006e 022B     		cmp	r3, #2
 2684 0070 05D1     		bne	.L339
 2685              		.loc 1 497 0
 2686 0072 BDEC048B 		vldm	sp!, {d8-d9}
 2687              		.cfi_remember_state
 2688              		.cfi_restore 82
 2689              		.cfi_restore 83
 2690              		.cfi_restore 80
 2691              		.cfi_restore 81
 2692              		.cfi_def_cfa_offset 16
 2693 0076 BDE83840 		pop	{r3, r4, r5, lr}
 2694              		.cfi_restore 14
 2695              		.cfi_restore 5
 2696              		.cfi_restore 4
 2697              		.cfi_restore 3
 2698              		.cfi_def_cfa_offset 0
 2699              		.loc 1 491 0
 2700 007a FFF7FEBF 		b	mcpwm_foc_set_current
 2701              	.LVL180:
 2702              	.L339:
 2703              		.cfi_restore_state
 2704              		.loc 1 497 0
 2705 007e BDEC048B 		vldm	sp!, {d8-d9}
 2706              		.cfi_remember_state
 2707              		.cfi_restore 82
 2708              		.cfi_restore 83
 2709              		.cfi_restore 80
 2710              		.cfi_restore 81
 2711              		.cfi_def_cfa_offset 16
 2712 0082 38BD     		pop	{r3, r4, r5, pc}
 2713              	.LVL181:
 2714              	.L343:
 2715              		.cfi_restore_state
 2716              		.loc 1 465 0
 2717 0084 D4ED018A 		vldr.32	s17, [r4, #4]
 2718              		.loc 1 466 0
 2719 0088 D4ED030A 		vldr.32	s1, [r4, #12]
 2720              		.loc 1 465 0
 2721 008c 68EE288A 		vmul.f32	s17, s16, s17
 2722              		.loc 1 466 0
 2723 0090 28EE208A 		vmul.f32	s16, s16, s1
 2724              	.LVL182:
 2725 0094 FFF7FEFF 		bl	mc_interface_get_duty_cycle_for_watt_calculation
 2726              	.LVL183:
 2727              		.loc 1 465 0
 2728 0098 C8EE000A 		vdiv.f32	s1, s16, s0
 2729 009c B0EE680A 		vmov.f32	s0, s17
 2730 00a0 FFF7FEFF 		bl	utils_smallest_of_2
 2731              	.LVL184:
 2732              		.loc 1 468 0
 2733 00a4 002D     		cmp	r5, #0
 2734 00a6 DED0     		beq	.L345
 2735              	.L363:
 2736              		.loc 1 469 0
ARM GAS  C:\Users\euanm\AppData\Local\Temp\ccnlTGs7.s 			page 49


 2737 00a8 D4ED470A 		vldr.32	s1, [r4, #284]
 2738 00ac FFF7FEFF 		bl	utils_highest_of_2
 2739              	.LVL185:
 2740              		.loc 1 484 0
 2741 00b0 A378     		ldrb	r3, [r4, #2]	@ zero_extendqisi2
 2742 00b2 DBB2     		uxtb	r3, r3
 2743 00b4 012B     		cmp	r3, #1
 2744 00b6 DAD8     		bhi	.L364
 2745              	.L349:
 2746              		.loc 1 497 0
 2747 00b8 BDEC048B 		vldm	sp!, {d8-d9}
 2748              		.cfi_remember_state
 2749              		.cfi_restore 82
 2750              		.cfi_restore 83
 2751              		.cfi_restore 80
 2752              		.cfi_restore 81
 2753              		.cfi_def_cfa_offset 16
 2754 00bc BDE83840 		pop	{r3, r4, r5, lr}
 2755              		.cfi_restore 14
 2756              		.cfi_restore 5
 2757              		.cfi_restore 4
 2758              		.cfi_restore 3
 2759              		.cfi_def_cfa_offset 0
 2760              		.loc 1 487 0
 2761 00c0 FFF7FEBF 		b	mcpwm_set_current
 2762              	.LVL186:
 2763              	.L360:
 2764              		.cfi_restore_state
 2765              		.loc 1 471 0
 2766 00c4 03D4     		bmi	.L365
 2767              		.loc 1 458 0
 2768 00c6 9FED290A 		vldr.32	s0, .L366+16
 2769 00ca 244C     		ldr	r4, .L366
 2770 00cc CBE7     		b	.L345
 2771              	.L365:
 2772              		.loc 1 472 0
 2773 00ce 234C     		ldr	r4, .L366
 2774 00d0 237E     		ldrb	r3, [r4, #24]	@ zero_extendqisi2
 2775 00d2 6BB3     		cbz	r3, .L347
 2776              		.loc 1 474 0
 2777 00d4 224B     		ldr	r3, .L366+4
 2778              		.loc 1 473 0
 2779 00d6 D4ED028A 		vldr.32	s17, [r4, #8]
 2780              		.loc 1 474 0
 2781 00da D4ED076A 		vldr.32	s13, [r4, #28]
 2782 00de 1B8A     		ldrh	r3, [r3, #16]
 2783 00e0 DFED207A 		vldr.32	s15, .L366+8
 2784 00e4 9FED206A 		vldr.32	s12, .L366+12
 2785 00e8 9BB2     		uxth	r3, r3
 2786 00ea 07EE103A 		vmov	s14, r3	@ int
 2787 00ee B8EE477A 		vcvt.f32.u32	s14, s14
 2788 00f2 67EE277A 		vmul.f32	s15, s14, s15
 2789 00f6 67EE867A 		vmul.f32	s15, s15, s12
 2790 00fa 86EEA79A 		vdiv.f32	s18, s13, s15
 2791 00fe FFF7FEFF 		bl	mc_interface_get_duty_cycle_for_watt_calculation
 2792              	.LVL187:
 2793              		.loc 1 473 0
ARM GAS  C:\Users\euanm\AppData\Local\Temp\ccnlTGs7.s 			page 50


 2794 0102 68EE287A 		vmul.f32	s15, s16, s17
 2795 0106 C9EE000A 		vdiv.f32	s1, s18, s0
 2796 010a B0EEE70A 		vabs.f32	s0, s15
 2797 010e 60EE880A 		vmul.f32	s1, s1, s16
 2798 0112 F0EEE00A 		vabs.f32	s1, s1
 2799 0116 FFF7FEFF 		bl	utils_smallest_of_2
 2800              	.LVL188:
 2801 011a B1EE400A 		vneg.f32	s0, s0
 2802              	.LVL189:
 2803              	.L348:
 2804              		.loc 1 479 0
 2805 011e 002D     		cmp	r5, #0
 2806 0120 A1D0     		beq	.L345
 2807              		.loc 1 480 0
 2808 0122 D4ED470A 		vldr.32	s1, [r4, #284]
 2809 0126 F1EE600A 		vneg.f32	s1, s1
 2810 012a FFF7FEFF 		bl	utils_smallest_of_2
 2811              	.LVL190:
 2812 012e 9AE7     		b	.L345
 2813              	.LVL191:
 2814              	.L347:
 2815              		.loc 1 476 0
 2816 0130 94ED029A 		vldr.32	s18, [r4, #8]
 2817              		.loc 1 477 0
 2818 0134 D4ED038A 		vldr.32	s17, [r4, #12]
 2819 0138 FFF7FEFF 		bl	mc_interface_get_duty_cycle_for_watt_calculation
 2820              	.LVL192:
 2821 013c 68EE288A 		vmul.f32	s17, s16, s17
 2822              		.loc 1 476 0
 2823 0140 28EE098A 		vmul.f32	s16, s16, s18
 2824              	.LVL193:
 2825 0144 88EE800A 		vdiv.f32	s0, s17, s0
 2826 0148 F0EEC00A 		vabs.f32	s1, s0
 2827 014c B0EEC80A 		vabs.f32	s0, s16
 2828 0150 FFF7FEFF 		bl	utils_smallest_of_2
 2829              	.LVL194:
 2830 0154 B1EE400A 		vneg.f32	s0, s0
 2831              	.LVL195:
 2832 0158 E1E7     		b	.L348
 2833              	.L367:
 2834 015a 00BF     		.align	2
 2835              	.L366:
 2836 015c 00000000 		.word	.LANCHOR11
 2837 0160 00000000 		.word	.LANCHOR38
 2838 0164 6740533A 		.word	978534503
 2839 0168 D145FF41 		.word	1107248593
 2840 016c 00000000 		.word	0
 2841              		.cfi_endproc
 2842              	.LFE276:
 2843              		.size	mc_interface_set_servo, .-mc_interface_set_servo
 2844              		.section	.text.mc_interface_set_brake_servo,"ax",%progbits
 2845              		.align	2
 2846              		.p2align 4,,15
 2847              		.global	mc_interface_set_brake_servo
 2848              		.thumb
 2849              		.thumb_func
 2850              		.type	mc_interface_set_brake_servo, %function
ARM GAS  C:\Users\euanm\AppData\Local\Temp\ccnlTGs7.s 			page 51


 2851              	mc_interface_set_brake_servo:
 2852              	.LFB277:
 2853              		.loc 1 499 0
 2854              		.cfi_startproc
 2855              		@ args = 0, pretend = 0, frame = 0
 2856              		@ frame_needed = 0, uses_anonymous_args = 0
 2857              	.LVL196:
 2858 0000 08B5     		push	{r3, lr}
 2859              		.cfi_def_cfa_offset 8
 2860              		.cfi_offset 3, -8
 2861              		.cfi_offset 14, -4
 2862 0002 2DED028B 		vpush.64	{d8}
 2863              		.cfi_def_cfa_offset 16
 2864              		.cfi_offset 80, -16
 2865              		.cfi_offset 81, -12
 2866              		.loc 1 499 0
 2867 0006 B0EE408A 		vmov.f32	s16, s0
 2868              		.loc 1 500 0
 2869 000a FFF7FEFF 		bl	mc_interface_try_input
 2870              	.LVL197:
 2871 000e 90B9     		cbnz	r0, .L368
 2872              		.loc 1 504 0
 2873 0010 0D4B     		ldr	r3, .L373
 2874 0012 D3ED027A 		vldr.32	s15, [r3, #8]
 2875              		.loc 1 506 0
 2876 0016 9B78     		ldrb	r3, [r3, #2]	@ zero_extendqisi2
 2877 0018 DBB2     		uxtb	r3, r3
 2878              		.loc 1 504 0
 2879 001a F0EEE77A 		vabs.f32	s15, s15
 2880              		.loc 1 506 0
 2881 001e 012B     		cmp	r3, #1
 2882              		.loc 1 504 0
 2883 0020 27EE880A 		vmul.f32	s0, s15, s16
 2884              	.LVL198:
 2885              		.loc 1 506 0
 2886 0024 0AD9     		bls	.L370
 2887 0026 022B     		cmp	r3, #2
 2888 0028 05D1     		bne	.L368
 2889              		.loc 1 519 0
 2890 002a BDEC028B 		vldm	sp!, {d8}
 2891              		.cfi_remember_state
 2892              		.cfi_restore 80
 2893              		.cfi_restore 81
 2894              		.cfi_def_cfa_offset 8
 2895              	.LVL199:
 2896 002e BDE80840 		pop	{r3, lr}
 2897              		.cfi_restore 14
 2898              		.cfi_restore 3
 2899              		.cfi_def_cfa_offset 0
 2900              		.loc 1 513 0
 2901 0032 FFF7FEBF 		b	mcpwm_foc_set_brake_current
 2902              	.LVL200:
 2903              	.L368:
 2904              		.cfi_restore_state
 2905              		.loc 1 519 0
 2906 0036 BDEC028B 		vldm	sp!, {d8}
 2907              		.cfi_remember_state
ARM GAS  C:\Users\euanm\AppData\Local\Temp\ccnlTGs7.s 			page 52


 2908              		.cfi_restore 80
 2909              		.cfi_restore 81
 2910              		.cfi_def_cfa_offset 8
 2911              	.LVL201:
 2912 003a 08BD     		pop	{r3, pc}
 2913              	.LVL202:
 2914              	.L370:
 2915              		.cfi_restore_state
 2916 003c BDEC028B 		vldm	sp!, {d8}
 2917              		.cfi_restore 80
 2918              		.cfi_restore 81
 2919              		.cfi_def_cfa_offset 8
 2920              	.LVL203:
 2921 0040 BDE80840 		pop	{r3, lr}
 2922              		.cfi_restore 14
 2923              		.cfi_restore 3
 2924              		.cfi_def_cfa_offset 0
 2925              		.loc 1 509 0
 2926 0044 FFF7FEBF 		b	mcpwm_set_brake_current
 2927              	.LVL204:
 2928              	.L374:
 2929              		.align	2
 2930              	.L373:
 2931 0048 00000000 		.word	.LANCHOR11
 2932              		.cfi_endproc
 2933              	.LFE277:
 2934              		.size	mc_interface_set_brake_servo, .-mc_interface_set_brake_servo
 2935              		.section	.text.mc_interface_fault_stop,"ax",%progbits
 2936              		.align	2
 2937              		.p2align 4,,15
 2938              		.global	mc_interface_fault_stop
 2939              		.thumb
 2940              		.thumb_func
 2941              		.type	mc_interface_fault_stop, %function
 2942              	mc_interface_fault_stop:
 2943              	.LFB305:
 2944              		.loc 1 980 0
 2945              		.cfi_startproc
 2946              		@ args = 0, pretend = 0, frame = 64
 2947              		@ frame_needed = 0, uses_anonymous_args = 0
 2948              	.LVL205:
 2949 0000 F0B5     		push	{r4, r5, r6, r7, lr}
 2950              		.cfi_def_cfa_offset 20
 2951              		.cfi_offset 4, -20
 2952              		.cfi_offset 5, -16
 2953              		.cfi_offset 6, -12
 2954              		.cfi_offset 7, -8
 2955              		.cfi_offset 14, -4
 2956 0002 91B0     		sub	sp, sp, #68
 2957              		.cfi_def_cfa_offset 88
 2958              		.loc 1 980 0
 2959 0004 0646     		mov	r6, r0
 2960              		.loc 1 981 0
 2961 0006 FFF7FEFF 		bl	mc_interface_dccal_done
 2962              	.LVL206:
 2963 000a 474D     		ldr	r5, .L390
 2964 000c 08B1     		cbz	r0, .L388
ARM GAS  C:\Users\euanm\AppData\Local\Temp\ccnlTGs7.s 			page 53


 2965              		.loc 1 981 0 is_stmt 0 discriminator 1
 2966 000e 2B78     		ldrb	r3, [r5]	@ zero_extendqisi2
 2967 0010 7BB1     		cbz	r3, .L386
 2968              	.L388:
 2969 0012 464C     		ldr	r4, .L390+4
 2970              	.L376:
 2971              		.loc 1 1012 0 is_stmt 1
 2972 0014 D4F82811 		ldr	r1, [r4, #296]
 2973              		.loc 1 1014 0
 2974 0018 A378     		ldrb	r3, [r4, #2]	@ zero_extendqisi2
 2975              		.loc 1 1012 0
 2976 001a 454A     		ldr	r2, .L390+8
 2977              		.loc 1 1014 0
 2978 001c DBB2     		uxtb	r3, r3
 2979 001e 012B     		cmp	r3, #1
 2980              		.loc 1 1012 0
 2981 0020 1160     		str	r1, [r2]
 2982              		.loc 1 1014 0
 2983 0022 72D9     		bls	.L380
 2984 0024 022B     		cmp	r3, #2
 2985 0026 01D1     		bne	.L379
 2986              		.loc 1 1021 0
 2987 0028 FFF7FEFF 		bl	mcpwm_foc_stop_pwm
 2988              	.LVL207:
 2989              	.L379:
 2990              		.loc 1 1028 0
 2991 002c 2E70     		strb	r6, [r5]
 2992              		.loc 1 1029 0
 2993 002e 11B0     		add	sp, sp, #68
 2994              		.cfi_remember_state
 2995              		.cfi_def_cfa_offset 20
 2996              		@ sp needed
 2997 0030 F0BD     		pop	{r4, r5, r6, r7, pc}
 2998              	.L386:
 2999              		.cfi_restore_state
 3000              	.LVL208:
 3001              	.LBB87:
 3002              	.LBB88:
 3003              	.LBB89:
 3004              	.LBB90:
 3005              	.LBB91:
 3006              		.file 3 "ChibiOS_3.0.2/os/ext/CMSIS/include/core_cmFunc.h"
 3007              		.loc 3 546 0
 3008 0032 2022     		movs	r2, #32
 3009              		.syntax unified
 3010              	@ 546 "ChibiOS_3.0.2/os/ext/CMSIS/include/core_cmFunc.h" 1
 3011 0034 82F31188 		MSR basepri, r2
 3012              	@ 0 "" 2
 3013              	.LVL209:
 3014              		.thumb
 3015              		.syntax unified
 3016              	.LBE91:
 3017              	.LBE90:
 3018              	.LBE89:
 3019              	.LBE88:
 3020              		.loc 1 985 0
 3021 0038 3E49     		ldr	r1, .L390+12
ARM GAS  C:\Users\euanm\AppData\Local\Temp\ccnlTGs7.s 			page 54


 3022              		.loc 1 986 0
 3023 003a 3F4A     		ldr	r2, .L390+16
 3024              		.loc 1 985 0
 3025 003c 496B     		ldr	r1, [r1, #52]
 3026 003e 0091     		str	r1, [sp]
 3027              		.loc 1 986 0
 3028 0040 116C     		ldr	r1, [r2, #64]
 3029 0042 0191     		str	r1, [sp, #4]
 3030              		.loc 1 987 0
 3031 0044 D26A     		ldr	r2, [r2, #44]
 3032 0046 0292     		str	r2, [sp, #8]
 3033              	.LVL210:
 3034              	.LBB92:
 3035              	.LBB93:
 3036              	.LBB94:
 3037              	.LBB95:
 3038              	.LBB96:
 3039              		.loc 3 546 0
 3040              		.syntax unified
 3041              	@ 546 "ChibiOS_3.0.2/os/ext/CMSIS/include/core_cmFunc.h" 1
 3042 0048 83F31188 		MSR basepri, r3
 3043              	@ 0 "" 2
 3044              	.LVL211:
 3045              		.thumb
 3046              		.syntax unified
 3047              	.LBE96:
 3048              	.LBE95:
 3049              	.LBE94:
 3050              	.LBE93:
 3051              	.LBE92:
 3052              		.loc 1 992 0
 3053 004c 374C     		ldr	r4, .L390+4
 3054              		.loc 1 991 0
 3055 004e 8DF80C60 		strb	r6, [sp, #12]
 3056              		.loc 1 992 0
 3057 0052 A378     		ldrb	r3, [r4, #2]	@ zero_extendqisi2
 3058 0054 022B     		cmp	r3, #2
 3059 0056 5DD0     		beq	.L389
 3060              		.loc 1 996 0
 3061 0058 FFF7FEFF 		bl	mc_interface_get_tot_current
 3062              	.LVL212:
 3063 005c 8DED040A 		vstr.32	s0, [sp, #16]
 3064              		.loc 1 997 0
 3065 0060 FFF7FEFF 		bl	mc_interface_get_tot_current_filtered
 3066              	.LVL213:
 3067 0064 8DED050A 		vstr.32	s0, [sp, #20]
 3068              	.L378:
 3069              		.loc 1 999 0
 3070 0068 344F     		ldr	r7, .L390+20
 3071 006a DFED357A 		vldr.32	s15, .L390+24
 3072 006e 3B8A     		ldrh	r3, [r7, #16]
 3073 0070 DFED346A 		vldr.32	s13, .L390+28
 3074 0074 9BB2     		uxth	r3, r3
 3075 0076 07EE103A 		vmov	s14, r3	@ int
 3076 007a B8EE477A 		vcvt.f32.u32	s14, s14
 3077 007e 67EE277A 		vmul.f32	s15, s14, s15
 3078 0082 67EEA67A 		vmul.f32	s15, s15, s13
ARM GAS  C:\Users\euanm\AppData\Local\Temp\ccnlTGs7.s 			page 55


 3079 0086 CDED067A 		vstr.32	s15, [sp, #24]
 3080              		.loc 1 1000 0
 3081 008a FFF7FEFF 		bl	mc_interface_get_duty_cycle_now
 3082              	.LVL214:
 3083 008e 8DED070A 		vstr.32	s0, [sp, #28]
 3084              		.loc 1 1001 0
 3085 0092 FFF7FEFF 		bl	mc_interface_get_rpm
 3086              	.LVL215:
 3087              		.loc 1 1002 0
 3088 0096 0020     		movs	r0, #0
 3089              		.loc 1 1001 0
 3090 0098 8DED080A 		vstr.32	s0, [sp, #32]
 3091              		.loc 1 1002 0
 3092 009c FFF7FEFF 		bl	mc_interface_get_tachometer_value
 3093              	.LVL216:
 3094              		.loc 1 1003 0
 3095 00a0 294B     		ldr	r3, .L390+32
 3096              		.loc 1 1002 0
 3097 00a2 0990     		str	r0, [sp, #36]
 3098              		.loc 1 1003 0
 3099 00a4 1868     		ldr	r0, [r3]
 3100              		.loc 1 1004 0
 3101 00a6 0099     		ldr	r1, [sp]
 3102              		.loc 1 1005 0
 3103 00a8 019A     		ldr	r2, [sp, #4]
 3104              		.loc 1 1006 0
 3105 00aa 029B     		ldr	r3, [sp, #8]
 3106              		.loc 1 1004 0
 3107 00ac 0B91     		str	r1, [sp, #44]
 3108              		.loc 1 1005 0
 3109 00ae 0C92     		str	r2, [sp, #48]
 3110              		.loc 1 1006 0
 3111 00b0 0D93     		str	r3, [sp, #52]
 3112              		.loc 1 1003 0
 3113 00b2 0A90     		str	r0, [sp, #40]
 3114              		.loc 1 1007 0
 3115 00b4 FFF7FEFF 		bl	mcpwm_get_comm_step
 3116              	.LVL217:
 3117              		.loc 1 1008 0
 3118 00b8 7B89     		ldrh	r3, [r7, #10]
 3119 00ba DFED246A 		vldr.32	s13, .L390+36
 3120 00be 9FED240A 		vldr.32	s0, .L390+40
 3121              		.loc 1 1007 0
 3122 00c2 0E90     		str	r0, [sp, #56]
 3123              		.loc 1 1008 0
 3124 00c4 9BB2     		uxth	r3, r3
 3125 00c6 07EE903A 		vmov	s15, r3	@ int
 3126 00ca F8EEE77A 		vcvt.f32.s32	s15, s15
 3127 00ce 86EEA77A 		vdiv.f32	s14, s13, s15
 3128 00d2 77EE407A 		vsub.f32	s15, s14, s0
 3129 00d6 87EE800A 		vdiv.f32	s0, s15, s0
 3130 00da FFF7FEFF 		bl	logf
 3131              	.LVL218:
 3132              		.loc 1 1009 0
 3133 00de 03A8     		add	r0, sp, #12
 3134              		.loc 1 1008 0
 3135 00e0 DFED1C6A 		vldr.32	s13, .L390+44
ARM GAS  C:\Users\euanm\AppData\Local\Temp\ccnlTGs7.s 			page 56


 3136 00e4 DFED1C7A 		vldr.32	s15, .L390+48
 3137 00e8 9FED1C7A 		vldr.32	s14, .L390+52
 3138 00ec 80EE260A 		vdiv.f32	s0, s0, s13
 3139 00f0 F7EE006A 		vmov.f32	s13, #1.0e+0
 3140 00f4 30EE270A 		vadd.f32	s0, s0, s15
 3141 00f8 C6EE807A 		vdiv.f32	s15, s13, s0
 3142 00fc 77EEC77A 		vsub.f32	s15, s15, s14
 3143 0100 CDED0F7A 		vstr.32	s15, [sp, #60]
 3144              		.loc 1 1009 0
 3145 0104 FFF7FEFF 		bl	terminal_add_fault_data
 3146              	.LVL219:
 3147 0108 84E7     		b	.L376
 3148              	.L380:
 3149              	.LBE87:
 3150              		.loc 1 1017 0
 3151 010a FFF7FEFF 		bl	mcpwm_stop_pwm
 3152              	.LVL220:
 3153              		.loc 1 1028 0
 3154 010e 2E70     		strb	r6, [r5]
 3155              		.loc 1 1029 0
 3156 0110 11B0     		add	sp, sp, #68
 3157              		.cfi_remember_state
 3158              		.cfi_def_cfa_offset 20
 3159              		@ sp needed
 3160 0112 F0BD     		pop	{r4, r5, r6, r7, pc}
 3161              	.L389:
 3162              		.cfi_restore_state
 3163              	.LBB97:
 3164              		.loc 1 993 0
 3165 0114 FFF7FEFF 		bl	mcpwm_foc_get_abs_motor_current
 3166              	.LVL221:
 3167 0118 8DED040A 		vstr.32	s0, [sp, #16]
 3168              		.loc 1 994 0
 3169 011c FFF7FEFF 		bl	mcpwm_foc_get_abs_motor_current_filtered
 3170              	.LVL222:
 3171 0120 8DED050A 		vstr.32	s0, [sp, #20]
 3172 0124 A0E7     		b	.L378
 3173              	.L391:
 3174 0126 00BF     		.align	2
 3175              	.L390:
 3176 0128 00000000 		.word	.LANCHOR13
 3177 012c 00000000 		.word	.LANCHOR11
 3178 0130 00000000 		.word	.LANCHOR14
 3179 0134 00040140 		.word	1073808384
 3180 0138 00000140 		.word	1073807360
 3181 013c 00000000 		.word	.LANCHOR38
 3182 0140 6740533A 		.word	978534503
 3183 0144 D145FF41 		.word	1107248593
 3184 0148 00000000 		.word	.LANCHOR15
 3185 014c 3C361C4C 		.word	1276917308
 3186 0150 00401C46 		.word	1176256512
 3187 0154 00A05645 		.word	1163304960
 3188 0158 0FCF5B3B 		.word	995872527
 3189 015c 33938843 		.word	1133024051
 3190              	.LBE97:
 3191              		.cfi_endproc
 3192              	.LFE305:
ARM GAS  C:\Users\euanm\AppData\Local\Temp\ccnlTGs7.s 			page 57


 3193              		.size	mc_interface_fault_stop, .-mc_interface_fault_stop
 3194              		.section	.text.update_override_limits.constprop.3,"ax",%progbits
 3195              		.align	2
 3196              		.p2align 4,,15
 3197              		.thumb
 3198              		.thumb_func
 3199              		.type	update_override_limits.constprop.3, %function
 3200              	update_override_limits.constprop.3:
 3201              	.LFB314:
 3202              		.loc 1 1184 0
 3203              		.cfi_startproc
 3204              		@ args = 0, pretend = 0, frame = 0
 3205              		@ frame_needed = 0, uses_anonymous_args = 0
 3206              	.LVL223:
 3207 0000 38B5     		push	{r3, r4, r5, lr}
 3208              		.cfi_def_cfa_offset 16
 3209              		.cfi_offset 3, -16
 3210              		.cfi_offset 4, -12
 3211              		.cfi_offset 5, -8
 3212              		.cfi_offset 14, -4
 3213              		.loc 1 1185 0
 3214 0002 674D     		ldr	r5, .L426
 3215 0004 DFED676A 		vldr.32	s13, .L426+4
 3216 0008 6B89     		ldrh	r3, [r5, #10]
 3217 000a 9FED670A 		vldr.32	s0, .L426+8
 3218              		.loc 1 1189 0
 3219 000e 674C     		ldr	r4, .L426+12
 3220              		.loc 1 1185 0
 3221 0010 9BB2     		uxth	r3, r3
 3222 0012 07EE903A 		vmov	s15, r3	@ int
 3223 0016 F8EEE77A 		vcvt.f32.s32	s15, s15
 3224              		.loc 1 1184 0
 3225 001a 2DED028B 		vpush.64	{d8}
 3226              		.cfi_def_cfa_offset 24
 3227              		.cfi_offset 80, -24
 3228              		.cfi_offset 81, -20
 3229              		.loc 1 1185 0
 3230 001e 86EEA77A 		vdiv.f32	s14, s13, s15
 3231              		.loc 1 1186 0
 3232 0022 9FED638A 		vldr.32	s16, .L426+16
 3233              		.loc 1 1185 0
 3234 0026 77EE407A 		vsub.f32	s15, s14, s0
 3235 002a 87EE800A 		vdiv.f32	s0, s15, s0
 3236 002e FFF7FEFF 		bl	logf
 3237              	.LVL224:
 3238              		.loc 1 1186 0
 3239 0032 2B8A     		ldrh	r3, [r5, #16]
 3240 0034 9BB2     		uxth	r3, r3
 3241              		.loc 1 1185 0
 3242 0036 DFED5F7A 		vldr.32	s15, .L426+20
 3243 003a 9FED5F7A 		vldr.32	s14, .L426+24
 3244 003e DFED5F5A 		vldr.32	s11, .L426+28
 3245              		.loc 1 1189 0
 3246 0042 D4ED116A 		vldr.32	s13, [r4, #68]
 3247              		.loc 1 1186 0
 3248 0046 9FED5E6A 		vldr.32	s12, .L426+32
 3249              		.loc 1 1185 0
ARM GAS  C:\Users\euanm\AppData\Local\Temp\ccnlTGs7.s 			page 58


 3250 004a 80EE270A 		vdiv.f32	s0, s0, s15
 3251 004e B7EE005A 		vmov.f32	s10, #1.0e+0
 3252 0052 30EE077A 		vadd.f32	s14, s0, s14
 3253              		.loc 1 1186 0
 3254 0056 07EE903A 		vmov	s15, r3	@ int
 3255              		.loc 1 1185 0
 3256 005a 85EE070A 		vdiv.f32	s0, s10, s14
 3257              		.loc 1 1186 0
 3258 005e F8EE677A 		vcvt.f32.u32	s15, s15
 3259              		.loc 1 1185 0
 3260 0062 30EE650A 		vsub.f32	s0, s0, s11
 3261              	.LVL225:
 3262              		.loc 1 1186 0
 3263 0066 67EE887A 		vmul.f32	s15, s15, s16
 3264              		.loc 1 1189 0
 3265 006a B4EEE60A 		vcmpe.f32	s0, s13
 3266 006e F1EE10FA 		vmrs	APSR_nzcv, FPSCR
 3267              		.loc 1 1186 0
 3268 0072 27EE868A 		vmul.f32	s16, s15, s12
 3269              	.LVL226:
 3270              		.loc 1 1189 0
 3271 0076 19D5     		bpl	.L419
 3272              		.loc 1 1190 0
 3273 0078 A368     		ldr	r3, [r4, #8]	@ float
 3274 007a 2366     		str	r3, [r4, #96]	@ float
 3275              		.loc 1 1191 0
 3276 007c 6368     		ldr	r3, [r4, #4]	@ float
 3277 007e E365     		str	r3, [r4, #92]	@ float
 3278              	.LVL227:
 3279              	.L395:
 3280              		.loc 1 1214 0
 3281 0080 D4ED0E7A 		vldr.32	s15, [r4, #56]
 3282 0084 494D     		ldr	r5, .L426+12
 3283 0086 B4EEE78A 		vcmpe.f32	s16, s15
 3284 008a F1EE10FA 		vmrs	APSR_nzcv, FPSCR
 3285 008e 78DC     		bgt	.L424
 3286              		.loc 1 1216 0
 3287 0090 D5ED0F7A 		vldr.32	s15, [r5, #60]
 3288 0094 B4EEE78A 		vcmpe.f32	s16, s15
 3289 0098 F1EE10FA 		vmrs	APSR_nzcv, FPSCR
 3290 009c 5ED5     		bpl	.L422
 3291              		.loc 1 1224 0
 3292 009e BDEC028B 		vldm	sp!, {d8}
 3293              		.cfi_remember_state
 3294              		.cfi_restore 80
 3295              		.cfi_restore 81
 3296              		.cfi_def_cfa_offset 16
 3297              	.LVL228:
 3298              		.loc 1 1217 0
 3299 00a2 0023     		movs	r3, #0
 3300 00a4 6B66     		str	r3, [r5, #100]	@ float
 3301              		.loc 1 1223 0
 3302 00a6 2369     		ldr	r3, [r4, #16]	@ float
 3303 00a8 A366     		str	r3, [r4, #104]	@ float
 3304              		.loc 1 1224 0
 3305 00aa 38BD     		pop	{r3, r4, r5, pc}
 3306              	.LVL229:
ARM GAS  C:\Users\euanm\AppData\Local\Temp\ccnlTGs7.s 			page 59


 3307              	.L419:
 3308              		.cfi_restore_state
 3309              		.loc 1 1192 0
 3310 00ac D4ED127A 		vldr.32	s15, [r4, #72]
 3311 00b0 B4EEE70A 		vcmpe.f32	s0, s15
 3312 00b4 F1EE10FA 		vmrs	APSR_nzcv, FPSCR
 3313 00b8 6ADC     		bgt	.L425
 3314              	.LBB98:
 3315              		.loc 1 1197 0
 3316 00ba D4ED011A 		vldr.32	s3, [r4, #4]
 3317              		.loc 1 1198 0
 3318 00be D4ED027A 		vldr.32	s15, [r4, #8]
 3319              		.loc 1 1202 0
 3320 00c2 9FED402A 		vldr.32	s4, .L426+36
 3321 00c6 394D     		ldr	r5, .L426+12
 3322              		.loc 1 1197 0
 3323 00c8 F0EEE11A 		vabs.f32	s3, s3
 3324              	.LVL230:
 3325              		.loc 1 1198 0
 3326 00cc F0EEE77A 		vabs.f32	s15, s15
 3327 00d0 F4EEE71A 		vcmpe.f32	s3, s15
 3328 00d4 F1EE10FA 		vmrs	APSR_nzcv, FPSCR
 3329              		.loc 1 1199 0
 3330 00d8 48BF     		it	mi
 3331 00da D4ED021A 		vldrmi.32	s3, [r4, #8]
 3332              	.LVL231:
 3333              		.loc 1 1202 0
 3334 00de D4ED110A 		vldr.32	s1, [r4, #68]
 3335 00e2 94ED121A 		vldr.32	s2, [r4, #72]
 3336              		.loc 1 1199 0
 3337 00e6 48BF     		it	mi
 3338 00e8 F0EEE11A 		vabsmi.f32	s3, s3
 3339              	.LVL232:
 3340              		.loc 1 1202 0
 3341 00ec FFF7FEFF 		bl	utils_map
 3342              	.LVL233:
 3343              		.loc 1 1204 0
 3344 00f0 D4ED017A 		vldr.32	s15, [r4, #4]
 3345 00f4 F0EEE77A 		vabs.f32	s15, s15
 3346 00f8 B4EEE70A 		vcmpe.f32	s0, s15
 3347 00fc F1EE10FA 		vmrs	APSR_nzcv, FPSCR
 3348 0100 10D5     		bpl	.L400
 3349              		.loc 1 1205 0
 3350 0102 D5ED017A 		vldr.32	s15, [r5, #4]
 3351 0106 F5EEC07A 		vcmpe.f32	s15, #0
 3352 010a F1EE10FA 		vmrs	APSR_nzcv, FPSCR
 3353 010e FFEE007A 		vmov.f32	s15, #-1.0e+0
 3354 0112 B7EE007A 		vmov.f32	s14, #1.0e+0
 3355 0116 58BF     		it	pl
 3356 0118 F0EE477A 		vmovpl.f32	s15, s14
 3357 011c 60EE277A 		vmul.f32	s15, s0, s15
 3358 0120 C4ED177A 		vstr.32	s15, [r4, #92]
 3359              	.L400:
 3360              		.loc 1 1208 0
 3361 0124 D4ED027A 		vldr.32	s15, [r4, #8]
 3362 0128 204B     		ldr	r3, .L426+12
 3363 012a F0EEE77A 		vabs.f32	s15, s15
ARM GAS  C:\Users\euanm\AppData\Local\Temp\ccnlTGs7.s 			page 60


 3364 012e B4EEE70A 		vcmpe.f32	s0, s15
 3365 0132 F1EE10FA 		vmrs	APSR_nzcv, FPSCR
 3366 0136 A3D5     		bpl	.L395
 3367              		.loc 1 1209 0
 3368 0138 D3ED027A 		vldr.32	s15, [r3, #8]
 3369 013c F5EEC07A 		vcmpe.f32	s15, #0
 3370 0140 F1EE10FA 		vmrs	APSR_nzcv, FPSCR
 3371 0144 FFEE007A 		vmov.f32	s15, #-1.0e+0
 3372 0148 B7EE007A 		vmov.f32	s14, #1.0e+0
 3373 014c 58BF     		it	pl
 3374 014e F0EE477A 		vmovpl.f32	s15, s14
 3375 0152 20EE270A 		vmul.f32	s0, s0, s15
 3376              	.LVL234:
 3377 0156 84ED180A 		vstr.32	s0, [r4, #96]
 3378 015a 91E7     		b	.L395
 3379              	.L422:
 3380              	.LBE98:
 3381              		.loc 1 1219 0
 3382 015c D5ED0E0A 		vldr.32	s1, [r5, #56]
 3383 0160 9FED182A 		vldr.32	s4, .L426+36
 3384 0164 95ED0F1A 		vldr.32	s2, [r5, #60]
 3385 0168 D5ED031A 		vldr.32	s3, [r5, #12]
 3386 016c B0EE480A 		vmov.f32	s0, s16
 3387 0170 FFF7FEFF 		bl	utils_map
 3388              	.LVL235:
 3389              		.loc 1 1224 0
 3390 0174 BDEC028B 		vldm	sp!, {d8}
 3391              		.cfi_remember_state
 3392              		.cfi_restore 80
 3393              		.cfi_restore 81
 3394              		.cfi_def_cfa_offset 16
 3395              	.LVL236:
 3396              		.loc 1 1219 0
 3397 0178 85ED190A 		vstr.32	s0, [r5, #100]
 3398              		.loc 1 1223 0
 3399 017c 2369     		ldr	r3, [r4, #16]	@ float
 3400 017e A366     		str	r3, [r4, #104]	@ float
 3401              		.loc 1 1224 0
 3402 0180 38BD     		pop	{r3, r4, r5, pc}
 3403              	.LVL237:
 3404              	.L424:
 3405              		.cfi_restore_state
 3406 0182 BDEC028B 		vldm	sp!, {d8}
 3407              		.cfi_remember_state
 3408              		.cfi_restore 80
 3409              		.cfi_restore 81
 3410              		.cfi_def_cfa_offset 16
 3411              	.LVL238:
 3412              		.loc 1 1215 0
 3413 0186 EB68     		ldr	r3, [r5, #12]	@ float
 3414 0188 6B66     		str	r3, [r5, #100]	@ float
 3415              		.loc 1 1223 0
 3416 018a 2369     		ldr	r3, [r4, #16]	@ float
 3417 018c A366     		str	r3, [r4, #104]	@ float
 3418              		.loc 1 1224 0
 3419 018e 38BD     		pop	{r3, r4, r5, pc}
 3420              	.LVL239:
ARM GAS  C:\Users\euanm\AppData\Local\Temp\ccnlTGs7.s 			page 61


 3421              	.L425:
 3422              		.cfi_restore_state
 3423              		.loc 1 1193 0
 3424 0190 0023     		movs	r3, #0
 3425              		.loc 1 1195 0
 3426 0192 0520     		movs	r0, #5
 3427              		.loc 1 1193 0
 3428 0194 2366     		str	r3, [r4, #96]	@ float
 3429              		.loc 1 1194 0
 3430 0196 E365     		str	r3, [r4, #92]	@ float
 3431              		.loc 1 1195 0
 3432 0198 FFF7FEFF 		bl	mc_interface_fault_stop
 3433              	.LVL240:
 3434 019c 70E7     		b	.L395
 3435              	.L427:
 3436 019e 00BF     		.align	2
 3437              	.L426:
 3438 01a0 00000000 		.word	.LANCHOR38
 3439 01a4 3C361C4C 		.word	1276917308
 3440 01a8 00401C46 		.word	1176256512
 3441 01ac 00000000 		.word	.LANCHOR11
 3442 01b0 6740533A 		.word	978534503
 3443 01b4 00A05645 		.word	1163304960
 3444 01b8 0FCF5B3B 		.word	995872527
 3445 01bc 33938843 		.word	1133024051
 3446 01c0 D145FF41 		.word	1107248593
 3447 01c4 00000000 		.word	0
 3448              		.cfi_endproc
 3449              	.LFE314:
 3450              		.size	update_override_limits.constprop.3, .-update_override_limits.constprop.3
 3451              		.section	.text.mc_interface_set_configuration,"ax",%progbits
 3452              		.align	2
 3453              		.p2align 4,,15
 3454              		.global	mc_interface_set_configuration
 3455              		.thumb
 3456              		.thumb_func
 3457              		.type	mc_interface_set_configuration, %function
 3458              	mc_interface_set_configuration:
 3459              	.LFB258:
 3460              		.loc 1 162 0
 3461              		.cfi_startproc
 3462              		@ args = 0, pretend = 0, frame = 0
 3463              		@ frame_needed = 0, uses_anonymous_args = 0
 3464              	.LVL241:
 3465 0000 70B5     		push	{r4, r5, r6, lr}
 3466              		.cfi_def_cfa_offset 16
 3467              		.cfi_offset 4, -16
 3468              		.cfi_offset 5, -12
 3469              		.cfi_offset 6, -8
 3470              		.cfi_offset 14, -4
 3471              		.loc 1 164 0
 3472 0002 324D     		ldr	r5, .L449
 3473 0004 90F83C31 		ldrb	r3, [r0, #316]	@ zero_extendqisi2
 3474 0008 95F83C21 		ldrb	r2, [r5, #316]	@ zero_extendqisi2
 3475 000c 9A42     		cmp	r2, r3
 3476              		.loc 1 162 0
 3477 000e 0446     		mov	r4, r0
ARM GAS  C:\Users\euanm\AppData\Local\Temp\ccnlTGs7.s 			page 62


 3478              		.loc 1 164 0
 3479 0010 07D0     		beq	.L429
 3480              		.loc 1 165 0
 3481 0012 FFF7FEFF 		bl	encoder_deinit
 3482              	.LVL242:
 3483              		.loc 1 166 0
 3484 0016 94F83C31 		ldrb	r3, [r4, #316]	@ zero_extendqisi2
 3485 001a 012B     		cmp	r3, #1
 3486 001c 40D0     		beq	.L430
 3487 001e 022B     		cmp	r3, #2
 3488 0020 33D0     		beq	.L431
 3489              	.L429:
 3490              		.loc 1 180 0
 3491 0022 012B     		cmp	r3, #1
 3492 0024 37D0     		beq	.L446
 3493              	.L432:
 3494              		.loc 1 185 0
 3495 0026 AB78     		ldrb	r3, [r5, #2]	@ zero_extendqisi2
 3496 0028 284E     		ldr	r6, .L449
 3497 002a 022B     		cmp	r3, #2
 3498 002c 1ED0     		beq	.L447
 3499              		.loc 1 190 0
 3500 002e B378     		ldrb	r3, [r6, #2]	@ zero_extendqisi2
 3501 0030 022B     		cmp	r3, #2
 3502 0032 02D0     		beq	.L436
 3503              		.loc 1 191 0
 3504 0034 A378     		ldrb	r3, [r4, #2]	@ zero_extendqisi2
 3505 0036 022B     		cmp	r3, #2
 3506 0038 3CD0     		beq	.L440
 3507              	.L436:
 3508              		.loc 1 196 0
 3509 003a 2146     		mov	r1, r4
 3510 003c 4FF4A072 		mov	r2, #320
 3511 0040 2248     		ldr	r0, .L449
 3512 0042 FFF7FEFF 		bl	memcpy
 3513              	.LVL243:
 3514              	.L435:
 3515              		.loc 1 199 0
 3516 0046 FFF7FEFF 		bl	update_override_limits.constprop.3
 3517              	.LVL244:
 3518              		.loc 1 201 0
 3519 004a AB78     		ldrb	r3, [r5, #2]	@ zero_extendqisi2
 3520 004c DBB2     		uxtb	r3, r3
 3521 004e 012B     		cmp	r3, #1
 3522 0050 07D9     		bls	.L438
 3523 0052 022B     		cmp	r3, #2
 3524 0054 04D1     		bne	.L448
 3525              		.loc 1 208 0
 3526 0056 1D48     		ldr	r0, .L449
 3527              		.loc 1 214 0
 3528 0058 BDE87040 		pop	{r4, r5, r6, lr}
 3529              		.cfi_remember_state
 3530              		.cfi_restore 14
 3531              		.cfi_restore 6
 3532              		.cfi_restore 5
 3533              		.cfi_restore 4
 3534              		.cfi_def_cfa_offset 0
ARM GAS  C:\Users\euanm\AppData\Local\Temp\ccnlTGs7.s 			page 63


 3535              	.LVL245:
 3536              		.loc 1 208 0
 3537 005c FFF7FEBF 		b	mcpwm_foc_set_configuration
 3538              	.LVL246:
 3539              	.L448:
 3540              		.cfi_restore_state
 3541 0060 70BD     		pop	{r4, r5, r6, pc}
 3542              	.LVL247:
 3543              	.L438:
 3544              		.loc 1 204 0
 3545 0062 1A48     		ldr	r0, .L449
 3546              		.loc 1 214 0
 3547 0064 BDE87040 		pop	{r4, r5, r6, lr}
 3548              		.cfi_remember_state
 3549              		.cfi_restore 14
 3550              		.cfi_restore 6
 3551              		.cfi_restore 5
 3552              		.cfi_restore 4
 3553              		.cfi_def_cfa_offset 0
 3554              	.LVL248:
 3555              		.loc 1 204 0
 3556 0068 FFF7FEBF 		b	mcpwm_set_configuration
 3557              	.LVL249:
 3558              	.L447:
 3559              		.cfi_restore_state
 3560              		.loc 1 186 0
 3561 006c A378     		ldrb	r3, [r4, #2]	@ zero_extendqisi2
 3562 006e 022B     		cmp	r3, #2
 3563 0070 1DD0     		beq	.L434
 3564              		.loc 1 187 0
 3565 0072 FFF7FEFF 		bl	mcpwm_foc_deinit
 3566              	.LVL250:
 3567              		.loc 1 188 0
 3568 0076 2146     		mov	r1, r4
 3569 0078 4FF4A072 		mov	r2, #320
 3570 007c 3046     		mov	r0, r6
 3571 007e FFF7FEFF 		bl	memcpy
 3572              	.LVL251:
 3573              		.loc 1 189 0
 3574 0082 3046     		mov	r0, r6
 3575 0084 FFF7FEFF 		bl	mcpwm_init
 3576              	.LVL252:
 3577 0088 DDE7     		b	.L435
 3578              	.L431:
 3579              		.loc 1 172 0
 3580 008a FFF7FEFF 		bl	encoder_init_as5047p_spi
 3581              	.LVL253:
 3582 008e 94F83C31 		ldrb	r3, [r4, #316]	@ zero_extendqisi2
 3583              		.loc 1 180 0
 3584 0092 012B     		cmp	r3, #1
 3585 0094 C7D1     		bne	.L432
 3586              	.L446:
 3587              		.loc 1 181 0
 3588 0096 D4F83801 		ldr	r0, [r4, #312]
 3589 009a FFF7FEFF 		bl	encoder_set_counts
 3590              	.LVL254:
 3591 009e C2E7     		b	.L432
ARM GAS  C:\Users\euanm\AppData\Local\Temp\ccnlTGs7.s 			page 64


 3592              	.L430:
 3593              		.loc 1 168 0
 3594 00a0 D4F83801 		ldr	r0, [r4, #312]
 3595 00a4 FFF7FEFF 		bl	encoder_init_abi
 3596              	.LVL255:
 3597 00a8 94F83C31 		ldrb	r3, [r4, #316]	@ zero_extendqisi2
 3598              		.loc 1 169 0
 3599 00ac B9E7     		b	.L429
 3600              	.L434:
 3601              		.loc 1 190 0
 3602 00ae B378     		ldrb	r3, [r6, #2]	@ zero_extendqisi2
 3603 00b0 022B     		cmp	r3, #2
 3604 00b2 C2D0     		beq	.L436
 3605              	.L440:
 3606              		.loc 1 192 0
 3607 00b4 FFF7FEFF 		bl	mcpwm_deinit
 3608              	.LVL256:
 3609              		.loc 1 193 0
 3610 00b8 2146     		mov	r1, r4
 3611 00ba 4FF4A072 		mov	r2, #320
 3612 00be 0348     		ldr	r0, .L449
 3613 00c0 FFF7FEFF 		bl	memcpy
 3614              	.LVL257:
 3615              		.loc 1 194 0
 3616 00c4 0148     		ldr	r0, .L449
 3617 00c6 FFF7FEFF 		bl	mcpwm_foc_init
 3618              	.LVL258:
 3619 00ca BCE7     		b	.L435
 3620              	.L450:
 3621              		.align	2
 3622              	.L449:
 3623 00cc 00000000 		.word	.LANCHOR11
 3624              		.cfi_endproc
 3625              	.LFE258:
 3626              		.size	mc_interface_set_configuration, .-mc_interface_set_configuration
 3627              		.section	.text.timer_thread,"ax",%progbits
 3628              		.align	2
 3629              		.p2align 4,,15
 3630              		.thumb
 3631              		.thumb_func
 3632              		.type	timer_thread, %function
 3633              	timer_thread:
 3634              	.LFB309:
 3635              		.loc 1 1226 0
 3636              		.cfi_startproc
 3637              		@ Volatile: function does not return.
 3638              		@ args = 0, pretend = 0, frame = 0
 3639              		@ frame_needed = 0, uses_anonymous_args = 0
 3640              	.LVL259:
 3641              	.LBB99:
 3642              	.LBB100:
 3643              		.loc 2 135 0
 3644 0000 124B     		ldr	r3, .L461
 3645 0002 134D     		ldr	r5, .L461+4
 3646 0004 9B69     		ldr	r3, [r3, #24]
 3647 0006 134A     		ldr	r2, .L461+8
 3648              	.LBE100:
ARM GAS  C:\Users\euanm\AppData\Local\Temp\ccnlTGs7.s 			page 65


 3649              	.LBE99:
 3650              		.loc 1 1233 0
 3651 0008 134C     		ldr	r4, .L461+12
 3652              		.loc 1 1226 0
 3653 000a 80B5     		push	{r7, lr}
 3654              		.cfi_def_cfa_offset 8
 3655              		.cfi_offset 7, -8
 3656              		.cfi_offset 14, -4
 3657              		.loc 1 1238 0
 3658 000c 2E46     		mov	r6, r5
 3659 000e 134F     		ldr	r7, .L461+16
 3660              	.LBB102:
 3661              	.LBB101:
 3662              		.loc 2 135 0
 3663 0010 9A61     		str	r2, [r3, #24]
 3664 0012 0AE0     		b	.L455
 3665              	.LVL260:
 3666              	.L452:
 3667              	.LBE101:
 3668              	.LBE102:
 3669              		.loc 1 1238 0
 3670 0014 2B68     		ldr	r3, [r5]
 3671 0016 002B     		cmp	r3, #0
 3672              		.loc 1 1239 0
 3673 0018 03F1FF33 		add	r3, r3, #-1
 3674              		.loc 1 1238 0
 3675 001c 10DD     		ble	.L453
 3676              	.L460:
 3677              		.loc 1 1239 0
 3678 001e 3360     		str	r3, [r6]
 3679              	.L454:
 3680              		.loc 1 1246 0
 3681 0020 FFF7FEFF 		bl	update_override_limits.constprop.3
 3682              	.LVL261:
 3683              		.loc 1 1248 0
 3684 0024 0A20     		movs	r0, #10
 3685 0026 FFF7FEFF 		bl	chThdSleep
 3686              	.LVL262:
 3687              	.L455:
 3688              		.loc 1 1233 0
 3689 002a 2369     		ldr	r3, [r4, #16]
 3690 002c DA04     		lsls	r2, r3, #19
 3691 002e F1D4     		bmi	.L452
 3692              		.loc 1 1234 0
 3693 0030 0320     		movs	r0, #3
 3694 0032 FFF7FEFF 		bl	mc_interface_fault_stop
 3695              	.LVL263:
 3696              		.loc 1 1238 0
 3697 0036 2B68     		ldr	r3, [r5]
 3698 0038 002B     		cmp	r3, #0
 3699              		.loc 1 1239 0
 3700 003a 03F1FF33 		add	r3, r3, #-1
 3701              		.loc 1 1238 0
 3702 003e EEDC     		bgt	.L460
 3703              	.L453:
 3704              		.loc 1 1241 0
 3705 0040 2369     		ldr	r3, [r4, #16]
ARM GAS  C:\Users\euanm\AppData\Local\Temp\ccnlTGs7.s 			page 66


 3706 0042 DB04     		lsls	r3, r3, #19
 3707              		.loc 1 1242 0
 3708 0044 44BF     		itt	mi
 3709 0046 0023     		movmi	r3, #0
 3710 0048 3B70     		strbmi	r3, [r7]
 3711 004a E9E7     		b	.L454
 3712              	.L462:
 3713              		.align	2
 3714              	.L461:
 3715 004c 00000000 		.word	ch
 3716 0050 00000000 		.word	.LANCHOR14
 3717 0054 20000000 		.word	.LC2
 3718 0058 00080240 		.word	1073874944
 3719 005c 00000000 		.word	.LANCHOR13
 3720              		.cfi_endproc
 3721              	.LFE309:
 3722              		.size	timer_thread, .-timer_thread
 3723              		.section	.text.mc_interface_mc_timer_isr,"ax",%progbits
 3724              		.align	2
 3725              		.p2align 4,,15
 3726              		.global	mc_interface_mc_timer_isr
 3727              		.thumb
 3728              		.thumb_func
 3729              		.type	mc_interface_mc_timer_isr, %function
 3730              	mc_interface_mc_timer_isr:
 3731              	.LFB306:
 3732              		.loc 1 1031 0
 3733              		.cfi_startproc
 3734              		@ args = 0, pretend = 0, frame = 8
 3735              		@ frame_needed = 0, uses_anonymous_args = 0
 3736 0000 2DE9F041 		push	{r4, r5, r6, r7, r8, lr}
 3737              		.cfi_def_cfa_offset 24
 3738              		.cfi_offset 4, -24
 3739              		.cfi_offset 5, -20
 3740              		.cfi_offset 6, -16
 3741              		.cfi_offset 7, -12
 3742              		.cfi_offset 8, -8
 3743              		.cfi_offset 14, -4
 3744 0004 2DED048B 		vpush.64	{d8, d9}
 3745              		.cfi_def_cfa_offset 40
 3746              		.cfi_offset 80, -40
 3747              		.cfi_offset 81, -36
 3748              		.cfi_offset 82, -32
 3749              		.cfi_offset 83, -28
 3750              		.loc 1 1034 0
 3751 0008 BA4D     		ldr	r5, .L514
 3752 000a 9FEDBB8A 		vldr.32	s16, .L514+4
 3753              		.loc 1 1038 0
 3754 000e BB4C     		ldr	r4, .L514+8
 3755              		.loc 1 1031 0
 3756 0010 82B0     		sub	sp, sp, #8
 3757              		.cfi_def_cfa_offset 48
 3758              		.loc 1 1032 0
 3759 0012 FFF7FEFF 		bl	ledpwm_update_pwm
 3760              	.LVL264:
 3761              		.loc 1 1034 0
 3762 0016 2B8A     		ldrh	r3, [r5, #16]
ARM GAS  C:\Users\euanm\AppData\Local\Temp\ccnlTGs7.s 			page 67


 3763 0018 DFEDB96A 		vldr.32	s13, .L514+12
 3764              		.loc 1 1038 0
 3765 001c 94ED0C7A 		vldr.32	s14, [r4, #48]
 3766              		.loc 1 1034 0
 3767 0020 9BB2     		uxth	r3, r3
 3768 0022 07EE903A 		vmov	s15, r3	@ int
 3769 0026 F8EE677A 		vcvt.f32.u32	s15, s15
 3770 002a 67EE887A 		vmul.f32	s15, s15, s16
 3771 002e 27EEA68A 		vmul.f32	s16, s15, s13
 3772              	.LVL265:
 3773              		.loc 1 1038 0
 3774 0032 B4EEC78A 		vcmpe.f32	s16, s14
 3775 0036 F1EE10FA 		vmrs	APSR_nzcv, FPSCR
 3776 003a 07D4     		bmi	.L464
 3777              		.loc 1 1039 0 discriminator 1
 3778 003c D4ED0D7A 		vldr.32	s15, [r4, #52]
 3779              		.loc 1 1038 0 discriminator 1
 3780 0040 B4EEE78A 		vcmpe.f32	s16, s15
 3781 0044 F1EE10FA 		vmrs	APSR_nzcv, FPSCR
 3782 0048 40F3D780 		ble	.L502
 3783              	.L464:
 3784              		.loc 1 1040 0
 3785 004c AD4A     		ldr	r2, .L514+16
 3786 004e 1368     		ldr	r3, [r2]
 3787 0050 0133     		adds	r3, r3, #1
 3788              		.loc 1 1042 0
 3789 0052 072B     		cmp	r3, #7
 3790              		.loc 1 1040 0
 3791 0054 1360     		str	r3, [r2]
 3792              		.loc 1 1042 0
 3793 0056 00F38F80 		bgt	.L506
 3794              	.L467:
 3795              		.loc 1 1050 0
 3796 005a FFF7FEFF 		bl	mc_interface_get_state
 3797              	.LVL266:
 3798 005e 0228     		cmp	r0, #2
 3799 0060 00F09A80 		beq	.L507
 3800              	.L469:
 3801              		.loc 1 1053 0
 3802 0064 A84B     		ldr	r3, .L514+20
 3803 0066 0022     		movs	r2, #0
 3804 0068 1A60     		str	r2, [r3]
 3805              	.L470:
 3806              		.loc 1 1056 0
 3807 006a A84B     		ldr	r3, .L514+24
 3808 006c 1B68     		ldr	r3, [r3]
 3809 006e 03B1     		cbz	r3, .L471
 3810              		.loc 1 1057 0
 3811 0070 9847     		blx	r3
 3812              	.LVL267:
 3813              	.L471:
 3814              		.loc 1 1060 0
 3815 0072 FFF7FEFF 		bl	mc_interface_get_tot_current_filtered
 3816              	.LVL268:
 3817 0076 F0EE408A 		vmov.f32	s17, s0
 3818              	.LVL269:
 3819              		.loc 1 1061 0
ARM GAS  C:\Users\euanm\AppData\Local\Temp\ccnlTGs7.s 			page 68


 3820 007a FFF7FEFF 		bl	mc_interface_get_tot_current_in_filtered
 3821              	.LVL270:
 3822              		.loc 1 1062 0
 3823 007e A448     		ldr	r0, .L514+28
 3824              		.loc 1 1063 0
 3825 0080 A449     		ldr	r1, .L514+32
 3826              		.loc 1 1062 0
 3827 0082 90ED007A 		vldr.32	s14, [r0]
 3828              		.loc 1 1064 0
 3829 0086 A44A     		ldr	r2, .L514+36
 3830              		.loc 1 1065 0
 3831 0088 A44B     		ldr	r3, .L514+40
 3832              		.loc 1 1062 0
 3833 008a 38EE877A 		vadd.f32	s14, s17, s14
 3834              		.loc 1 1064 0
 3835 008e F7EE006A 		vmov.f32	s13, #1.0e+0
 3836              		.loc 1 1062 0
 3837 0092 80ED007A 		vstr.32	s14, [r0]
 3838              		.loc 1 1063 0
 3839 0096 91ED007A 		vldr.32	s14, [r1]
 3840 009a 30EE077A 		vadd.f32	s14, s0, s14
 3841              		.loc 1 1061 0
 3842 009e B0EE409A 		vmov.f32	s18, s0
 3843              	.LVL271:
 3844              		.loc 1 1063 0
 3845 00a2 81ED007A 		vstr.32	s14, [r1]
 3846              		.loc 1 1064 0
 3847 00a6 92ED007A 		vldr.32	s14, [r2]
 3848 00aa 37EE267A 		vadd.f32	s14, s14, s13
 3849 00ae 82ED007A 		vstr.32	s14, [r2]
 3850              		.loc 1 1065 0
 3851 00b2 D3ED007A 		vldr.32	s15, [r3]
 3852 00b6 77EEA67A 		vadd.f32	s15, s15, s13
 3853 00ba C3ED007A 		vstr.32	s15, [r3]
 3854              		.loc 1 1067 0
 3855 00be FFF7FEFF 		bl	mc_interface_get_tot_current
 3856              	.LVL272:
 3857              		.loc 1 1069 0
 3858 00c2 A378     		ldrb	r3, [r4, #2]	@ zero_extendqisi2
 3859 00c4 022B     		cmp	r3, #2
 3860              		.loc 1 1067 0
 3861 00c6 F0EE409A 		vmov.f32	s19, s0
 3862              	.LVL273:
 3863              		.loc 1 1069 0
 3864 00ca 00F00B81 		beq	.L508
 3865              		.loc 1 1068 0
 3866 00ce B0EE680A 		vmov.f32	s0, s17
 3867              	.LVL274:
 3868              	.L472:
 3869              		.loc 1 1076 0
 3870 00d2 94F84020 		ldrb	r2, [r4, #64]	@ zero_extendqisi2
 3871 00d6 894B     		ldr	r3, .L514+8
 3872              		.loc 1 1077 0
 3873 00d8 D3ED057A 		vldr.32	s15, [r3, #20]
 3874              		.loc 1 1076 0
 3875 00dc 002A     		cmp	r2, #0
 3876 00de 40D0     		beq	.L473
ARM GAS  C:\Users\euanm\AppData\Local\Temp\ccnlTGs7.s 			page 69


 3877              		.loc 1 1077 0
 3878 00e0 B0EEC00A 		vabs.f32	s0, s0
 3879              	.LVL275:
 3880 00e4 B4EEE70A 		vcmpe.f32	s0, s15
 3881 00e8 F1EE10FA 		vmrs	APSR_nzcv, FPSCR
 3882 00ec 40DC     		bgt	.L476
 3883              	.LVL276:
 3884              	.L474:
 3885              		.loc 1 1087 0
 3886 00ee FFF7FEFF 		bl	mc_interface_get_sampling_frequency_now
 3887              	.LVL277:
 3888              		.loc 1 1088 0
 3889 00f2 F0EEE88A 		vabs.f32	s17, s17
 3890              	.LVL278:
 3891 00f6 F7EE006A 		vmov.f32	s13, #1.0e+0
 3892 00fa F4EEE68A 		vcmpe.f32	s17, s13
 3893 00fe F1EE10FA 		vmrs	APSR_nzcv, FPSCR
 3894              		.loc 1 1087 0
 3895 0102 F0EE409A 		vmov.f32	s19, s0
 3896              	.LVL279:
 3897              		.loc 1 1088 0
 3898 0106 18DD     		ble	.L478
 3899              	.LBB103:
 3900              		.loc 1 1094 0
 3901 0108 86EE807A 		vdiv.f32	s14, s13, s0
 3902 010c 844A     		ldr	r2, .L514+44
 3903              		.loc 1 1093 0
 3904 010e 854B     		ldr	r3, .L514+48
 3905 0110 C9EE007A 		vdiv.f32	s15, s18, s0
 3906              		.loc 1 1094 0
 3907 0114 92ED006A 		vldr.32	s12, [r2]
 3908              		.loc 1 1093 0
 3909 0118 D3ED005A 		vldr.32	s11, [r3]
 3910              		.loc 1 1096 0
 3911 011c DFED826A 		vldr.32	s13, .L514+52
 3912              		.loc 1 1094 0
 3913 0120 37EE067A 		vadd.f32	s14, s14, s12
 3914              		.loc 1 1093 0
 3915 0124 77EEA57A 		vadd.f32	s15, s15, s11
 3916              		.loc 1 1096 0
 3917 0128 B4EEE67A 		vcmpe.f32	s14, s13
 3918 012c F1EE10FA 		vmrs	APSR_nzcv, FPSCR
 3919              		.loc 1 1093 0
 3920 0130 C3ED007A 		vstr.32	s15, [r3]
 3921              		.loc 1 1094 0
 3922 0134 82ED007A 		vstr.32	s14, [r2]
 3923              		.loc 1 1096 0
 3924 0138 33DA     		bge	.L509
 3925              	.L478:
 3926              	.LBE103:
 3927              		.loc 1 1111 0
 3928 013a 7C4C     		ldr	r4, .L514+56
 3929 013c 2368     		ldr	r3, [r4]
 3930 013e 002B     		cmp	r3, #0
 3931 0140 4AD1     		bne	.L510
 3932              	.LVL280:
 3933              	.L505:
ARM GAS  C:\Users\euanm\AppData\Local\Temp\ccnlTGs7.s 			page 70


 3934 0142 7B4E     		ldr	r6, .L514+60
 3935              	.L485:
 3936              		.loc 1 1119 0
 3937 0144 3268     		ldr	r2, [r6]
 3938 0146 3AB9     		cbnz	r2, .L463
 3939              		.loc 1 1120 0
 3940 0148 7A49     		ldr	r1, .L514+64
 3941              		.loc 1 1121 0
 3942 014a 7B48     		ldr	r0, .L514+68
 3943              		.loc 1 1120 0
 3944 014c 0B68     		ldr	r3, [r1]
 3945              		.loc 1 1121 0
 3946 014e 0068     		ldr	r0, [r0]
 3947              		.loc 1 1120 0
 3948 0150 0133     		adds	r3, r3, #1
 3949              		.loc 1 1121 0
 3950 0152 8342     		cmp	r3, r0
 3951              		.loc 1 1120 0
 3952 0154 0B60     		str	r3, [r1]
 3953              		.loc 1 1121 0
 3954 0156 54DA     		bge	.L511
 3955              	.L463:
 3956              		.loc 1 1160 0
 3957 0158 02B0     		add	sp, sp, #8
 3958              		.cfi_remember_state
 3959              		.cfi_def_cfa_offset 40
 3960              		@ sp needed
 3961 015a BDEC048B 		vldm	sp!, {d8-d9}
 3962              		.cfi_restore 82
 3963              		.cfi_restore 83
 3964              		.cfi_restore 80
 3965              		.cfi_restore 81
 3966              		.cfi_def_cfa_offset 24
 3967              	.LVL281:
 3968 015e BDE8F081 		pop	{r4, r5, r6, r7, r8, pc}
 3969              	.LVL282:
 3970              	.L473:
 3971              		.cfi_restore_state
 3972              		.loc 1 1081 0
 3973 0162 F0EEE99A 		vabs.f32	s19, s19
 3974              	.LVL283:
 3975 0166 F4EEE79A 		vcmpe.f32	s19, s15
 3976 016a F1EE10FA 		vmrs	APSR_nzcv, FPSCR
 3977 016e BEDD     		ble	.L474
 3978              	.LVL284:
 3979              	.L476:
 3980              		.loc 1 1078 0
 3981 0170 0420     		movs	r0, #4
 3982 0172 FFF7FEFF 		bl	mc_interface_fault_stop
 3983              	.LVL285:
 3984 0176 BAE7     		b	.L474
 3985              	.LVL286:
 3986              	.L506:
 3987              		.loc 1 1043 0
 3988 0178 D4ED0C7A 		vldr.32	s15, [r4, #48]
 3989 017c B4EEE78A 		vcmpe.f32	s16, s15
 3990 0180 F1EE10FA 		vmrs	APSR_nzcv, FPSCR
ARM GAS  C:\Users\euanm\AppData\Local\Temp\ccnlTGs7.s 			page 71


 3991 0184 4CBF     		ite	mi
 3992 0186 0220     		movmi	r0, #2
 3993 0188 0120     		movpl	r0, #1
 3994 018a FFF7FEFF 		bl	mc_interface_fault_stop
 3995              	.LVL287:
 3996              		.loc 1 1050 0
 3997 018e FFF7FEFF 		bl	mc_interface_get_state
 3998              	.LVL288:
 3999 0192 0228     		cmp	r0, #2
 4000 0194 7FF466AF 		bne	.L469
 4001              	.L507:
 4002              		.loc 1 1051 0
 4003 0198 5B4A     		ldr	r2, .L514+20
 4004 019a 1368     		ldr	r3, [r2]
 4005 019c 0133     		adds	r3, r3, #1
 4006 019e 1360     		str	r3, [r2]
 4007 01a0 63E7     		b	.L470
 4008              	.LVL289:
 4009              	.L509:
 4010              	.LBB104:
 4011              		.loc 1 1097 0
 4012 01a2 F5EEC07A 		vcmpe.f32	s15, #0
 4013 01a6 F1EE10FA 		vmrs	APSR_nzcv, FPSCR
 4014 01aa 40F3EB80 		ble	.L503
 4015              		.loc 1 1098 0
 4016 01ae 6348     		ldr	r0, .L514+72
 4017              		.loc 1 1099 0
 4018 01b0 6349     		ldr	r1, .L514+76
 4019              		.loc 1 1098 0
 4020 01b2 90ED007A 		vldr.32	s14, [r0]
 4021 01b6 37EE877A 		vadd.f32	s14, s15, s14
 4022 01ba 80ED007A 		vstr.32	s14, [r0]
 4023              		.loc 1 1099 0
 4024 01be 91ED007A 		vldr.32	s14, [r1]
 4025 01c2 A8EE277A 		vfma.f32	s14, s16, s15
 4026 01c6 81ED007A 		vstr.32	s14, [r1]
 4027              	.L483:
 4028              	.LBE104:
 4029              		.loc 1 1111 0
 4030 01ca 584C     		ldr	r4, .L514+56
 4031              	.LBB105:
 4032              		.loc 1 1105 0
 4033 01cc 0021     		movs	r1, #0
 4034              		.loc 1 1106 0
 4035 01ce 1960     		str	r1, [r3]	@ float
 4036              	.LBE105:
 4037              		.loc 1 1111 0
 4038 01d0 2368     		ldr	r3, [r4]
 4039              	.LBB106:
 4040              		.loc 1 1105 0
 4041 01d2 1160     		str	r1, [r2]	@ float
 4042              	.LBE106:
 4043              		.loc 1 1111 0
 4044 01d4 002B     		cmp	r3, #0
 4045 01d6 B4D0     		beq	.L505
 4046              	.L510:
 4047              		.loc 1 1111 0 is_stmt 0 discriminator 1
ARM GAS  C:\Users\euanm\AppData\Local\Temp\ccnlTGs7.s 			page 72


 4048 01d8 FFF7FEFF 		bl	mc_interface_get_state
 4049              	.LVL290:
 4050 01dc 0228     		cmp	r0, #2
 4051 01de 05D0     		beq	.L487
 4052              		.loc 1 1112 0 is_stmt 1 discriminator 2
 4053 01e0 FFF7FEFF 		bl	mcpwm_get_comm_step
 4054              	.LVL291:
 4055 01e4 574B     		ldr	r3, .L514+80
 4056 01e6 1B68     		ldr	r3, [r3]
 4057              		.loc 1 1111 0 discriminator 2
 4058 01e8 9842     		cmp	r0, r3
 4059 01ea AAD0     		beq	.L505
 4060              	.L487:
 4061              		.loc 1 1113 0
 4062 01ec 564A     		ldr	r2, .L514+84
 4063              		.loc 1 1114 0
 4064 01ee 504E     		ldr	r6, .L514+60
 4065              		.loc 1 1113 0
 4066 01f0 0023     		movs	r3, #0
 4067 01f2 1360     		str	r3, [r2]
 4068              		.loc 1 1114 0
 4069 01f4 3360     		str	r3, [r6]
 4070              		.loc 1 1115 0
 4071 01f6 2360     		str	r3, [r4]
 4072 01f8 A4E7     		b	.L485
 4073              	.LVL292:
 4074              	.L502:
 4075              		.loc 1 1047 0
 4076 01fa 424B     		ldr	r3, .L514+16
 4077 01fc 0022     		movs	r2, #0
 4078 01fe 1A60     		str	r2, [r3]
 4079 0200 2BE7     		b	.L467
 4080              	.LVL293:
 4081              	.L511:
 4082              		.loc 1 1122 0
 4083 0202 0A60     		str	r2, [r1]
 4084              		.loc 1 1124 0
 4085 0204 FFF7FEFF 		bl	mc_interface_get_state
 4086              	.LVL294:
 4087 0208 0128     		cmp	r0, #1
 4088              		.loc 1 1125 0
 4089 020a 4F4C     		ldr	r4, .L514+84
 4090              		.loc 1 1124 0
 4091 020c 00F0D780 		beq	.L512
 4092              		.loc 1 1132 0
 4093 0210 4E4A     		ldr	r2, .L514+88
 4094 0212 2768     		ldr	r7, [r4]
 4095 0214 1368     		ldr	r3, [r2]
 4096 0216 4E49     		ldr	r1, .L514+92
 4097              		.loc 1 1133 0
 4098 0218 4E48     		ldr	r0, .L514+96
 4099              		.loc 1 1132 0
 4100 021a 1BB2     		sxth	r3, r3
 4101 021c 21F81730 		strh	r3, [r1, r7, lsl #1]	@ movhi
 4102              		.loc 1 1133 0
 4103 0220 2768     		ldr	r7, [r4]
 4104 0222 5368     		ldr	r3, [r2, #4]
ARM GAS  C:\Users\euanm\AppData\Local\Temp\ccnlTGs7.s 			page 73


 4105              		.loc 1 1135 0
 4106 0224 4C4A     		ldr	r2, .L514+100
 4107 0226 4D49     		ldr	r1, .L514+104
 4108              		.loc 1 1133 0
 4109 0228 1BB2     		sxth	r3, r3
 4110 022a 20F81730 		strh	r3, [r0, r7, lsl #1]	@ movhi
 4111              		.loc 1 1135 0
 4112 022e 2068     		ldr	r0, [r4]
 4113 0230 AB88     		ldrh	r3, [r5, #4]
 4114 0232 1768     		ldr	r7, [r2]
 4115 0234 DB1B     		subs	r3, r3, r7
 4116 0236 1BB2     		sxth	r3, r3
 4117 0238 21F81030 		strh	r3, [r1, r0, lsl #1]	@ movhi
 4118              		.loc 1 1136 0
 4119 023c 2068     		ldr	r0, [r4]
 4120 023e 6B88     		ldrh	r3, [r5, #2]
 4121 0240 1768     		ldr	r7, [r2]
 4122 0242 4749     		ldr	r1, .L514+108
 4123 0244 DB1B     		subs	r3, r3, r7
 4124 0246 1BB2     		sxth	r3, r3
 4125 0248 21F81030 		strh	r3, [r1, r0, lsl #1]	@ movhi
 4126              		.loc 1 1137 0
 4127 024c 2068     		ldr	r0, [r4]
 4128 024e 2B88     		ldrh	r3, [r5]
 4129 0250 1568     		ldr	r5, [r2]
 4130 0252 4449     		ldr	r1, .L514+112
 4131 0254 5B1B     		subs	r3, r3, r5
 4132 0256 1BB2     		sxth	r3, r3
 4133 0258 21F81030 		strh	r3, [r1, r0, lsl #1]	@ movhi
 4134              	.L493:
 4135              		.loc 1 1140 0
 4136 025c 2168     		ldr	r1, [r4]
 4137 025e 1368     		ldr	r3, [r2]
 4138 0260 414A     		ldr	r2, .L514+116
 4139 0262 394F     		ldr	r7, .L514+84
 4140 0264 1BB2     		sxth	r3, r3
 4141 0266 22F81130 		strh	r3, [r2, r1, lsl #1]	@ movhi
 4142              		.loc 1 1142 0
 4143 026a 2568     		ldr	r5, [r4]
 4144 026c FFF7FEFF 		bl	mc_interface_get_tot_current
 4145              	.LVL295:
 4146              		.loc 1 1143 0
 4147 0270 F2EE047A 		vmov.f32	s15, #1.0e+1
 4148 0274 89EEA77A 		vdiv.f32	s14, s19, s15
 4149              		.loc 1 1142 0
 4150 0278 3C48     		ldr	r0, .L514+120
 4151              		.loc 1 1143 0
 4152 027a 3D49     		ldr	r1, .L514+124
 4153              		.loc 1 1142 0
 4154 027c DFED3D7A 		vldr.32	s15, .L514+128
 4155 0280 20EE270A 		vmul.f32	s0, s0, s15
 4156              		.loc 1 1143 0
 4157 0284 FDEEC77A 		vcvt.s32.f32	s15, s14
 4158 0288 CDED017A 		vstr.32	s15, [sp, #4]	@ int
 4159              		.loc 1 1142 0
 4160 028c FDEEC07A 		vcvt.s32.f32	s15, s0
 4161              		.loc 1 1143 0
ARM GAS  C:\Users\euanm\AppData\Local\Temp\ccnlTGs7.s 			page 74


 4162 0290 BDF90430 		ldrsh	r3, [sp, #4]
 4163              		.loc 1 1142 0
 4164 0294 CDED007A 		vstr.32	s15, [sp]	@ int
 4165 0298 BDF90020 		ldrsh	r2, [sp]
 4166 029c 20F81520 		strh	r2, [r0, r5, lsl #1]	@ movhi
 4167              		.loc 1 1143 0
 4168 02a0 2268     		ldr	r2, [r4]
 4169 02a2 21F81230 		strh	r3, [r1, r2, lsl #1]	@ movhi
 4170              		.loc 1 1145 0
 4171 02a6 D4F80080 		ldr	r8, [r4]
 4172 02aa FFF7FEFF 		bl	mcpwm_get_comm_step
 4173              	.LVL296:
 4174 02ae 0546     		mov	r5, r0
 4175 02b0 FFF7FEFF 		bl	mcpwm_read_hall_phase
 4176              	.LVL297:
 4177 02b4 304B     		ldr	r3, .L514+132
 4178              		.loc 1 1149 0
 4179 02b6 3149     		ldr	r1, .L514+136
 4180              		.loc 1 1145 0
 4181 02b8 45EAC000 		orr	r0, r5, r0, lsl #3
 4182 02bc C0B2     		uxtb	r0, r0
 4183 02be 03F80800 		strb	r0, [r3, r8]
 4184              		.loc 1 1147 0
 4185 02c2 2368     		ldr	r3, [r4]
 4186 02c4 0133     		adds	r3, r3, #1
 4187 02c6 2360     		str	r3, [r4]
 4188              		.loc 1 1149 0
 4189 02c8 2268     		ldr	r2, [r4]
 4190 02ca 0B68     		ldr	r3, [r1]
 4191 02cc 9A42     		cmp	r2, r3
 4192 02ce 68D0     		beq	.L513
 4193              	.L494:
 4194              		.loc 1 1157 0
 4195 02d0 FFF7FEFF 		bl	mcpwm_get_last_adc_isr_duration
 4196              	.LVL298:
 4197 02d4 2A4B     		ldr	r3, .L514+140
 4198 02d6 83ED000A 		vstr.32	s0, [r3]
 4199              		.loc 1 1160 0
 4200 02da 02B0     		add	sp, sp, #8
 4201              		.cfi_remember_state
 4202              		.cfi_def_cfa_offset 40
 4203              		@ sp needed
 4204 02dc BDEC048B 		vldm	sp!, {d8-d9}
 4205              		.cfi_restore 80
 4206              		.cfi_restore 81
 4207              		.cfi_restore 82
 4208              		.cfi_restore 83
 4209              		.cfi_def_cfa_offset 24
 4210              	.LVL299:
 4211 02e0 BDE8F081 		pop	{r4, r5, r6, r7, r8, pc}
 4212              	.LVL300:
 4213              	.L508:
 4214              		.cfi_restore_state
 4215              		.loc 1 1071 0
 4216 02e4 FFF7FEFF 		bl	mcpwm_foc_get_abs_motor_current
 4217              	.LVL301:
 4218 02e8 F0EE409A 		vmov.f32	s19, s0
ARM GAS  C:\Users\euanm\AppData\Local\Temp\ccnlTGs7.s 			page 75


 4219              	.LVL302:
 4220              		.loc 1 1072 0
 4221 02ec FFF7FEFF 		bl	mcpwm_foc_get_abs_motor_current_filtered
 4222              	.LVL303:
 4223 02f0 EFE6     		b	.L472
 4224              	.L515:
 4225 02f2 00BF     		.align	2
 4226              	.L514:
 4227 02f4 00000000 		.word	.LANCHOR38
 4228 02f8 6740533A 		.word	978534503
 4229 02fc 00000000 		.word	.LANCHOR11
 4230 0300 D145FF41 		.word	1107248593
 4231 0304 00000000 		.word	.LANCHOR39
 4232 0308 00000000 		.word	.LANCHOR15
 4233 030c 00000000 		.word	.LANCHOR36
 4234 0310 00000000 		.word	.LANCHOR18
 4235 0314 00000000 		.word	.LANCHOR19
 4236 0318 00000000 		.word	.LANCHOR20
 4237 031c 00000000 		.word	.LANCHOR21
 4238 0320 00000000 		.word	.LANCHOR41
 4239 0324 00000000 		.word	.LANCHOR40
 4240 0328 0AD7233C 		.word	1008981770
 4241 032c 00000000 		.word	.LANCHOR32
 4242 0330 00000000 		.word	.LANCHOR30
 4243 0334 00000000 		.word	.LANCHOR42
 4244 0338 00000000 		.word	.LANCHOR29
 4245 033c 00000000 		.word	.LANCHOR22
 4246 0340 00000000 		.word	.LANCHOR24
 4247 0344 00000000 		.word	.LANCHOR33
 4248 0348 00000000 		.word	.LANCHOR31
 4249 034c 00000000 		.word	.LANCHOR43
 4250 0350 00000000 		.word	.LANCHOR2
 4251 0354 00000000 		.word	.LANCHOR3
 4252 0358 00000000 		.word	mcpwm_vzero
 4253 035c 00000000 		.word	.LANCHOR4
 4254 0360 00000000 		.word	.LANCHOR5
 4255 0364 00000000 		.word	.LANCHOR6
 4256 0368 00000000 		.word	.LANCHOR7
 4257 036c 00000000 		.word	.LANCHOR9
 4258 0370 00000000 		.word	.LANCHOR10
 4259 0374 0000C842 		.word	1120403456
 4260 0378 00000000 		.word	.LANCHOR8
 4261 037c 00000000 		.word	.LANCHOR1
 4262 0380 00000000 		.word	.LANCHOR27
 4263              	.LVL304:
 4264              	.L503:
 4265              	.LBB107:
 4266              		.loc 1 1101 0
 4267 0384 3448     		ldr	r0, .L516
 4268              		.loc 1 1102 0
 4269 0386 3549     		ldr	r1, .L516+4
 4270              		.loc 1 1101 0
 4271 0388 90ED007A 		vldr.32	s14, [r0]
 4272 038c 37EE677A 		vsub.f32	s14, s14, s15
 4273 0390 80ED007A 		vstr.32	s14, [r0]
 4274              		.loc 1 1102 0
 4275 0394 91ED007A 		vldr.32	s14, [r1]
ARM GAS  C:\Users\euanm\AppData\Local\Temp\ccnlTGs7.s 			page 76


 4276 0398 A8EE677A 		vfms.f32	s14, s16, s15
 4277 039c 81ED007A 		vstr.32	s14, [r1]
 4278 03a0 13E7     		b	.L483
 4279              	.LVL305:
 4280              	.L513:
 4281              	.LBE107:
 4282              		.loc 1 1150 0
 4283 03a2 0121     		movs	r1, #1
 4284              		.loc 1 1151 0
 4285 03a4 0024     		movs	r4, #0
 4286              		.loc 1 1150 0
 4287 03a6 3160     		str	r1, [r6]
 4288              	.LBB108:
 4289              	.LBB109:
 4290              	.LBB110:
 4291              	.LBB111:
 4292              	.LBB112:
 4293              		.loc 3 546 0
 4294 03a8 2023     		movs	r3, #32
 4295              	.LBE112:
 4296              	.LBE111:
 4297              	.LBE110:
 4298              	.LBE109:
 4299              	.LBE108:
 4300              		.loc 1 1151 0
 4301 03aa 3C60     		str	r4, [r7]
 4302              	.LVL306:
 4303              	.LBB117:
 4304              	.LBB116:
 4305              	.LBB115:
 4306              	.LBB114:
 4307              	.LBB113:
 4308              		.loc 3 546 0
 4309              		.syntax unified
 4310              	@ 546 "ChibiOS_3.0.2/os/ext/CMSIS/include/core_cmFunc.h" 1
 4311 03ac 83F31188 		MSR basepri, r3
 4312              	@ 0 "" 2
 4313              	.LVL307:
 4314              		.thumb
 4315              		.syntax unified
 4316              	.LBE113:
 4317              	.LBE114:
 4318              	.LBE115:
 4319              	.LBE116:
 4320              	.LBE117:
 4321              		.loc 1 1153 0
 4322 03b0 2B4B     		ldr	r3, .L516+8
 4323 03b2 1868     		ldr	r0, [r3]
 4324 03b4 FFF7FEFF 		bl	chEvtSignalI
 4325              	.LVL308:
 4326              	.LBB118:
 4327              	.LBB119:
 4328              	.LBB120:
 4329              	.LBB121:
 4330              	.LBB122:
 4331              		.loc 3 546 0
 4332              		.syntax unified
ARM GAS  C:\Users\euanm\AppData\Local\Temp\ccnlTGs7.s 			page 77


 4333              	@ 546 "ChibiOS_3.0.2/os/ext/CMSIS/include/core_cmFunc.h" 1
 4334 03b8 84F31188 		MSR basepri, r4
 4335              	@ 0 "" 2
 4336              	.LVL309:
 4337              		.thumb
 4338              		.syntax unified
 4339 03bc 88E7     		b	.L494
 4340              	.L512:
 4341              	.LBE122:
 4342              	.LBE121:
 4343              	.LBE120:
 4344              	.LBE119:
 4345              	.LBE118:
 4346              		.loc 1 1125 0
 4347 03be 2568     		ldr	r5, [r4]
 4348              		.loc 1 1126 0
 4349 03c0 284F     		ldr	r7, .L516+12
 4350              		.loc 1 1125 0
 4351 03c2 FFF7FEFF 		bl	mcpwm_get_comm_step
 4352              	.LVL310:
 4353 03c6 284B     		ldr	r3, .L516+16
 4354 03c8 284A     		ldr	r2, .L516+20
 4355 03ca 0138     		subs	r0, r0, #1
 4356 03cc 03EB8003 		add	r3, r3, r0, lsl #2
 4357 03d0 D3ED007A 		vldr.32	s15, [r3]
 4358 03d4 FDEEE77A 		vcvt.s32.f32	s15, s15
 4359 03d8 CDED007A 		vstr.32	s15, [sp]	@ int
 4360 03dc BDF90030 		ldrsh	r3, [sp]
 4361 03e0 22F81530 		strh	r3, [r2, r5, lsl #1]	@ movhi
 4362              		.loc 1 1126 0
 4363 03e4 D4F80080 		ldr	r8, [r4]
 4364              		.loc 1 1129 0
 4365 03e8 214D     		ldr	r5, .L516+24
 4366              		.loc 1 1126 0
 4367 03ea FFF7FEFF 		bl	mcpwm_get_comm_step
 4368              	.LVL311:
 4369 03ee 214A     		ldr	r2, .L516+28
 4370              		.loc 1 1128 0
 4371 03f0 214B     		ldr	r3, .L516+32
 4372 03f2 2249     		ldr	r1, .L516+36
 4373              		.loc 1 1126 0
 4374 03f4 0138     		subs	r0, r0, #1
 4375 03f6 02EB8002 		add	r2, r2, r0, lsl #2
 4376 03fa D2ED007A 		vldr.32	s15, [r2]
 4377              		.loc 1 1130 0
 4378 03fe 2048     		ldr	r0, .L516+40
 4379              		.loc 1 1126 0
 4380 0400 FDEEE77A 		vcvt.s32.f32	s15, s15
 4381 0404 CDED007A 		vstr.32	s15, [sp]	@ int
 4382 0408 BDF90020 		ldrsh	r2, [sp]
 4383 040c 27F81820 		strh	r2, [r7, r8, lsl #1]	@ movhi
 4384              		.loc 1 1128 0
 4385 0410 2768     		ldr	r7, [r4]
 4386 0412 D3ED007A 		vldr.32	s15, [r3]
 4387 0416 FDEEE77A 		vcvt.s32.f32	s15, s15
 4388 041a CDED007A 		vstr.32	s15, [sp]	@ int
 4389 041e BDF90020 		ldrsh	r2, [sp]
ARM GAS  C:\Users\euanm\AppData\Local\Temp\ccnlTGs7.s 			page 78


 4390 0422 21F81720 		strh	r2, [r1, r7, lsl #1]	@ movhi
 4391              		.loc 1 1129 0
 4392 0426 2768     		ldr	r7, [r4]
 4393 0428 D3ED017A 		vldr.32	s15, [r3, #4]
 4394 042c 154A     		ldr	r2, .L516+44
 4395 042e FDEEE77A 		vcvt.s32.f32	s15, s15
 4396 0432 CDED007A 		vstr.32	s15, [sp]	@ int
 4397 0436 BDF90010 		ldrsh	r1, [sp]
 4398 043a 25F81710 		strh	r1, [r5, r7, lsl #1]	@ movhi
 4399              		.loc 1 1130 0
 4400 043e 2168     		ldr	r1, [r4]
 4401 0440 D3ED027A 		vldr.32	s15, [r3, #8]
 4402 0444 FDEEE77A 		vcvt.s32.f32	s15, s15
 4403 0448 CDED007A 		vstr.32	s15, [sp]	@ int
 4404 044c BDF90030 		ldrsh	r3, [sp]
 4405 0450 20F81130 		strh	r3, [r0, r1, lsl #1]	@ movhi
 4406 0454 02E7     		b	.L493
 4407              	.L517:
 4408 0456 00BF     		.align	2
 4409              	.L516:
 4410 0458 00000000 		.word	.LANCHOR23
 4411 045c 00000000 		.word	.LANCHOR25
 4412 0460 00000000 		.word	.LANCHOR0
 4413 0464 00000000 		.word	.LANCHOR3
 4414 0468 00000000 		.word	mcpwm_detect_currents
 4415 046c 00000000 		.word	.LANCHOR2
 4416 0470 00000000 		.word	.LANCHOR5
 4417 0474 00000000 		.word	mcpwm_detect_currents_diff
 4418 0478 00000000 		.word	mcpwm_detect_voltages
 4419 047c 00000000 		.word	.LANCHOR4
 4420 0480 00000000 		.word	.LANCHOR6
 4421 0484 00000000 		.word	mcpwm_vzero
 4422              		.cfi_endproc
 4423              	.LFE306:
 4424              		.size	mc_interface_mc_timer_isr, .-mc_interface_mc_timer_isr
 4425              		.section	.text.mc_interface_adc_inj_int_handler,"ax",%progbits
 4426              		.align	2
 4427              		.p2align 4,,15
 4428              		.global	mc_interface_adc_inj_int_handler
 4429              		.thumb
 4430              		.thumb_func
 4431              		.type	mc_interface_adc_inj_int_handler, %function
 4432              	mc_interface_adc_inj_int_handler:
 4433              	.LFB307:
 4434              		.loc 1 1162 0
 4435              		.cfi_startproc
 4436              		@ args = 0, pretend = 0, frame = 0
 4437              		@ frame_needed = 0, uses_anonymous_args = 0
 4438              		@ link register save eliminated.
 4439              		.loc 1 1163 0
 4440 0000 054B     		ldr	r3, .L524
 4441 0002 9B78     		ldrb	r3, [r3, #2]	@ zero_extendqisi2
 4442 0004 DBB2     		uxtb	r3, r3
 4443 0006 012B     		cmp	r3, #1
 4444 0008 04D9     		bls	.L520
 4445 000a 022B     		cmp	r3, #2
 4446 000c 01D1     		bne	.L523
ARM GAS  C:\Users\euanm\AppData\Local\Temp\ccnlTGs7.s 			page 79


 4447              		.loc 1 1170 0
 4448 000e FFF7FEBF 		b	mcpwm_foc_adc_inj_int_handler
 4449              	.LVL312:
 4450              	.L523:
 4451 0012 7047     		bx	lr
 4452              	.L520:
 4453              		.loc 1 1166 0
 4454 0014 FFF7FEBF 		b	mcpwm_adc_inj_int_handler
 4455              	.LVL313:
 4456              	.L525:
 4457              		.align	2
 4458              	.L524:
 4459 0018 00000000 		.word	.LANCHOR11
 4460              		.cfi_endproc
 4461              	.LFE307:
 4462              		.size	mc_interface_adc_inj_int_handler, .-mc_interface_adc_inj_int_handler
 4463              		.global	ADC_curr_norm_value
 4464              		.global	ADC_Value
 4465              		.section	.bss.m_ignore_iterations,"aw",%nobits
 4466              		.align	2
 4467              		.set	.LANCHOR14,. + 0
 4468              		.type	m_ignore_iterations, %object
 4469              		.size	m_ignore_iterations, 4
 4470              	m_ignore_iterations:
 4471 0000 00000000 		.space	4
 4472              		.section	.bss.m_f_sw_samples,"aw",%nobits
 4473              		.align	2
 4474              		.set	.LANCHOR10,. + 0
 4475              		.type	m_f_sw_samples, %object
 4476              		.size	m_f_sw_samples, 4000
 4477              	m_f_sw_samples:
 4478 0000 00000000 		.space	4000
 4478      00000000 
 4478      00000000 
 4478      00000000 
 4478      00000000 
 4479              		.section	.bss.a.10703,"aw",%nobits
 4480              		.align	2
 4481              		.set	.LANCHOR42,. + 0
 4482              		.type	a.10703, %object
 4483              		.size	a.10703, 4
 4484              	a.10703:
 4485 0000 00000000 		.space	4
 4486              		.section	.bss.m_sample_int,"aw",%nobits
 4487              		.align	2
 4488              		.set	.LANCHOR29,. + 0
 4489              		.type	m_sample_int, %object
 4490              		.size	m_sample_int, 4
 4491              	m_sample_int:
 4492 0000 00000000 		.space	4
 4493              		.section	.bss.cruise_control_status,"aw",%nobits
 4494              		.set	.LANCHOR28,. + 0
 4495              		.type	cruise_control_status, %object
 4496              		.size	cruise_control_status, 1
 4497              	cruise_control_status:
 4498 0000 00       		.space	1
 4499              		.section	.bss.m_conf_original,"aw",%nobits
ARM GAS  C:\Users\euanm\AppData\Local\Temp\ccnlTGs7.s 			page 80


 4500              		.align	2
 4501              		.set	.LANCHOR12,. + 0
 4502              		.type	m_conf_original, %object
 4503              		.size	m_conf_original, 320
 4504              	m_conf_original:
 4505 0000 00000000 		.space	320
 4505      00000000 
 4505      00000000 
 4505      00000000 
 4505      00000000 
 4506              		.section	.bss.m_watt_seconds_charged,"aw",%nobits
 4507              		.align	2
 4508              		.set	.LANCHOR25,. + 0
 4509              		.type	m_watt_seconds_charged, %object
 4510              		.size	m_watt_seconds_charged, 4
 4511              	m_watt_seconds_charged:
 4512 0000 00000000 		.space	4
 4513              		.section	.bss.ADC_curr_norm_value,"aw",%nobits
 4514              		.align	2
 4515              		.set	.LANCHOR43,. + 0
 4516              		.type	ADC_curr_norm_value, %object
 4517              		.size	ADC_curr_norm_value, 12
 4518              	ADC_curr_norm_value:
 4519 0000 00000000 		.space	12
 4519      00000000 
 4519      00000000 
 4520              		.section	.bss.m_position_set,"aw",%nobits
 4521              		.align	2
 4522              		.set	.LANCHOR26,. + 0
 4523              		.type	m_position_set, %object
 4524              		.size	m_position_set, 4
 4525              	m_position_set:
 4526 0000 00000000 		.space	4
 4527              		.section	.bss.m_lock_override_once,"aw",%nobits
 4528              		.set	.LANCHOR17,. + 0
 4529              		.type	m_lock_override_once, %object
 4530              		.size	m_lock_override_once, 1
 4531              	m_lock_override_once:
 4532 0000 00       		.space	1
 4533              		.section	.bss.m_ph1_samples,"aw",%nobits
 4534              		.align	2
 4535              		.set	.LANCHOR4,. + 0
 4536              		.type	m_ph1_samples, %object
 4537              		.size	m_ph1_samples, 4000
 4538              	m_ph1_samples:
 4539 0000 00000000 		.space	4000
 4539      00000000 
 4539      00000000 
 4539      00000000 
 4539      00000000 
 4540              		.section	.bss.ADC_Value,"aw",%nobits
 4541              		.align	2
 4542              		.set	.LANCHOR38,. + 0
 4543              		.type	ADC_Value, %object
 4544              		.size	ADC_Value, 24
 4545              	ADC_Value:
 4546 0000 00000000 		.space	24
ARM GAS  C:\Users\euanm\AppData\Local\Temp\ccnlTGs7.s 			page 81


 4546      00000000 
 4546      00000000 
 4546      00000000 
 4546      00000000 
 4547              		.section	.bss.m_motor_current_iterations,"aw",%nobits
 4548              		.align	2
 4549              		.set	.LANCHOR20,. + 0
 4550              		.type	m_motor_current_iterations, %object
 4551              		.size	m_motor_current_iterations, 4
 4552              	m_motor_current_iterations:
 4553 0000 00000000 		.space	4
 4554              		.section	.bss.m_last_adc_duration_sample,"aw",%nobits
 4555              		.align	2
 4556              		.set	.LANCHOR27,. + 0
 4557              		.type	m_last_adc_duration_sample, %object
 4558              		.size	m_last_adc_duration_sample, 4
 4559              	m_last_adc_duration_sample:
 4560 0000 00000000 		.space	4
 4561              		.section	.bss.m_amp_seconds_charged,"aw",%nobits
 4562              		.align	2
 4563              		.set	.LANCHOR23,. + 0
 4564              		.type	m_amp_seconds_charged, %object
 4565              		.size	m_amp_seconds_charged, 4
 4566              	m_amp_seconds_charged:
 4567 0000 00000000 		.space	4
 4568              		.section	.bss.pwn_done_func,"aw",%nobits
 4569              		.align	2
 4570              		.set	.LANCHOR36,. + 0
 4571              		.type	pwn_done_func, %object
 4572              		.size	pwn_done_func, 4
 4573              	pwn_done_func:
 4574 0000 00000000 		.space	4
 4575              		.section	.bss.m_input_current_sum,"aw",%nobits
 4576              		.align	2
 4577              		.set	.LANCHOR19,. + 0
 4578              		.type	m_input_current_sum, %object
 4579              		.size	m_input_current_sum, 4
 4580              	m_input_current_sum:
 4581 0000 00000000 		.space	4
 4582              		.section	.bss.m_vzero_samples,"aw",%nobits
 4583              		.align	2
 4584              		.set	.LANCHOR7,. + 0
 4585              		.type	m_vzero_samples, %object
 4586              		.size	m_vzero_samples, 4000
 4587              	m_vzero_samples:
 4588 0000 00000000 		.space	4000
 4588      00000000 
 4588      00000000 
 4588      00000000 
 4588      00000000 
 4589              		.section	.bss.m_sample_len,"aw",%nobits
 4590              		.align	2
 4591              		.set	.LANCHOR1,. + 0
 4592              		.type	m_sample_len, %object
 4593              		.size	m_sample_len, 4
 4594              	m_sample_len:
 4595 0000 00000000 		.space	4
ARM GAS  C:\Users\euanm\AppData\Local\Temp\ccnlTGs7.s 			page 82


 4596              		.section	.bss.m_conf,"aw",%nobits
 4597              		.align	2
 4598              		.set	.LANCHOR11,. + 0
 4599              		.type	m_conf, %object
 4600              		.size	m_conf, 320
 4601              	m_conf:
 4602 0000 00000000 		.space	320
 4602      00000000 
 4602      00000000 
 4602      00000000 
 4602      00000000 
 4603              		.section	.bss.m_fault_now,"aw",%nobits
 4604              		.set	.LANCHOR13,. + 0
 4605              		.type	m_fault_now, %object
 4606              		.size	m_fault_now, 1
 4607              	m_fault_now:
 4608 0000 00       		.space	1
 4609              		.section	.bss.m_curr0_samples,"aw",%nobits
 4610              		.align	2
 4611              		.set	.LANCHOR2,. + 0
 4612              		.type	m_curr0_samples, %object
 4613              		.size	m_curr0_samples, 4000
 4614              	m_curr0_samples:
 4615 0000 00000000 		.space	4000
 4615      00000000 
 4615      00000000 
 4615      00000000 
 4615      00000000 
 4616              		.section	.bss.sample_send_tp,"aw",%nobits
 4617              		.align	2
 4618              		.set	.LANCHOR0,. + 0
 4619              		.type	sample_send_tp, %object
 4620              		.size	sample_send_tp, 4
 4621              	sample_send_tp:
 4622 0000 00000000 		.space	4
 4623              		.section	.rodata.str1.4,"aMS",%progbits,1
 4624              		.align	2
 4625              	.LC0:
 4626 0000 53616D70 		.ascii	"SampleSender\000"
 4626      6C655365 
 4626      6E646572 
 4626      00
 4627 000d 000000   		.space	3
 4628              	.LC1:
 4629 0010 4641554C 		.ascii	"FAULT_UNKNOWN\000"
 4629      545F554E 
 4629      4B4E4F57 
 4629      4E00
 4630 001e 0000     		.space	2
 4631              	.LC2:
 4632 0020 6D636966 		.ascii	"mcif timer\000"
 4632      2074696D 
 4632      657200
 4633 002b 00       		.space	1
 4634              	.LC3:
 4635 002c 4641554C 		.ascii	"FAULT_CODE_NONE\000"
 4635      545F434F 
ARM GAS  C:\Users\euanm\AppData\Local\Temp\ccnlTGs7.s 			page 83


 4635      44455F4E 
 4635      4F4E4500 
 4636              	.LC4:
 4637 003c 4641554C 		.ascii	"FAULT_CODE_OVER_VOLTAGE\000"
 4637      545F434F 
 4637      44455F4F 
 4637      5645525F 
 4637      564F4C54 
 4638              	.LC5:
 4639 0054 4641554C 		.ascii	"FAULT_CODE_UNDER_VOLTAGE\000"
 4639      545F434F 
 4639      44455F55 
 4639      4E444552 
 4639      5F564F4C 
 4640 006d 000000   		.space	3
 4641              	.LC6:
 4642 0070 4641554C 		.ascii	"FAULT_CODE_DRV8302\000"
 4642      545F434F 
 4642      44455F44 
 4642      52563833 
 4642      303200
 4643 0083 00       		.space	1
 4644              	.LC7:
 4645 0084 4641554C 		.ascii	"FAULT_CODE_ABS_OVER_CURRENT\000"
 4645      545F434F 
 4645      44455F41 
 4645      42535F4F 
 4645      5645525F 
 4646              	.LC8:
 4647 00a0 4641554C 		.ascii	"FAULT_CODE_OVER_TEMP_FET\000"
 4647      545F434F 
 4647      44455F4F 
 4647      5645525F 
 4647      54454D50 
 4648 00b9 000000   		.space	3
 4649              	.LC9:
 4650 00bc 4641554C 		.ascii	"FAULT_CODE_OVER_TEMP_MOTOR\000"
 4650      545F434F 
 4650      44455F4F 
 4650      5645525F 
 4650      54454D50 
 4651              		.section	.bss.m_cycles_running,"aw",%nobits
 4652              		.align	2
 4653              		.set	.LANCHOR15,. + 0
 4654              		.type	m_cycles_running, %object
 4655              		.size	m_cycles_running, 4
 4656              	m_cycles_running:
 4657 0000 00000000 		.space	4
 4658              		.section	.bss.m_sample_ready,"aw",%nobits
 4659              		.align	2
 4660              		.set	.LANCHOR30,. + 0
 4661              		.type	m_sample_ready, %object
 4662              		.size	m_sample_ready, 4
 4663              	m_sample_ready:
 4664 0000 00000000 		.space	4
 4665              		.section	.bss.m_ph2_samples,"aw",%nobits
 4666              		.align	2
ARM GAS  C:\Users\euanm\AppData\Local\Temp\ccnlTGs7.s 			page 84


 4667              		.set	.LANCHOR5,. + 0
 4668              		.type	m_ph2_samples, %object
 4669              		.size	m_ph2_samples, 4000
 4670              	m_ph2_samples:
 4671 0000 00000000 		.space	4000
 4671      00000000 
 4671      00000000 
 4671      00000000 
 4671      00000000 
 4672              		.section	.bss.m_motor_current_sum,"aw",%nobits
 4673              		.align	2
 4674              		.set	.LANCHOR18,. + 0
 4675              		.type	m_motor_current_sum, %object
 4676              		.size	m_motor_current_sum, 4
 4677              	m_motor_current_sum:
 4678 0000 00000000 		.space	4
 4679              		.section	.bss.m_input_current_iterations,"aw",%nobits
 4680              		.align	2
 4681              		.set	.LANCHOR21,. + 0
 4682              		.type	m_input_current_iterations, %object
 4683              		.size	m_input_current_iterations, 4
 4684              	m_input_current_iterations:
 4685 0000 00000000 		.space	4
 4686              		.section	.bss.m_amp_seconds,"aw",%nobits
 4687              		.align	2
 4688              		.set	.LANCHOR22,. + 0
 4689              		.type	m_amp_seconds, %object
 4690              		.size	m_amp_seconds, 4
 4691              	m_amp_seconds:
 4692 0000 00000000 		.space	4
 4693              		.section	.bss.sample_send_thread_wa,"aw",%nobits
 4694              		.align	3
 4695              		.set	.LANCHOR35,. + 0
 4696              		.type	sample_send_thread_wa, %object
 4697              		.size	sample_send_thread_wa, 1432
 4698              	sample_send_thread_wa:
 4699 0000 00000000 		.space	1432
 4699      00000000 
 4699      00000000 
 4699      00000000 
 4699      00000000 
 4700              		.section	.bss.m_curr_fir_samples,"aw",%nobits
 4701              		.align	2
 4702              		.set	.LANCHOR9,. + 0
 4703              		.type	m_curr_fir_samples, %object
 4704              		.size	m_curr_fir_samples, 4000
 4705              	m_curr_fir_samples:
 4706 0000 00000000 		.space	4000
 4706      00000000 
 4706      00000000 
 4706      00000000 
 4706      00000000 
 4707              		.section	.bss.m_sample_now,"aw",%nobits
 4708              		.align	2
 4709              		.set	.LANCHOR31,. + 0
 4710              		.type	m_sample_now, %object
 4711              		.size	m_sample_now, 4
ARM GAS  C:\Users\euanm\AppData\Local\Temp\ccnlTGs7.s 			page 85


 4712              	m_sample_now:
 4713 0000 00000000 		.space	4
 4714              		.section	.bss.curr_diff_samples.10702,"aw",%nobits
 4715              		.align	2
 4716              		.set	.LANCHOR41,. + 0
 4717              		.type	curr_diff_samples.10702, %object
 4718              		.size	curr_diff_samples.10702, 4
 4719              	curr_diff_samples.10702:
 4720 0000 00000000 		.space	4
 4721              		.section	.bss.m_status_samples,"aw",%nobits
 4722              		.align	2
 4723              		.set	.LANCHOR8,. + 0
 4724              		.type	m_status_samples, %object
 4725              		.size	m_status_samples, 2000
 4726              	m_status_samples:
 4727 0000 00000000 		.space	2000
 4727      00000000 
 4727      00000000 
 4727      00000000 
 4727      00000000 
 4728              		.section	.bss.m_lock_enabled,"aw",%nobits
 4729              		.set	.LANCHOR16,. + 0
 4730              		.type	m_lock_enabled, %object
 4731              		.size	m_lock_enabled, 1
 4732              	m_lock_enabled:
 4733 0000 00       		.space	1
 4734              		.section	.bss.m_start_comm,"aw",%nobits
 4735              		.align	2
 4736              		.set	.LANCHOR33,. + 0
 4737              		.type	m_start_comm, %object
 4738              		.size	m_start_comm, 4
 4739              	m_start_comm:
 4740 0000 00000000 		.space	4
 4741              		.section	.bss.m_watt_seconds,"aw",%nobits
 4742              		.align	2
 4743              		.set	.LANCHOR24,. + 0
 4744              		.type	m_watt_seconds, %object
 4745              		.size	m_watt_seconds, 4
 4746              	m_watt_seconds:
 4747 0000 00000000 		.space	4
 4748              		.section	.bss.m_curr1_samples,"aw",%nobits
 4749              		.align	2
 4750              		.set	.LANCHOR3,. + 0
 4751              		.type	m_curr1_samples, %object
 4752              		.size	m_curr1_samples, 4000
 4753              	m_curr1_samples:
 4754 0000 00000000 		.space	4000
 4754      00000000 
 4754      00000000 
 4754      00000000 
 4754      00000000 
 4755              		.section	.bss.m_sample_at_start,"aw",%nobits
 4756              		.align	2
 4757              		.set	.LANCHOR32,. + 0
 4758              		.type	m_sample_at_start, %object
 4759              		.size	m_sample_at_start, 4
 4760              	m_sample_at_start:
ARM GAS  C:\Users\euanm\AppData\Local\Temp\ccnlTGs7.s 			page 86


 4761 0000 00000000 		.space	4
 4762              		.section	.bss.wrong_voltage_iterations.10695,"aw",%nobits
 4763              		.align	2
 4764              		.set	.LANCHOR39,. + 0
 4765              		.type	wrong_voltage_iterations.10695, %object
 4766              		.size	wrong_voltage_iterations.10695, 4
 4767              	wrong_voltage_iterations.10695:
 4768 0000 00000000 		.space	4
 4769              		.section	.rodata.CSWTCH.124,"a",%progbits
 4770              		.align	2
 4771              		.set	.LANCHOR37,. + 0
 4772              		.type	CSWTCH.124, %object
 4773              		.size	CSWTCH.124, 28
 4774              	CSWTCH.124:
 4775 0000 2C000000 		.word	.LC3
 4776 0004 3C000000 		.word	.LC4
 4777 0008 54000000 		.word	.LC5
 4778 000c 70000000 		.word	.LC6
 4779 0010 84000000 		.word	.LC7
 4780 0014 A0000000 		.word	.LC8
 4781 0018 BC000000 		.word	.LC9
 4782              		.section	.bss.curr_diff_sum.10701,"aw",%nobits
 4783              		.align	2
 4784              		.set	.LANCHOR40,. + 0
 4785              		.type	curr_diff_sum.10701, %object
 4786              		.size	curr_diff_sum.10701, 4
 4787              	curr_diff_sum.10701:
 4788 0000 00000000 		.space	4
 4789              		.section	.bss.timer_thread_wa,"aw",%nobits
 4790              		.align	3
 4791              		.set	.LANCHOR34,. + 0
 4792              		.type	timer_thread_wa, %object
 4793              		.size	timer_thread_wa, 1432
 4794              	timer_thread_wa:
 4795 0000 00000000 		.space	1432
 4795      00000000 
 4795      00000000 
 4795      00000000 
 4795      00000000 
 4796              		.section	.bss.m_ph3_samples,"aw",%nobits
 4797              		.align	2
 4798              		.set	.LANCHOR6,. + 0
 4799              		.type	m_ph3_samples, %object
 4800              		.size	m_ph3_samples, 4000
 4801              	m_ph3_samples:
 4802 0000 00000000 		.space	4000
 4802      00000000 
 4802      00000000 
 4802      00000000 
 4802      00000000 
 4803              		.text
 4804              	.Letext0:
 4805              		.file 4 "c:\\program files (x86)\\gnu tools arm embedded\\5.4 2016q3\\arm-none-eabi\\include\\mach
 4806              		.file 5 "c:\\program files (x86)\\gnu tools arm embedded\\5.4 2016q3\\arm-none-eabi\\include\\sys\
 4807              		.file 6 "c:\\program files (x86)\\gnu tools arm embedded\\5.4 2016q3\\lib\\gcc\\arm-none-eabi\\5.4
 4808              		.file 7 "ChibiOS_3.0.2/os/rt/ports/ARMCMx/compilers/GCC/chtypes.h"
 4809              		.file 8 "ChibiOS_3.0.2/os/rt/include/chsystypes.h"
ARM GAS  C:\Users\euanm\AppData\Local\Temp\ccnlTGs7.s 			page 87


 4810              		.file 9 "ChibiOS_3.0.2/os/rt/include/chschd.h"
 4811              		.file 10 "ChibiOS_3.0.2/os/ext/CMSIS/ST/stm32f407xx.h"
 4812              		.file 11 "ChibiOS_3.0.2/os/rt/ports/ARMCMx/chcore.h"
 4813              		.file 12 "ChibiOS_3.0.2/os/rt/ports/ARMCMx/chcore_v7m.h"
 4814              		.file 13 "ChibiOS_3.0.2/os/rt/include/chtm.h"
 4815              		.file 14 "ChibiOS_3.0.2/os/rt/include/chsem.h"
 4816              		.file 15 "ChibiOS_3.0.2/os/rt/include/chmtx.h"
 4817              		.file 16 "datatypes.h"
 4818              		.file 17 "ChibiOS_3.0.2/os/hal/ports/STM32/LLD/GPIOv2/pal_lld.h"
 4819              		.file 18 "ChibiOS_3.0.2/os/rt/include/chsys.h"
 4820              		.file 19 "ChibiOS_3.0.2/os/ext/CMSIS/include/core_cm4.h"
 4821              		.file 20 "mcpwm.h"
 4822              		.file 21 "commands.h"
 4823              		.file 22 "ChibiOS_3.0.2/os/rt/include/chevents.h"
 4824              		.file 23 "mcpwm_foc.h"
 4825              		.file 24 "ChibiOS_3.0.2/os/rt/include/chthreads.h"
 4826              		.file 25 "encoder.h"
 4827              		.file 26 "utils.h"
 4828              		.file 27 "c:\\program files (x86)\\gnu tools arm embedded\\5.4 2016q3\\arm-none-eabi\\include\\mat
 4829              		.file 28 "terminal.h"
 4830              		.file 29 "ledpwm.h"