ARM GAS  C:\Users\euanm\AppData\Local\Temp\ccnlTGs7.s 			page 1


   1              		.syntax unified
   2              		.cpu cortex-m4
   3              		.eabi_attribute 27, 1
   4              		.eabi_attribute 28, 1
   5              		.fpu fpv4-sp-d16
   6              		.eabi_attribute 20, 1
   7              		.eabi_attribute 21, 1
   8              		.eabi_attribute 23, 3
   9              		.eabi_attribute 24, 1
  10              		.eabi_attribute 25, 1
  11              		.eabi_attribute 26, 1
  12              		.eabi_attribute 30, 2
  13              		.eabi_attribute 34, 1
  14              		.eabi_attribute 18, 4
  15              		.thumb
  16              		.syntax unified
  17              		.file	"mc_interface.c"
  18              		.text
  19              	.Ltext0:
  20              		.cfi_sections	.debug_frame
  21              		.section	.text.sample_send_thread,"ax",%progbits
  22              		.align	2
  23              		.p2align 4,,15
  24              		.thumb
  25              		.thumb_func
  26              		.type	sample_send_thread, %function
  27              	sample_send_thread:
  28              	.LFB310:
  29              		.file 1 "mc_interface.c"
  30              		.loc 1 1252 0
  31              		.cfi_startproc
  32              		@ args = 0, pretend = 0, frame = 32
  33              		@ frame_needed = 0, uses_anonymous_args = 0
  34              	.LVL0:
  35 0000 2DE9F04F 		push	{r4, r5, r6, r7, r8, r9, r10, fp, lr}
  36              		.cfi_def_cfa_offset 36
  37              		.cfi_offset 4, -36
  38              		.cfi_offset 5, -32
  39              		.cfi_offset 6, -28
  40              		.cfi_offset 7, -24
  41              		.cfi_offset 8, -20
  42              		.cfi_offset 9, -16
  43              		.cfi_offset 10, -12
  44              		.cfi_offset 11, -8
  45              		.cfi_offset 14, -4
  46              	.LBB69:
  47              	.LBB70:
  48              		.file 2 "ChibiOS_3.0.2/os/rt/include/chregistry.h"
  49              		.loc 2 135 0
  50 0004 3D4B     		ldr	r3, .L9
  51              	.LBE70:
  52              	.LBE69:
  53              		.loc 1 1257 0
  54 0006 3E4A     		ldr	r2, .L9+4
  55              	.LBB72:
  56              	.LBB71:
  57              		.loc 2 135 0
ARM GAS  C:\Users\euanm\AppData\Local\Temp\ccnlTGs7.s 			page 2


  58 0008 9B69     		ldr	r3, [r3, #24]
  59 000a 3E49     		ldr	r1, .L9+8
  60 000c DFF810B1 		ldr	fp, .L9+36
  61 0010 DFF810A1 		ldr	r10, .L9+40
  62 0014 DFF81091 		ldr	r9, .L9+44
  63 0018 DFF81081 		ldr	r8, .L9+48
  64 001c 3A4F     		ldr	r7, .L9+12
  65 001e 3B4E     		ldr	r6, .L9+16
  66 0020 3B4D     		ldr	r5, .L9+20
  67 0022 3C4C     		ldr	r4, .L9+24
  68 0024 9961     		str	r1, [r3, #24]
  69              	.LVL1:
  70              	.LBE71:
  71              	.LBE72:
  72              		.loc 1 1252 0
  73 0026 89B0     		sub	sp, sp, #36
  74              		.cfi_def_cfa_offset 72
  75              		.loc 1 1257 0
  76 0028 1360     		str	r3, [r2]
  77              	.LVL2:
  78              	.L3:
  79              		.loc 1 1260 0
  80 002a 0120     		movs	r0, #1
  81 002c FFF7FEFF 		bl	chEvtWaitAny
  82              	.LVL3:
  83              	.LBB73:
  84              		.loc 1 1262 0
  85 0030 394B     		ldr	r3, .L9+28
  86 0032 1B68     		ldr	r3, [r3]
  87 0034 002B     		cmp	r3, #0
  88 0036 F8DD     		ble	.L3
  89              		.loc 1 1262 0 is_stmt 0 discriminator 3
  90 0038 0023     		movs	r3, #0
  91              	.LVL4:
  92              	.L4:
  93              	.LBB74:
  94              		.loc 1 1266 0 is_stmt 1 discriminator 3
  95 003a 3BF813E0 		ldrh	lr, [fp, r3, lsl #1]
  96              		.loc 1 1267 0 discriminator 3
  97 003e 3BF81310 		ldrh	r1, [fp, r3, lsl #1]
  98              		.loc 1 1268 0 discriminator 3
  99 0042 3AF81300 		ldrh	r0, [r10, r3, lsl #1]
 100              		.loc 1 1269 0 discriminator 3
 101 0046 3AF81320 		ldrh	r2, [r10, r3, lsl #1]
 102              		.loc 1 1267 0 discriminator 3
 103 004a 8DF80D10 		strb	r1, [sp, #13]
 104              		.loc 1 1269 0 discriminator 3
 105 004e 8DF80F20 		strb	r2, [sp, #15]
 106              		.loc 1 1270 0 discriminator 3
 107 0052 39F81310 		ldrh	r1, [r9, r3, lsl #1]
 108              		.loc 1 1271 0 discriminator 3
 109 0056 39F81320 		ldrh	r2, [r9, r3, lsl #1]
 110 005a 8DF81120 		strb	r2, [sp, #17]
 111              		.loc 1 1272 0 discriminator 3
 112 005e 38F81320 		ldrh	r2, [r8, r3, lsl #1]
 113              		.loc 1 1273 0 discriminator 3
 114 0062 38F813C0 		ldrh	ip, [r8, r3, lsl #1]
ARM GAS  C:\Users\euanm\AppData\Local\Temp\ccnlTGs7.s 			page 3


 115 0066 8DF813C0 		strb	ip, [sp, #19]
 116              		.loc 1 1272 0 discriminator 3
 117 006a 42F30722 		sbfx	r2, r2, #8, #8
 118 006e 8DF81220 		strb	r2, [sp, #18]
 119              		.loc 1 1278 0 discriminator 3
 120 0072 2A4A     		ldr	r2, .L9+32
 121              		.loc 1 1266 0 discriminator 3
 122 0074 4EF3072E 		sbfx	lr, lr, #8, #8
 123              		.loc 1 1268 0 discriminator 3
 124 0078 40F30720 		sbfx	r0, r0, #8, #8
 125              		.loc 1 1270 0 discriminator 3
 126 007c 41F30721 		sbfx	r1, r1, #8, #8
 127              		.loc 1 1266 0 discriminator 3
 128 0080 8DF80CE0 		strb	lr, [sp, #12]
 129              	.LVL5:
 130              		.loc 1 1268 0 discriminator 3
 131 0084 8DF80E00 		strb	r0, [sp, #14]
 132              	.LVL6:
 133              		.loc 1 1274 0 discriminator 3
 134 0088 37F813E0 		ldrh	lr, [r7, r3, lsl #1]
 135              		.loc 1 1270 0 discriminator 3
 136 008c 8DF81010 		strb	r1, [sp, #16]
 137              	.LVL7:
 138              		.loc 1 1275 0 discriminator 3
 139 0090 37F813C0 		ldrh	ip, [r7, r3, lsl #1]
 140              		.loc 1 1276 0 discriminator 3
 141 0094 36F81300 		ldrh	r0, [r6, r3, lsl #1]
 142              		.loc 1 1277 0 discriminator 3
 143 0098 36F81310 		ldrh	r1, [r6, r3, lsl #1]
 144              		.loc 1 1278 0 discriminator 3
 145 009c D25C     		ldrb	r2, [r2, r3]	@ zero_extendqisi2
 146              		.loc 1 1277 0 discriminator 3
 147 009e 8DF81710 		strb	r1, [sp, #23]
 148              		.loc 1 1278 0 discriminator 3
 149 00a2 8DF81820 		strb	r2, [sp, #24]
 150              		.loc 1 1279 0 discriminator 3
 151 00a6 35F81310 		ldrh	r1, [r5, r3, lsl #1]
 152              		.loc 1 1280 0 discriminator 3
 153 00aa 35F81320 		ldrh	r2, [r5, r3, lsl #1]
 154 00ae 8DF81A20 		strb	r2, [sp, #26]
 155              		.loc 1 1281 0 discriminator 3
 156 00b2 34F81320 		ldrh	r2, [r4, r3, lsl #1]
 157              		.loc 1 1275 0 discriminator 3
 158 00b6 8DF815C0 		strb	ip, [sp, #21]
 159              		.loc 1 1274 0 discriminator 3
 160 00ba 4EF3072E 		sbfx	lr, lr, #8, #8
 161              		.loc 1 1276 0 discriminator 3
 162 00be 40F30720 		sbfx	r0, r0, #8, #8
 163              		.loc 1 1279 0 discriminator 3
 164 00c2 41F30721 		sbfx	r1, r1, #8, #8
 165              		.loc 1 1281 0 discriminator 3
 166 00c6 42F30722 		sbfx	r2, r2, #8, #8
 167              		.loc 1 1274 0 discriminator 3
 168 00ca 8DF814E0 		strb	lr, [sp, #20]
 169              	.LVL8:
 170              		.loc 1 1276 0 discriminator 3
 171 00ce 8DF81600 		strb	r0, [sp, #22]
ARM GAS  C:\Users\euanm\AppData\Local\Temp\ccnlTGs7.s 			page 4


 172              	.LVL9:
 173              		.loc 1 1279 0 discriminator 3
 174 00d2 8DF81910 		strb	r1, [sp, #25]
 175              	.LVL10:
 176              		.loc 1 1281 0 discriminator 3
 177 00d6 8DF81B20 		strb	r2, [sp, #27]
 178              	.LVL11:
 179              		.loc 1 1284 0 discriminator 3
 180 00da 1121     		movs	r1, #17
 181              		.loc 1 1282 0 discriminator 3
 182 00dc 34F81320 		ldrh	r2, [r4, r3, lsl #1]
 183 00e0 8DF81C20 		strb	r2, [sp, #28]
 184              		.loc 1 1284 0 discriminator 3
 185 00e4 03A8     		add	r0, sp, #12
 186              		.loc 1 1282 0 discriminator 3
 187 00e6 0193     		str	r3, [sp, #4]
 188              		.loc 1 1284 0 discriminator 3
 189 00e8 FFF7FEFF 		bl	commands_send_samples
 190              	.LVL12:
 191              	.LBE74:
 192              		.loc 1 1262 0 discriminator 3
 193 00ec 0A4B     		ldr	r3, .L9+28
 194 00ee 1A68     		ldr	r2, [r3]
 195 00f0 019B     		ldr	r3, [sp, #4]
 196 00f2 0133     		adds	r3, r3, #1
 197              	.LVL13:
 198 00f4 9A42     		cmp	r2, r3
 199 00f6 A0DC     		bgt	.L4
 200 00f8 97E7     		b	.L3
 201              	.L10:
 202 00fa 00BF     		.align	2
 203              	.L9:
 204 00fc 00000000 		.word	ch
 205 0100 00000000 		.word	.LANCHOR0
 206 0104 00000000 		.word	.LC0
 207 0108 00000000 		.word	.LANCHOR6
 208 010c 00000000 		.word	.LANCHOR7
 209 0110 00000000 		.word	.LANCHOR9
 210 0114 00000000 		.word	.LANCHOR10
 211 0118 00000000 		.word	.LANCHOR1
 212 011c 00000000 		.word	.LANCHOR8
 213 0120 00000000 		.word	.LANCHOR2
 214 0124 00000000 		.word	.LANCHOR3
 215 0128 00000000 		.word	.LANCHOR4
 216 012c 00000000 		.word	.LANCHOR5
 217              	.LBE73:
 218              		.cfi_endproc
 219              	.LFE310:
 220              		.size	sample_send_thread, .-sample_send_thread
 221              		.section	.text.mc_interface_set_duty.part.1,"ax",%progbits
 222              		.align	2
 223              		.p2align 4,,15
 224              		.thumb
 225              		.thumb_func
 226              		.type	mc_interface_set_duty.part.1, %function
 227              	mc_interface_set_duty.part.1:
 228              	.LFB312:
ARM GAS  C:\Users\euanm\AppData\Local\Temp\ccnlTGs7.s 			page 5


 229              		.loc 1 302 0
 230              		.cfi_startproc
 231              		@ args = 0, pretend = 0, frame = 0
 232              		@ frame_needed = 0, uses_anonymous_args = 0
 233              		@ link register save eliminated.
 234              	.LVL14:
 235              		.loc 1 307 0
 236 0000 054B     		ldr	r3, .L17
 237 0002 9B78     		ldrb	r3, [r3, #2]	@ zero_extendqisi2
 238 0004 DBB2     		uxtb	r3, r3
 239 0006 012B     		cmp	r3, #1
 240 0008 04D9     		bls	.L13
 241 000a 022B     		cmp	r3, #2
 242 000c 01D1     		bne	.L16
 243              		.loc 1 314 0
 244 000e FFF7FEBF 		b	mcpwm_foc_set_duty
 245              	.LVL15:
 246              	.L16:
 247 0012 7047     		bx	lr
 248              	.L13:
 249              		.loc 1 310 0
 250 0014 FFF7FEBF 		b	mcpwm_set_duty
 251              	.LVL16:
 252              	.L18:
 253              		.align	2
 254              	.L17:
 255 0018 00000000 		.word	.LANCHOR11
 256              		.cfi_endproc
 257              	.LFE312:
 258              		.size	mc_interface_set_duty.part.1, .-mc_interface_set_duty.part.1
 259              		.section	.text.mc_interface_set_current.part.2,"ax",%progbits
 260              		.align	2
 261              		.p2align 4,,15
 262              		.thumb
 263              		.thumb_func
 264              		.type	mc_interface_set_current.part.2, %function
 265              	mc_interface_set_current.part.2:
 266              	.LFB313:
 267              		.loc 1 413 0
 268              		.cfi_startproc
 269              		@ args = 0, pretend = 0, frame = 0
 270              		@ frame_needed = 0, uses_anonymous_args = 0
 271              		@ link register save eliminated.
 272              	.LVL17:
 273              		.loc 1 418 0
 274 0000 054B     		ldr	r3, .L25
 275 0002 9B78     		ldrb	r3, [r3, #2]	@ zero_extendqisi2
 276 0004 DBB2     		uxtb	r3, r3
 277 0006 012B     		cmp	r3, #1
 278 0008 04D9     		bls	.L21
 279 000a 022B     		cmp	r3, #2
 280 000c 01D1     		bne	.L24
 281              		.loc 1 425 0
 282 000e FFF7FEBF 		b	mcpwm_foc_set_current
 283              	.LVL18:
 284              	.L24:
 285 0012 7047     		bx	lr
ARM GAS  C:\Users\euanm\AppData\Local\Temp\ccnlTGs7.s 			page 6


 286              	.L21:
 287              		.loc 1 421 0
 288 0014 FFF7FEBF 		b	mcpwm_set_current
 289              	.LVL19:
 290              	.L26:
 291              		.align	2
 292              	.L25:
 293 0018 00000000 		.word	.LANCHOR11
 294              		.cfi_endproc
 295              	.LFE313:
 296              		.size	mc_interface_set_current.part.2, .-mc_interface_set_current.part.2
 297              		.section	.text.mc_interface_init,"ax",%progbits
 298              		.align	2
 299              		.p2align 4,,15
 300              		.global	mc_interface_init
 301              		.thumb
 302              		.thumb_func
 303              		.type	mc_interface_init, %function
 304              	mc_interface_init:
 305              	.LFB256:
 306              		.loc 1 95 0
 307              		.cfi_startproc
 308              		@ args = 0, pretend = 0, frame = 0
 309              		@ frame_needed = 0, uses_anonymous_args = 0
 310              	.LVL20:
 311 0000 F0B5     		push	{r4, r5, r6, r7, lr}
 312              		.cfi_def_cfa_offset 20
 313              		.cfi_offset 4, -20
 314              		.cfi_offset 5, -16
 315              		.cfi_offset 6, -12
 316              		.cfi_offset 7, -8
 317              		.cfi_offset 14, -4
 318              		.loc 1 96 0
 319 0002 3D4D     		ldr	r5, .L39
 320              		.loc 1 103 0
 321 0004 3D4F     		ldr	r7, .L39+4
 322              		.loc 1 104 0
 323 0006 3E4E     		ldr	r6, .L39+8
 324              		.loc 1 95 0
 325 0008 83B0     		sub	sp, sp, #12
 326              		.cfi_def_cfa_offset 32
 327              		.loc 1 95 0
 328 000a 0446     		mov	r4, r0
 329              		.loc 1 96 0
 330 000c 0146     		mov	r1, r0
 331 000e 4FF4A072 		mov	r2, #320
 332 0012 2846     		mov	r0, r5
 333              	.LVL21:
 334 0014 FFF7FEFF 		bl	memcpy
 335              	.LVL22:
 336              		.loc 1 97 0
 337 0018 2146     		mov	r1, r4
 338 001a 4FF4A072 		mov	r2, #320
 339 001e 3948     		ldr	r0, .L39+12
 340 0020 FFF7FEFF 		bl	memcpy
 341              	.LVL23:
 342              		.loc 1 100 0
ARM GAS  C:\Users\euanm\AppData\Local\Temp\ccnlTGs7.s 			page 7


 343 0024 3848     		ldr	r0, .L39+16
 344              		.loc 1 101 0
 345 0026 3949     		ldr	r1, .L39+20
 346              		.loc 1 102 0
 347 0028 394A     		ldr	r2, .L39+24
 348              		.loc 1 113 0
 349 002a DFF834C1 		ldr	ip, .L39+104
 350              		.loc 1 115 0
 351 002e DFF834E1 		ldr	lr, .L39+108
 352              		.loc 1 98 0
 353 0032 0024     		movs	r4, #0
 354              	.LVL24:
 355              		.loc 1 123 0
 356 0034 0094     		str	r4, [sp]
 357              		.loc 1 100 0
 358 0036 0460     		str	r4, [r0]
 359              		.loc 1 101 0
 360 0038 0C70     		strb	r4, [r1]
 361              		.loc 1 105 0
 362 003a 3648     		ldr	r0, .L39+28
 363              		.loc 1 102 0
 364 003c 1470     		strb	r4, [r2]
 365              		.loc 1 106 0
 366 003e 3649     		ldr	r1, .L39+32
 367              		.loc 1 107 0
 368 0040 364A     		ldr	r2, .L39+36
 369              		.loc 1 103 0
 370 0042 0023     		movs	r3, #0
 371 0044 3B60     		str	r3, [r7]	@ float
 372              		.loc 1 104 0
 373 0046 3360     		str	r3, [r6]	@ float
 374              		.loc 1 108 0
 375 0048 354F     		ldr	r7, .L39+40
 376              		.loc 1 105 0
 377 004a 0360     		str	r3, [r0]	@ float
 378              		.loc 1 109 0
 379 004c 354E     		ldr	r6, .L39+44
 380              		.loc 1 106 0
 381 004e 0B60     		str	r3, [r1]	@ float
 382              		.loc 1 110 0
 383 0050 3548     		ldr	r0, .L39+48
 384              		.loc 1 107 0
 385 0052 1360     		str	r3, [r2]	@ float
 386              		.loc 1 111 0
 387 0054 3549     		ldr	r1, .L39+52
 388              		.loc 1 112 0
 389 0056 364A     		ldr	r2, .L39+56
 390              		.loc 1 108 0
 391 0058 3B60     		str	r3, [r7]	@ float
 392              		.loc 1 109 0
 393 005a 3360     		str	r3, [r6]	@ float
 394              		.loc 1 110 0
 395 005c 0360     		str	r3, [r0]	@ float
 396              		.loc 1 111 0
 397 005e 0B60     		str	r3, [r1]	@ float
 398              		.loc 1 112 0
 399 0060 1360     		str	r3, [r2]	@ float
ARM GAS  C:\Users\euanm\AppData\Local\Temp\ccnlTGs7.s 			page 8


 400              		.loc 1 113 0
 401 0062 0323     		movs	r3, #3
 402 0064 8CF80030 		strb	r3, [ip]
 403              		.loc 1 116 0
 404 0068 324F     		ldr	r7, .L39+60
 405              		.loc 1 117 0
 406 006a 334E     		ldr	r6, .L39+64
 407              		.loc 1 118 0
 408 006c 334A     		ldr	r2, .L39+68
 409              		.loc 1 119 0
 410 006e 3449     		ldr	r1, .L39+72
 411              		.loc 1 98 0
 412 0070 3448     		ldr	r0, .L39+76
 413              		.loc 1 115 0
 414 0072 4FF47A73 		mov	r3, #1000
 415 0076 CEF80030 		str	r3, [lr]
 416              		.loc 1 116 0
 417 007a 0123     		movs	r3, #1
 418 007c 3B60     		str	r3, [r7]
 419              		.loc 1 117 0
 420 007e 3360     		str	r3, [r6]
 421              		.loc 1 99 0
 422 0080 314F     		ldr	r7, .L39+80
 423              		.loc 1 120 0
 424 0082 324E     		ldr	r6, .L39+84
 425              		.loc 1 118 0
 426 0084 1460     		str	r4, [r2]
 427              		.loc 1 123 0
 428 0086 324B     		ldr	r3, .L39+88
 429              		.loc 1 119 0
 430 0088 0C60     		str	r4, [r1]
 431              		.loc 1 123 0
 432 008a 4022     		movs	r2, #64
 433 008c 4FF4B361 		mov	r1, #1432
 434              		.loc 1 98 0
 435 0090 0470     		strb	r4, [r0]
 436              		.loc 1 99 0
 437 0092 3C60     		str	r4, [r7]
 438              		.loc 1 123 0
 439 0094 2F48     		ldr	r0, .L39+92
 440              		.loc 1 120 0
 441 0096 3460     		str	r4, [r6]
 442              		.loc 1 123 0
 443 0098 FFF7FEFF 		bl	chThdCreateStatic
 444              	.LVL25:
 445              		.loc 1 124 0
 446 009c 2E4B     		ldr	r3, .L39+96
 447 009e 0094     		str	r4, [sp]
 448 00a0 2E48     		ldr	r0, .L39+100
 449 00a2 3F22     		movs	r2, #63
 450 00a4 4FF4B361 		mov	r1, #1432
 451 00a8 FFF7FEFF 		bl	chThdCreateStatic
 452              	.LVL26:
 453              		.loc 1 128 0
 454 00ac 95F83C31 		ldrb	r3, [r5, #316]	@ zero_extendqisi2
 455 00b0 DBB2     		uxtb	r3, r3
 456 00b2 012B     		cmp	r3, #1
ARM GAS  C:\Users\euanm\AppData\Local\Temp\ccnlTGs7.s 			page 9


 457 00b4 1BD0     		beq	.L29
 458 00b6 022B     		cmp	r3, #2
 459 00b8 0BD0     		beq	.L30
 460              	.L28:
 461              		.loc 1 143 0
 462 00ba AB78     		ldrb	r3, [r5, #2]	@ zero_extendqisi2
 463 00bc DBB2     		uxtb	r3, r3
 464 00be 012B     		cmp	r3, #1
 465 00c0 0DD9     		bls	.L32
 466              	.L38:
 467 00c2 022B     		cmp	r3, #2
 468 00c4 11D1     		bne	.L37
 469              		.loc 1 150 0
 470 00c6 0C48     		ldr	r0, .L39
 471              		.loc 1 156 0
 472 00c8 03B0     		add	sp, sp, #12
 473              		.cfi_remember_state
 474              		.cfi_def_cfa_offset 20
 475              		@ sp needed
 476 00ca BDE8F040 		pop	{r4, r5, r6, r7, lr}
 477              		.cfi_restore 14
 478              		.cfi_restore 7
 479              		.cfi_restore 6
 480              		.cfi_restore 5
 481              		.cfi_restore 4
 482              		.cfi_def_cfa_offset 0
 483              		.loc 1 150 0
 484 00ce FFF7FEBF 		b	mcpwm_foc_init
 485              	.LVL27:
 486              	.L30:
 487              		.cfi_restore_state
 488              		.loc 1 134 0
 489 00d2 FFF7FEFF 		bl	encoder_init_as5047p_spi
 490              	.LVL28:
 491              		.loc 1 143 0
 492 00d6 AB78     		ldrb	r3, [r5, #2]	@ zero_extendqisi2
 493 00d8 DBB2     		uxtb	r3, r3
 494 00da 012B     		cmp	r3, #1
 495 00dc F1D8     		bhi	.L38
 496              	.L32:
 497              		.loc 1 146 0
 498 00de 0648     		ldr	r0, .L39
 499              		.loc 1 156 0
 500 00e0 03B0     		add	sp, sp, #12
 501              		.cfi_remember_state
 502              		.cfi_def_cfa_offset 20
 503              		@ sp needed
 504 00e2 BDE8F040 		pop	{r4, r5, r6, r7, lr}
 505              		.cfi_restore 14
 506              		.cfi_restore 7
 507              		.cfi_restore 6
 508              		.cfi_restore 5
 509              		.cfi_restore 4
 510              		.cfi_def_cfa_offset 0
 511              		.loc 1 146 0
 512 00e6 FFF7FEBF 		b	mcpwm_init
 513              	.LVL29:
ARM GAS  C:\Users\euanm\AppData\Local\Temp\ccnlTGs7.s 			page 10


 514              	.L37:
 515              		.cfi_restore_state
 516              		.loc 1 156 0
 517 00ea 03B0     		add	sp, sp, #12
 518              		.cfi_remember_state
 519              		.cfi_def_cfa_offset 20
 520              		@ sp needed
 521 00ec F0BD     		pop	{r4, r5, r6, r7, pc}
 522              	.L29:
 523              		.cfi_restore_state
 524              		.loc 1 130 0
 525 00ee D5F83801 		ldr	r0, [r5, #312]
 526 00f2 FFF7FEFF 		bl	encoder_init_abi
 527              	.LVL30:
 528              		.loc 1 131 0
 529 00f6 E0E7     		b	.L28
 530              	.L40:
 531              		.align	2
 532              	.L39:
 533 00f8 00000000 		.word	.LANCHOR11
 534 00fc 00000000 		.word	.LANCHOR18
 535 0100 00000000 		.word	.LANCHOR19
 536 0104 00000000 		.word	.LANCHOR12
 537 0108 00000000 		.word	.LANCHOR15
 538 010c 00000000 		.word	.LANCHOR16
 539 0110 00000000 		.word	.LANCHOR17
 540 0114 00000000 		.word	.LANCHOR20
 541 0118 00000000 		.word	.LANCHOR21
 542 011c 00000000 		.word	.LANCHOR22
 543 0120 00000000 		.word	.LANCHOR23
 544 0124 00000000 		.word	.LANCHOR24
 545 0128 00000000 		.word	.LANCHOR25
 546 012c 00000000 		.word	.LANCHOR26
 547 0130 00000000 		.word	.LANCHOR27
 548 0134 00000000 		.word	.LANCHOR29
 549 0138 00000000 		.word	.LANCHOR30
 550 013c 00000000 		.word	.LANCHOR31
 551 0140 00000000 		.word	.LANCHOR32
 552 0144 00000000 		.word	.LANCHOR13
 553 0148 00000000 		.word	.LANCHOR14
 554 014c 00000000 		.word	.LANCHOR33
 555 0150 00000000 		.word	timer_thread
 556 0154 00000000 		.word	.LANCHOR34
 557 0158 00000000 		.word	sample_send_thread
 558 015c 00000000 		.word	.LANCHOR35
 559 0160 00000000 		.word	.LANCHOR28
 560 0164 00000000 		.word	.LANCHOR1
 561              		.cfi_endproc
 562              	.LFE256:
 563              		.size	mc_interface_init, .-mc_interface_init
 564              		.section	.text.mc_interface_get_configuration,"ax",%progbits
 565              		.align	2
 566              		.p2align 4,,15
 567              		.global	mc_interface_get_configuration
 568              		.thumb
 569              		.thumb_func
 570              		.type	mc_interface_get_configuration, %function
ARM GAS  C:\Users\euanm\AppData\Local\Temp\ccnlTGs7.s 			page 11


 571              	mc_interface_get_configuration:
 572              	.LFB257:
 573              		.loc 1 158 0
 574              		.cfi_startproc
 575              		@ args = 0, pretend = 0, frame = 0
 576              		@ frame_needed = 0, uses_anonymous_args = 0
 577              		@ link register save eliminated.
 578              		.loc 1 160 0
 579 0000 0048     		ldr	r0, .L42
 580 0002 7047     		bx	lr
 581              	.L43:
 582              		.align	2
 583              	.L42:
 584 0004 00000000 		.word	.LANCHOR11
 585              		.cfi_endproc
 586              	.LFE257:
 587              		.size	mc_interface_get_configuration, .-mc_interface_get_configuration
 588              		.section	.text.mc_interface_dccal_done,"ax",%progbits
 589              		.align	2
 590              		.p2align 4,,15
 591              		.global	mc_interface_dccal_done
 592              		.thumb
 593              		.thumb_func
 594              		.type	mc_interface_dccal_done, %function
 595              	mc_interface_dccal_done:
 596              	.LFB259:
 597              		.loc 1 216 0
 598              		.cfi_startproc
 599              		@ args = 0, pretend = 0, frame = 0
 600              		@ frame_needed = 0, uses_anonymous_args = 0
 601              		@ link register save eliminated.
 602              	.LVL31:
 603              		.loc 1 218 0
 604 0000 064B     		ldr	r3, .L51
 605 0002 9B78     		ldrb	r3, [r3, #2]	@ zero_extendqisi2
 606 0004 DBB2     		uxtb	r3, r3
 607 0006 012B     		cmp	r3, #1
 608 0008 05D9     		bls	.L46
 609 000a 022B     		cmp	r3, #2
 610 000c 01D1     		bne	.L50
 611              		.loc 1 225 0
 612 000e FFF7FEBF 		b	mcpwm_foc_is_dccal_done
 613              	.LVL32:
 614              	.L50:
 615              		.loc 1 233 0
 616 0012 0020     		movs	r0, #0
 617 0014 7047     		bx	lr
 618              	.L46:
 619              		.loc 1 221 0
 620 0016 FFF7FEBF 		b	mcpwm_is_dccal_done
 621              	.LVL33:
 622              	.L52:
 623 001a 00BF     		.align	2
 624              	.L51:
 625 001c 00000000 		.word	.LANCHOR11
 626              		.cfi_endproc
 627              	.LFE259:
ARM GAS  C:\Users\euanm\AppData\Local\Temp\ccnlTGs7.s 			page 12


 628              		.size	mc_interface_dccal_done, .-mc_interface_dccal_done
 629              		.section	.text.mc_interface_set_pwm_callback,"ax",%progbits
 630              		.align	2
 631              		.p2align 4,,15
 632              		.global	mc_interface_set_pwm_callback
 633              		.thumb
 634              		.thumb_func
 635              		.type	mc_interface_set_pwm_callback, %function
 636              	mc_interface_set_pwm_callback:
 637              	.LFB260:
 638              		.loc 1 241 0
 639              		.cfi_startproc
 640              		@ args = 0, pretend = 0, frame = 0
 641              		@ frame_needed = 0, uses_anonymous_args = 0
 642              		@ link register save eliminated.
 643              	.LVL34:
 644              		.loc 1 242 0
 645 0000 014B     		ldr	r3, .L54
 646 0002 1860     		str	r0, [r3]
 647 0004 7047     		bx	lr
 648              	.L55:
 649 0006 00BF     		.align	2
 650              	.L54:
 651 0008 00000000 		.word	.LANCHOR36
 652              		.cfi_endproc
 653              	.LFE260:
 654              		.size	mc_interface_set_pwm_callback, .-mc_interface_set_pwm_callback
 655              		.section	.text.mc_interface_lock,"ax",%progbits
 656              		.align	2
 657              		.p2align 4,,15
 658              		.global	mc_interface_lock
 659              		.thumb
 660              		.thumb_func
 661              		.type	mc_interface_lock, %function
 662              	mc_interface_lock:
 663              	.LFB261:
 664              		.loc 1 248 0
 665              		.cfi_startproc
 666              		@ args = 0, pretend = 0, frame = 0
 667              		@ frame_needed = 0, uses_anonymous_args = 0
 668              		@ link register save eliminated.
 669              		.loc 1 249 0
 670 0000 014B     		ldr	r3, .L57
 671 0002 0122     		movs	r2, #1
 672 0004 1A70     		strb	r2, [r3]
 673 0006 7047     		bx	lr
 674              	.L58:
 675              		.align	2
 676              	.L57:
 677 0008 00000000 		.word	.LANCHOR16
 678              		.cfi_endproc
 679              	.LFE261:
 680              		.size	mc_interface_lock, .-mc_interface_lock
 681              		.section	.text.mc_interface_unlock,"ax",%progbits
 682              		.align	2
 683              		.p2align 4,,15
 684              		.global	mc_interface_unlock
ARM GAS  C:\Users\euanm\AppData\Local\Temp\ccnlTGs7.s 			page 13


 685              		.thumb
 686              		.thumb_func
 687              		.type	mc_interface_unlock, %function
 688              	mc_interface_unlock:
 689              	.LFB262:
 690              		.loc 1 255 0
 691              		.cfi_startproc
 692              		@ args = 0, pretend = 0, frame = 0
 693              		@ frame_needed = 0, uses_anonymous_args = 0
 694              		@ link register save eliminated.
 695              		.loc 1 256 0
 696 0000 014B     		ldr	r3, .L60
 697 0002 0022     		movs	r2, #0
 698 0004 1A70     		strb	r2, [r3]
 699 0006 7047     		bx	lr
 700              	.L61:
 701              		.align	2
 702              	.L60:
 703 0008 00000000 		.word	.LANCHOR16
 704              		.cfi_endproc
 705              	.LFE262:
 706              		.size	mc_interface_unlock, .-mc_interface_unlock
 707              		.section	.text.mc_interface_lock_override_once,"ax",%progbits
 708              		.align	2
 709              		.p2align 4,,15
 710              		.global	mc_interface_lock_override_once
 711              		.thumb
 712              		.thumb_func
 713              		.type	mc_interface_lock_override_once, %function
 714              	mc_interface_lock_override_once:
 715              	.LFB263:
 716              		.loc 1 262 0
 717              		.cfi_startproc
 718              		@ args = 0, pretend = 0, frame = 0
 719              		@ frame_needed = 0, uses_anonymous_args = 0
 720              		@ link register save eliminated.
 721              		.loc 1 263 0
 722 0000 014B     		ldr	r3, .L63
 723 0002 0122     		movs	r2, #1
 724 0004 1A70     		strb	r2, [r3]
 725 0006 7047     		bx	lr
 726              	.L64:
 727              		.align	2
 728              	.L63:
 729 0008 00000000 		.word	.LANCHOR17
 730              		.cfi_endproc
 731              	.LFE263:
 732              		.size	mc_interface_lock_override_once, .-mc_interface_lock_override_once
 733              		.section	.text.mc_interface_get_fault,"ax",%progbits
 734              		.align	2
 735              		.p2align 4,,15
 736              		.global	mc_interface_get_fault
 737              		.thumb
 738              		.thumb_func
 739              		.type	mc_interface_get_fault, %function
 740              	mc_interface_get_fault:
 741              	.LFB264:
ARM GAS  C:\Users\euanm\AppData\Local\Temp\ccnlTGs7.s 			page 14


 742              		.loc 1 266 0
 743              		.cfi_startproc
 744              		@ args = 0, pretend = 0, frame = 0
 745              		@ frame_needed = 0, uses_anonymous_args = 0
 746              		@ link register save eliminated.
 747              		.loc 1 267 0
 748 0000 014B     		ldr	r3, .L66
 749              		.loc 1 268 0
 750 0002 1878     		ldrb	r0, [r3]	@ zero_extendqisi2
 751 0004 7047     		bx	lr
 752              	.L67:
 753 0006 00BF     		.align	2
 754              	.L66:
 755 0008 00000000 		.word	.LANCHOR13
 756              		.cfi_endproc
 757              	.LFE264:
 758              		.size	mc_interface_get_fault, .-mc_interface_get_fault
 759              		.section	.text.mc_interface_fault_to_string,"ax",%progbits
 760              		.align	2
 761              		.p2align 4,,15
 762              		.global	mc_interface_fault_to_string
 763              		.thumb
 764              		.thumb_func
 765              		.type	mc_interface_fault_to_string, %function
 766              	mc_interface_fault_to_string:
 767              	.LFB265:
 768              		.loc 1 270 0
 769              		.cfi_startproc
 770              		@ args = 0, pretend = 0, frame = 0
 771              		@ frame_needed = 0, uses_anonymous_args = 0
 772              		@ link register save eliminated.
 773              	.LVL35:
 774 0000 0628     		cmp	r0, #6
 775 0002 9ABF     		itte	ls
 776 0004 024B     		ldrls	r3, .L71
 777 0006 53F82000 		ldrls	r0, [r3, r0, lsl #2]
 778              	.LVL36:
 779              		.loc 1 270 0
 780 000a 0248     		ldrhi	r0, .L71+4
 781              		.loc 1 281 0
 782 000c 7047     		bx	lr
 783              	.L72:
 784 000e 00BF     		.align	2
 785              	.L71:
 786 0010 00000000 		.word	.LANCHOR37
 787 0014 10000000 		.word	.LC1
 788              		.cfi_endproc
 789              	.LFE265:
 790              		.size	mc_interface_fault_to_string, .-mc_interface_fault_to_string
 791              		.section	.text.mc_interface_get_state,"ax",%progbits
 792              		.align	2
 793              		.p2align 4,,15
 794              		.global	mc_interface_get_state
 795              		.thumb
 796              		.thumb_func
 797              		.type	mc_interface_get_state, %function
 798              	mc_interface_get_state:
ARM GAS  C:\Users\euanm\AppData\Local\Temp\ccnlTGs7.s 			page 15


 799              	.LFB266:
 800              		.loc 1 283 0
 801              		.cfi_startproc
 802              		@ args = 0, pretend = 0, frame = 0
 803              		@ frame_needed = 0, uses_anonymous_args = 0
 804              		@ link register save eliminated.
 805              	.LVL37:
 806              		.loc 1 285 0
 807 0000 064B     		ldr	r3, .L80
 808 0002 9B78     		ldrb	r3, [r3, #2]	@ zero_extendqisi2
 809 0004 DBB2     		uxtb	r3, r3
 810 0006 012B     		cmp	r3, #1
 811 0008 05D9     		bls	.L75
 812 000a 022B     		cmp	r3, #2
 813 000c 01D1     		bne	.L79
 814              		.loc 1 292 0
 815 000e FFF7FEBF 		b	mcpwm_foc_get_state
 816              	.LVL38:
 817              	.L79:
 818              		.loc 1 300 0
 819 0012 0020     		movs	r0, #0
 820 0014 7047     		bx	lr
 821              	.L75:
 822              		.loc 1 288 0
 823 0016 FFF7FEBF 		b	mcpwm_get_state
 824              	.LVL39:
 825              	.L81:
 826 001a 00BF     		.align	2
 827              	.L80:
 828 001c 00000000 		.word	.LANCHOR11
 829              		.cfi_endproc
 830              	.LFE266:
 831              		.size	mc_interface_get_state, .-mc_interface_get_state
 832              		.section	.text.mc_interface_get_cruise_control_status,"ax",%progbits
 833              		.align	2
 834              		.p2align 4,,15
 835              		.global	mc_interface_get_cruise_control_status
 836              		.thumb
 837              		.thumb_func
 838              		.type	mc_interface_get_cruise_control_status, %function
 839              	mc_interface_get_cruise_control_status:
 840              	.LFB271:
 841              		.loc 1 382 0
 842              		.cfi_startproc
 843              		@ args = 0, pretend = 0, frame = 0
 844              		@ frame_needed = 0, uses_anonymous_args = 0
 845              		@ link register save eliminated.
 846              		.loc 1 383 0
 847 0000 014B     		ldr	r3, .L83
 848 0002 1878     		ldrb	r0, [r3]	@ zero_extendqisi2
 849              		.loc 1 384 0
 850 0004 7047     		bx	lr
 851              	.L84:
 852 0006 00BF     		.align	2
 853              	.L83:
 854 0008 00000000 		.word	.LANCHOR28
 855              		.cfi_endproc
ARM GAS  C:\Users\euanm\AppData\Local\Temp\ccnlTGs7.s 			page 16


 856              	.LFE271:
 857              		.size	mc_interface_get_cruise_control_status, .-mc_interface_get_cruise_control_status
 858              		.section	.text.mc_interface_set_cruise_control_status,"ax",%progbits
 859              		.align	2
 860              		.p2align 4,,15
 861              		.global	mc_interface_set_cruise_control_status
 862              		.thumb
 863              		.thumb_func
 864              		.type	mc_interface_set_cruise_control_status, %function
 865              	mc_interface_set_cruise_control_status:
 866              	.LFB272:
 867              		.loc 1 387 0
 868              		.cfi_startproc
 869              		@ args = 0, pretend = 0, frame = 0
 870              		@ frame_needed = 0, uses_anonymous_args = 0
 871              		@ link register save eliminated.
 872              	.LVL40:
 873              		.loc 1 388 0
 874 0000 014B     		ldr	r3, .L86
 875 0002 1870     		strb	r0, [r3]
 876 0004 7047     		bx	lr
 877              	.L87:
 878 0006 00BF     		.align	2
 879              	.L86:
 880 0008 00000000 		.word	.LANCHOR28
 881              		.cfi_endproc
 882              	.LFE272:
 883              		.size	mc_interface_set_cruise_control_status, .-mc_interface_set_cruise_control_status
 884              		.section	.text.mc_interface_get_duty_cycle_set,"ax",%progbits
 885              		.align	2
 886              		.p2align 4,,15
 887              		.global	mc_interface_get_duty_cycle_set
 888              		.thumb
 889              		.thumb_func
 890              		.type	mc_interface_get_duty_cycle_set, %function
 891              	mc_interface_get_duty_cycle_set:
 892              	.LFB281:
 893              		.loc 1 556 0
 894              		.cfi_startproc
 895              		@ args = 0, pretend = 0, frame = 0
 896              		@ frame_needed = 0, uses_anonymous_args = 0
 897              		@ link register save eliminated.
 898              	.LVL41:
 899              		.loc 1 559 0
 900 0000 064B     		ldr	r3, .L95
 901 0002 9B78     		ldrb	r3, [r3, #2]	@ zero_extendqisi2
 902 0004 DBB2     		uxtb	r3, r3
 903 0006 012B     		cmp	r3, #1
 904 0008 06D9     		bls	.L90
 905 000a 022B     		cmp	r3, #2
 906 000c 01D1     		bne	.L94
 907              		.loc 1 566 0
 908 000e FFF7FEBF 		b	mcpwm_foc_get_duty_cycle_set
 909              	.LVL42:
 910              	.L94:
 911              		.loc 1 574 0
 912 0012 9FED030A 		vldr.32	s0, .L95+4
ARM GAS  C:\Users\euanm\AppData\Local\Temp\ccnlTGs7.s 			page 17


 913 0016 7047     		bx	lr
 914              	.L90:
 915              		.loc 1 562 0
 916 0018 FFF7FEBF 		b	mcpwm_get_duty_cycle_set
 917              	.LVL43:
 918              	.L96:
 919              		.align	2
 920              	.L95:
 921 001c 00000000 		.word	.LANCHOR11
 922 0020 00000000 		.word	0
 923              		.cfi_endproc
 924              	.LFE281:
 925              		.size	mc_interface_get_duty_cycle_set, .-mc_interface_get_duty_cycle_set
 926              		.section	.text.mc_interface_get_duty_cycle_now,"ax",%progbits
 927              		.align	2
 928              		.p2align 4,,15
 929              		.global	mc_interface_get_duty_cycle_now
 930              		.thumb
 931              		.thumb_func
 932              		.type	mc_interface_get_duty_cycle_now, %function
 933              	mc_interface_get_duty_cycle_now:
 934              	.LFB282:
 935              		.loc 1 576 0
 936              		.cfi_startproc
 937              		@ args = 0, pretend = 0, frame = 0
 938              		@ frame_needed = 0, uses_anonymous_args = 0
 939              		@ link register save eliminated.
 940              	.LVL44:
 941              		.loc 1 579 0
 942 0000 064B     		ldr	r3, .L104
 943 0002 9B78     		ldrb	r3, [r3, #2]	@ zero_extendqisi2
 944 0004 DBB2     		uxtb	r3, r3
 945 0006 012B     		cmp	r3, #1
 946 0008 06D9     		bls	.L99
 947 000a 022B     		cmp	r3, #2
 948 000c 01D1     		bne	.L103
 949              		.loc 1 586 0
 950 000e FFF7FEBF 		b	mcpwm_foc_get_duty_cycle_now
 951              	.LVL45:
 952              	.L103:
 953              		.loc 1 594 0
 954 0012 9FED030A 		vldr.32	s0, .L104+4
 955 0016 7047     		bx	lr
 956              	.L99:
 957              		.loc 1 582 0
 958 0018 FFF7FEBF 		b	mcpwm_get_duty_cycle_now
 959              	.LVL46:
 960              	.L105:
 961              		.align	2
 962              	.L104:
 963 001c 00000000 		.word	.LANCHOR11
 964 0020 00000000 		.word	0
 965              		.cfi_endproc
 966              	.LFE282:
 967              		.size	mc_interface_get_duty_cycle_now, .-mc_interface_get_duty_cycle_now
 968              		.section	.text.mc_interface_get_duty_cycle_for_watt_calculation,"ax",%progbits
 969              		.align	2
ARM GAS  C:\Users\euanm\AppData\Local\Temp\ccnlTGs7.s 			page 18


 970              		.p2align 4,,15
 971              		.global	mc_interface_get_duty_cycle_for_watt_calculation
 972              		.thumb
 973              		.thumb_func
 974              		.type	mc_interface_get_duty_cycle_for_watt_calculation, %function
 975              	mc_interface_get_duty_cycle_for_watt_calculation:
 976              	.LFB280:
 977              		.loc 1 532 0
 978              		.cfi_startproc
 979              		@ args = 0, pretend = 0, frame = 0
 980              		@ frame_needed = 0, uses_anonymous_args = 0
 981 0000 10B5     		push	{r4, lr}
 982              		.cfi_def_cfa_offset 8
 983              		.cfi_offset 4, -8
 984              		.cfi_offset 14, -4
 985              		.loc 1 535 0
 986 0002 0E4C     		ldr	r4, .L116
 987 0004 A378     		ldrb	r3, [r4, #2]	@ zero_extendqisi2
 988 0006 022B     		cmp	r3, #2
 989 0008 0ED0     		beq	.L115
 990              		.loc 1 545 0
 991 000a FFF7FEFF 		bl	mc_interface_get_duty_cycle_now
 992              	.LVL47:
 993 000e B0EEC00A 		vabs.f32	s0, s0
 994              	.LVL48:
 995              	.L108:
 996              		.loc 1 547 0
 997 0012 D4ED157A 		vldr.32	s15, [r4, #84]
 998 0016 094B     		ldr	r3, .L116
 999 0018 B4EEE70A 		vcmpe.f32	s0, s15
 1000 001c F1EE10FA 		vmrs	APSR_nzcv, FPSCR
 1001              		.loc 1 548 0
 1002 0020 48BF     		it	mi
 1003 0022 93ED150A 		vldrmi.32	s0, [r3, #84]
 1004              	.LVL49:
 1005              		.loc 1 551 0
 1006 0026 10BD     		pop	{r4, pc}
 1007              	.L115:
 1008              		.loc 1 542 0
 1009 0028 FFF7FEFF 		bl	mcpwm_foc_get_duty_cycle_now
 1010              	.LVL50:
 1011 002c DFED047A 		vldr.32	s15, .L116+4
 1012 0030 B0EEC00A 		vabs.f32	s0, s0
 1013 0034 20EE270A 		vmul.f32	s0, s0, s15
 1014              	.LVL51:
 1015 0038 EBE7     		b	.L108
 1016              	.L117:
 1017 003a 00BF     		.align	2
 1018              	.L116:
 1019 003c 00000000 		.word	.LANCHOR11
 1020 0040 D7B35D3F 		.word	1063105495
 1021              		.cfi_endproc
 1022              	.LFE280:
 1023              		.size	mc_interface_get_duty_cycle_for_watt_calculation, .-mc_interface_get_duty_cycle_for_watt_cal
 1024              		.section	.text.mc_interface_get_sampling_frequency_now,"ax",%progbits
 1025              		.align	2
 1026              		.p2align 4,,15
ARM GAS  C:\Users\euanm\AppData\Local\Temp\ccnlTGs7.s 			page 19


 1027              		.global	mc_interface_get_sampling_frequency_now
 1028              		.thumb
 1029              		.thumb_func
 1030              		.type	mc_interface_get_sampling_frequency_now, %function
 1031              	mc_interface_get_sampling_frequency_now:
 1032              	.LFB283:
 1033              		.loc 1 596 0
 1034              		.cfi_startproc
 1035              		@ args = 0, pretend = 0, frame = 0
 1036              		@ frame_needed = 0, uses_anonymous_args = 0
 1037              	.LVL52:
 1038 0000 08B5     		push	{r3, lr}
 1039              		.cfi_def_cfa_offset 8
 1040              		.cfi_offset 3, -8
 1041              		.cfi_offset 14, -4
 1042              		.loc 1 599 0
 1043 0002 0A4B     		ldr	r3, .L127
 1044 0004 9B78     		ldrb	r3, [r3, #2]	@ zero_extendqisi2
 1045 0006 DBB2     		uxtb	r3, r3
 1046 0008 012B     		cmp	r3, #1
 1047 000a 0BD9     		bls	.L120
 1048 000c 022B     		cmp	r3, #2
 1049 000e 06D1     		bne	.L126
 1050              	.LBB77:
 1051              	.LBB78:
 1052              		.loc 1 606 0
 1053 0010 FFF7FEFF 		bl	mcpwm_foc_get_switching_frequency_now
 1054              	.LVL53:
 1055 0014 F6EE007A 		vmov.f32	s15, #5.0e-1
 1056 0018 20EE270A 		vmul.f32	s0, s0, s15
 1057 001c 08BD     		pop	{r3, pc}
 1058              	.L126:
 1059              	.LBE78:
 1060              	.LBE77:
 1061              		.loc 1 597 0
 1062 001e 9FED040A 		vldr.32	s0, .L127+4
 1063              	.LVL54:
 1064              		.loc 1 614 0
 1065 0022 08BD     		pop	{r3, pc}
 1066              	.LVL55:
 1067              	.L120:
 1068 0024 BDE80840 		pop	{r3, lr}
 1069              		.cfi_restore 14
 1070              		.cfi_restore 3
 1071              		.cfi_def_cfa_offset 0
 1072              		.loc 1 602 0
 1073 0028 FFF7FEBF 		b	mcpwm_get_switching_frequency_now
 1074              	.LVL56:
 1075              	.L128:
 1076              		.align	2
 1077              	.L127:
 1078 002c 00000000 		.word	.LANCHOR11
 1079 0030 00000000 		.word	0
 1080              		.cfi_endproc
 1081              	.LFE283:
 1082              		.size	mc_interface_get_sampling_frequency_now, .-mc_interface_get_sampling_frequency_now
 1083              		.section	.text.mc_interface_get_rpm,"ax",%progbits
ARM GAS  C:\Users\euanm\AppData\Local\Temp\ccnlTGs7.s 			page 20


 1084              		.align	2
 1085              		.p2align 4,,15
 1086              		.global	mc_interface_get_rpm
 1087              		.thumb
 1088              		.thumb_func
 1089              		.type	mc_interface_get_rpm, %function
 1090              	mc_interface_get_rpm:
 1091              	.LFB284:
 1092              		.loc 1 616 0
 1093              		.cfi_startproc
 1094              		@ args = 0, pretend = 0, frame = 0
 1095              		@ frame_needed = 0, uses_anonymous_args = 0
 1096              		@ link register save eliminated.
 1097              	.LVL57:
 1098              		.loc 1 619 0
 1099 0000 064B     		ldr	r3, .L136
 1100 0002 9B78     		ldrb	r3, [r3, #2]	@ zero_extendqisi2
 1101 0004 DBB2     		uxtb	r3, r3
 1102 0006 012B     		cmp	r3, #1
 1103 0008 06D9     		bls	.L131
 1104 000a 022B     		cmp	r3, #2
 1105 000c 01D1     		bne	.L135
 1106              		.loc 1 626 0
 1107 000e FFF7FEBF 		b	mcpwm_foc_get_rpm
 1108              	.LVL58:
 1109              	.L135:
 1110              		.loc 1 634 0
 1111 0012 9FED030A 		vldr.32	s0, .L136+4
 1112 0016 7047     		bx	lr
 1113              	.L131:
 1114              		.loc 1 622 0
 1115 0018 FFF7FEBF 		b	mcpwm_get_rpm
 1116              	.LVL59:
 1117              	.L137:
 1118              		.align	2
 1119              	.L136:
 1120 001c 00000000 		.word	.LANCHOR11
 1121 0020 00000000 		.word	0
 1122              		.cfi_endproc
 1123              	.LFE284:
 1124              		.size	mc_interface_get_rpm, .-mc_interface_get_rpm
 1125              		.section	.text.mc_interface_get_amp_hours,"ax",%progbits
 1126              		.align	2
 1127              		.p2align 4,,15
 1128              		.global	mc_interface_get_amp_hours
 1129              		.thumb
 1130              		.thumb_func
 1131              		.type	mc_interface_get_amp_hours, %function
 1132              	mc_interface_get_amp_hours:
 1133              	.LFB285:
 1134              		.loc 1 645 0
 1135              		.cfi_startproc
 1136              		@ args = 0, pretend = 0, frame = 0
 1137              		@ frame_needed = 0, uses_anonymous_args = 0
 1138              		@ link register save eliminated.
 1139              	.LVL60:
 1140              		.loc 1 646 0
ARM GAS  C:\Users\euanm\AppData\Local\Temp\ccnlTGs7.s 			page 21


 1141 0000 054B     		ldr	r3, .L143
 1142 0002 DFED067A 		vldr.32	s15, .L143+4
 1143 0006 93ED007A 		vldr.32	s14, [r3]
 1144 000a 87EE270A 		vdiv.f32	s0, s14, s15
 1145              	.LVL61:
 1146              		.loc 1 648 0
 1147 000e 08B1     		cbz	r0, .L139
 1148              		.loc 1 649 0
 1149 0010 0022     		movs	r2, #0
 1150 0012 1A60     		str	r2, [r3]	@ float
 1151              	.L139:
 1152              		.loc 1 653 0
 1153 0014 7047     		bx	lr
 1154              	.L144:
 1155 0016 00BF     		.align	2
 1156              	.L143:
 1157 0018 00000000 		.word	.LANCHOR22
 1158 001c 00006145 		.word	1163984896
 1159              		.cfi_endproc
 1160              	.LFE285:
 1161              		.size	mc_interface_get_amp_hours, .-mc_interface_get_amp_hours
 1162              		.section	.text.mc_interface_get_amp_hours_charged,"ax",%progbits
 1163              		.align	2
 1164              		.p2align 4,,15
 1165              		.global	mc_interface_get_amp_hours_charged
 1166              		.thumb
 1167              		.thumb_func
 1168              		.type	mc_interface_get_amp_hours_charged, %function
 1169              	mc_interface_get_amp_hours_charged:
 1170              	.LFB286:
 1171              		.loc 1 664 0
 1172              		.cfi_startproc
 1173              		@ args = 0, pretend = 0, frame = 0
 1174              		@ frame_needed = 0, uses_anonymous_args = 0
 1175              		@ link register save eliminated.
 1176              	.LVL62:
 1177              		.loc 1 665 0
 1178 0000 054B     		ldr	r3, .L150
 1179 0002 DFED067A 		vldr.32	s15, .L150+4
 1180 0006 93ED007A 		vldr.32	s14, [r3]
 1181 000a 87EE270A 		vdiv.f32	s0, s14, s15
 1182              	.LVL63:
 1183              		.loc 1 667 0
 1184 000e 08B1     		cbz	r0, .L146
 1185              		.loc 1 668 0
 1186 0010 0022     		movs	r2, #0
 1187 0012 1A60     		str	r2, [r3]	@ float
 1188              	.L146:
 1189              		.loc 1 672 0
 1190 0014 7047     		bx	lr
 1191              	.L151:
 1192 0016 00BF     		.align	2
 1193              	.L150:
 1194 0018 00000000 		.word	.LANCHOR23
 1195 001c 00006145 		.word	1163984896
 1196              		.cfi_endproc
 1197              	.LFE286:
ARM GAS  C:\Users\euanm\AppData\Local\Temp\ccnlTGs7.s 			page 22


 1198              		.size	mc_interface_get_amp_hours_charged, .-mc_interface_get_amp_hours_charged
 1199              		.section	.text.mc_interface_get_watt_hours,"ax",%progbits
 1200              		.align	2
 1201              		.p2align 4,,15
 1202              		.global	mc_interface_get_watt_hours
 1203              		.thumb
 1204              		.thumb_func
 1205              		.type	mc_interface_get_watt_hours, %function
 1206              	mc_interface_get_watt_hours:
 1207              	.LFB287:
 1208              		.loc 1 683 0
 1209              		.cfi_startproc
 1210              		@ args = 0, pretend = 0, frame = 0
 1211              		@ frame_needed = 0, uses_anonymous_args = 0
 1212              		@ link register save eliminated.
 1213              	.LVL64:
 1214              		.loc 1 684 0
 1215 0000 054B     		ldr	r3, .L157
 1216 0002 DFED067A 		vldr.32	s15, .L157+4
 1217 0006 93ED007A 		vldr.32	s14, [r3]
 1218 000a 87EE270A 		vdiv.f32	s0, s14, s15
 1219              	.LVL65:
 1220              		.loc 1 686 0
 1221 000e 10B1     		cbz	r0, .L153
 1222              		.loc 1 687 0
 1223 0010 034B     		ldr	r3, .L157+8
 1224 0012 0022     		movs	r2, #0
 1225 0014 1A60     		str	r2, [r3]	@ float
 1226              	.L153:
 1227              		.loc 1 691 0
 1228 0016 7047     		bx	lr
 1229              	.L158:
 1230              		.align	2
 1231              	.L157:
 1232 0018 00000000 		.word	.LANCHOR24
 1233 001c 00006145 		.word	1163984896
 1234 0020 00000000 		.word	.LANCHOR22
 1235              		.cfi_endproc
 1236              	.LFE287:
 1237              		.size	mc_interface_get_watt_hours, .-mc_interface_get_watt_hours
 1238              		.section	.text.mc_interface_get_watt_hours_charged,"ax",%progbits
 1239              		.align	2
 1240              		.p2align 4,,15
 1241              		.global	mc_interface_get_watt_hours_charged
 1242              		.thumb
 1243              		.thumb_func
 1244              		.type	mc_interface_get_watt_hours_charged, %function
 1245              	mc_interface_get_watt_hours_charged:
 1246              	.LFB288:
 1247              		.loc 1 702 0
 1248              		.cfi_startproc
 1249              		@ args = 0, pretend = 0, frame = 0
 1250              		@ frame_needed = 0, uses_anonymous_args = 0
 1251              		@ link register save eliminated.
 1252              	.LVL66:
 1253              		.loc 1 703 0
 1254 0000 054B     		ldr	r3, .L164
ARM GAS  C:\Users\euanm\AppData\Local\Temp\ccnlTGs7.s 			page 23


 1255 0002 DFED067A 		vldr.32	s15, .L164+4
 1256 0006 93ED007A 		vldr.32	s14, [r3]
 1257 000a 87EE270A 		vdiv.f32	s0, s14, s15
 1258              	.LVL67:
 1259              		.loc 1 705 0
 1260 000e 08B1     		cbz	r0, .L160
 1261              		.loc 1 706 0
 1262 0010 0022     		movs	r2, #0
 1263 0012 1A60     		str	r2, [r3]	@ float
 1264              	.L160:
 1265              		.loc 1 710 0
 1266 0014 7047     		bx	lr
 1267              	.L165:
 1268 0016 00BF     		.align	2
 1269              	.L164:
 1270 0018 00000000 		.word	.LANCHOR25
 1271 001c 00006145 		.word	1163984896
 1272              		.cfi_endproc
 1273              	.LFE288:
 1274              		.size	mc_interface_get_watt_hours_charged, .-mc_interface_get_watt_hours_charged
 1275              		.section	.text.mc_interface_get_tot_current,"ax",%progbits
 1276              		.align	2
 1277              		.p2align 4,,15
 1278              		.global	mc_interface_get_tot_current
 1279              		.thumb
 1280              		.thumb_func
 1281              		.type	mc_interface_get_tot_current, %function
 1282              	mc_interface_get_tot_current:
 1283              	.LFB289:
 1284              		.loc 1 712 0
 1285              		.cfi_startproc
 1286              		@ args = 0, pretend = 0, frame = 0
 1287              		@ frame_needed = 0, uses_anonymous_args = 0
 1288              		@ link register save eliminated.
 1289              	.LVL68:
 1290              		.loc 1 715 0
 1291 0000 064B     		ldr	r3, .L173
 1292 0002 9B78     		ldrb	r3, [r3, #2]	@ zero_extendqisi2
 1293 0004 DBB2     		uxtb	r3, r3
 1294 0006 012B     		cmp	r3, #1
 1295 0008 06D9     		bls	.L168
 1296 000a 022B     		cmp	r3, #2
 1297 000c 01D1     		bne	.L172
 1298              		.loc 1 722 0
 1299 000e FFF7FEBF 		b	mcpwm_foc_get_tot_current
 1300              	.LVL69:
 1301              	.L172:
 1302              		.loc 1 730 0
 1303 0012 9FED030A 		vldr.32	s0, .L173+4
 1304 0016 7047     		bx	lr
 1305              	.L168:
 1306              		.loc 1 718 0
 1307 0018 FFF7FEBF 		b	mcpwm_get_tot_current
 1308              	.LVL70:
 1309              	.L174:
 1310              		.align	2
 1311              	.L173:
ARM GAS  C:\Users\euanm\AppData\Local\Temp\ccnlTGs7.s 			page 24


 1312 001c 00000000 		.word	.LANCHOR11
 1313 0020 00000000 		.word	0
 1314              		.cfi_endproc
 1315              	.LFE289:
 1316              		.size	mc_interface_get_tot_current, .-mc_interface_get_tot_current
 1317              		.section	.text.mc_interface_get_tot_current_filtered,"ax",%progbits
 1318              		.align	2
 1319              		.p2align 4,,15
 1320              		.global	mc_interface_get_tot_current_filtered
 1321              		.thumb
 1322              		.thumb_func
 1323              		.type	mc_interface_get_tot_current_filtered, %function
 1324              	mc_interface_get_tot_current_filtered:
 1325              	.LFB290:
 1326              		.loc 1 732 0
 1327              		.cfi_startproc
 1328              		@ args = 0, pretend = 0, frame = 0
 1329              		@ frame_needed = 0, uses_anonymous_args = 0
 1330              		@ link register save eliminated.
 1331              	.LVL71:
 1332              		.loc 1 735 0
 1333 0000 064B     		ldr	r3, .L182
 1334 0002 9B78     		ldrb	r3, [r3, #2]	@ zero_extendqisi2
 1335 0004 DBB2     		uxtb	r3, r3
 1336 0006 012B     		cmp	r3, #1
 1337 0008 06D9     		bls	.L177
 1338 000a 022B     		cmp	r3, #2
 1339 000c 01D1     		bne	.L181
 1340              		.loc 1 742 0
 1341 000e FFF7FEBF 		b	mcpwm_foc_get_tot_current_filtered
 1342              	.LVL72:
 1343              	.L181:
 1344              		.loc 1 750 0
 1345 0012 9FED030A 		vldr.32	s0, .L182+4
 1346 0016 7047     		bx	lr
 1347              	.L177:
 1348              		.loc 1 738 0
 1349 0018 FFF7FEBF 		b	mcpwm_get_tot_current_filtered
 1350              	.LVL73:
 1351              	.L183:
 1352              		.align	2
 1353              	.L182:
 1354 001c 00000000 		.word	.LANCHOR11
 1355 0020 00000000 		.word	0
 1356              		.cfi_endproc
 1357              	.LFE290:
 1358              		.size	mc_interface_get_tot_current_filtered, .-mc_interface_get_tot_current_filtered
 1359              		.section	.text.mc_interface_get_tot_current_directional,"ax",%progbits
 1360              		.align	2
 1361              		.p2align 4,,15
 1362              		.global	mc_interface_get_tot_current_directional
 1363              		.thumb
 1364              		.thumb_func
 1365              		.type	mc_interface_get_tot_current_directional, %function
 1366              	mc_interface_get_tot_current_directional:
 1367              	.LFB291:
 1368              		.loc 1 752 0
ARM GAS  C:\Users\euanm\AppData\Local\Temp\ccnlTGs7.s 			page 25


 1369              		.cfi_startproc
 1370              		@ args = 0, pretend = 0, frame = 0
 1371              		@ frame_needed = 0, uses_anonymous_args = 0
 1372              		@ link register save eliminated.
 1373              	.LVL74:
 1374              		.loc 1 755 0
 1375 0000 064B     		ldr	r3, .L191
 1376 0002 9B78     		ldrb	r3, [r3, #2]	@ zero_extendqisi2
 1377 0004 DBB2     		uxtb	r3, r3
 1378 0006 012B     		cmp	r3, #1
 1379 0008 06D9     		bls	.L186
 1380 000a 022B     		cmp	r3, #2
 1381 000c 01D1     		bne	.L190
 1382              		.loc 1 762 0
 1383 000e FFF7FEBF 		b	mcpwm_foc_get_tot_current_directional
 1384              	.LVL75:
 1385              	.L190:
 1386              		.loc 1 770 0
 1387 0012 9FED030A 		vldr.32	s0, .L191+4
 1388 0016 7047     		bx	lr
 1389              	.L186:
 1390              		.loc 1 758 0
 1391 0018 FFF7FEBF 		b	mcpwm_get_tot_current_directional
 1392              	.LVL76:
 1393              	.L192:
 1394              		.align	2
 1395              	.L191:
 1396 001c 00000000 		.word	.LANCHOR11
 1397 0020 00000000 		.word	0
 1398              		.cfi_endproc
 1399              	.LFE291:
 1400              		.size	mc_interface_get_tot_current_directional, .-mc_interface_get_tot_current_directional
 1401              		.section	.text.mc_interface_get_tot_current_directional_filtered,"ax",%progbits
 1402              		.align	2
 1403              		.p2align 4,,15
 1404              		.global	mc_interface_get_tot_current_directional_filtered
 1405              		.thumb
 1406              		.thumb_func
 1407              		.type	mc_interface_get_tot_current_directional_filtered, %function
 1408              	mc_interface_get_tot_current_directional_filtered:
 1409              	.LFB292:
 1410              		.loc 1 772 0
 1411              		.cfi_startproc
 1412              		@ args = 0, pretend = 0, frame = 0
 1413              		@ frame_needed = 0, uses_anonymous_args = 0
 1414              		@ link register save eliminated.
 1415              	.LVL77:
 1416              		.loc 1 775 0
 1417 0000 064B     		ldr	r3, .L200
 1418 0002 9B78     		ldrb	r3, [r3, #2]	@ zero_extendqisi2
 1419 0004 DBB2     		uxtb	r3, r3
 1420 0006 012B     		cmp	r3, #1
 1421 0008 06D9     		bls	.L195
 1422 000a 022B     		cmp	r3, #2
 1423 000c 01D1     		bne	.L199
 1424              		.loc 1 782 0
 1425 000e FFF7FEBF 		b	mcpwm_foc_get_tot_current_directional_filtered
ARM GAS  C:\Users\euanm\AppData\Local\Temp\ccnlTGs7.s 			page 26


 1426              	.LVL78:
 1427              	.L199:
 1428              		.loc 1 790 0
 1429 0012 9FED030A 		vldr.32	s0, .L200+4
 1430 0016 7047     		bx	lr
 1431              	.L195:
 1432              		.loc 1 778 0
 1433 0018 FFF7FEBF 		b	mcpwm_get_tot_current_directional_filtered
 1434              	.LVL79:
 1435              	.L201:
 1436              		.align	2
 1437              	.L200:
 1438 001c 00000000 		.word	.LANCHOR11
 1439 0020 00000000 		.word	0
 1440              		.cfi_endproc
 1441              	.LFE292:
 1442              		.size	mc_interface_get_tot_current_directional_filtered, .-mc_interface_get_tot_current_directiona
 1443              		.section	.text.mc_interface_get_tot_current_in,"ax",%progbits
 1444              		.align	2
 1445              		.p2align 4,,15
 1446              		.global	mc_interface_get_tot_current_in
 1447              		.thumb
 1448              		.thumb_func
 1449              		.type	mc_interface_get_tot_current_in, %function
 1450              	mc_interface_get_tot_current_in:
 1451              	.LFB293:
 1452              		.loc 1 792 0
 1453              		.cfi_startproc
 1454              		@ args = 0, pretend = 0, frame = 0
 1455              		@ frame_needed = 0, uses_anonymous_args = 0
 1456              		@ link register save eliminated.
 1457              	.LVL80:
 1458              		.loc 1 795 0
 1459 0000 064B     		ldr	r3, .L209
 1460 0002 9B78     		ldrb	r3, [r3, #2]	@ zero_extendqisi2
 1461 0004 DBB2     		uxtb	r3, r3
 1462 0006 012B     		cmp	r3, #1
 1463 0008 06D9     		bls	.L204
 1464 000a 022B     		cmp	r3, #2
 1465 000c 01D1     		bne	.L208
 1466              		.loc 1 802 0
 1467 000e FFF7FEBF 		b	mcpwm_foc_get_tot_current_in
 1468              	.LVL81:
 1469              	.L208:
 1470              		.loc 1 810 0
 1471 0012 9FED030A 		vldr.32	s0, .L209+4
 1472 0016 7047     		bx	lr
 1473              	.L204:
 1474              		.loc 1 798 0
 1475 0018 FFF7FEBF 		b	mcpwm_get_tot_current_in
 1476              	.LVL82:
 1477              	.L210:
 1478              		.align	2
 1479              	.L209:
 1480 001c 00000000 		.word	.LANCHOR11
 1481 0020 00000000 		.word	0
 1482              		.cfi_endproc
ARM GAS  C:\Users\euanm\AppData\Local\Temp\ccnlTGs7.s 			page 27


 1483              	.LFE293:
 1484              		.size	mc_interface_get_tot_current_in, .-mc_interface_get_tot_current_in
 1485              		.section	.text.mc_interface_get_tot_current_in_filtered,"ax",%progbits
 1486              		.align	2
 1487              		.p2align 4,,15
 1488              		.global	mc_interface_get_tot_current_in_filtered
 1489              		.thumb
 1490              		.thumb_func
 1491              		.type	mc_interface_get_tot_current_in_filtered, %function
 1492              	mc_interface_get_tot_current_in_filtered:
 1493              	.LFB294:
 1494              		.loc 1 812 0
 1495              		.cfi_startproc
 1496              		@ args = 0, pretend = 0, frame = 0
 1497              		@ frame_needed = 0, uses_anonymous_args = 0
 1498              		@ link register save eliminated.
 1499              	.LVL83:
 1500              		.loc 1 815 0
 1501 0000 064B     		ldr	r3, .L218
 1502 0002 9B78     		ldrb	r3, [r3, #2]	@ zero_extendqisi2
 1503 0004 DBB2     		uxtb	r3, r3
 1504 0006 012B     		cmp	r3, #1
 1505 0008 06D9     		bls	.L213
 1506 000a 022B     		cmp	r3, #2
 1507 000c 01D1     		bne	.L217
 1508              		.loc 1 822 0
 1509 000e FFF7FEBF 		b	mcpwm_foc_get_tot_current_in_filtered
 1510              	.LVL84:
 1511              	.L217:
 1512              		.loc 1 830 0
 1513 0012 9FED030A 		vldr.32	s0, .L218+4
 1514 0016 7047     		bx	lr
 1515              	.L213:
 1516              		.loc 1 818 0
 1517 0018 FFF7FEBF 		b	mcpwm_get_tot_current_in_filtered
 1518              	.LVL85:
 1519              	.L219:
 1520              		.align	2
 1521              	.L218:
 1522 001c 00000000 		.word	.LANCHOR11
 1523 0020 00000000 		.word	0
 1524              		.cfi_endproc
 1525              	.LFE294:
 1526              		.size	mc_interface_get_tot_current_in_filtered, .-mc_interface_get_tot_current_in_filtered
 1527              		.section	.text.mc_interface_get_tachometer_value,"ax",%progbits
 1528              		.align	2
 1529              		.p2align 4,,15
 1530              		.global	mc_interface_get_tachometer_value
 1531              		.thumb
 1532              		.thumb_func
 1533              		.type	mc_interface_get_tachometer_value, %function
 1534              	mc_interface_get_tachometer_value:
 1535              	.LFB295:
 1536              		.loc 1 832 0
 1537              		.cfi_startproc
 1538              		@ args = 0, pretend = 0, frame = 0
 1539              		@ frame_needed = 0, uses_anonymous_args = 0
ARM GAS  C:\Users\euanm\AppData\Local\Temp\ccnlTGs7.s 			page 28


 1540              		@ link register save eliminated.
 1541              	.LVL86:
 1542              		.loc 1 835 0
 1543 0000 064B     		ldr	r3, .L227
 1544 0002 9B78     		ldrb	r3, [r3, #2]	@ zero_extendqisi2
 1545 0004 DBB2     		uxtb	r3, r3
 1546 0006 012B     		cmp	r3, #1
 1547 0008 05D9     		bls	.L222
 1548 000a 022B     		cmp	r3, #2
 1549 000c 01D1     		bne	.L226
 1550              		.loc 1 842 0
 1551 000e FFF7FEBF 		b	mcpwm_foc_get_tachometer_value
 1552              	.LVL87:
 1553              	.L226:
 1554              		.loc 1 850 0
 1555 0012 0020     		movs	r0, #0
 1556              	.LVL88:
 1557 0014 7047     		bx	lr
 1558              	.LVL89:
 1559              	.L222:
 1560              		.loc 1 838 0
 1561 0016 FFF7FEBF 		b	mcpwm_get_tachometer_value
 1562              	.LVL90:
 1563              	.L228:
 1564 001a 00BF     		.align	2
 1565              	.L227:
 1566 001c 00000000 		.word	.LANCHOR11
 1567              		.cfi_endproc
 1568              	.LFE295:
 1569              		.size	mc_interface_get_tachometer_value, .-mc_interface_get_tachometer_value
 1570              		.section	.text.mc_interface_get_tachometer_abs_value,"ax",%progbits
 1571              		.align	2
 1572              		.p2align 4,,15
 1573              		.global	mc_interface_get_tachometer_abs_value
 1574              		.thumb
 1575              		.thumb_func
 1576              		.type	mc_interface_get_tachometer_abs_value, %function
 1577              	mc_interface_get_tachometer_abs_value:
 1578              	.LFB296:
 1579              		.loc 1 852 0
 1580              		.cfi_startproc
 1581              		@ args = 0, pretend = 0, frame = 0
 1582              		@ frame_needed = 0, uses_anonymous_args = 0
 1583              		@ link register save eliminated.
 1584              	.LVL91:
 1585              		.loc 1 855 0
 1586 0000 064B     		ldr	r3, .L236
 1587 0002 9B78     		ldrb	r3, [r3, #2]	@ zero_extendqisi2
 1588 0004 DBB2     		uxtb	r3, r3
 1589 0006 012B     		cmp	r3, #1
 1590 0008 05D9     		bls	.L231
 1591 000a 022B     		cmp	r3, #2
 1592 000c 01D1     		bne	.L235
 1593              		.loc 1 862 0
 1594 000e FFF7FEBF 		b	mcpwm_foc_get_tachometer_abs_value
 1595              	.LVL92:
 1596              	.L235:
ARM GAS  C:\Users\euanm\AppData\Local\Temp\ccnlTGs7.s 			page 29


 1597              		.loc 1 870 0
 1598 0012 0020     		movs	r0, #0
 1599              	.LVL93:
 1600 0014 7047     		bx	lr
 1601              	.LVL94:
 1602              	.L231:
 1603              		.loc 1 858 0
 1604 0016 FFF7FEBF 		b	mcpwm_get_tachometer_abs_value
 1605              	.LVL95:
 1606              	.L237:
 1607 001a 00BF     		.align	2
 1608              	.L236:
 1609 001c 00000000 		.word	.LANCHOR11
 1610              		.cfi_endproc
 1611              	.LFE296:
 1612              		.size	mc_interface_get_tachometer_abs_value, .-mc_interface_get_tachometer_abs_value
 1613              		.section	.text.mc_interface_get_last_inj_adc_isr_duration,"ax",%progbits
 1614              		.align	2
 1615              		.p2align 4,,15
 1616              		.global	mc_interface_get_last_inj_adc_isr_duration
 1617              		.thumb
 1618              		.thumb_func
 1619              		.type	mc_interface_get_last_inj_adc_isr_duration, %function
 1620              	mc_interface_get_last_inj_adc_isr_duration:
 1621              	.LFB297:
 1622              		.loc 1 872 0
 1623              		.cfi_startproc
 1624              		@ args = 0, pretend = 0, frame = 0
 1625              		@ frame_needed = 0, uses_anonymous_args = 0
 1626              		@ link register save eliminated.
 1627              	.LVL96:
 1628              		.loc 1 875 0
 1629 0000 064B     		ldr	r3, .L245
 1630 0002 9B78     		ldrb	r3, [r3, #2]	@ zero_extendqisi2
 1631 0004 DBB2     		uxtb	r3, r3
 1632 0006 012B     		cmp	r3, #1
 1633 0008 06D9     		bls	.L240
 1634 000a 022B     		cmp	r3, #2
 1635 000c 01D1     		bne	.L244
 1636              		.loc 1 882 0
 1637 000e FFF7FEBF 		b	mcpwm_foc_get_last_inj_adc_isr_duration
 1638              	.LVL97:
 1639              	.L244:
 1640              		.loc 1 890 0
 1641 0012 9FED030A 		vldr.32	s0, .L245+4
 1642 0016 7047     		bx	lr
 1643              	.L240:
 1644              		.loc 1 878 0
 1645 0018 FFF7FEBF 		b	mcpwm_get_last_inj_adc_isr_duration
 1646              	.LVL98:
 1647              	.L246:
 1648              		.align	2
 1649              	.L245:
 1650 001c 00000000 		.word	.LANCHOR11
 1651 0020 00000000 		.word	0
 1652              		.cfi_endproc
 1653              	.LFE297:
ARM GAS  C:\Users\euanm\AppData\Local\Temp\ccnlTGs7.s 			page 30


 1654              		.size	mc_interface_get_last_inj_adc_isr_duration, .-mc_interface_get_last_inj_adc_isr_duration
 1655              		.section	.text.mc_interface_read_reset_avg_motor_current,"ax",%progbits
 1656              		.align	2
 1657              		.p2align 4,,15
 1658              		.global	mc_interface_read_reset_avg_motor_current
 1659              		.thumb
 1660              		.thumb_func
 1661              		.type	mc_interface_read_reset_avg_motor_current, %function
 1662              	mc_interface_read_reset_avg_motor_current:
 1663              	.LFB298:
 1664              		.loc 1 892 0
 1665              		.cfi_startproc
 1666              		@ args = 0, pretend = 0, frame = 0
 1667              		@ frame_needed = 0, uses_anonymous_args = 0
 1668              		@ link register save eliminated.
 1669              		.loc 1 893 0
 1670 0000 0549     		ldr	r1, .L248
 1671 0002 064B     		ldr	r3, .L248+4
 1672 0004 91ED000A 		vldr.32	s0, [r1]
 1673 0008 D3ED007A 		vldr.32	s15, [r3]
 1674              	.LVL99:
 1675              		.loc 1 894 0
 1676 000c 0022     		movs	r2, #0
 1677 000e 0A60     		str	r2, [r1]	@ float
 1678              		.loc 1 897 0
 1679 0010 80EE270A 		vdiv.f32	s0, s0, s15
 1680              	.LVL100:
 1681              		.loc 1 895 0
 1682 0014 1A60     		str	r2, [r3]	@ float
 1683              		.loc 1 897 0
 1684 0016 7047     		bx	lr
 1685              	.L249:
 1686              		.align	2
 1687              	.L248:
 1688 0018 00000000 		.word	.LANCHOR18
 1689 001c 00000000 		.word	.LANCHOR20
 1690              		.cfi_endproc
 1691              	.LFE298:
 1692              		.size	mc_interface_read_reset_avg_motor_current, .-mc_interface_read_reset_avg_motor_current
 1693              		.section	.text.mc_interface_read_reset_avg_input_current,"ax",%progbits
 1694              		.align	2
 1695              		.p2align 4,,15
 1696              		.global	mc_interface_read_reset_avg_input_current
 1697              		.thumb
 1698              		.thumb_func
 1699              		.type	mc_interface_read_reset_avg_input_current, %function
 1700              	mc_interface_read_reset_avg_input_current:
 1701              	.LFB299:
 1702              		.loc 1 899 0
 1703              		.cfi_startproc
 1704              		@ args = 0, pretend = 0, frame = 0
 1705              		@ frame_needed = 0, uses_anonymous_args = 0
 1706              		@ link register save eliminated.
 1707              		.loc 1 900 0
 1708 0000 0549     		ldr	r1, .L251
 1709 0002 064B     		ldr	r3, .L251+4
 1710 0004 91ED000A 		vldr.32	s0, [r1]
ARM GAS  C:\Users\euanm\AppData\Local\Temp\ccnlTGs7.s 			page 31


 1711 0008 D3ED007A 		vldr.32	s15, [r3]
 1712              	.LVL101:
 1713              		.loc 1 901 0
 1714 000c 0022     		movs	r2, #0
 1715 000e 0A60     		str	r2, [r1]	@ float
 1716              		.loc 1 904 0
 1717 0010 80EE270A 		vdiv.f32	s0, s0, s15
 1718              	.LVL102:
 1719              		.loc 1 902 0
 1720 0014 1A60     		str	r2, [r3]	@ float
 1721              		.loc 1 904 0
 1722 0016 7047     		bx	lr
 1723              	.L252:
 1724              		.align	2
 1725              	.L251:
 1726 0018 00000000 		.word	.LANCHOR19
 1727 001c 00000000 		.word	.LANCHOR21
 1728              		.cfi_endproc
 1729              	.LFE299:
 1730              		.size	mc_interface_read_reset_avg_input_current, .-mc_interface_read_reset_avg_input_current
 1731              		.section	.text.mc_interface_get_pid_pos_set,"ax",%progbits
 1732              		.align	2
 1733              		.p2align 4,,15
 1734              		.global	mc_interface_get_pid_pos_set
 1735              		.thumb
 1736              		.thumb_func
 1737              		.type	mc_interface_get_pid_pos_set, %function
 1738              	mc_interface_get_pid_pos_set:
 1739              	.LFB300:
 1740              		.loc 1 906 0
 1741              		.cfi_startproc
 1742              		@ args = 0, pretend = 0, frame = 0
 1743              		@ frame_needed = 0, uses_anonymous_args = 0
 1744              		@ link register save eliminated.
 1745              		.loc 1 907 0
 1746 0000 014B     		ldr	r3, .L254
 1747 0002 93ED000A 		vldr.32	s0, [r3]
 1748              		.loc 1 908 0
 1749 0006 7047     		bx	lr
 1750              	.L255:
 1751              		.align	2
 1752              	.L254:
 1753 0008 00000000 		.word	.LANCHOR26
 1754              		.cfi_endproc
 1755              	.LFE300:
 1756              		.size	mc_interface_get_pid_pos_set, .-mc_interface_get_pid_pos_set
 1757              		.section	.text.mc_interface_get_pid_pos_now,"ax",%progbits
 1758              		.align	2
 1759              		.p2align 4,,15
 1760              		.global	mc_interface_get_pid_pos_now
 1761              		.thumb
 1762              		.thumb_func
 1763              		.type	mc_interface_get_pid_pos_now, %function
 1764              	mc_interface_get_pid_pos_now:
 1765              	.LFB301:
 1766              		.loc 1 910 0
 1767              		.cfi_startproc
ARM GAS  C:\Users\euanm\AppData\Local\Temp\ccnlTGs7.s 			page 32


 1768              		@ args = 0, pretend = 0, frame = 0
 1769              		@ frame_needed = 0, uses_anonymous_args = 0
 1770              		@ link register save eliminated.
 1771              	.LVL103:
 1772              		.loc 1 913 0
 1773 0000 064B     		ldr	r3, .L263
 1774 0002 9B78     		ldrb	r3, [r3, #2]	@ zero_extendqisi2
 1775 0004 DBB2     		uxtb	r3, r3
 1776 0006 012B     		cmp	r3, #1
 1777 0008 06D9     		bls	.L258
 1778 000a 022B     		cmp	r3, #2
 1779 000c 01D1     		bne	.L262
 1780              		.loc 1 920 0
 1781 000e FFF7FEBF 		b	mcpwm_foc_get_pid_pos_now
 1782              	.LVL104:
 1783              	.L262:
 1784              		.loc 1 928 0
 1785 0012 9FED030A 		vldr.32	s0, .L263+4
 1786 0016 7047     		bx	lr
 1787              	.L258:
 1788              		.loc 1 916 0
 1789 0018 FFF7FEBF 		b	encoder_read_deg
 1790              	.LVL105:
 1791              	.L264:
 1792              		.align	2
 1793              	.L263:
 1794 001c 00000000 		.word	.LANCHOR11
 1795 0020 00000000 		.word	0
 1796              		.cfi_endproc
 1797              	.LFE301:
 1798              		.size	mc_interface_get_pid_pos_now, .-mc_interface_get_pid_pos_now
 1799              		.section	.text.mc_interface_get_last_sample_adc_isr_duration,"ax",%progbits
 1800              		.align	2
 1801              		.p2align 4,,15
 1802              		.global	mc_interface_get_last_sample_adc_isr_duration
 1803              		.thumb
 1804              		.thumb_func
 1805              		.type	mc_interface_get_last_sample_adc_isr_duration, %function
 1806              	mc_interface_get_last_sample_adc_isr_duration:
 1807              	.LFB302:
 1808              		.loc 1 930 0
 1809              		.cfi_startproc
 1810              		@ args = 0, pretend = 0, frame = 0
 1811              		@ frame_needed = 0, uses_anonymous_args = 0
 1812              		@ link register save eliminated.
 1813              		.loc 1 931 0
 1814 0000 014B     		ldr	r3, .L266
 1815 0002 93ED000A 		vldr.32	s0, [r3]
 1816              		.loc 1 932 0
 1817 0006 7047     		bx	lr
 1818              	.L267:
 1819              		.align	2
 1820              	.L266:
 1821 0008 00000000 		.word	.LANCHOR27
 1822              		.cfi_endproc
 1823              	.LFE302:
 1824              		.size	mc_interface_get_last_sample_adc_isr_duration, .-mc_interface_get_last_sample_adc_isr_durati
ARM GAS  C:\Users\euanm\AppData\Local\Temp\ccnlTGs7.s 			page 33


 1825              		.section	.text.mc_interface_sample_print_data,"ax",%progbits
 1826              		.align	2
 1827              		.p2align 4,,15
 1828              		.global	mc_interface_sample_print_data
 1829              		.thumb
 1830              		.thumb_func
 1831              		.type	mc_interface_sample_print_data, %function
 1832              	mc_interface_sample_print_data:
 1833              	.LFB303:
 1834              		.loc 1 934 0
 1835              		.cfi_startproc
 1836              		@ args = 0, pretend = 0, frame = 0
 1837              		@ frame_needed = 0, uses_anonymous_args = 0
 1838              	.LVL106:
 1839 0000 10B5     		push	{r4, lr}
 1840              		.cfi_def_cfa_offset 8
 1841              		.cfi_offset 4, -8
 1842              		.cfi_offset 14, -4
 1843              		.loc 1 940 0
 1844 0002 0B4B     		ldr	r3, .L273
 1845              		.loc 1 939 0
 1846 0004 0B4C     		ldr	r4, .L273+4
 1847 0006 B1F5FA6F 		cmp	r1, #2000
 1848 000a 28BF     		it	cs
 1849 000c 4FF4FA61 		movcs	r1, #2000
 1850              	.LVL107:
 1851 0010 2160     		str	r1, [r4]
 1852              		.loc 1 940 0
 1853 0012 1A60     		str	r2, [r3]
 1854              		.loc 1 942 0
 1855 0014 20B9     		cbnz	r0, .L272
 1856              		.loc 1 946 0
 1857 0016 084A     		ldr	r2, .L273+8
 1858              	.LVL108:
 1859              		.loc 1 947 0
 1860 0018 084B     		ldr	r3, .L273+12
 1861              		.loc 1 946 0
 1862 001a 1060     		str	r0, [r2]
 1863              		.loc 1 947 0
 1864 001c 1860     		str	r0, [r3]
 1865 001e 10BD     		pop	{r4, pc}
 1866              	.LVL109:
 1867              	.L272:
 1868              		.loc 1 943 0
 1869 0020 074B     		ldr	r3, .L273+16
 1870 0022 0122     		movs	r2, #1
 1871              	.LVL110:
 1872 0024 1A60     		str	r2, [r3]
 1873              		.loc 1 944 0
 1874 0026 FFF7FEFF 		bl	mcpwm_get_comm_step
 1875              	.LVL111:
 1876 002a 064B     		ldr	r3, .L273+20
 1877 002c 1860     		str	r0, [r3]
 1878 002e 10BD     		pop	{r4, pc}
 1879              	.L274:
 1880              		.align	2
 1881              	.L273:
ARM GAS  C:\Users\euanm\AppData\Local\Temp\ccnlTGs7.s 			page 34


 1882 0030 00000000 		.word	.LANCHOR29
 1883 0034 00000000 		.word	.LANCHOR1
 1884 0038 00000000 		.word	.LANCHOR31
 1885 003c 00000000 		.word	.LANCHOR30
 1886 0040 00000000 		.word	.LANCHOR32
 1887 0044 00000000 		.word	.LANCHOR33
 1888              		.cfi_endproc
 1889              	.LFE303:
 1890              		.size	mc_interface_sample_print_data, .-mc_interface_sample_print_data
 1891              		.section	.text.mc_interface_try_input,"ax",%progbits
 1892              		.align	2
 1893              		.p2align 4,,15
 1894              		.global	mc_interface_try_input
 1895              		.thumb
 1896              		.thumb_func
 1897              		.type	mc_interface_try_input, %function
 1898              	mc_interface_try_input:
 1899              	.LFB304:
 1900              		.loc 1 960 0
 1901              		.cfi_startproc
 1902              		@ args = 0, pretend = 0, frame = 0
 1903              		@ frame_needed = 0, uses_anonymous_args = 0
 1904 0000 08B5     		push	{r3, lr}
 1905              		.cfi_def_cfa_offset 8
 1906              		.cfi_offset 3, -8
 1907              		.cfi_offset 14, -4
 1908              		.loc 1 962 0
 1909 0002 FFF7FEFF 		bl	mc_interface_get_state
 1910              	.LVL112:
 1911 0006 0128     		cmp	r0, #1
 1912 0008 0CD0     		beq	.L283
 1913              		.loc 1 967 0
 1914 000a 0A4B     		ldr	r3, .L284
 1915 000c 1868     		ldr	r0, [r3]
 1916              	.LVL113:
 1917              		.loc 1 969 0
 1918 000e 40B9     		cbnz	r0, .L277
 1919              		.loc 1 969 0 is_stmt 0 discriminator 1
 1920 0010 094B     		ldr	r3, .L284+4
 1921 0012 1B78     		ldrb	r3, [r3]	@ zero_extendqisi2
 1922 0014 2BB1     		cbz	r3, .L277
 1923              		.loc 1 970 0 is_stmt 1
 1924 0016 094B     		ldr	r3, .L284+8
 1925 0018 1A78     		ldrb	r2, [r3]	@ zero_extendqisi2
 1926 001a 0AB1     		cbz	r2, .L278
 1927              		.loc 1 973 0
 1928 001c 1870     		strb	r0, [r3]
 1929 001e 08BD     		pop	{r3, pc}
 1930              	.L278:
 1931              		.loc 1 971 0
 1932 0020 0120     		movs	r0, #1
 1933              	.LVL114:
 1934              	.L277:
 1935              		.loc 1 978 0
 1936 0022 08BD     		pop	{r3, pc}
 1937              	.LVL115:
 1938              	.L283:
ARM GAS  C:\Users\euanm\AppData\Local\Temp\ccnlTGs7.s 			page 35


 1939              		.loc 1 963 0
 1940 0024 FFF7FEFF 		bl	mcpwm_stop_pwm
 1941              	.LVL116:
 1942              		.loc 1 964 0
 1943 0028 024B     		ldr	r3, .L284
 1944 002a 4FF4FA70 		mov	r0, #500
 1945 002e 1860     		str	r0, [r3]
 1946              	.LVL117:
 1947 0030 08BD     		pop	{r3, pc}
 1948              	.L285:
 1949 0032 00BF     		.align	2
 1950              	.L284:
 1951 0034 00000000 		.word	.LANCHOR14
 1952 0038 00000000 		.word	.LANCHOR16
 1953 003c 00000000 		.word	.LANCHOR17
 1954              		.cfi_endproc
 1955              	.LFE304:
 1956              		.size	mc_interface_try_input, .-mc_interface_try_input
 1957              		.section	.text.mc_interface_set_duty,"ax",%progbits
 1958              		.align	2
 1959              		.p2align 4,,15
 1960              		.global	mc_interface_set_duty
 1961              		.thumb
 1962              		.thumb_func
 1963              		.type	mc_interface_set_duty, %function
 1964              	mc_interface_set_duty:
 1965              	.LFB267:
 1966              		.loc 1 302 0
 1967              		.cfi_startproc
 1968              		@ args = 0, pretend = 0, frame = 0
 1969              		@ frame_needed = 0, uses_anonymous_args = 0
 1970              	.LVL118:
 1971 0000 08B5     		push	{r3, lr}
 1972              		.cfi_def_cfa_offset 8
 1973              		.cfi_offset 3, -8
 1974              		.cfi_offset 14, -4
 1975 0002 2DED028B 		vpush.64	{d8}
 1976              		.cfi_def_cfa_offset 16
 1977              		.cfi_offset 80, -16
 1978              		.cfi_offset 81, -12
 1979              		.loc 1 302 0
 1980 0006 B0EE408A 		vmov.f32	s16, s0
 1981              		.loc 1 303 0
 1982 000a FFF7FEFF 		bl	mc_interface_try_input
 1983              	.LVL119:
 1984 000e 38B9     		cbnz	r0, .L286
 1985 0010 B0EE480A 		vmov.f32	s0, s16
 1986              		.loc 1 320 0
 1987 0014 BDEC028B 		vldm	sp!, {d8}
 1988              		.cfi_remember_state
 1989              		.cfi_restore 80
 1990              		.cfi_restore 81
 1991              		.cfi_def_cfa_offset 8
 1992              	.LVL120:
 1993 0018 BDE80840 		pop	{r3, lr}
 1994              		.cfi_restore 14
 1995              		.cfi_restore 3
ARM GAS  C:\Users\euanm\AppData\Local\Temp\ccnlTGs7.s 			page 36


 1996              		.cfi_def_cfa_offset 0
 1997 001c FFF7FEBF 		b	mc_interface_set_duty.part.1
 1998              	.LVL121:
 1999              	.L286:
 2000              		.cfi_restore_state
 2001 0020 BDEC028B 		vldm	sp!, {d8}
 2002              		.cfi_restore 80
 2003              		.cfi_restore 81
 2004              		.cfi_def_cfa_offset 8
 2005              	.LVL122:
 2006 0024 08BD     		pop	{r3, pc}
 2007              		.cfi_endproc
 2008              	.LFE267:
 2009              		.size	mc_interface_set_duty, .-mc_interface_set_duty
 2010 0026 00BF     		.section	.text.mc_interface_brake_now,"ax",%progbits
 2011              		.align	2
 2012              		.p2align 4,,15
 2013              		.global	mc_interface_brake_now
 2014              		.thumb
 2015              		.thumb_func
 2016              		.type	mc_interface_brake_now, %function
 2017              	mc_interface_brake_now:
 2018              	.LFB278:
 2019              		.loc 1 521 0
 2020              		.cfi_startproc
 2021              		@ args = 0, pretend = 0, frame = 0
 2022              		@ frame_needed = 0, uses_anonymous_args = 0
 2023              	.LVL123:
 2024 0000 08B5     		push	{r3, lr}
 2025              		.cfi_def_cfa_offset 8
 2026              		.cfi_offset 3, -8
 2027              		.cfi_offset 14, -4
 2028              	.LBB79:
 2029              	.LBB80:
 2030              		.loc 1 303 0
 2031 0002 FFF7FEFF 		bl	mc_interface_try_input
 2032              	.LVL124:
 2033 0006 00B1     		cbz	r0, .L292
 2034 0008 08BD     		pop	{r3, pc}
 2035              	.L292:
 2036 000a 9FED030A 		vldr.32	s0, .L293
 2037              	.LBE80:
 2038              	.LBE79:
 2039              		.loc 1 523 0
 2040 000e BDE80840 		pop	{r3, lr}
 2041              		.cfi_restore 14
 2042              		.cfi_restore 3
 2043              		.cfi_def_cfa_offset 0
 2044              	.LBB82:
 2045              	.LBB81:
 2046 0012 FFF7FEBF 		b	mc_interface_set_duty.part.1
 2047              	.LVL125:
 2048              	.L294:
 2049 0016 00BF     		.align	2
 2050              	.L293:
 2051 0018 00000000 		.word	0
 2052              	.LBE81:
ARM GAS  C:\Users\euanm\AppData\Local\Temp\ccnlTGs7.s 			page 37


 2053              	.LBE82:
 2054              		.cfi_endproc
 2055              	.LFE278:
 2056              		.size	mc_interface_brake_now, .-mc_interface_brake_now
 2057              		.section	.text.mc_interface_set_duty_noramp,"ax",%progbits
 2058              		.align	2
 2059              		.p2align 4,,15
 2060              		.global	mc_interface_set_duty_noramp
 2061              		.thumb
 2062              		.thumb_func
 2063              		.type	mc_interface_set_duty_noramp, %function
 2064              	mc_interface_set_duty_noramp:
 2065              	.LFB268:
 2066              		.loc 1 322 0
 2067              		.cfi_startproc
 2068              		@ args = 0, pretend = 0, frame = 0
 2069              		@ frame_needed = 0, uses_anonymous_args = 0
 2070              	.LVL126:
 2071 0000 08B5     		push	{r3, lr}
 2072              		.cfi_def_cfa_offset 8
 2073              		.cfi_offset 3, -8
 2074              		.cfi_offset 14, -4
 2075 0002 2DED028B 		vpush.64	{d8}
 2076              		.cfi_def_cfa_offset 16
 2077              		.cfi_offset 80, -16
 2078              		.cfi_offset 81, -12
 2079              		.loc 1 322 0
 2080 0006 B0EE408A 		vmov.f32	s16, s0
 2081              		.loc 1 323 0
 2082 000a FFF7FEFF 		bl	mc_interface_try_input
 2083              	.LVL127:
 2084 000e 70B9     		cbnz	r0, .L295
 2085              		.loc 1 327 0
 2086 0010 0C4B     		ldr	r3, .L300
 2087 0012 9B78     		ldrb	r3, [r3, #2]	@ zero_extendqisi2
 2088 0014 DBB2     		uxtb	r3, r3
 2089 0016 012B     		cmp	r3, #1
 2090 0018 0CD9     		bls	.L297
 2091 001a 022B     		cmp	r3, #2
 2092 001c 07D1     		bne	.L295
 2093              		.loc 1 334 0
 2094 001e B0EE480A 		vmov.f32	s0, s16
 2095              		.loc 1 340 0
 2096 0022 BDEC028B 		vldm	sp!, {d8}
 2097              		.cfi_remember_state
 2098              		.cfi_restore 80
 2099              		.cfi_restore 81
 2100              		.cfi_def_cfa_offset 8
 2101              	.LVL128:
 2102 0026 BDE80840 		pop	{r3, lr}
 2103              		.cfi_restore 14
 2104              		.cfi_restore 3
 2105              		.cfi_def_cfa_offset 0
 2106              		.loc 1 334 0
 2107 002a FFF7FEBF 		b	mcpwm_foc_set_duty_noramp
 2108              	.LVL129:
 2109              	.L295:
ARM GAS  C:\Users\euanm\AppData\Local\Temp\ccnlTGs7.s 			page 38


 2110              		.cfi_restore_state
 2111              		.loc 1 340 0
 2112 002e BDEC028B 		vldm	sp!, {d8}
 2113              		.cfi_remember_state
 2114              		.cfi_restore 80
 2115              		.cfi_restore 81
 2116              		.cfi_def_cfa_offset 8
 2117              	.LVL130:
 2118 0032 08BD     		pop	{r3, pc}
 2119              	.LVL131:
 2120              	.L297:
 2121              		.cfi_restore_state
 2122              		.loc 1 330 0
 2123 0034 B0EE480A 		vmov.f32	s0, s16
 2124              		.loc 1 340 0
 2125 0038 BDEC028B 		vldm	sp!, {d8}
 2126              		.cfi_restore 80
 2127              		.cfi_restore 81
 2128              		.cfi_def_cfa_offset 8
 2129              	.LVL132:
 2130 003c BDE80840 		pop	{r3, lr}
 2131              		.cfi_restore 14
 2132              		.cfi_restore 3
 2133              		.cfi_def_cfa_offset 0
 2134              		.loc 1 330 0
 2135 0040 FFF7FEBF 		b	mcpwm_set_duty_noramp
 2136              	.LVL133:
 2137              	.L301:
 2138              		.align	2
 2139              	.L300:
 2140 0044 00000000 		.word	.LANCHOR11
 2141              		.cfi_endproc
 2142              	.LFE268:
 2143              		.size	mc_interface_set_duty_noramp, .-mc_interface_set_duty_noramp
 2144              		.section	.text.mc_interface_set_pid_speed,"ax",%progbits
 2145              		.align	2
 2146              		.p2align 4,,15
 2147              		.global	mc_interface_set_pid_speed
 2148              		.thumb
 2149              		.thumb_func
 2150              		.type	mc_interface_set_pid_speed, %function
 2151              	mc_interface_set_pid_speed:
 2152              	.LFB269:
 2153              		.loc 1 342 0
 2154              		.cfi_startproc
 2155              		@ args = 0, pretend = 0, frame = 0
 2156              		@ frame_needed = 0, uses_anonymous_args = 0
 2157              	.LVL134:
 2158 0000 08B5     		push	{r3, lr}
 2159              		.cfi_def_cfa_offset 8
 2160              		.cfi_offset 3, -8
 2161              		.cfi_offset 14, -4
 2162 0002 2DED028B 		vpush.64	{d8}
 2163              		.cfi_def_cfa_offset 16
 2164              		.cfi_offset 80, -16
 2165              		.cfi_offset 81, -12
 2166              		.loc 1 342 0
ARM GAS  C:\Users\euanm\AppData\Local\Temp\ccnlTGs7.s 			page 39


 2167 0006 B0EE408A 		vmov.f32	s16, s0
 2168              		.loc 1 343 0
 2169 000a FFF7FEFF 		bl	mc_interface_try_input
 2170              	.LVL135:
 2171 000e 70B9     		cbnz	r0, .L302
 2172              		.loc 1 347 0
 2173 0010 0C4B     		ldr	r3, .L307
 2174 0012 9B78     		ldrb	r3, [r3, #2]	@ zero_extendqisi2
 2175 0014 DBB2     		uxtb	r3, r3
 2176 0016 012B     		cmp	r3, #1
 2177 0018 0CD9     		bls	.L304
 2178 001a 022B     		cmp	r3, #2
 2179 001c 07D1     		bne	.L302
 2180              		.loc 1 354 0
 2181 001e B0EE480A 		vmov.f32	s0, s16
 2182              		.loc 1 360 0
 2183 0022 BDEC028B 		vldm	sp!, {d8}
 2184              		.cfi_remember_state
 2185              		.cfi_restore 80
 2186              		.cfi_restore 81
 2187              		.cfi_def_cfa_offset 8
 2188              	.LVL136:
 2189 0026 BDE80840 		pop	{r3, lr}
 2190              		.cfi_restore 14
 2191              		.cfi_restore 3
 2192              		.cfi_def_cfa_offset 0
 2193              		.loc 1 354 0
 2194 002a FFF7FEBF 		b	mcpwm_foc_set_pid_speed
 2195              	.LVL137:
 2196              	.L302:
 2197              		.cfi_restore_state
 2198              		.loc 1 360 0
 2199 002e BDEC028B 		vldm	sp!, {d8}
 2200              		.cfi_remember_state
 2201              		.cfi_restore 80
 2202              		.cfi_restore 81
 2203              		.cfi_def_cfa_offset 8
 2204              	.LVL138:
 2205 0032 08BD     		pop	{r3, pc}
 2206              	.LVL139:
 2207              	.L304:
 2208              		.cfi_restore_state
 2209              		.loc 1 350 0
 2210 0034 B0EE480A 		vmov.f32	s0, s16
 2211              		.loc 1 360 0
 2212 0038 BDEC028B 		vldm	sp!, {d8}
 2213              		.cfi_restore 80
 2214              		.cfi_restore 81
 2215              		.cfi_def_cfa_offset 8
 2216              	.LVL140:
 2217 003c BDE80840 		pop	{r3, lr}
 2218              		.cfi_restore 14
 2219              		.cfi_restore 3
 2220              		.cfi_def_cfa_offset 0
 2221              		.loc 1 350 0
 2222 0040 FFF7FEBF 		b	mcpwm_set_pid_speed
 2223              	.LVL141:
ARM GAS  C:\Users\euanm\AppData\Local\Temp\ccnlTGs7.s 			page 40


 2224              	.L308:
 2225              		.align	2
 2226              	.L307:
 2227 0044 00000000 		.word	.LANCHOR11
 2228              		.cfi_endproc
 2229              	.LFE269:
 2230              		.size	mc_interface_set_pid_speed, .-mc_interface_set_pid_speed
 2231              		.section	.text.mc_interface_set_pid_speed_with_cruise_status,"ax",%progbits
 2232              		.align	2
 2233              		.p2align 4,,15
 2234              		.global	mc_interface_set_pid_speed_with_cruise_status
 2235              		.thumb
 2236              		.thumb_func
 2237              		.type	mc_interface_set_pid_speed_with_cruise_status, %function
 2238              	mc_interface_set_pid_speed_with_cruise_status:
 2239              	.LFB270:
 2240              		.loc 1 362 0
 2241              		.cfi_startproc
 2242              		@ args = 0, pretend = 0, frame = 0
 2243              		@ frame_needed = 0, uses_anonymous_args = 0
 2244              	.LVL142:
 2245 0000 10B5     		push	{r4, lr}
 2246              		.cfi_def_cfa_offset 8
 2247              		.cfi_offset 4, -8
 2248              		.cfi_offset 14, -4
 2249 0002 2DED028B 		vpush.64	{d8}
 2250              		.cfi_def_cfa_offset 16
 2251              		.cfi_offset 80, -16
 2252              		.cfi_offset 81, -12
 2253              		.loc 1 362 0
 2254 0006 0446     		mov	r4, r0
 2255 0008 B0EE408A 		vmov.f32	s16, s0
 2256              		.loc 1 363 0
 2257 000c FFF7FEFF 		bl	mc_interface_try_input
 2258              	.LVL143:
 2259 0010 78B9     		cbnz	r0, .L309
 2260              		.loc 1 367 0
 2261 0012 0E4B     		ldr	r3, .L314
 2262 0014 9B78     		ldrb	r3, [r3, #2]	@ zero_extendqisi2
 2263 0016 DBB2     		uxtb	r3, r3
 2264 0018 012B     		cmp	r3, #1
 2265 001a 0DD9     		bls	.L311
 2266 001c 022B     		cmp	r3, #2
 2267 001e 08D1     		bne	.L309
 2268              		.loc 1 374 0
 2269 0020 B0EE480A 		vmov.f32	s0, s16
 2270              		.loc 1 380 0
 2271 0024 BDEC028B 		vldm	sp!, {d8}
 2272              		.cfi_remember_state
 2273              		.cfi_restore 80
 2274              		.cfi_restore 81
 2275              		.cfi_def_cfa_offset 8
 2276              	.LVL144:
 2277              		.loc 1 374 0
 2278 0028 2046     		mov	r0, r4
 2279              		.loc 1 380 0
 2280 002a BDE81040 		pop	{r4, lr}
ARM GAS  C:\Users\euanm\AppData\Local\Temp\ccnlTGs7.s 			page 41


 2281              		.cfi_restore 14
 2282              		.cfi_restore 4
 2283              		.cfi_def_cfa_offset 0
 2284              		.loc 1 374 0
 2285 002e FFF7FEBF 		b	mcpwm_foc_set_pid_speed_with_cruise_status
 2286              	.LVL145:
 2287              	.L309:
 2288              		.cfi_restore_state
 2289              		.loc 1 380 0
 2290 0032 BDEC028B 		vldm	sp!, {d8}
 2291              		.cfi_remember_state
 2292              		.cfi_restore 80
 2293              		.cfi_restore 81
 2294              		.cfi_def_cfa_offset 8
 2295              	.LVL146:
 2296 0036 10BD     		pop	{r4, pc}
 2297              	.LVL147:
 2298              	.L311:
 2299              		.cfi_restore_state
 2300              		.loc 1 370 0
 2301 0038 B0EE480A 		vmov.f32	s0, s16
 2302              		.loc 1 380 0
 2303 003c BDEC028B 		vldm	sp!, {d8}
 2304              		.cfi_restore 80
 2305              		.cfi_restore 81
 2306              		.cfi_def_cfa_offset 8
 2307              	.LVL148:
 2308              		.loc 1 370 0
 2309 0040 2046     		mov	r0, r4
 2310              		.loc 1 380 0
 2311 0042 BDE81040 		pop	{r4, lr}
 2312              		.cfi_restore 14
 2313              		.cfi_restore 4
 2314              		.cfi_def_cfa_offset 0
 2315              		.loc 1 370 0
 2316 0046 FFF7FEBF 		b	mcpwm_set_pid_speed_with_cruise_status
 2317              	.LVL149:
 2318              	.L315:
 2319 004a 00BF     		.align	2
 2320              	.L314:
 2321 004c 00000000 		.word	.LANCHOR11
 2322              		.cfi_endproc
 2323              	.LFE270:
 2324              		.size	mc_interface_set_pid_speed_with_cruise_status, .-mc_interface_set_pid_speed_with_cruise_stat
 2325              		.section	.text.mc_interface_set_pid_pos,"ax",%progbits
 2326              		.align	2
 2327              		.p2align 4,,15
 2328              		.global	mc_interface_set_pid_pos
 2329              		.thumb
 2330              		.thumb_func
 2331              		.type	mc_interface_set_pid_pos, %function
 2332              	mc_interface_set_pid_pos:
 2333              	.LFB273:
 2334              		.loc 1 391 0
 2335              		.cfi_startproc
 2336              		@ args = 0, pretend = 0, frame = 0
 2337              		@ frame_needed = 0, uses_anonymous_args = 0
ARM GAS  C:\Users\euanm\AppData\Local\Temp\ccnlTGs7.s 			page 42


 2338              	.LVL150:
 2339 0000 08B5     		push	{r3, lr}
 2340              		.cfi_def_cfa_offset 8
 2341              		.cfi_offset 3, -8
 2342              		.cfi_offset 14, -4
 2343 0002 2DED028B 		vpush.64	{d8}
 2344              		.cfi_def_cfa_offset 16
 2345              		.cfi_offset 80, -16
 2346              		.cfi_offset 81, -12
 2347              		.loc 1 391 0
 2348 0006 B0EE408A 		vmov.f32	s16, s0
 2349              		.loc 1 392 0
 2350 000a FFF7FEFF 		bl	mc_interface_try_input
 2351              	.LVL151:
 2352 000e 88B9     		cbnz	r0, .L316
 2353              		.loc 1 396 0
 2354 0010 0E4A     		ldr	r2, .L321
 2355              		.loc 1 398 0
 2356 0012 0F4B     		ldr	r3, .L321+4
 2357              		.loc 1 396 0
 2358 0014 82ED008A 		vstr.32	s16, [r2]
 2359              		.loc 1 398 0
 2360 0018 9B78     		ldrb	r3, [r3, #2]	@ zero_extendqisi2
 2361 001a DBB2     		uxtb	r3, r3
 2362 001c 012B     		cmp	r3, #1
 2363 001e 0CD9     		bls	.L318
 2364 0020 022B     		cmp	r3, #2
 2365 0022 07D1     		bne	.L316
 2366              		.loc 1 405 0
 2367 0024 B0EE480A 		vmov.f32	s0, s16
 2368              		.loc 1 411 0
 2369 0028 BDEC028B 		vldm	sp!, {d8}
 2370              		.cfi_remember_state
 2371              		.cfi_restore 80
 2372              		.cfi_restore 81
 2373              		.cfi_def_cfa_offset 8
 2374              	.LVL152:
 2375 002c BDE80840 		pop	{r3, lr}
 2376              		.cfi_restore 14
 2377              		.cfi_restore 3
 2378              		.cfi_def_cfa_offset 0
 2379              		.loc 1 405 0
 2380 0030 FFF7FEBF 		b	mcpwm_foc_set_pid_pos
 2381              	.LVL153:
 2382              	.L316:
 2383              		.cfi_restore_state
 2384              		.loc 1 411 0
 2385 0034 BDEC028B 		vldm	sp!, {d8}
 2386              		.cfi_remember_state
 2387              		.cfi_restore 80
 2388              		.cfi_restore 81
 2389              		.cfi_def_cfa_offset 8
 2390              	.LVL154:
 2391 0038 08BD     		pop	{r3, pc}
 2392              	.LVL155:
 2393              	.L318:
 2394              		.cfi_restore_state
ARM GAS  C:\Users\euanm\AppData\Local\Temp\ccnlTGs7.s 			page 43


 2395              		.loc 1 401 0
 2396 003a B0EE480A 		vmov.f32	s0, s16
 2397              		.loc 1 411 0
 2398 003e BDEC028B 		vldm	sp!, {d8}
 2399              		.cfi_restore 80
 2400              		.cfi_restore 81
 2401              		.cfi_def_cfa_offset 8
 2402              	.LVL156:
 2403 0042 BDE80840 		pop	{r3, lr}
 2404              		.cfi_restore 14
 2405              		.cfi_restore 3
 2406              		.cfi_def_cfa_offset 0
 2407              		.loc 1 401 0
 2408 0046 FFF7FEBF 		b	mcpwm_set_pid_pos
 2409              	.LVL157:
 2410              	.L322:
 2411 004a 00BF     		.align	2
 2412              	.L321:
 2413 004c 00000000 		.word	.LANCHOR26
 2414 0050 00000000 		.word	.LANCHOR11
 2415              		.cfi_endproc
 2416              	.LFE273:
 2417              		.size	mc_interface_set_pid_pos, .-mc_interface_set_pid_pos
 2418              		.section	.text.mc_interface_set_current,"ax",%progbits
 2419              		.align	2
 2420              		.p2align 4,,15
 2421              		.global	mc_interface_set_current
 2422              		.thumb
 2423              		.thumb_func
 2424              		.type	mc_interface_set_current, %function
 2425              	mc_interface_set_current:
 2426              	.LFB274:
 2427              		.loc 1 413 0
 2428              		.cfi_startproc
 2429              		@ args = 0, pretend = 0, frame = 0
 2430              		@ frame_needed = 0, uses_anonymous_args = 0
 2431              	.LVL158:
 2432 0000 08B5     		push	{r3, lr}
 2433              		.cfi_def_cfa_offset 8
 2434              		.cfi_offset 3, -8
 2435              		.cfi_offset 14, -4
 2436 0002 2DED028B 		vpush.64	{d8}
 2437              		.cfi_def_cfa_offset 16
 2438              		.cfi_offset 80, -16
 2439              		.cfi_offset 81, -12
 2440              		.loc 1 413 0
 2441 0006 B0EE408A 		vmov.f32	s16, s0
 2442              		.loc 1 414 0
 2443 000a FFF7FEFF 		bl	mc_interface_try_input
 2444              	.LVL159:
 2445 000e 38B9     		cbnz	r0, .L323
 2446 0010 B0EE480A 		vmov.f32	s0, s16
 2447              		.loc 1 431 0
 2448 0014 BDEC028B 		vldm	sp!, {d8}
 2449              		.cfi_remember_state
 2450              		.cfi_restore 80
 2451              		.cfi_restore 81
ARM GAS  C:\Users\euanm\AppData\Local\Temp\ccnlTGs7.s 			page 44


 2452              		.cfi_def_cfa_offset 8
 2453              	.LVL160:
 2454 0018 BDE80840 		pop	{r3, lr}
 2455              		.cfi_restore 14
 2456              		.cfi_restore 3
 2457              		.cfi_def_cfa_offset 0
 2458 001c FFF7FEBF 		b	mc_interface_set_current.part.2
 2459              	.LVL161:
 2460              	.L323:
 2461              		.cfi_restore_state
 2462 0020 BDEC028B 		vldm	sp!, {d8}
 2463              		.cfi_restore 80
 2464              		.cfi_restore 81
 2465              		.cfi_def_cfa_offset 8
 2466              	.LVL162:
 2467 0024 08BD     		pop	{r3, pc}
 2468              		.cfi_endproc
 2469              	.LFE274:
 2470              		.size	mc_interface_set_current, .-mc_interface_set_current
 2471 0026 00BF     		.section	.text.mc_interface_release_motor,"ax",%progbits
 2472              		.align	2
 2473              		.p2align 4,,15
 2474              		.global	mc_interface_release_motor
 2475              		.thumb
 2476              		.thumb_func
 2477              		.type	mc_interface_release_motor, %function
 2478              	mc_interface_release_motor:
 2479              	.LFB279:
 2480              		.loc 1 528 0
 2481              		.cfi_startproc
 2482              		@ args = 0, pretend = 0, frame = 0
 2483              		@ frame_needed = 0, uses_anonymous_args = 0
 2484              	.LVL163:
 2485 0000 08B5     		push	{r3, lr}
 2486              		.cfi_def_cfa_offset 8
 2487              		.cfi_offset 3, -8
 2488              		.cfi_offset 14, -4
 2489              	.LBB83:
 2490              	.LBB84:
 2491              		.loc 1 414 0
 2492 0002 FFF7FEFF 		bl	mc_interface_try_input
 2493              	.LVL164:
 2494 0006 00B1     		cbz	r0, .L329
 2495 0008 08BD     		pop	{r3, pc}
 2496              	.L329:
 2497 000a 9FED030A 		vldr.32	s0, .L330
 2498              	.LBE84:
 2499              	.LBE83:
 2500              		.loc 1 530 0
 2501 000e BDE80840 		pop	{r3, lr}
 2502              		.cfi_restore 14
 2503              		.cfi_restore 3
 2504              		.cfi_def_cfa_offset 0
 2505              	.LBB86:
 2506              	.LBB85:
 2507 0012 FFF7FEBF 		b	mc_interface_set_current.part.2
 2508              	.LVL165:
ARM GAS  C:\Users\euanm\AppData\Local\Temp\ccnlTGs7.s 			page 45


 2509              	.L331:
 2510 0016 00BF     		.align	2
 2511              	.L330:
 2512 0018 00000000 		.word	0
 2513              	.LBE85:
 2514              	.LBE86:
 2515              		.cfi_endproc
 2516              	.LFE279:
 2517              		.size	mc_interface_release_motor, .-mc_interface_release_motor
 2518              		.section	.text.mc_interface_set_brake_current,"ax",%progbits
 2519              		.align	2
 2520              		.p2align 4,,15
 2521              		.global	mc_interface_set_brake_current
 2522              		.thumb
 2523              		.thumb_func
 2524              		.type	mc_interface_set_brake_current, %function
 2525              	mc_interface_set_brake_current:
 2526              	.LFB275:
 2527              		.loc 1 433 0
 2528              		.cfi_startproc
 2529              		@ args = 0, pretend = 0, frame = 0
 2530              		@ frame_needed = 0, uses_anonymous_args = 0
 2531              	.LVL166:
 2532 0000 08B5     		push	{r3, lr}
 2533              		.cfi_def_cfa_offset 8
 2534              		.cfi_offset 3, -8
 2535              		.cfi_offset 14, -4
 2536 0002 2DED028B 		vpush.64	{d8}
 2537              		.cfi_def_cfa_offset 16
 2538              		.cfi_offset 80, -16
 2539              		.cfi_offset 81, -12
 2540              		.loc 1 433 0
 2541 0006 B0EE408A 		vmov.f32	s16, s0
 2542              		.loc 1 434 0
 2543 000a FFF7FEFF 		bl	mc_interface_try_input
 2544              	.LVL167:
 2545 000e 70B9     		cbnz	r0, .L332
 2546              		.loc 1 438 0
 2547 0010 0C4B     		ldr	r3, .L337
 2548 0012 9B78     		ldrb	r3, [r3, #2]	@ zero_extendqisi2
 2549 0014 DBB2     		uxtb	r3, r3
 2550 0016 012B     		cmp	r3, #1
 2551 0018 0CD9     		bls	.L334
 2552 001a 022B     		cmp	r3, #2
 2553 001c 07D1     		bne	.L332
 2554              		.loc 1 445 0
 2555 001e B0EE480A 		vmov.f32	s0, s16
 2556              		.loc 1 451 0
 2557 0022 BDEC028B 		vldm	sp!, {d8}
 2558              		.cfi_remember_state
 2559              		.cfi_restore 80
 2560              		.cfi_restore 81
 2561              		.cfi_def_cfa_offset 8
 2562              	.LVL168:
 2563 0026 BDE80840 		pop	{r3, lr}
 2564              		.cfi_restore 14
 2565              		.cfi_restore 3
ARM GAS  C:\Users\euanm\AppData\Local\Temp\ccnlTGs7.s 			page 46


 2566              		.cfi_def_cfa_offset 0
 2567              		.loc 1 445 0
 2568 002a FFF7FEBF 		b	mcpwm_foc_set_brake_current
 2569              	.LVL169:
 2570              	.L332:
 2571              		.cfi_restore_state
 2572              		.loc 1 451 0
 2573 002e BDEC028B 		vldm	sp!, {d8}
 2574              		.cfi_remember_state
 2575              		.cfi_restore 80
 2576              		.cfi_restore 81
 2577              		.cfi_def_cfa_offset 8
 2578              	.LVL170:
 2579 0032 08BD     		pop	{r3, pc}
 2580              	.LVL171:
 2581              	.L334:
 2582              		.cfi_restore_state
 2583              		.loc 1 441 0
 2584 0034 B0EE480A 		vmov.f32	s0, s16
 2585              		.loc 1 451 0
 2586 0038 BDEC028B 		vldm	sp!, {d8}
 2587              		.cfi_restore 80
 2588              		.cfi_restore 81
 2589              		.cfi_def_cfa_offset 8
 2590              	.LVL172:
 2591 003c BDE80840 		pop	{r3, lr}
 2592              		.cfi_restore 14
 2593              		.cfi_restore 3
 2594              		.cfi_def_cfa_offset 0
 2595              		.loc 1 441 0
 2596 0040 FFF7FEBF 		b	mcpwm_set_brake_current
 2597              	.LVL173:
 2598              	.L338:
 2599              		.align	2
 2600              	.L337:
 2601 0044 00000000 		.word	.LANCHOR11
 2602              		.cfi_endproc
 2603              	.LFE275:
 2604              		.size	mc_interface_set_brake_current, .-mc_interface_set_brake_current
 2605              		.section	.text.mc_interface_set_servo,"ax",%progbits
 2606              		.align	2
 2607              		.p2align 4,,15
 2608              		.global	mc_interface_set_servo
 2609              		.thumb
 2610              		.thumb_func
 2611              		.type	mc_interface_set_servo, %function
 2612              	mc_interface_set_servo:
 2613              	.LFB276:
 2614              		.loc 1 453 0
 2615              		.cfi_startproc
 2616              		@ args = 0, pretend = 0, frame = 0
 2617              		@ frame_needed = 0, uses_anonymous_args = 0
 2618              	.LVL174:
 2619 0000 38B5     		push	{r3, r4, r5, lr}
 2620              		.cfi_def_cfa_offset 16
 2621              		.cfi_offset 3, -16
 2622              		.cfi_offset 4, -12
ARM GAS  C:\Users\euanm\AppData\Local\Temp\ccnlTGs7.s 			page 47


 2623              		.cfi_offset 5, -8
 2624              		.cfi_offset 14, -4
 2625 0002 2DED048B 		vpush.64	{d8, d9}
 2626              		.cfi_def_cfa_offset 32
 2627              		.cfi_offset 80, -32
 2628              		.cfi_offset 81, -28
 2629              		.cfi_offset 82, -24
 2630              		.cfi_offset 83, -20
 2631              		.loc 1 453 0
 2632 0006 0546     		mov	r5, r0
 2633 0008 B0EE408A 		vmov.f32	s16, s0
 2634              		.loc 1 454 0
 2635 000c FFF7FEFF 		bl	mc_interface_try_input
 2636              	.LVL175:
 2637 0010 A8BB     		cbnz	r0, .L339
 2638              	.LVL176:
 2639              		.loc 1 460 0
 2640 0012 B5EEC08A 		vcmpe.f32	s16, #0
 2641 0016 F1EE10FA 		vmrs	APSR_nzcv, FPSCR
 2642 001a 53DD     		ble	.L360
 2643              		.loc 1 461 0
 2644 001c 4F4C     		ldr	r4, .L366
 2645 001e 237E     		ldrb	r3, [r4, #24]	@ zero_extendqisi2
 2646 0020 83B3     		cbz	r3, .L343
 2647              		.loc 1 463 0
 2648 0022 4F4B     		ldr	r3, .L366+4
 2649              		.loc 1 462 0
 2650 0024 D4ED018A 		vldr.32	s17, [r4, #4]
 2651              		.loc 1 463 0
 2652 0028 D4ED076A 		vldr.32	s13, [r4, #28]
 2653 002c 1B8A     		ldrh	r3, [r3, #16]
 2654 002e DFED4D7A 		vldr.32	s15, .L366+8
 2655 0032 9FED4D6A 		vldr.32	s12, .L366+12
 2656 0036 9BB2     		uxth	r3, r3
 2657 0038 07EE103A 		vmov	s14, r3	@ int
 2658 003c B8EE477A 		vcvt.f32.u32	s14, s14
 2659              		.loc 1 462 0
 2660 0040 68EE288A 		vmul.f32	s17, s16, s17
 2661              		.loc 1 463 0
 2662 0044 67EE277A 		vmul.f32	s15, s14, s15
 2663 0048 67EE867A 		vmul.f32	s15, s15, s12
 2664 004c 86EEA79A 		vdiv.f32	s18, s13, s15
 2665 0050 FFF7FEFF 		bl	mc_interface_get_duty_cycle_for_watt_calculation
 2666              	.LVL177:
 2667              		.loc 1 462 0
 2668 0054 C9EE000A 		vdiv.f32	s1, s18, s0
 2669 0058 B0EE680A 		vmov.f32	s0, s17
 2670 005c 60EE880A 		vmul.f32	s1, s1, s16
 2671 0060 FFF7FEFF 		bl	utils_smallest_of_2
 2672              	.LVL178:
 2673              		.loc 1 468 0
 2674 0064 05BB     		cbnz	r5, .L363
 2675              	.LVL179:
 2676              	.L345:
 2677              		.loc 1 484 0
 2678 0066 A378     		ldrb	r3, [r4, #2]	@ zero_extendqisi2
 2679 0068 DBB2     		uxtb	r3, r3
ARM GAS  C:\Users\euanm\AppData\Local\Temp\ccnlTGs7.s 			page 48


 2680 006a 012B     		cmp	r3, #1
 2681 006c 24D9     		bls	.L349
 2682              	.L364:
 2683 006e 022B     		cmp	r3, #2
 2684 0070 05D1     		bne	.L339
 2685              		.loc 1 497 0
 2686 0072 BDEC048B 		vldm	sp!, {d8-d9}
 2687              		.cfi_remember_state
 2688              		.cfi_restore 82
 2689              		.cfi_restore 83
 2690              		.cfi_restore 80
 2691              		.cfi_restore 81
 2692              		.cfi_def_cfa_offset 16
 2693 0076 BDE83840 		pop	{r3, r4, r5, lr}
 2694              		.cfi_restore 14
 2695              		.cfi_restore 5
 2696              		.cfi_restore 4
 2697              		.cfi_restore 3
 2698              		.cfi_def_cfa_offset 0
 2699              		.loc 1 491 0
 2700 007a FFF7FEBF 		b	mcpwm_foc_set_current
 2701              	.LVL180:
 2702              	.L339:
 2703              		.cfi_restore_state
 2704              		.loc 1 497 0
 2705 007e BDEC048B 		vldm	sp!, {d8-d9}
 2706              		.cfi_remember_state
 2707              		.cfi_restore 82
 2708              		.cfi_restore 83
 2709              		.cfi_restore 80
 2710              		.cfi_restore 81
 2711              		.cfi_def_cfa_offset 16
 2712 0082 38BD     		pop	{r3, r4, r5, pc}
 2713              	.LVL181:
 2714              	.L343:
 2715              		.cfi_restore_state
 2716              		.loc 1 465 0
 2717 0084 D4ED018A 		vldr.32	s17, [r4, #4]
 2718              		.loc 1 466 0
 2719 0088 D4ED030A 		vldr.32	s1, [r4, #12]
 2720              		.loc 1 465 0
 2721 008c 68EE288A 		vmul.f32	s17, s16, s17
 2722              		.loc 1 466 0
 2723 0090 28EE208A 		vmul.f32	s16, s16, s1
 2724              	.LVL182:
 2725 0094 FFF7FEFF 		bl	mc_interface_get_duty_cycle_for_watt_calculation
 2726              	.LVL183:
 2727              		.loc 1 465 0
 2728 0098 C8EE000A 		vdiv.f32	s1, s16, s0
 2729 009c B0EE680A 		vmov.f32	s0, s17
 2730 00a0 FFF7FEFF 		bl	utils_smallest_of_2
 2731              	.LVL184:
 2732              		.loc 1 468 0
 2733 00a4 002D     		cmp	r5, #0
 2734 00a6 DED0     		beq	.L345
 2735              	.L363:
 2736              		.loc 1 469 0
ARM GAS  C:\Users\euanm\AppData\Local\Temp\ccnlTGs7.s 			page 49


 2737 00a8 D4ED470A 		vldr.32	s1, [r4, #284]
 2738 00ac FFF7FEFF 		bl	utils_highest_of_2
 2739              	.LVL185:
 2740              		.loc 1 484 0
 2741 00b0 A378     		ldrb	r3, [r4, #2]	@ zero_extendqisi2
 2742 00b2 DBB2     		uxtb	r3, r3
 2743 00b4 012B     		cmp	r3, #1
 2744 00b6 DAD8     		bhi	.L364
 2745              	.L349:
 2746              		.loc 1 497 0
 2747 00b8 BDEC048B 		vldm	sp!, {d8-d9}
 2748              		.cfi_remember_state
 2749              		.cfi_restore 82
 2750              		.cfi_restore 83
 2751              		.cfi_restore 80
 2752              		.cfi_restore 81
 2753              		.cfi_def_cfa_offset 16
 2754 00bc BDE83840 		pop	{r3, r4, r5, lr}
 2755              		.cfi_restore 14
 2756              		.cfi_restore 5
 2757              		.cfi_restore 4
 2758              		.cfi_restore 3
 2759              		.cfi_def_cfa_offset 0
 2760              		.loc 1 487 0
 2761 00c0 FFF7FEBF 		b	mcpwm_set_current
 2762              	.LVL186:
 2763              	.L360:
 2764              		.cfi_restore_state
 2765              		.loc 1 471 0
 2766 00c4 03D4     		bmi	.L365
 2767              		.loc 1 458 0
 2768 00c6 9FED290A 		vldr.32	s0, .L366+16
 2769 00ca 244C     		ldr	r4, .L366
 2770 00cc CBE7     		b	.L345
 2771              	.L365:
 2772              		.loc 1 472 0
 2773 00ce 234C     		ldr	r4, .L366
 2774 00d0 237E     		ldrb	r3, [r4, #24]	@ zero_extendqisi2
 2775 00d2 6BB3     		cbz	r3, .L347
 2776              		.loc 1 474 0
 2777 00d4 224B     		ldr	r3, .L366+4
 2778              		.loc 1 473 0
 2779 00d6 D4ED028A 		vldr.32	s17, [r4, #8]
 2780              		.loc 1 474 0
 2781 00da D4ED076A 		vldr.32	s13, [r4, #28]
 2782 00de 1B8A     		ldrh	r3, [r3, #16]
 2783 00e0 DFED207A 		vldr.32	s15, .L366+8
 2784 00e4 9FED206A 		vldr.32	s12, .L366+12
 2785 00e8 9BB2     		uxth	r3, r3
 2786 00ea 07EE103A 		vmov	s14, r3	@ int
 2787 00ee B8EE477A 		vcvt.f32.u32	s14, s14
 2788 00f2 67EE277A 		vmul.f32	s15, s14, s15
 2789 00f6 67EE867A 		vmul.f32	s15, s15, s12
 2790 00fa 86EEA79A 		vdiv.f32	s18, s13, s15
 2791 00fe FFF7FEFF 		bl	mc_interface_get_duty_cycle_for_watt_calculation
 2792              	.LVL187:
 2793              		.loc 1 473 0
ARM GAS  C:\Users\euanm\AppData\Local\Temp\ccnlTGs7.s 			page 50


 2794 0102 68EE287A 		vmul.f32	s15, s16, s17
 2795 0106 C9EE000A 		vdiv.f32	s1, s18, s0
 2796 010a B0EEE70A 		vabs.f32	s0, s15
 2797 010e 60EE880A 		vmul.f32	s1, s1, s16
 2798 0112 F0EEE00A 		vabs.f32	s1, s1
 2799 0116 FFF7FEFF 		bl	utils_smallest_of_2
 2800              	.LVL188:
 2801 011a B1EE400A 		vneg.f32	s0, s0
 2802              	.LVL189:
 2803              	.L348:
 2804              		.loc 1 479 0
 2805 011e 002D     		cmp	r5, #0
 2806 0120 A1D0     		beq	.L345
 2807              		.loc 1 480 0
 2808 0122 D4ED470A 		vldr.32	s1, [r4, #284]
 2809 0126 F1EE600A 		vneg.f32	s1, s1
 2810 012a FFF7FEFF 		bl	utils_smallest_of_2
 2811              	.LVL190:
 2812 012e 9AE7     		b	.L345
 2813              	.LVL191:
 2814              	.L347:
 2815              		.loc 1 476 0
 2816 0130 94ED029A 		vldr.32	s18, [r4, #8]
 2817              		.loc 1 477 0
 2818 0134 D4ED038A 		vldr.32	s17, [r4, #12]
 2819 0138 FFF7FEFF 		bl	mc_interface_get_duty_cycle_for_watt_calculation
 2820              	.LVL192:
 2821 013c 68EE288A 		vmul.f32	s17, s16, s17
 2822              		.loc 1 476 0
 2823 0140 28EE098A 		vmul.f32	s16, s16, s18
 2824              	.LVL193:
 2825 0144 88EE800A 		vdiv.f32	s0, s17, s0
 2826 0148 F0EEC00A 		vabs.f32	s1, s0
 2827 014c B0EEC80A 		vabs.f32	s0, s16
 2828 0150 FFF7FEFF 		bl	utils_smallest_of_2
 2829              	.LVL194:
 2830 0154 B1EE400A 		vneg.f32	s0, s0
 2831              	.LVL195:
 2832 0158 E1E7     		b	.L348
 2833              	.L367:
 2834 015a 00BF     		.align	2
 2835              	.L366:
 2836 015c 00000000 		.word	.LANCHOR11
 2837 0160 00000000 		.word	.LANCHOR38
 2838 0164 6740533A 		.word	978534503
 2839 0168 D145FF41 		.word	1107248593
 2840 016c 00000000 		.word	0
 2841              		.cfi_endproc
 2842              	.LFE276:
 2843              		.size	mc_interface_set_servo, .-mc_interface_set_servo
 2844              		.section	.text.mc_interface_set_brake_servo,"ax",%progbits
 2845              		.align	2
 2846              		.p2align 4,,15
 2847              		.global	mc_interface_set_brake_servo
 2848              		.thumb
 2849              		.thumb_func
 2850              		.type	mc_interface_set_brake_servo, %function
ARM GAS  C:\Users\euanm\AppData\Local\Temp\ccnlTGs7.s 			page 51


 2851              	mc_interface_set_brake_servo:
 2852              	.LFB277:
 2853              		.loc 1 499 0
 2854              		.cfi_startproc
 2855              		@ args = 0, pretend = 0, frame = 0
 2856              		@ frame_needed = 0, uses_anonymous_args = 0
 2857              	.LVL196:
 2858 0000 08B5     		push	{r3, lr}
 2859              		.cfi_def_cfa_offset 8
 2860              		.cfi_offset 3, -8
 2861              		.cfi_offset 14, -4
 2862 0002 2DED028B 		vpush.64	{d8}
 2863              		.cfi_def_cfa_offset 16
 2864              		.cfi_offset 80, -16
 2865              		.cfi_offset 81, -12
 2866              		.loc 1 499 0
 2867 0006 B0EE408A 		vmov.f32	s16, s0
 2868              		.loc 1 500 0
 2869 000a FFF7FEFF 		bl	mc_interface_try_input
 2870              	.LVL197:
 2871 000e 90B9     		cbnz	r0, .L368
 2872              		.loc 1 504 0
 2873 0010 0D4B     		ldr	r3, .L373
 2874 0012 D3ED027A 		vldr.32	s15, [r3, #8]
 2875              		.loc 1 506 0
 2876 0016 9B78     		ldrb	r3, [r3, #2]	@ zero_extendqisi2
 2877 0018 DBB2     		uxtb	r3, r3
 2878              		.loc 1 504 0
 2879 001a F0EEE77A 		vabs.f32	s15, s15
 2880              		.loc 1 506 0
 2881 001e 012B     		cmp	r3, #1
 2882              		.loc 1 504 0
 2883 0020 27EE880A 		vmul.f32	s0, s15, s16
 2884              	.LVL198:
 2885              		.loc 1 506 0
 2886 0024 0AD9     		bls	.L370
 2887 0026 022B     		cmp	r3, #2
 2888 0028 05D1     		bne	.L368
 2889              		.loc 1 519 0
 2890 002a BDEC028B 		vldm	sp!, {d8}
 2891              		.cfi_remember_state
 2892              		.cfi_restore 80
 2893              		.cfi_restore 81
 2894              		.cfi_def_cfa_offset 8
 2895              	.LVL199:
 2896 002e BDE80840 		pop	{r3, lr}
 2897              		.cfi_restore 14
 2898              		.cfi_restore 3
 2899              		.cfi_def_cfa_offset 0
 2900              		.loc 1 513 0
 2901 0032 FFF7FEBF 		b	mcpwm_foc_set_brake_current
 2902              	.LVL200:
 2903              	.L368:
 2904              		.cfi_restore_state
 2905              		.loc 1 519 0
 2906 0036 BDEC028B 		vldm	sp!, {d8}
 2907              		.cfi_remember_state
ARM GAS  C:\Users\euanm\AppData\Local\Temp\ccnlTGs7.s 			page 52


 2908              		.cfi_restore 80
 2909              		.cfi_restore 81
 2910              		.cfi_def_cfa_offset 8
 2911              	.LVL201:
 2912 003a 08BD     		pop	{r3, pc}
 2913              	.LVL202:
 2914              	.L370:
 2915              		.cfi_restore_state
 2916 003c BDEC028B 		vldm	sp!, {d8}
 2917              		.cfi_restore 80
 2918              		.cfi_restore 81
 2919              		.cfi_def_cfa_offset 8
 2920              	.LVL203:
 2921 0040 BDE80840 		pop	{r3, lr}
 2922              		.cfi_restore 14
 2923              		.cfi_restore 3
 2924              		.cfi_def_cfa_offset 0
 2925              		.loc 1 509 0
 2926 0044 FFF7FEBF 		b	mcpwm_set_brake_current
 2927              	.LVL204:
 2928              	.L374:
 2929              		.align	2
 2930              	.L373:
 2931 0048 00000000 		.word	.LANCHOR11
 2932              		.cfi_endproc
 2933              	.LFE277:
 2934              		.size	mc_interface_set_brake_servo, .-mc_interface_set_brake_servo
 2935              		.section	.text.mc_interface_fault_stop,"ax",%progbits
 2936              		.align	2
 2937              		.p2align 4,,15
 2938              		.global	mc_interface_fault_stop
 2939              		.thumb
 2940              		.thumb_func
 2941              		.type	mc_interface_fault_stop, %function
 2942              	mc_interface_fault_stop:
 2943              	.LFB305:
 2944              		.loc 1 980 0
 2945              		.cfi_startproc
 2946              		@ args = 0, pretend = 0, frame = 64
 2947              		@ frame_needed = 0, uses_anonymous_args = 0
 2948              	.LVL205:
 2949 0000 F0B5     		push	{r4, r5, r6, r7, lr}
 2950              		.cfi_def_cfa_offset 20
 2951              		.cfi_offset 4, -20
 2952              		.cfi_offset 5, -16
 2953              		.cfi_offset 6, -12
 2954              		.cfi_offset 7, -8
 2955              		.cfi_offset 14, -4
 2956 0002 91B0     		sub	sp, sp, #68
 2957              		.cfi_def_cfa_offset 88
 2958              		.loc 1 980 0
 2959 0004 0646     		mov	r6, r0
 2960              		.loc 1 981 0
 2961 0006 FFF7FEFF 		bl	mc_interface_dccal_done
 2962              	.LVL206:
 2963 000a 474D     		ldr	r5, .L390
 2964 000c 08B1     		cbz	r0, .L388
ARM GAS  C:\Users\euanm\AppData\Local\Temp\ccnlTGs7.s 			page 53


 2965              		.loc 1 981 0 is_stmt 0 discriminator 1
 2966 000e 2B78     		ldrb	r3, [r5]	@ zero_extendqisi2
 2967 0010 7BB1     		cbz	r3, .L386
 2968              	.L388:
 2969 0012 464C     		ldr	r4, .L390+4
 2970              	.L376:
 2971              		.loc 1 1012 0 is_stmt 1
 2972 0014 D4F82811 		ldr	r1, [r4, #296]
 2973              		.loc 1 1014 0
 2974 0018 A378     		ldrb	r3, [r4, #2]	@ zero_extendqisi2
 2975              		.loc 1 1012 0
 2976 001a 454A     		ldr	r2, .L390+8
 2977              		.loc 1 1014 0
 2978 001c DBB2     		uxtb	r3, r3
 2979 001e 012B     		cmp	r3, #1
 2980              		.loc 1 1012 0
 2981 0020 1160     		str	r1, [r2]
 2982              		.loc 1 1014 0
 2983 0022 72D9     		bls	.L380
 2984 0024 022B     		cmp	r3, #2
 2985 0026 01D1     		bne	.L379
 2986              		.loc 1 1021 0
 2987 0028 FFF7FEFF 		bl	mcpwm_foc_stop_pwm
 2988              	.LVL207:
 2989              	.L379:
 2990              		.loc 1 1028 0
 2991 002c 2E70     		strb	r6, [r5]
 2992              		.loc 1 1029 0
 2993 002e 11B0     		add	sp, sp, #68
 2994              		.cfi_remember_state
 2995              		.cfi_def_cfa_offset 20
 2996              		@ sp needed
 2997 0030 F0BD     		pop	{r4, r5, r6, r7, pc}
 2998              	.L386:
 2999              		.cfi_restore_state
 3000              	.LVL208:
 3001              	.LBB87:
 3002              	.LBB88:
 3003              	.LBB89:
 3004              	.LBB90:
 3005              	.LBB91:
 3006              		.file 3 "ChibiOS_3.0.2/os/ext/CMSIS/include/core_cmFunc.h"
 3007              		.loc 3 546 0
 3008 0032 2022     		movs	r2, #32
 3009              		.syntax unified
 3010              	@ 546 "ChibiOS_3.0.2/os/ext/CMSIS/include/core_cmFunc.h" 1
 3011 0034 82F31188 		MSR basepri, r2
 3012              	@ 0 "" 2
 3013              	.LVL209:
 3014              		.thumb
 3015              		.syntax unified
 3016              	.LBE91:
 3017              	.LBE90:
 3018              	.LBE89:
 3019              	.LBE88:
 3020              		.loc 1 985 0
 3021 0038 3E49     		ldr	r1, .L390+12
ARM GAS  C:\Users\euanm\AppData\Local\Temp\ccnlTGs7.s 			page 54


 3022              		.loc 1 986 0
 3023 003a 3F4A     		ldr	r2, .L390+16
 3024              		.loc 1 985 0
 3025 003c 496B     		ldr	r1, [r1, #52]
 3026 003e 0091     		str	r1, [sp]
 3027              		.loc 1 986 0
 3028 0040 116C     		ldr	r1, [r2, #64]
 3029 0042 0191     		str	r1, [sp, #4]
 3030              		.loc 1 987 0
 3031 0044 D26A     		ldr	r2, [r2, #44]
 3032 0046 0292     		str	r2, [sp, #8]
 3033              	.LVL210:
 3034              	.LBB92:
 3035              	.LBB93:
 3036              	.LBB94:
 3037              	.LBB95:
 3038              	.LBB96:
 3039              		.loc 3 546 0
 3040              		.syntax unified
 3041              	@ 546 "ChibiOS_3.0.2/os/ext/CMSIS/include/core_cmFunc.h" 1
 3042 0048 83F31188 		MSR basepri, r3
 3043              	@ 0 "" 2
 3044              	.LVL211:
 3045              		.thumb
 3046              		.syntax unified
 3047              	.LBE96:
 3048              	.LBE95:
 3049              	.LBE94:
 3050              	.LBE93:
 3051              	.LBE92:
 3052              		.loc 1 992 0
 3053 004c 374C     		ldr	r4, .L390+4
 3054              		.loc 1 991 0
 3055 004e 8DF80C60 		strb	r6, [sp, #12]
 3056              		.loc 1 992 0
 3057 0052 A378     		ldrb	r3, [r4, #2]	@ zero_extendqisi2
 3058 0054 022B     		cmp	r3, #2
 3059 0056 5DD0     		beq	.L389
 3060              		.loc 1 996 0
 3061 0058 FFF7FEFF 		bl	mc_interface_get_tot_current
 3062              	.LVL212:
 3063 005c 8DED040A 		vstr.32	s0, [sp, #16]
 3064              		.loc 1 997 0
 3065 0060 FFF7FEFF 		bl	mc_interface_get_tot_current_filtered
 3066              	.LVL213:
 3067 0064 8DED050A 		vstr.32	s0, [sp, #20]
 3068              	.L378:
 3069              		.loc 1 999 0
 3070 0068 344F     		ldr	r7, .L390+20
 3071 006a DFED357A 		vldr.32	s15, .L390+24
 3072 006e 3B8A     		ldrh	r3, [r7, #16]
 3073 0070 DFED346A 		vldr.32	s13, .L390+28
 3074 0074 9BB2     		uxth	r3, r3
 3075 0076 07EE103A 		vmov	s14, r3	@ int
 3076 007a B8EE477A 		vcvt.f32.u32	s14, s14
 3077 007e 67EE277A 		vmul.f32	s15, s14, s15
 3078 0082 67EEA67A 		vmul.f32	s15, s15, s13
ARM GAS  C:\Users\euanm\AppData\Local\Temp\ccnlTGs7.s 			page 55


 3079 0086 CDED067A 		vstr.32	s15, [sp, #24]
 3080              		.loc 1 1000 0
 3081 008a FFF7FEFF 		bl	mc_interface_get_duty_cycle_now
 3082              	.LVL214:
 3083 008e 8DED070A 		vstr.32	s0, [sp, #28]
 3084              		.loc 1 1001 0
 3085 0092 FFF7FEFF 		bl	mc_interface_get_rpm
 3086              	.LVL215:
 3087              		.loc 1 1002 0
 3088 0096 0020     		movs	r0, #0
 3089              		.loc 1 1001 0
 3090 0098 8DED080A 		vstr.32	s0, [sp, #32]
 3091              		.loc 1 1002 0
 3092 009c FFF7FEFF 		bl	mc_interface_get_tachometer_value
 3093              	.LVL216:
 3094              		.loc 1 1003 0
 3095 00a0 294B     		ldr	r3, .L390+32
 3096              		.loc 1 1002 0
 3097 00a2 0990     		str	r0, [sp, #36]
 3098              		.loc 1 1003 0
 3099 00a4 1868     		ldr	r0, [r3]
 3100              		.loc 1 1004 0
 3101 00a6 0099     		ldr	r1, [sp]
 3102              		.loc 1 1005 0
 3103 00a8 019A     		ldr	r2, [sp, #4]
 3104              		.loc 1 1006 0
 3105 00aa 029B     		ldr	r3, [sp, #8]
 3106              		.loc 1 1004 0
 3107 00ac 0B91     		str	r1, [sp, #44]
 3108              		.loc 1 1005 0
 3109 00ae 0C92     		str	r2, [sp, #48]
 3110              		.loc 1 1006 0
 3111 00b0 0D93     		str	r3, [sp, #52]
 3112              		.loc 1 1003 0
 3113 00b2 0A90     		str	r0, [sp, #40]
 3114              		.loc 1 1007 0
 3115 00b4 FFF7FEFF 		bl	mcpwm_get_comm_step
 3116              	.LVL217:
 3117              		.loc 1 1008 0
 3118 00b8 7B89     		ldrh	r3, [r7, #10]
 3119 00ba DFED246A 		vldr.32	s13, .L390+36
 3120 00be 9FED240A 		vldr.32	s0, .L390+40
 3121              		.loc 1 1007 0
 3122 00c2 0E90     		str	r0, [sp, #56]
 3123              		.loc 1 1008 0
 3124 00c4 9BB2     		uxth	r3, r3
 3125 00c6 07EE903A 		vmov	s15, r3	@ int
 3126 00ca F8EEE77A 		vcvt.f32.s32	s15, s15
 3127 00ce 86EEA77A 		vdiv.f32	s14, s13, s15
 3128 00d2 77EE407A 		vsub.f32	s15, s14, s0
 3129 00d6 87EE800A 		vdiv.f32	s0, s15, s0
 3130 00da FFF7FEFF 		bl	logf
 3131              	.LVL218:
 3132              		.loc 1 1009 0
 3133 00de 03A8     		add	r0, sp, #12
 3134              		.loc 1 1008 0
 3135 00e0 DFED1C6A 		vldr.32	s13, .L390+44
ARM GAS  C:\Users\euanm\AppData\Local\Temp\ccnlTGs7.s 			page 56


 3136 00e4 DFED1C7A 		vldr.32	s15, .L390+48
 3137 00e8 9FED1C7A 		vldr.32	s14, .L390+52
 3138 00ec 80EE260A 		vdiv.f32	s0, s0, s13
 3139 00f0 F7EE006A 		vmov.f32	s13, #1.0e+0
 3140 00f4 30EE270A 		vadd.f32	s0, s0, s15
 3141 00f8 C6EE807A 		vdiv.f32	s15, s13, s0
 3142 00fc 77EEC77A 		vsub.f32	s15, s15, s14
 3143 0100 CDED0F7A 		vstr.32	s15, [sp, #60]
 3144              		.loc 1 1009 0
 3145 0104 FFF7FEFF 		bl	terminal_add_fault_data
 3146              	.LVL219:
 3147 0108 84E7     		b	.L376
 3148              	.L380:
 3149              	.LBE87:
 3150              		.loc 1 1017 0
 3151 010a FFF7FEFF 		bl	mcpwm_stop_pwm
 3152              	.LVL220:
 3153              		.loc 1 1028 0
 3154 010e 2E70     		strb	r6, [r5]
 3155              		.loc 1 1029 0
 3156 0110 11B0     		add	sp, sp, #68
 3157              		.cfi_remember_state
 3158              		.cfi_def_cfa_offset 20
 3159              		@ sp needed
 3160 0112 F0BD     		pop	{r4, r5, r6, r7, pc}
 3161              	.L389:
 3162              		.cfi_restore_state
 3163              	.LBB97:
 3164              		.loc 1 993 0
 3165 0114 FFF7FEFF 		bl	mcpwm_foc_get_abs_motor_current
 3166              	.LVL221:
 3167 0118 8DED040A 		vstr.32	s0, [sp, #16]
 3168              		.loc 1 994 0
 3169 011c FFF7FEFF 		bl	mcpwm_foc_get_abs_motor_current_filtered
 3170              	.LVL222:
 3171 0120 8DED050A 		vstr.32	s0, [sp, #20]
 3172 0124 A0E7     		b	.L378
 3173              	.L391:
 3174 0126 00BF     		.align	2
 3175              	.L390:
 3176 0128 00000000 		.word	.LANCHOR13
 3177 012c 00000000 		.word	.LANCHOR11
 3178 0130 00000000 		.word	.LANCHOR14
 3179 0134 00040140 		.word	1073808384
 3180 0138 00000140 		.word	1073807360
 3181 013c 00000000 		.word	.LANCHOR38
 3182 0140 6740533A 		.word	978534503
 3183 0144 D145FF41 		.word	1107248593
 3184 0148 00000000 		.word	.LANCHOR15
 3185 014c 3C361C4C 		.word	1276917308
 3186 0150 00401C46 		.word	1176256512
 3187 0154 00A05645 		.word	1163304960
 3188 0158 0FCF5B3B 		.word	995872527
 3189 015c 33938843 		.word	1133024051
 3190              	.LBE97:
 3191              		.cfi_endproc
 3192              	.LFE305:
ARM GAS  C:\Users\euanm\AppData\Local\Temp\ccnlTGs7.s 			page 57


 3193              		.size	mc_interface_fault_stop, .-mc_interface_fault_stop
 3194              		.section	.text.update_override_limits.constprop.3,"ax",%progbits
 3195              		.align	2
 3196              		.p2align 4,,15
 3197              		.thumb
 3198              		.thumb_func
 3199              		.type	update_override_limits.constprop.3, %function
 3200              	update_override_limits.constprop.3:
 3201              	.LFB314:
 3202              		.loc 1 1184 0
 3203              		.cfi_startproc
 3204              		@ args = 0, pretend = 0, frame = 0
 3205              		@ frame_needed = 0, uses_anonymous_args = 0
 3206              	.LVL223:
 3207 0000 38B5     		push	{r3, r4, r5, lr}
 3208              		.cfi_def_cfa_offset 16
 3209              		.cfi_offset 3, -16
 3210              		.cfi_offset 4, -12
 3211              		.cfi_offset 5, -8
 3212              		.cfi_offset 14, -4
 3213              		.loc 1 1185 0
 3214 0002 674D     		ldr	r5, .L426
 3215 0004 DFED676A 		vldr.32	s13, .L426+4
 3216 0008 6B89     		ldrh	r3, [r5, #10]
 3217 000a 9FED670A 		vldr.32	s0, .L426+8
 3218              		.loc 1 1189 0
 3219 000e 674C     		ldr	r4, .L426+12
 3220              		.loc 1 1185 0
 3221 0010 9BB2     		uxth	r3, r3
 3222 0012 07EE903A 		vmov	s15, r3	@ int
 3223 0016 F8EEE77A 		vcvt.f32.s32	s15, s15
 3224              		.loc 1 1184 0
 3225 001a 2DED028B 		vpush.64	{d8}
 3226              		.cfi_def_cfa_offset 24
 3227              		.cfi_offset 80, -24
 3228              		.cfi_offset 81, -20
 3229              		.loc 1 1185 0
 3230 001e 86EEA77A 		vdiv.f32	s14, s13, s15
 3231              		.loc 1 1186 0
 3232 0022 9FED638A 		vldr.32	s16, .L426+16
 3233              		.loc 1 1185 0
 3234 0026 77EE407A 		vsub.f32	s15, s14, s0
 3235 002a 87EE800A 		vdiv.f32	s0, s15, s0
 3236 002e FFF7FEFF 		bl	logf
 3237              	.LVL224:
 3238              		.loc 1 1186 0
 3239 0032 2B8A     		ldrh	r3, [r5, #16]
 3240 0034 9BB2     		uxth	r3, r3
 3241              		.loc 1 1185 0
 3242 0036 DFED5F7A 		vldr.32	s15, .L426+20
 3243 003a 9FED5F7A 		vldr.32	s14, .L426+24
 3244 003e DFED5F5A 		vldr.32	s11, .L426+28
 3245              		.loc 1 1189 0
 3246 0042 D4ED116A 		vldr.32	s13, [r4, #68]
 3247              		.loc 1 1186 0
 3248 0046 9FED5E6A 		vldr.32	s12, .L426+32
 3249              		.loc 1 1185 0
ARM GAS  C:\Users\euanm\AppData\Local\Temp\ccnlTGs7.s 			page 58


 3250 004a 80EE270A 		vdiv.f32	s0, s0, s15
 3251 004e B7EE005A 		vmov.f32	s10, #1.0e+0
 3252 0052 30EE077A 		vadd.f32	s14, s0, s14
 3253              		.loc 1 1186 0
 3254 0056 07EE903A 		vmov	s15, r3	@ int
 3255              		.loc 1 1185 0
 3256 005a 85EE070A 		vdiv.f32	s0, s10, s14
 3257              		.loc 1 1186 0
 3258 005e F8EE677A 		vcvt.f32.u32	s15, s15
 3259              		.loc 1 1185 0
 3260 0062 30EE650A 		vsub.f32	s0, s0, s11
 3261              	.LVL225:
 3262              		.loc 1 1186 0
 3263 0066 67EE887A 		vmul.f32	s15, s15, s16
 3264              		.loc 1 1189 0
 3265 006a B4EEE60A 		vcmpe.f32	s0, s13
 3266 006e F1EE10FA 		vmrs	APSR_nzcv, FPSCR
 3267              		.loc 1 1186 0
 3268 0072 27EE868A 		vmul.f32	s16, s15, s12
 3269              	.LVL226:
 3270              		.loc 1 1189 0
 3271 0076 19D5     		bpl	.L419
 3272              		.loc 1 1190 0
 3273 0078 A368     		ldr	r3, [r4, #8]	@ float
 3274 007a 2366     		str	r3, [r4, #96]	@ float
 3275              		.loc 1 1191 0
 3276 007c 6368     		ldr	r3, [r4, #4]	@ float
 3277 007e E365     		str	r3, [r4, #92]	@ float
 3278              	.LVL227:
 3279              	.L395:
 3280              		.loc 1 1214 0
 3281 0080 D4ED0E7A 		vldr.32	s15, [r4, #56]
 3282 0084 494D     		ldr	r5, .L426+12
 3283 0086 B4EEE78A 		vcmpe.f32	s16, s15
 3284 008a F1EE10FA 		vmrs	APSR_nzcv, FPSCR
 3285 008e 78DC     		bgt	.L424
 3286              		.loc 1 1216 0
 3287 0090 D5ED0F7A 		vldr.32	s15, [r5, #60]
 3288 0094 B4EEE78A 		vcmpe.f32	s16, s15
 3289 0098 F1EE10FA 		vmrs	APSR_nzcv, FPSCR
 3290 009c 5ED5     		bpl	.L422
 3291              		.loc 1 1224 0
 3292 009e BDEC028B 		vldm	sp!, {d8}
 3293              		.cfi_remember_state
 3294              		.cfi_restore 80
 3295              		.cfi_restore 81
 3296              		.cfi_def_cfa_offset 16
 3297              	.LVL228:
 3298              		.loc 1 1217 0
 3299 00a2 0023     		movs	r3, #0
 3300 00a4 6B66     		str	r3, [r5, #100]	@ float
 3301              		.loc 1 1223 0
 3302 00a6 2369     		ldr	r3, [r4, #16]	@ float
 3303 00a8 A366     		str	r3, [r4, #104]	@ float
 3304              		.loc 1 1224 0
 3305 00aa 38BD     		pop	{r3, r4, r5, pc}
 3306              	.LVL229:
ARM GAS  C:\Users\euanm\AppData\Local\Temp\ccnlTGs7.s 			page 59


 3307              	.L419:
 3308              		.cfi_restore_state
 3309              		.loc 1 1192 0
 3310 00ac D4ED127A 		vldr.32	s15, [r4, #72]
 3311 00b0 B4EEE70A 		vcmpe.f32	s0, s15
 3312 00b4 F1EE10FA 		vmrs	APSR_nzcv, FPSCR
 3313 00b8 6ADC     		bgt	.L425
 3314              	.LBB98:
 3315              		.loc 1 1197 0
 3316 00ba D4ED011A 		vldr.32	s3, [r4, #4]
 3317              		.loc 1 1198 0
 3318 00be D4ED027A 		vldr.32	s15, [r4, #8]
 3319              		.loc 1 1202 0
 3320 00c2 9FED402A 		vldr.32	s4, .L426+36
 3321 00c6 394D     		ldr	r5, .L426+12
 3322              		.loc 1 1197 0
 3323 00c8 F0EEE11A 		vabs.f32	s3, s3
 3324              	.LVL230:
 3325              		.loc 1 1198 0
 3326 00cc F0EEE77A 		vabs.f32	s15, s15
 3327 00d0 F4EEE71A 		vcmpe.f32	s3, s15
 3328 00d4 F1EE10FA 		vmrs	APSR_nzcv, FPSCR
 3329              		.loc 1 1199 0
 3330 00d8 48BF     		it	mi
 3331 00da D4ED021A 		vldrmi.32	s3, [r4, #8]
 3332              	.LVL231:
 3333              		.loc 1 1202 0
 3334 00de D4ED110A 		vldr.32	s1, [r4, #68]
 3335 00e2 94ED121A 		vldr.32	s2, [r4, #72]
 3336              		.loc 1 1199 0
 3337 00e6 48BF     		it	mi
 3338 00e8 F0EEE11A 		vabsmi.f32	s3, s3
 3339              	.LVL232:
 3340              		.loc 1 1202 0
 3341 00ec FFF7FEFF 		bl	utils_map
 3342              	.LVL233:
 3343              		.loc 1 1204 0
 3344 00f0 D4ED017A 		vldr.32	s15, [r4, #4]
 3345 00f4 F0EEE77A 		vabs.f32	s15, s15
 3346 00f8 B4EEE70A 		vcmpe.f32	s0, s15
 3347 00fc F1EE10FA 		vmrs	APSR_nzcv, FPSCR
 3348 0100 10D5     		bpl	.L400
 3349              		.loc 1 1205 0
 3350 0102 D5ED017A 		vldr.32	s15, [r5, #4]
 3351 0106 F5EEC07A 		vcmpe.f32	s15, #0
 3352 010a F1EE10FA 		vmrs	APSR_nzcv, FPSCR
 3353 010e FFEE007A 		vmov.f32	s15, #-1.0e+0
 3354 0112 B7EE007A 		vmov.f32	s14, #1.0e+0
 3355 0116 58BF     		it	pl
 3356 0118 F0EE477A 		vmovpl.f32	s15, s14
 3357 011c 60EE277A 		vmul.f32	s15, s0, s15
 3358 0120 C4ED177A 		vstr.32	s15, [r4, #92]
 3359              	.L400:
 3360              		.loc 1 1208 0
 3361 0124 D4ED027A 		vldr.32	s15, [r4, #8]
 3362 0128 204B     		ldr	r3, .L426+12
 3363 012a F0EEE77A 		vabs.f32	s15, s15
ARM GAS  C:\Users\euanm\AppData\Local\Temp\ccnlTGs7.s 			page 60


 3364 012e B4EEE70A 		vcmpe.f32	s0, s15
 3365 0132 F1EE10FA 		vmrs	APSR_nzcv, FPSCR
 3366 0136 A3D5     		bpl	.L395
 3367              		.loc 1 1209 0
 3368 0138 D3ED027A 		vldr.32	s15, [r3, #8]
 3369 013c F5EEC07A 		vcmpe.f32	s15, #0
 3370 0140 F1EE10FA 		vmrs	APSR_nzcv, FPSCR
 3371 0144 FFEE007A 		vmov.f32	s15, #-1.0e+0
 3372 0148 B7EE007A 		vmov.f32	s14, #1.0e+0
 3373 014c 58BF     		it	pl
 3374 014e F0EE477A 		vmovpl.f32	s15, s14
 3375 0152 20EE270A 		vmul.f32	s0, s0, s15
 3376              	.LVL234:
 3377 0156 84ED180A 		vstr.32	s0, [r4, #96]
 3378 015a 91E7     		b	.L395
 3379              	.L422:
 3380              	.LBE98:
 3381              		.loc 1 1219 0
 3382 015c D5ED0E0A 		vldr.32	s1, [r5, #56]
 3383 0160 9FED182A 		vldr.32	s4, .L426+36
 3384 0164 95ED0F1A 		vldr.32	s2, [r5, #60]
 3385 0168 D5ED031A 		vldr.32	s3, [r5, #12]
 3386 016c B0EE480A 		vmov.f32	s0, s16
 3387 0170 FFF7FEFF 		bl	utils_map
 3388              	.LVL235:
 3389              		.loc 1 1224 0
 3390 0174 BDEC028B 		vldm	sp!, {d8}
 3391              		.cfi_remember_state
 3392              		.cfi_restore 80
 3393              		.cfi_restore 81
 3394              		.cfi_def_cfa_offset 16
 3395              	.LVL236:
 3396              		.loc 1 1219 0
 3397 0178 85ED190A 		vstr.32	s0, [r5, #100]
 3398              		.loc 1 1223 0
 3399 017c 2369     		ldr	r3, [r4, #16]	@ float
 3400 017e A366     		str	r3, [r4, #104]	@ float
 3401              		.loc 1 1224 0
 3402 0180 38BD     		pop	{r3, r4, r5, pc}
 3403              	.LVL237:
 3404              	.L424:
 3405              		.cfi_restore_state
 3406 0182 BDEC028B 		vldm	sp!, {d8}
 3407              		.cfi_remember_state
 3408              		.cfi_restore 80
 3409              		.cfi_restore 81
 3410              		.cfi_def_cfa_offset 16
 3411              	.LVL238:
 3412              		.loc 1 1215 0
 3413 0186 EB68     		ldr	r3, [r5, #12]	@ float
 3414 0188 6B66     		str	r3, [r5, #100]	@ float
 3415              		.loc 1 1223 0
 3416 018a 2369     		ldr	r3, [r4, #16]	@ float
 3417 018c A366     		str	r3, [r4, #104]	@ float
 3418              		.loc 1 1224 0
 3419 018e 38BD     		pop	{r3, r4, r5, pc}
 3420              	.LVL239:
ARM GAS  C:\Users\euanm\AppData\Local\Temp\ccnlTGs7.s 			page 61


 3421              	.L425:
 3422              		.cfi_restore_state
 3423              		.loc 1 1193 0
 3424 0190 0023     		movs	r3, #0
 3425              		.loc 1 1195 0
 3426 0192 0520     		movs	r0, #5
 3427              		.loc 1 1193 0
 3428 0194 2366     		str	r3, [r4, #96]	@ float
 3429              		.loc 1 1194 0
 3430 0196 E365     		str	r3, [r4, #92]	@ float
 3431              		.loc 1 1195 0
 3432 0198 FFF7FEFF 		bl	mc_interface_fault_stop
 3433              	.LVL240:
 3434 019c 70E7     		b	.L395
 3435              	.L427:
 3436 019e 00BF     		.align	2
 3437              	.L426:
 3438 01a0 00000000 		.word	.LANCHOR38
 3439 01a4 3C361C4C 		.word	1276917308
 3440 01a8 00401C46 		.word	1176256512
 3441 01ac 00000000 		.word	.LANCHOR11
 3442 01b0 6740533A 		.word	978534503
 3443 01b4 00A05645 		.word	1163304960
 3444 01b8 0FCF5B3B 		.word	995872527
 3445 01bc 33938843 		.word	1133024051
 3446 01c0 D145FF41 		.word	1107248593
 3447 01c4 00000000 		.word	0
 3448              		.cfi_endproc
 3449              	.LFE314:
 3450              		.size	update_override_limits.constprop.3, .-update_override_limits.constprop.3
 3451              		.section	.text.mc_interface_set_configuration,"ax",%progbits
 3452              		.align	2
 3453              		.p2align 4,,15
 3454              		.global	mc_interface_set_configuration
 3455              		.thumb
 3456              		.thumb_func
 3457              		.type	mc_interface_set_configuration, %function
 3458              	mc_interface_set_configuration:
 3459              	.LFB258:
 3460              		.loc 1 162 0
 3461              		.cfi_startproc
 3462              		@ args = 0, pretend = 0, frame = 0
 3463              		@ frame_needed = 0, uses_anonymous_args = 0
 3464              	.LVL241:
 3465 0000 70B5     		push	{r4, r5, r6, lr}
 3466              		.cfi_def_cfa_offset 16
 3467              		.cfi_offset 4, -16
 3468              		.cfi_offset 5, -12
 3469              		.cfi_offset 6, -8
 3470              		.cfi_offset 14, -4
 3471              		.loc 1 164 0
 3472 0002 324D     		ldr	r5, .L449
 3473 0004 90F83C31 		ldrb	r3, [r0, #316]	@ zero_extendqisi2
 3474 0008 95F83C21 		ldrb	r2, [r5, #316]	@ zero_extendqisi2
 3475 000c 9A42     		cmp	r2, r3
 3476              		.loc 1 162 0
 3477 000e 0446     		mov	r4, r0
ARM GAS  C:\Users\euanm\AppData\Local\Temp\ccnlTGs7.s 			page 62


 3478              		.loc 1 164 0
 3479 0010 07D0     		beq	.L429
 3480              		.loc 1 165 0
 3481 0012 FFF7FEFF 		bl	encoder_deinit
 3482              	.LVL242:
 3483              		.loc 1 166 0
 3484 0016 94F83C31 		ldrb	r3, [r4, #316]	@ zero_extendqisi2
 3485 001a 012B     		cmp	r3, #1
 3486 001c 40D0     		beq	.L430
 3487 001e 022B     		cmp	r3, #2
 3488 0020 33D0     		beq	.L431
 3489              	.L429:
 3490              		.loc 1 180 0
 3491 0022 012B     		cmp	r3, #1
 3492 0024 37D0     		beq	.L446
 3493              	.L432:
 3494              		.loc 1 185 0
 3495 0026 AB78     		ldrb	r3, [r5, #2]	@ zero_extendqisi2
 3496 0028 284E     		ldr	r6, .L449
 3497 002a 022B     		cmp	r3, #2
 3498 002c 1ED0     		beq	.L447
 3499              		.loc 1 190 0
 3500 002e B378     		ldrb	r3, [r6, #2]	@ zero_extendqisi2
 3501 0030 022B     		cmp	r3, #2
 3502 0032 02D0     		beq	.L436
 3503              		.loc 1 191 0
 3504 0034 A378     		ldrb	r3, [r4, #2]	@ zero_extendqisi2
 3505 0036 022B     		cmp	r3, #2
 3506 0038 3CD0     		beq	.L440
 3507              	.L436:
 3508              		.loc 1 196 0
 3509 003a 2146     		mov	r1, r4
 3510 003c 4FF4A072 		mov	r2, #320
 3511 0040 2248     		ldr	r0, .L449
 3512 0042 FFF7FEFF 		bl	memcpy
 3513              	.LVL243:
 3514              	.L435:
 3515              		.loc 1 199 0
 3516 0046 FFF7FEFF 		bl	update_override_limits.constprop.3
 3517              	.LVL244:
 3518              		.loc 1 201 0
 3519 004a AB78     		ldrb	r3, [r5, #2]	@ zero_extendqisi2
 3520 004c DBB2     		uxtb	r3, r3
 3521 004e 012B     		cmp	r3, #1
 3522 0050 07D9     		bls	.L438
 3523 0052 022B     		cmp	r3, #2
 3524 0054 04D1     		bne	.L448
 3525              		.loc 1 208 0
 3526 0056 1D48     		ldr	r0, .L449
 3527              		.loc 1 214 0
 3528 0058 BDE87040 		pop	{r4, r5, r6, lr}
 3529              		.cfi_remember_state
 3530              		.cfi_restore 14
 3531              		.cfi_restore 6
 3532              		.cfi_restore 5
 3533              		.cfi_restore 4
 3534              		.cfi_def_cfa_offset 0
ARM GAS  C:\Users\euanm\AppData\Local\Temp\ccnlTGs7.s 			page 63


 3535              	.LVL245:
 3536              		.loc 1 208 0
 3537 005c FFF7FEBF 		b	mcpwm_foc_set_configuration
 3538              	.LVL246:
 3539              	.L448:
 3540              		.cfi_restore_state
 3541 0060 70BD     		pop	{r4, r5, r6, pc}
 3542              	.LVL247:
 3543              	.L438:
 3544              		.loc 1 204 0
 3545 0062 1A48     		ldr	r0, .L449
 3546              		.loc 1 214 0
 3547 0064 BDE87040 		pop	{r4, r5, r6, lr}
 3548              		.cfi_remember_state
 3549              		.cfi_restore 14
 3550              		.cfi_restore 6
 3551              		.cfi_restore 5
 3552              		.cfi_restore 4
 3553              		.cfi_def_cfa_offset 0
 3554              	.LVL248:
 3555              		.loc 1 204 0
 3556 0068 FFF7FEBF 		b	mcpwm_set_configuration
 3557              	.LVL249:
 3558              	.L447:
 3559              		.cfi_restore_state
 3560              		.loc 1 186 0
 3561 006c A378     		ldrb	r3, [r4, #2]	@ zero_extendqisi2
 3562 006e 022B     		cmp	r3, #2
 3563 0070 1DD0     		beq	.L434
 3564              		.loc 1 187 0
 3565 0072 FFF7FEFF 		bl	mcpwm_foc_deinit
 3566              	.LVL250:
 3567              		.loc 1 188 0
 3568 0076 2146     		mov	r1, r4
 3569 0078 4FF4A072 		mov	r2, #320
 3570 007c 3046     		mov	r0, r6
 3571 007e FFF7FEFF 		bl	memcpy
 3572              	.LVL251:
 3573              		.loc 1 189 0
 3574 0082 3046     		mov	r0, r6
 3575 0084 FFF7FEFF 		bl	mcpwm_init
 3576              	.LVL252:
 3577 0088 DDE7     		b	.L435
 3578              	.L431:
 3579              		.loc 1 172 0
 3580 008a FFF7FEFF 		bl	encoder_init_as5047p_spi
 3581              	.LVL253:
 3582 008e 94F83C31 		ldrb	r3, [r4, #316]	@ zero_extendqisi2
 3583              		.loc 1 180 0
 3584 0092 012B     		cmp	r3, #1
 3585 0094 C7D1     		bne	.L432
 3586              	.L446:
 3587              		.loc 1 181 0
 3588 0096 D4F83801 		ldr	r0, [r4, #312]
 3589 009a FFF7FEFF 		bl	encoder_set_counts
 3590              	.LVL254:
 3591 009e C2E7     		b	.L432
ARM GAS  C:\Users\euanm\AppData\Local\Temp\ccnlTGs7.s 			page 64


 3592              	.L430:
 3593              		.loc 1 168 0
 3594 00a0 D4F83801 		ldr	r0, [r4, #312]
 3595 00a4 FFF7FEFF 		bl	encoder_init_abi
 3596              	.LVL255:
 3597 00a8 94F83C31 		ldrb	r3, [r4, #316]	@ zero_extendqisi2
 3598              		.loc 1 169 0
 3599 00ac B9E7     		b	.L429
 3600              	.L434:
 3601              		.loc 1 190 0
 3602 00ae B378     		ldrb	r3, [r6, #2]	@ zero_extendqisi2
 3603 00b0 022B     		cmp	r3, #2
 3604 00b2 C2D0     		beq	.L436
 3605              	.L440:
 3606              		.loc 1 192 0
 3607 00b4 FFF7FEFF 		bl	mcpwm_deinit
 3608              	.LVL256:
 3609              		.loc 1 193 0
 3610 00b8 2146     		mov	r1, r4
 3611 00ba 4FF4A072 		mov	r2, #320
 3612 00be 0348     		ldr	r0, .L449
 3613 00c0 FFF7FEFF 		bl	memcpy
 3614              	.LVL257:
 3615              		.loc 1 194 0
 3616 00c4 0148     		ldr	r0, .L449
 3617 00c6 FFF7FEFF 		bl	mcpwm_foc_init
 3618              	.LVL258:
 3619 00ca BCE7     		b	.L435
 3620              	.L450:
 3621              		.align	2
 3622              	.L449:
 3623 00cc 00000000 		.word	.LANCHOR11
 3624              		.cfi_endproc
 3625              	.LFE258:
 3626              		.size	mc_interface_set_configuration, .-mc_interface_set_configuration
 3627              		.section	.text.timer_thread,"ax",%progbits
 3628              		.align	2
 3629              		.p2align 4,,15
 3630              		.thumb
 3631              		.thumb_func
 3632              		.type	timer_thread, %function
 3633              	timer_thread:
 3634              	.LFB309:
 3635              		.loc 1 1226 0
 3636              		.cfi_startproc
 3637              		@ Volatile: function does not return.
 3638              		@ args = 0, pretend = 0, frame = 0
 3639              		@ frame_needed = 0, uses_anonymous_args = 0
 3640              	.LVL259:
 3641              	.LBB99:
 3642              	.LBB100:
 3643              		.loc 2 135 0
 3644 0000 124B     		ldr	r3, .L461
 3645 0002 134D     		ldr	r5, .L461+4
 3646 0004 9B69     		ldr	r3, [r3, #24]
 3647 0006 134A     		ldr	r2, .L461+8
 3648              	.LBE100:
ARM GAS  C:\Users\euanm\AppData\Local\Temp\ccnlTGs7.s 			page 65


 3649              	.LBE99:
 3650              		.loc 1 1233 0
 3651 0008 134C     		ldr	r4, .L461+12
 3652              		.loc 1 1226 0
 3653 000a 80B5     		push	{r7, lr}
 3654              		.cfi_def_cfa_offset 8
 3655              		.cfi_offset 7, -8
 3656              		.cfi_offset 14, -4
 3657              		.loc 1 1238 0
 3658 000c 2E46     		mov	r6, r5
 3659 000e 134F     		ldr	r7, .L461+16
 3660              	.LBB102:
 3661              	.LBB101:
 3662              		.loc 2 135 0
 3663 0010 9A61     		str	r2, [r3, #24]
 3664 0012 0AE0     		b	.L455
 3665              	.LVL260:
 3666              	.L452:
 3667              	.LBE101:
 3668              	.LBE102:
 3669              		.loc 1 1238 0
 3670 0014 2B68     		ldr	r3, [r5]
 3671 0016 002B     		cmp	r3, #0
 3672              		.loc 1 1239 0
 3673 0018 03F1FF33 		add	r3, r3, #-1
 3674              		.loc 1 1238 0
 3675 001c 10DD     		ble	.L453
 3676              	.L460:
 3677              		.loc 1 1239 0
 3678 001e 3360     		str	r3, [r6]
 3679              	.L454:
 3680              		.loc 1 1246 0
 3681 0020 FFF7FEFF 		bl	update_override_limits.constprop.3
 3682              	.LVL261:
 3683              		.loc 1 1248 0
 3684 0024 0A20     		movs	r0, #10
 3685 0026 FFF7FEFF 		bl	chThdSleep
 3686              	.LVL262:
 3687              	.L455:
 3688              		.loc 1 1233 0
 3689 002a 2369     		ldr	r3, [r4, #16]
 3690 002c DA04     		lsls	r2, r3, #19
 3691 002e F1D4     		bmi	.L452
 3692              		.loc 1 1234 0
 3693 0030 0320     		movs	r0, #3
 3694 0032 FFF7FEFF 		bl	mc_interface_fault_stop
 3695              	.LVL263:
 3696              		.loc 1 1238 0
 3697 0036 2B68     		ldr	r3, [r5]
 3698 0038 002B     		cmp	r3, #0
 3699              		.loc 1 1239 0
 3700 003a 03F1FF33 		add	r3, r3, #-1
 3701              		.loc 1 1238 0
 3702 003e EEDC     		bgt	.L460
 3703              	.L453:
 3704              		.loc 1 1241 0
 3705 0040 2369     		ldr	r3, [r4, #16]
ARM GAS  C:\Users\euanm\AppData\Local\Temp\ccnlTGs7.s 			page 66


 3706 0042 DB04     		lsls	r3, r3, #19
 3707              		.loc 1 1242 0
 3708 0044 44BF     		itt	mi
 3709 0046 0023     		movmi	r3, #0
 3710 0048 3B70     		strbmi	r3, [r7]
 3711 004a E9E7     		b	.L454
 3712              	.L462:
 3713              		.align	2
 3714              	.L461:
 3715 004c 00000000 		.word	ch
 3716 0050 00000000 		.word	.LANCHOR14
 3717 0054 20000000 		.word	.LC2
 3718 0058 00080240 		.word	1073874944
 3719 005c 00000000 		.word	.LANCHOR13
 3720              		.cfi_endproc
 3721              	.LFE309:
 3722              		.size	timer_thread, .-timer_thread
 3723              		.section	.text.mc_interface_mc_timer_isr,"ax",%progbits
 3724              		.align	2
 3725              		.p2align 4,,15
 3726              		.global	mc_interface_mc_timer_isr
 3727              		.thumb
 3728              		.thumb_func
 3729              		.type	mc_interface_mc_timer_isr, %function
 3730              	mc_interface_mc_timer_isr:
 3731              	.LFB306:
 3732              		.loc 1 1031 0
 3733              		.cfi_startproc
 3734              		@ args = 0, pretend = 0, frame = 8
 3735              		@ frame_needed = 0, uses_anonymous_args = 0
 3736 0000 2DE9F041 		push	{r4, r5, r6, r7, r8, lr}
 3737              		.cfi_def_cfa_offset 24
 3738              		.cfi_offset 4, -24
 3739              		.cfi_offset 5, -20
 3740              		.cfi_offset 6, -16
 3741              		.cfi_offset 7, -12
 3742              		.cfi_offset 8, -8
 3743              		.cfi_offset 14, -4
 3744 0004 2DED048B 		vpush.64	{d8, d9}
 3745              		.cfi_def_cfa_offset 40
 3746              		.cfi_offset 80, -40
 3747              		.cfi_offset 81, -36
 3748              		.cfi_offset 82, -32
 3749              		.cfi_offset 83, -28
 3750              		.loc 1 1034 0
 3751 0008 BA4D     		ldr	r5, .L514
 3752 000a 9FEDBB8A 		vldr.32	s16, .L514+4
 3753              		.loc 1 1038 0
 3754 000e BB4C     		ldr	r4, .L514+8
 3755              		.loc 1 1031 0
 3756 0010 82B0     		sub	sp, sp, #8
 3757              		.cfi_def_cfa_offset 48
 3758              		.loc 1 1032 0
 3759 0012 FFF7FEFF 		bl	ledpwm_update_pwm
 3760              	.LVL264:
 3761              		.loc 1 1034 0
 3762 0016 2B8A     		ldrh	r3, [r5, #16]
ARM GAS  C:\Users\euanm\AppData\Local\Temp\ccnlTGs7.s 			page 67


 3763 0018 DFEDB96A 		vldr.32	s13, .L514+12
 3764              		.loc 1 1038 0
 3765 001c 94ED0C7A 		vldr.32	s14, [r4, #48]
 3766              		.loc 1 1034 0
 3767 0020 9BB2     		uxth	r3, r3
 3768 0022 07EE903A 		vmov	s15, r3	@ int
 3769 0026 F8EE677A 		vcvt.f32.u32	s15, s15
 3770 002a 67EE887A 		vmul.f32	s15, s15, s16
 3771 002e 27EEA68A 		vmul.f32	s16, s15, s13
 3772              	.LVL265:
 3773              		.loc 1 1038 0
 3774 0032 B4EEC78A 		vcmpe.f32	s16, s14
 3775 0036 F1EE10FA 		vmrs	APSR_nzcv, FPSCR
 3776 003a 07D4     		bmi	.L464
 3777              		.loc 1 1039 0 discriminator 1
 3778 003c D4ED0D7A 		vldr.32	s15, [r4, #52]
 3779              		.loc 1 1038 0 discriminator 1
 3780 0040 B4EEE78A 		vcmpe.f32	s16, s15
 3781 0044 F1EE10FA 		vmrs	APSR_nzcv, FPSCR
 3782 0048 40F3D780 		ble	.L502
 3783              	.L464:
 3784              		.loc 1 1040 0
 3785 004c AD4A     		ldr	r2, .L514+16
 3786 004e 1368     		ldr	r3, [r2]
 3787 0050 0133     		adds	r3, r3, #1
 3788              		.loc 1 1042 0
 3789 0052 072B     		cmp	r3, #7
 3790              		.loc 1 1040 0
 3791 0054 1360     		str	r3, [r2]
 3792              		.loc 1 1042 0
 3793 0056 00F38F80 		bgt	.L506
 3794              	.L467:
 3795              		.loc 1 1050 0
 3796 005a FFF7FEFF 		bl	mc_interface_get_state
 3797              	.LVL266:
 3798 005e 0228     		cmp	r0, #2
 3799 0060 00F09A80 		beq	.L507
 3800              	.L469:
 3801              		.loc 1 1053 0
 3802 0064 A84B     		ldr	r3, .L514+20
 3803 0066 0022     		movs	r2, #0
 3804 0068 1A60     		str	r2, [r3]
 3805              	.L470:
 3806              		.loc 1 1056 0
 3807 006a A84B     		ldr	r3, .L514+24
 3808 006c 1B68     		ldr	r3, [r3]
 3809 006e 03B1     		cbz	r3, .L471
 3810              		.loc 1 1057 0
 3811 0070 9847     		blx	r3
 3812              	.LVL267:
 3813              	.L471:
 3814              		.loc 1 1060 0
 3815 0072 FFF7FEFF 		bl	mc_interface_get_tot_current_filtered
 3816              	.LVL268:
 3817 0076 F0EE408A 		vmov.f32	s17, s0
 3818              	.LVL269:
 3819              		.loc 1 1061 0
ARM GAS  C:\Users\euanm\AppData\Local\Temp\ccnlTGs7.s 			page 68


 3820 007a FFF7FEFF 		bl	mc_interface_get_tot_current_in_filtered
 3821              	.LVL270:
 3822              		.loc 1 1062 0
 3823 007e A448     		ldr	r0, .L514+28
 3824              		.loc 1 1063 0
 3825 0080 A449     		ldr	r1, .L514+32
 3826              		.loc 1 1062 0
 3827 0082 90ED007A 		vldr.32	s14, [r0]
 3828              		.loc 1 1064 0
 3829 0086 A44A     		ldr	r2, .L514+36
 3830              		.loc 1 1065 0
 3831 0088 A44B     		ldr	r3, .L514+40
 3832              		.loc 1 1062 0
 3833 008a 38EE877A 		vadd.f32	s14, s17, s14
 3834              		.loc 1 1064 0
 3835 008e F7EE006A 		vmov.f32	s13, #1.0e+0
 3836              		.loc 1 1062 0
 3837 0092 80ED007A 		vstr.32	s14, [r0]
 3838              		.loc 1 1063 0
 3839 0096 91ED007A 		vldr.32	s14, [r1]
 3840 009a 30EE077A 		vadd.f32	s14, s0, s14
 3841              		.loc 1 1061 0
 3842 009e B0EE409A 		vmov.f32	s18, s0
 3843              	.LVL271:
 3844              		.loc 1 1063 0
 3845 00a2 81ED007A 		vstr.32	s14, [r1]
 3846              		.loc 1 1064 0
 3847 00a6 92ED007A 		vldr.32	s14, [r2]
 3848 00aa 37EE267A 		vadd.f32	s14, s14, s13
 3849 00ae 82ED007A 		vstr.32	s14, [r2]
 3850              		.loc 1 1065 0
 3851 00b2 D3ED007A 		vldr.32	s15, [r3]
 3852 00b6 77EEA67A 		vadd.f32	s15, s15, s13
 3853 00ba C3ED007A 		vstr.32	s15, [r3]
 3854              		.loc 1 1067 0
 3855 00be FFF7FEFF 		bl	mc_interface_get_tot_current
 3856              	.LVL272:
 3857              		.loc 1 1069 0
 3858 00c2 A378     		ldrb	r3, [r4, #2]	@ zero_extendqisi2
 3859 00c4 022B     		cmp	r3, #2
 3860              		.loc 1 1067 0
 3861 00c6 F0EE409A 		vmov.f32	s19, s0
 3862              	.LVL273:
 3863              		.loc 1 1069 0
 3864 00ca 00F00B81 		beq	.L508
 3865              		.loc 1 1068 0
 3866 00ce B0EE680A 		vmov.f32	s0, s17
 3867              	.LVL274:
 3868              	.L472:
 3869              		.loc 1 1076 0
 3870 00d2 94F84020 		ldrb	r2, [r4, #64]	@ zero_extendqisi2
 3871 00d6 894B     		ldr	r3, .L514+8
 3872              		.loc 1 1077 0
 3873 00d8 D3ED057A 		vldr.32	s15, [r3, #20]
 3874              		.loc 1 1076 0
 3875 00dc 002A     		cmp	r2, #0
 3876 00de 40D0     		beq	.L473
ARM GAS  C:\Users\euanm\AppData\Local\Temp\ccnlTGs7.s 			page 69


 3877              		.loc 1 1077 0
 3878 00e0 B0EEC00A 		vabs.f32	s0, s0
 3879              	.LVL275:
 3880 00e4 B4EEE70A 		vcmpe.f32	s0, s15
 3881 00e8 F1EE10FA 		vmrs	APSR_nzcv, FPSCR
 3882 00ec 40DC     		bgt	.L476
 3883              	.LVL276:
 3884              	.L474:
 3885              		.loc 1 1087 0
 3886 00ee FFF7FEFF 		bl	mc_interface_get_sampling_frequency_now
 3887              	.LVL277:
 3888              		.loc 1 1088 0
 3889 00f2 F0EEE88A 		vabs.f32	s17, s17
 3890              	.LVL278:
 3891 00f6 F7EE006A 		vmov.f32	s13, #1.0e+0
 3892 00fa F4EEE68A 		vcmpe.f32	s17, s13
 3893 00fe F1EE10FA 		vmrs	APSR_nzcv, FPSCR
 3894              		.loc 1 1087 0
 3895 0102 F0EE409A 		vmov.f32	s19, s0
 3896              	.LVL279:
 3897              		.loc 1 1088 0
 3898 0106 18DD     		ble	.L478
 3899              	.LBB103:
 3900              		.loc 1 1094 0
 3901 0108 86EE807A 		vdiv.f32	s14, s13, s0
 3902 010c 844A     		ldr	r2, .L514+44
 3903              		.loc 1 1093 0
 3904 010e 854B     		ldr	r3, .L514+48
 3905 0110 C9EE007A 		vdiv.f32	s15, s18, s0
 3906              		.loc 1 1094 0
 3907 0114 92ED006A 		vldr.32	s12, [r2]
 3908              		.loc 1 1093 0
 3909 0118 D3ED005A 		vldr.32	s11, [r3]
 3910              		.loc 1 1096 0
 3911 011c DFED826A 		vldr.32	s13, .L514+52
 3912              		.loc 1 1094 0
 3913 0120 37EE067A 		vadd.f32	s14, s14, s12
 3914              		.loc 1 1093 0
 3915 0124 77EEA57A 		vadd.f32	s15, s15, s11
 3916              		.loc 1 1096 0
 3917 0128 B4EEE67A 		vcmpe.f32	s14, s13
 3918 012c F1EE10FA 		vmrs	APSR_nzcv, FPSCR
 3919              		.loc 1 1093 0
 3920 0130 C3ED007A 		vstr.32	s15, [r3]
 3921              		.loc 1 1094 0
 3922 0134 82ED007A 		vstr.32	s14, [r2]
 3923              		.loc 1 1096 0
 3924 0138 33DA     		bge	.L509
 3925              	.L478:
 3926              	.LBE103:
 3927              		.loc 1 1111 0
 3928 013a 7C4C     		ldr	r4, .L514+56
 3929 013c 2368     		ldr	r3, [r4]
 3930 013e 002B     		cmp	r3, #0
 3931 0140 4AD1     		bne	.L510
 3932              	.LVL280:
 3933              	.L505:
ARM GAS  C:\Users\euanm\AppData\Local\Temp\ccnlTGs7.s 			page 70


 3934 0142 7B4E     		ldr	r6, .L514+60
 3935              	.L485:
 3936              		.loc 1 1119 0
 3937 0144 3268     		ldr	r2, [r6]
 3938 0146 3AB9     		cbnz	r2, .L463
 3939              		.loc 1 1120 0
 3940 0148 7A49     		ldr	r1, .L514+64
 3941              		.loc 1 1121 0
 3942 014a 7B48     		ldr	r0, .L514+68
 3943              		.loc 1 1120 0
 3944 014c 0B68     		ldr	r3, [r1]
 3945              		.loc 1 1121 0
 3946 014e 0068     		ldr	r0, [r0]
 3947              		.loc 1 1120 0
 3948 0150 0133     		adds	r3, r3, #1
 3949              		.loc 1 1121 0
 3950 0152 8342     		cmp	r3, r0
 3951              		.loc 1 1120 0
 3952 0154 0B60     		str	r3, [r1]
 3953              		.loc 1 1121 0
 3954 0156 54DA     		bge	.L511
 3955              	.L463:
 3956              		.loc 1 1160 0
 3957 0158 02B0     		add	sp, sp, #8
 3958              		.cfi_remember_state
 3959              		.cfi_def_cfa_offset 40
 3960              		@ sp needed
 3961 015a BDEC048B 		vldm	sp!, {d8-d9}
 3962              		.cfi_restore 82
 3963              		.cfi_restore 83
 3964              		.cfi_restore 80
 3965              		.cfi_restore 81
 3966              		.cfi_def_cfa_offset 24
 3967              	.LVL281:
 3968 015e BDE8F081 		pop	{r4, r5, r6, r7, r8, pc}
 3969              	.LVL282:
 3970              	.L473:
 3971              		.cfi_restore_state
 3972              		.loc 1 1081 0
 3973 0162 F0EEE99A 		vabs.f32	s19, s19
 3974              	.LVL283:
 3975 0166 F4EEE79A 		vcmpe.f32	s19, s15
 3976 016a F1EE10FA 		vmrs	APSR_nzcv, FPSCR
 3977 016e BEDD     		ble	.L474
 3978              	.LVL284:
 3979              	.L476:
 3980              		.loc 1 1078 0
 3981 0170 0420     		movs	r0, #4
 3982 0172 FFF7FEFF 		bl	mc_interface_fault_stop
 3983              	.LVL285:
 3984 0176 BAE7     		b	.L474
 3985              	.LVL286:
 3986              	.L506:
 3987              		.loc 1 1043 0
 3988 0178 D4ED0C7A 		vldr.32	s15, [r4, #48]
 3989 017c B4EEE78A 		vcmpe.f32	s16, s15
 3990 0180 F1EE10FA 		vmrs	APSR_nzcv, FPSCR
ARM GAS  C:\Users\euanm\AppData\Local\Temp\ccnlTGs7.s 			page 71


 3991 0184 4CBF     		ite	mi
 3992 0186 0220     		movmi	r0, #2
 3993 0188 0120     		movpl	r0, #1
 3994 018a FFF7FEFF 		bl	mc_interface_fault_stop
 3995              	.LVL287:
 3996              		.loc 1 1050 0
 3997 018e FFF7FEFF 		bl	mc_interface_get_state
 3998              	.LVL288:
 3999 0192 0228     		cmp	r0, #2
 4000 0194 7FF466AF 		bne	.L469
 4001              	.L507:
 4002              		.loc 1 1051 0
 4003 0198 5B4A     		ldr	r2, .L514+20
 4004 019a 1368     		ldr	r3, [r2]
 4005 019c 0133     		adds	r3, r3, #1
 4006 019e 1360     		str	r3, [r2]
 4007 01a0 63E7     		b	.L470
 4008              	.LVL289:
 4009              	.L509:
 4010              	.LBB104:
 4011              		.loc 1 1097 0
 4012 01a2 F5EEC07A 		vcmpe.f32	s15, #0
 4013 01a6 F1EE10FA 		vmrs	APSR_nzcv, FPSCR
 4014 01aa 40F3EB80 		ble	.L503
 4015              		.loc 1 1098 0
 4016 01ae 6348     		ldr	r0, .L514+72
 4017              		.loc 1 1099 0
 4018 01b0 6349     		ldr	r1, .L514+76
 4019              		.loc 1 1098 0
 4020 01b2 90ED007A 		vldr.32	s14, [r0]
 4021 01b6 37EE877A 		vadd.f32	s14, s15, s14
 4022 01ba 80ED007A 		vstr.32	s14, [r0]
 4023              		.loc 1 1099 0
 4024 01be 91ED007A 		vldr.32	s14, [r1]
 4025 01c2 A8EE277A 		vfma.f32	s14, s16, s15
 4026 01c6 81ED007A 		vstr.32	s14, [r1]
 4027              	.L483:
 4028              	.LBE104:
 4029              		.loc 1 1111 0
 4030 01ca 584C     		ldr	r4, .L514+56
 4031              	.LBB105:
 4032              		.loc 1 1105 0
 4033 01cc 0021     		movs	r1, #0
 4034              		.loc 1 1106 0
 4035 01ce 1960     		str	r1, [r3]	@ float
 4036              	.LBE105:
 4037              		.loc 1 1111 0
 4038 01d0 2368     		ldr	r3, [r4]
 4039              	.LBB106:
 4040              		.loc 1 1105 0
 4041 01d2 1160     		str	r1, [r2]	@ float
 4042              	.LBE106:
 4043              		.loc 1 1111 0
 4044 01d4 002B     		cmp	r3, #0
 4045 01d6 B4D0     		beq	.L505
 4046              	.L510:
 4047              		.loc 1 1111 0 is_stmt 0 discriminator 1
ARM GAS  C:\Users\euanm\AppData\Local\Temp\ccnlTGs7.s 			page 72


 4048 01d8 FFF7FEFF 		bl	mc_interface_get_state
 4049              	.LVL290:
 4050 01dc 0228     		cmp	r0, #2
 4051 01de 05D0     		beq	.L487
 4052              		.loc 1 1112 0 is_stmt 1 discriminator 2
 4053 01e0 FFF7FEFF 		bl	mcpwm_get_comm_step
 4054              	.LVL291:
 4055 01e4 574B     		ldr	r3, .L514+80
 4056 01e6 1B68     		ldr	r3, [r3]
 4057              		.loc 1 1111 0 discriminator 2
 4058 01e8 9842     		cmp	r0, r3
 4059 01ea AAD0     		beq	.L505
 4060              	.L487:
 4061              		.loc 1 1113 0
 4062 01ec 564A     		ldr	r2, .L514+84
 4063              		.loc 1 1114 0
 4064 01ee 504E     		ldr	r6, .L514+60
 4065              		.loc 1 1113 0
 4066 01f0 0023     		movs	r3, #0
 4067 01f2 1360     		str	r3, [r2]
 4068              		.loc 1 1114 0
 4069 01f4 3360     		str	r3, [r6]
 4070              		.loc 1 1115 0
 4071 01f6 2360     		str	r3, [r4]
 4072 01f8 A4E7     		b	.L485
 4073              	.LVL292:
 4074              	.L502:
 4075              		.loc 1 1047 0
 4076 01fa 424B     		ldr	r3, .L514+16
 4077 01fc 0022     		movs	r2, #0
 4078 01fe 1A60     		str	r2, [r3]
 4079 0200 2BE7     		b	.L467
 4080              	.LVL293:
 4081              	.L511:
 4082              		.loc 1 1122 0
 4083 0202 0A60     		str	r2, [r1]
 4084              		.loc 1 1124 0
 4085 0204 FFF7FEFF 		bl	mc_interface_get_state
 4086              	.LVL294:
 4087 0208 0128     		cmp	r0, #1
 4088              		.loc 1 1125 0
 4089 020a 4F4C     		ldr	r4, .L514+84
 4090              		.loc 1 1124 0
 4091 020c 00F0D780 		beq	.L512
 4092              		.loc 1 1132 0
 4093 0210 4E4A     		ldr	r2, .L514+88
 4094 0212 2768     		ldr	r7, [r4]
 4095 0214 1368     		ldr	r3, [r2]
 4096 0216 4E49     		ldr	r1, .L514+92
 4097              		.loc 1 1133 0
 4098 0218 4E48     		ldr	r0, .L514+96
 4099              		.loc 1 1132 0
 4100 021a 1BB2     		sxth	r3, r3
 4101 021c 21F81730 		strh	r3, [r1, r7, lsl #1]	@ movhi
 4102              		.loc 1 1133 0
 4103 0220 2768     		ldr	r7, [r4]
 4104 0222 5368     		ldr	r3, [r2, #4]
ARM GAS  C:\Users\euanm\AppData\Local\Temp\ccnlTGs7.s 			page 73


 4105              		.loc 1 1135 0
 4106 0224 4C4A     		ldr	r2, .L514+100
 4107 0226 4D49     		ldr	r1, .L514+104
 4108              		.loc 1 1133 0
 4109 0228 1BB2     		sxth	r3, r3
 4110 022a 20F81730 		strh	r3, [r0, r7, lsl #1]	@ movhi
 4111              		.loc 1 1135 0
 4112 022e 2068     		ldr	r0, [r4]
 4113 0230 AB88     		ldrh	r3, [r5, #4]
 4114 0232 1768     		ldr	r7, [r2]
 4115 0234 DB1B     		subs	r3, r3, r7
 4116 0236 1BB2     		sxth	r3, r3
 4117 0238 21F81030 		strh	r3, [r1, r0, lsl #1]	@ movhi
 4118              		.loc 1 1136 0
 4119 023c 2068     		ldr	r0, [r4]
 4120 023e 6B88     		ldrh	r3, [r5, #2]
 4121 0240 1768     		ldr	r7, [r2]
 4122 0242 4749     		ldr	r1, .L514+108
 4123 0244 DB1B     		subs	r3, r3, r7
 4124 0246 1BB2     		sxth	r3, r3
 4125 0248 21F81030 		strh	r3, [r1, r0, lsl #1]	@ movhi
 4126              		.loc 1 1137 0
 4127 024c 2068     		ldr	r0, [r4]
 4128 024e 2B88     		ldrh	r3, [r5]
 4129 0250 1568     		ldr	r5, [r2]
 4130 0252 4449     		ldr	r1, .L514+112
 4131 0254 5B1B     		subs	r3, r3, r5
 4132 0256 1BB2     		sxth	r3, r3
 4133 0258 21F81030 		strh	r3, [r1, r0, lsl #1]	@ movhi
 4134              	.L493:
 4135              		.loc 1 1140 0
 4136 025c 2168     		ldr	r1, [r4]
 4137 025e 1368     		ldr	r3, [r2]
 4138 0260 414A     		ldr	r2, .L514+116
 4139 0262 394F     		ldr	r7, .L514+84
 4140 0264 1BB2     		sxth	r3, r3
 4141 0266 22F81130 		strh	r3, [r2, r1, lsl #1]	@ movhi
 4142              		.loc 1 1142 0
 4143 026a 2568     		ldr	r5, [r4]
 4144 026c FFF7FEFF 		bl	mc_interface_get_tot_current
 4145              	.LVL295:
 4146              		.loc 1 1143 0
 4147 0270 F2EE047A 		vmov.f32	s15, #1.0e+1
 4148 0274 89EEA77A 		vdiv.f32	s14, s19, s15
 4149              		.loc 1 1142 0
 4150 0278 3C48     		ldr	r0, .L514+120
 4151              		.loc 1 1143 0
 4152 027a 3D49     		ldr	r1, .L514+124
 4153              		.loc 1 1142 0
 4154 027c DFED3D7A 		vldr.32	s15, .L514+128
 4155 0280 20EE270A 		vmul.f32	s0, s0, s15
 4156              		.loc 1 1143 0
 4157 0284 FDEEC77A 		vcvt.s32.f32	s15, s14
 4158 0288 CDED017A 		vstr.32	s15, [sp, #4]	@ int
 4159              		.loc 1 1142 0
 4160 028c FDEEC07A 		vcvt.s32.f32	s15, s0
 4161              		.loc 1 1143 0
ARM GAS  C:\Users\euanm\AppData\Local\Temp\ccnlTGs7.s 			page 74


 4162 0290 BDF90430 		ldrsh	r3, [sp, #4]
 4163              		.loc 1 1142 0
 4164 0294 CDED007A 		vstr.32	s15, [sp]	@ int
 4165 0298 BDF90020 		ldrsh	r2, [sp]
 4166 029c 20F81520 		strh	r2, [r0, r5, lsl #1]	@ movhi
 4167              		.loc 1 1143 0
 4168 02a0 2268     		ldr	r2, [r4]
 4169 02a2 21F81230 		strh	r3, [r1, r2, lsl #1]	@ movhi
 4170              		.loc 1 1145 0
 4171 02a6 D4F80080 		ldr	r8, [r4]
 4172 02aa FFF7FEFF 		bl	mcpwm_get_comm_step
 4173              	.LVL296:
 4174 02ae 0546     		mov	r5, r0
 4175 02b0 FFF7FEFF 		bl	mcpwm_read_hall_phase
 4176              	.LVL297:
 4177 02b4 304B     		ldr	r3, .L514+132
 4178              		.loc 1 1149 0
 4179 02b6 3149     		ldr	r1, .L514+136
 4180              		.loc 1 1145 0
 4181 02b8 45EAC000 		orr	r0, r5, r0, lsl #3
 4182 02bc C0B2     		uxtb	r0, r0
 4183 02be 03F80800 		strb	r0, [r3, r8]
 4184              		.loc 1 1147 0
 4185 02c2 2368     		ldr	r3, [r4]
 4186 02c4 0133     		adds	r3, r3, #1
 4187 02c6 2360     		str	r3, [r4]
 4188              		.loc 1 1149 0
 4189 02c8 2268     		ldr	r2, [r4]
 4190 02ca 0B68     		ldr	r3, [r1]
 4191 02cc 9A42     		cmp	r2, r3
 4192 02ce 68D0     		beq	.L513
 4193              	.L494:
 4194              		.loc 1 1157 0
 4195 02d0 FFF7FEFF 		bl	mcpwm_get_last_adc_isr_duration
 4196              	.LVL298:
 4197 02d4 2A4B     		ldr	r3, .L514+140
 4198 02d6 83ED000A 		vstr.32	s0, [r3]
 4199              		.loc 1 1160 0
 4200 02da 02B0     		add	sp, sp, #8
 4201              		.cfi_remember_state
 4202              		.cfi_def_cfa_offset 40
 4203              		@ sp needed
 4204 02dc BDEC048B 		vldm	sp!, {d8-d9}
 4205              		.cfi_restore 80
 4206              		.cfi_restore 81
 4207              		.cfi_restore 82
 4208              		.cfi_restore 83
 4209              		.cfi_def_cfa_offset 24
 4210              	.LVL299:
 4211 02e0 BDE8F081 		pop	{r4, r5, r6, r7, r8, pc}
 4212              	.LVL300:
 4213              	.L508:
 4214              		.cfi_restore_state
 4215              		.loc 1 1071 0
 4216 02e4 FFF7FEFF 		bl	mcpwm_foc_get_abs_motor_current
 4217              	.LVL301:
 4218 02e8 F0EE409A 		vmov.f32	s19, s0
ARM GAS  C:\Users\euanm\AppData\Local\Temp\ccnlTGs7.s 			page 75


 4219              	.LVL302:
 4220              		.loc 1 1072 0
 4221 02ec FFF7FEFF 		bl	mcpwm_foc_get_abs_motor_current_filtered
 4222              	.LVL303:
 4223 02f0 EFE6     		b	.L472
 4224              	.L515:
 4225 02f2 00BF     		.align	2
 4226              	.L514:
 4227 02f4 00000000 		.word	.LANCHOR38
 4228 02f8 6740533A 		.word	978534503
 4229 02fc 00000000 		.word	.LANCHOR11
 4230 0300 D145FF41 		.word	1107248593
 4231 0304 00000000 		.word	.LANCHOR39
 4232 0308 00000000 		.word	.LANCHOR15
 4233 030c 00000000 		.word	.LANCHOR36
 4234 0310 00000000 		.word	.LANCHOR18
 4235 0314 00000000 		.word	.LANCHOR19
 4236 0318 00000000 		.word	.LANCHOR20
 4237 031c 00000000 		.word	.LANCHOR21
 4238 0320 00000000 		.word	.LANCHOR41
 4239 0324 00000000 		.word	.LANCHOR40
 4240 0328 0AD7233C 		.word	1008981770
 4241 032c 00000000 		.word	.LANCHOR32
 4242 0330 00000000 		.word	.LANCHOR30
 4243 0334 00000000 		.word	.LANCHOR42
 4244 0338 00000000 		.word	.LANCHOR29
 4245 033c 00000000 		.word	.LANCHOR22
 4246 0340 00000000 		.word	.LANCHOR24
 4247 0344 00000000 		.word	.LANCHOR33
 4248 0348 00000000 		.word	.LANCHOR31
 4249 034c 00000000 		.word	.LANCHOR43
 4250 0350 00000000 		.word	.LANCHOR2
 4251 0354 00000000 		.word	.LANCHOR3
 4252 0358 00000000 		.word	mcpwm_vzero
 4253 035c 00000000 		.word	.LANCHOR4
 4254 0360 00000000 		.word	.LANCHOR5
 4255 0364 00000000 		.word	.LANCHOR6
 4256 0368 00000000 		.word	.LANCHOR7
 4257 036c 00000000 		.word	.LANCHOR9
 4258 0370 00000000 		.word	.LANCHOR10
 4259 0374 0000C842 		.word	1120403456
 4260 0378 00000000 		.word	.LANCHOR8
 4261 037c 00000000 		.word	.LANCHOR1
 4262 0380 00000000 		.word	.LANCHOR27
 4263              	.LVL304:
 4264              	.L503:
 4265              	.LBB107:
 4266              		.loc 1 1101 0
 4267 0384 3448     		ldr	r0, .L516
 4268              		.loc 1 1102 0
 4269 0386 3549     		ldr	r1, .L516+4
 4270              		.loc 1 1101 0
 4271 0388 90ED007A 		vldr.32	s14, [r0]
 4272 038c 37EE677A 		vsub.f32	s14, s14, s15
 4273 0390 80ED007A 		vstr.32	s14, [r0]
 4274              		.loc 1 1102 0
 4275 0394 91ED007A 		vldr.32	s14, [r1]
ARM GAS  C:\Users\euanm\AppData\Local\Temp\ccnlTGs7.s 			page 76


 4276 0398 A8EE677A 		vfms.f32	s14, s16, s15
 4277 039c 81ED007A 		vstr.32	s14, [r1]
 4278 03a0 13E7     		b	.L483
 4279              	.LVL305:
 4280              	.L513:
 4281              	.LBE107:
 4282              		.loc 1 1150 0
 4283 03a2 0121     		movs	r1, #1
 4284              		.loc 1 1151 0
 4285 03a4 0024     		movs	r4, #0
 4286              		.loc 1 1150 0
 4287 03a6 3160     		str	r1, [r6]
 4288              	.LBB108:
 4289              	.LBB109:
 4290              	.LBB110:
 4291              	.LBB111:
 4292              	.LBB112:
 4293              		.loc 3 546 0
 4294 03a8 2023     		movs	r3, #32
 4295              	.LBE112:
 4296              	.LBE111:
 4297              	.LBE110:
 4298              	.LBE109:
 4299              	.LBE108:
 4300              		.loc 1 1151 0
 4301 03aa 3C60     		str	r4, [r7]
 4302              	.LVL306:
 4303              	.LBB117:
 4304              	.LBB116:
 4305              	.LBB115:
 4306              	.LBB114:
 4307              	.LBB113:
 4308              		.loc 3 546 0
 4309              		.syntax unified
 4310              	@ 546 "ChibiOS_3.0.2/os/ext/CMSIS/include/core_cmFunc.h" 1
 4311 03ac 83F31188 		MSR basepri, r3
 4312              	@ 0 "" 2
 4313              	.LVL307:
 4314              		.thumb
 4315              		.syntax unified
 4316              	.LBE113:
 4317              	.LBE114:
 4318              	.LBE115:
 4319              	.LBE116:
 4320              	.LBE117:
 4321              		.loc 1 1153 0
 4322 03b0 2B4B     		ldr	r3, .L516+8
 4323 03b2 1868     		ldr	r0, [r3]
 4324 03b4 FFF7FEFF 		bl	chEvtSignalI
 4325              	.LVL308:
 4326              	.LBB118:
 4327              	.LBB119:
 4328              	.LBB120:
 4329              	.LBB121:
 4330              	.LBB122:
 4331              		.loc 3 546 0
 4332              		.syntax unified
ARM GAS  C:\Users\euanm\AppData\Local\Temp\ccnlTGs7.s 			page 77


 4333              	@ 546 "ChibiOS_3.0.2/os/ext/CMSIS/include/core_cmFunc.h" 1
 4334 03b8 84F31188 		MSR basepri, r4
 4335              	@ 0 "" 2
 4336              	.LVL309:
 4337              		.thumb
 4338              		.syntax unified
 4339 03bc 88E7     		b	.L494
 4340              	.L512:
 4341              	.LBE122:
 4342              	.LBE121:
 4343              	.LBE120:
 4344              	.LBE119:
 4345              	.LBE118:
 4346              		.loc 1 1125 0
 4347 03be 2568     		ldr	r5, [r4]
 4348              		.loc 1 1126 0
 4349 03c0 284F     		ldr	r7, .L516+12
 4350              		.loc 1 1125 0
 4351 03c2 FFF7FEFF 		bl	mcpwm_get_comm_step
 4352              	.LVL310:
 4353 03c6 284B     		ldr	r3, .L516+16
 4354 03c8 284A     		ldr	r2, .L516+20
 4355 03ca 0138     		subs	r0, r0, #1
 4356 03cc 03EB8003 		add	r3, r3, r0, lsl #2
 4357 03d0 D3ED007A 		vldr.32	s15, [r3]
 4358 03d4 FDEEE77A 		vcvt.s32.f32	s15, s15
 4359 03d8 CDED007A 		vstr.32	s15, [sp]	@ int
 4360 03dc BDF90030 		ldrsh	r3, [sp]
 4361 03e0 22F81530 		strh	r3, [r2, r5, lsl #1]	@ movhi
 4362              		.loc 1 1126 0
 4363 03e4 D4F80080 		ldr	r8, [r4]
 4364              		.loc 1 1129 0
 4365 03e8 214D     		ldr	r5, .L516+24
 4366              		.loc 1 1126 0
 4367 03ea FFF7FEFF 		bl	mcpwm_get_comm_step
 4368              	.LVL311:
 4369 03ee 214A     		ldr	r2, .L516+28
 4370              		.loc 1 1128 0
 4371 03f0 214B     		ldr	r3, .L516+32
 4372 03f2 2249     		ldr	r1, .L516+36
 4373              		.loc 1 1126 0
 4374 03f4 0138     		subs	r0, r0, #1
 4375 03f6 02EB8002 		add	r2, r2, r0, lsl #2
 4376 03fa D2ED007A 		vldr.32	s15, [r2]
 4377              		.loc 1 1130 0
 4378 03fe 2048     		ldr	r0, .L516+40
 4379              		.loc 1 1126 0
 4380 0400 FDEEE77A 		vcvt.s32.f32	s15, s15
 4381 0404 CDED007A 		vstr.32	s15, [sp]	@ int
 4382 0408 BDF90020 		ldrsh	r2, [sp]
 4383 040c 27F81820 		strh	r2, [r7, r8, lsl #1]	@ movhi
 4384              		.loc 1 1128 0
 4385 0410 2768     		ldr	r7, [r4]
 4386 0412 D3ED007A 		vldr.32	s15, [r3]
 4387 0416 FDEEE77A 		vcvt.s32.f32	s15, s15
 4388 041a CDED007A 		vstr.32	s15, [sp]	@ int
 4389 041e BDF90020 		ldrsh	r2, [sp]
ARM GAS  C:\Users\euanm\AppData\Local\Temp\ccnlTGs7.s 			page 78


 4390 0422 21F81720 		strh	r2, [r1, r7, lsl #1]	@ movhi
 4391              		.loc 1 1129 0
 4392 0426 2768     		ldr	r7, [r4]
 4393 0428 D3ED017A 		vldr.32	s15, [r3, #4]
 4394 042c 154A     		ldr	r2, .L516+44
 4395 042e FDEEE77A 		vcvt.s32.f32	s15, s15
 4396 0432 CDED007A 		vstr.32	s15, [sp]	@ int
 4397 0436 BDF90010 		ldrsh	r1, [sp]
 4398 043a 25F81710 		strh	r1, [r5, r7, lsl #1]	@ movhi
 4399              		.loc 1 1130 0
 4400 043e 2168     		ldr	r1, [r4]
 4401 0440 D3ED027A 		vldr.32	s15, [r3, #8]
 4402 0444 FDEEE77A 		vcvt.s32.f32	s15, s15
 4403 0448 CDED007A 		vstr.32	s15, [sp]	@ int
 4404 044c BDF90030 		ldrsh	r3, [sp]
 4405 0450 20F81130 		strh	r3, [r0, r1, lsl #1]	@ movhi
 4406 0454 02E7     		b	.L493
 4407              	.L517:
 4408 0456 00BF     		.align	2
 4409              	.L516:
 4410 0458 00000000 		.word	.LANCHOR23
 4411 045c 00000000 		.word	.LANCHOR25
 4412 0460 00000000 		.word	.LANCHOR0
 4413 0464 00000000 		.word	.LANCHOR3
 4414 0468 00000000 		.word	mcpwm_detect_currents
 4415 046c 00000000 		.word	.LANCHOR2
 4416 0470 00000000 		.word	.LANCHOR5
 4417 0474 00000000 		.word	mcpwm_detect_currents_diff
 4418 0478 00000000 		.word	mcpwm_detect_voltages
 4419 047c 00000000 		.word	.LANCHOR4
 4420 0480 00000000 		.word	.LANCHOR6
 4421 0484 00000000 		.word	mcpwm_vzero
 4422              		.cfi_endproc
 4423              	.LFE306:
 4424              		.size	mc_interface_mc_timer_isr, .-mc_interface_mc_timer_isr
 4425              		.section	.text.mc_interface_adc_inj_int_handler,"ax",%progbits
 4426              		.align	2
 4427              		.p2align 4,,15
 4428              		.global	mc_interface_adc_inj_int_handler
 4429              		.thumb
 4430              		.thumb_func
 4431              		.type	mc_interface_adc_inj_int_handler, %function
 4432              	mc_interface_adc_inj_int_handler:
 4433              	.LFB307:
 4434              		.loc 1 1162 0
 4435              		.cfi_startproc
 4436              		@ args = 0, pretend = 0, frame = 0
 4437              		@ frame_needed = 0, uses_anonymous_args = 0
 4438              		@ link register save eliminated.
 4439              		.loc 1 1163 0
 4440 0000 054B     		ldr	r3, .L524
 4441 0002 9B78     		ldrb	r3, [r3, #2]	@ zero_extendqisi2
 4442 0004 DBB2     		uxtb	r3, r3
 4443 0006 012B     		cmp	r3, #1
 4444 0008 04D9     		bls	.L520
 4445 000a 022B     		cmp	r3, #2
 4446 000c 01D1     		bne	.L523
ARM GAS  C:\Users\euanm\AppData\Local\Temp\ccnlTGs7.s 			page 79


 4447              		.loc 1 1170 0
 4448 000e FFF7FEBF 		b	mcpwm_foc_adc_inj_int_handler
 4449              	.LVL312:
 4450              	.L523:
 4451 0012 7047     		bx	lr
 4452              	.L520:
 4453              		.loc 1 1166 0
 4454 0014 FFF7FEBF 		b	mcpwm_adc_inj_int_handler
 4455              	.LVL313:
 4456              	.L525:
 4457              		.align	2
 4458              	.L524:
 4459 0018 00000000 		.word	.LANCHOR11
 4460              		.cfi_endproc
 4461              	.LFE307:
 4462              		.size	mc_interface_adc_inj_int_handler, .-mc_interface_adc_inj_int_handler
 4463              		.global	ADC_curr_norm_value
 4464              		.global	ADC_Value
 4465              		.section	.bss.m_ignore_iterations,"aw",%nobits
 4466              		.align	2
 4467              		.set	.LANCHOR14,. + 0
 4468              		.type	m_ignore_iterations, %object
 4469              		.size	m_ignore_iterations, 4
 4470              	m_ignore_iterations:
 4471 0000 00000000 		.space	4
 4472              		.section	.bss.m_f_sw_samples,"aw",%nobits
 4473              		.align	2
 4474              		.set	.LANCHOR10,. + 0
 4475              		.type	m_f_sw_samples, %object
 4476              		.size	m_f_sw_samples, 4000
 4477              	m_f_sw_samples:
 4478 0000 00000000 		.space	4000
 4478      00000000 
 4478      00000000 
 4478      00000000 
 4478      00000000 
 4479              		.section	.bss.a.10703,"aw",%nobits
 4480              		.align	2
 4481              		.set	.LANCHOR42,. + 0
 4482              		.type	a.10703, %object
 4483              		.size	a.10703, 4
 4484              	a.10703:
 4485 0000 00000000 		.space	4
 4486              		.section	.bss.m_sample_int,"aw",%nobits
 4487              		.align	2
 4488              		.set	.LANCHOR29,. + 0
 4489              		.type	m_sample_int, %object
 4490              		.size	m_sample_int, 4
 4491              	m_sample_int:
 4492 0000 00000000 		.space	4
 4493              		.section	.bss.cruise_control_status,"aw",%nobits
 4494              		.set	.LANCHOR28,. + 0
 4495              		.type	cruise_control_status, %object
 4496              		.size	cruise_control_status, 1
 4497              	cruise_control_status:
 4498 0000 00       		.space	1
 4499              		.section	.bss.m_conf_original,"aw",%nobits
ARM GAS  C:\Users\euanm\AppData\Local\Temp\ccnlTGs7.s 			page 80


 4500              		.align	2
 4501              		.set	.LANCHOR12,. + 0
 4502              		.type	m_conf_original, %object
 4503              		.size	m_conf_original, 320
 4504              	m_conf_original:
 4505 0000 00000000 		.space	320
 4505      00000000 
 4505      00000000 
 4505      00000000 
 4505      00000000 
 4506              		.section	.bss.m_watt_seconds_charged,"aw",%nobits
 4507              		.align	2
 4508              		.set	.LANCHOR25,. + 0
 4509              		.type	m_watt_seconds_charged, %object
 4510              		.size	m_watt_seconds_charged, 4
 4511              	m_watt_seconds_charged:
 4512 0000 00000000 		.space	4
 4513              		.section	.bss.ADC_curr_norm_value,"aw",%nobits
 4514              		.align	2
 4515              		.set	.LANCHOR43,. + 0
 4516              		.type	ADC_curr_norm_value, %object
 4517              		.size	ADC_curr_norm_value, 12
 4518              	ADC_curr_norm_value:
 4519 0000 00000000 		.space	12
 4519      00000000 
 4519      00000000 
 4520              		.section	.bss.m_position_set,"aw",%nobits
 4521              		.align	2
 4522              		.set	.LANCHOR26,. + 0
 4523              		.type	m_position_set, %object
 4524              		.size	m_position_set, 4
 4525              	m_position_set:
 4526 0000 00000000 		.space	4
 4527              		.section	.bss.m_lock_override_once,"aw",%nobits
 4528              		.set	.LANCHOR17,. + 0
 4529              		.type	m_lock_override_once, %object
 4530              		.size	m_lock_override_once, 1
 4531              	m_lock_override_once:
 4532 0000 00       		.space	1
 4533              		.section	.bss.m_ph1_samples,"aw",%nobits
 4534              		.align	2
 4535              		.set	.LANCHOR4,. + 0
 4536              		.type	m_ph1_samples, %object
 4537              		.size	m_ph1_samples, 4000
 4538              	m_ph1_samples:
 4539 0000 00000000 		.space	4000
 4539      00000000 
 4539      00000000 
 4539      00000000 
 4539      00000000 
 4540              		.section	.bss.ADC_Value,"aw",%nobits
 4541              		.align	2
 4542              		.set	.LANCHOR38,. + 0
 4543              		.type	ADC_Value, %object
 4544              		.size	ADC_Value, 24
 4545              	ADC_Value:
 4546 0000 00000000 		.space	24
ARM GAS  C:\Users\euanm\AppData\Local\Temp\ccnlTGs7.s 			page 81


 4546      00000000 
 4546      00000000 
 4546      00000000 
 4546      00000000 
 4547              		.section	.bss.m_motor_current_iterations,"aw",%nobits
 4548              		.align	2
 4549              		.set	.LANCHOR20,. + 0
 4550              		.type	m_motor_current_iterations, %object
 4551              		.size	m_motor_current_iterations, 4
 4552              	m_motor_current_iterations:
 4553 0000 00000000 		.space	4
 4554              		.section	.bss.m_last_adc_duration_sample,"aw",%nobits
 4555              		.align	2
 4556              		.set	.LANCHOR27,. + 0
 4557              		.type	m_last_adc_duration_sample, %object
 4558              		.size	m_last_adc_duration_sample, 4
 4559              	m_last_adc_duration_sample:
 4560 0000 00000000 		.space	4
 4561              		.section	.bss.m_amp_seconds_charged,"aw",%nobits
 4562              		.align	2
 4563              		.set	.LANCHOR23,. + 0
 4564              		.type	m_amp_seconds_charged, %object
 4565              		.size	m_amp_seconds_charged, 4
 4566              	m_amp_seconds_charged:
 4567 0000 00000000 		.space	4
 4568              		.section	.bss.pwn_done_func,"aw",%nobits
 4569              		.align	2
 4570              		.set	.LANCHOR36,. + 0
 4571              		.type	pwn_done_func, %object
 4572              		.size	pwn_done_func, 4
 4573              	pwn_done_func:
 4574 0000 00000000 		.space	4
 4575              		.section	.bss.m_input_current_sum,"aw",%nobits
 4576              		.align	2
 4577              		.set	.LANCHOR19,. + 0
 4578              		.type	m_input_current_sum, %object
 4579              		.size	m_input_current_sum, 4
 4580              	m_input_current_sum:
 4581 0000 00000000 		.space	4
 4582              		.section	.bss.m_vzero_samples,"aw",%nobits
 4583              		.align	2
 4584              		.set	.LANCHOR7,. + 0
 4585              		.type	m_vzero_samples, %object
 4586              		.size	m_vzero_samples, 4000
 4587              	m_vzero_samples:
 4588 0000 00000000 		.space	4000
 4588      00000000 
 4588      00000000 
 4588      00000000 
 4588      00000000 
 4589              		.section	.bss.m_sample_len,"aw",%nobits
 4590              		.align	2
 4591              		.set	.LANCHOR1,. + 0
 4592              		.type	m_sample_len, %object
 4593              		.size	m_sample_len, 4
 4594              	m_sample_len:
 4595 0000 00000000 		.space	4
ARM GAS  C:\Users\euanm\AppData\Local\Temp\ccnlTGs7.s 			page 82


 4596              		.section	.bss.m_conf,"aw",%nobits
 4597              		.align	2
 4598              		.set	.LANCHOR11,. + 0
 4599              		.type	m_conf, %object
 4600              		.size	m_conf, 320
 4601              	m_conf:
 4602 0000 00000000 		.space	320
 4602      00000000 
 4602      00000000 
 4602      00000000 
 4602      00000000 
 4603              		.section	.bss.m_fault_now,"aw",%nobits
 4604              		.set	.LANCHOR13,. + 0
 4605              		.type	m_fault_now, %object
 4606              		.size	m_fault_now, 1
 4607              	m_fault_now:
 4608 0000 00       		.space	1
 4609              		.section	.bss.m_curr0_samples,"aw",%nobits
 4610              		.align	2
 4611              		.set	.LANCHOR2,. + 0
 4612              		.type	m_curr0_samples, %object
 4613              		.size	m_curr0_samples, 4000
 4614              	m_curr0_samples:
 4615 0000 00000000 		.space	4000
 4615      00000000 
 4615      00000000 
 4615      00000000 
 4615      00000000 
 4616              		.section	.bss.sample_send_tp,"aw",%nobits
 4617              		.align	2
 4618              		.set	.LANCHOR0,. + 0
 4619              		.type	sample_send_tp, %object
 4620              		.size	sample_send_tp, 4
 4621              	sample_send_tp:
 4622 0000 00000000 		.space	4
 4623              		.section	.rodata.str1.4,"aMS",%progbits,1
 4624              		.align	2
 4625              	.LC0:
 4626 0000 53616D70 		.ascii	"SampleSender\000"
 4626      6C655365 
 4626      6E646572 
 4626      00
 4627 000d 000000   		.space	3
 4628              	.LC1:
 4629 0010 4641554C 		.ascii	"FAULT_UNKNOWN\000"
 4629      545F554E 
 4629      4B4E4F57 
 4629      4E00
 4630 001e 0000     		.space	2
 4631              	.LC2:
 4632 0020 6D636966 		.ascii	"mcif timer\000"
 4632      2074696D 
 4632      657200
 4633 002b 00       		.space	1
 4634              	.LC3:
 4635 002c 4641554C 		.ascii	"FAULT_CODE_NONE\000"
 4635      545F434F 
ARM GAS  C:\Users\euanm\AppData\Local\Temp\ccnlTGs7.s 			page 83


 4635      44455F4E 
 4635      4F4E4500 
 4636              	.LC4:
 4637 003c 4641554C 		.ascii	"FAULT_CODE_OVER_VOLTAGE\000"
 4637      545F434F 
 4637      44455F4F 
 4637      5645525F 
 4637      564F4C54 
 4638              	.LC5:
 4639 0054 4641554C 		.ascii	"FAULT_CODE_UNDER_VOLTAGE\000"
 4639      545F434F 
 4639      44455F55 
 4639      4E444552 
 4639      5F564F4C 
 4640 006d 000000   		.space	3
 4641              	.LC6:
 4642 0070 4641554C 		.ascii	"FAULT_CODE_DRV8302\000"
 4642      545F434F 
 4642      44455F44 
 4642      52563833 
 4642      303200
 4643 0083 00       		.space	1
 4644              	.LC7:
 4645 0084 4641554C 		.ascii	"FAULT_CODE_ABS_OVER_CURRENT\000"
 4645      545F434F 
 4645      44455F41 
 4645      42535F4F 
 4645      5645525F 
 4646              	.LC8:
 4647 00a0 4641554C 		.ascii	"FAULT_CODE_OVER_TEMP_FET\000"
 4647      545F434F 
 4647      44455F4F 
 4647      5645525F 
 4647      54454D50 
 4648 00b9 000000   		.space	3
 4649              	.LC9:
 4650 00bc 4641554C 		.ascii	"FAULT_CODE_OVER_TEMP_MOTOR\000"
 4650      545F434F 
 4650      44455F4F 
 4650      5645525F 
 4650      54454D50 
 4651              		.section	.bss.m_cycles_running,"aw",%nobits
 4652              		.align	2
 4653              		.set	.LANCHOR15,. + 0
 4654              		.type	m_cycles_running, %object
 4655              		.size	m_cycles_running, 4
 4656              	m_cycles_running:
 4657 0000 00000000 		.space	4
 4658              		.section	.bss.m_sample_ready,"aw",%nobits
 4659              		.align	2
 4660              		.set	.LANCHOR30,. + 0
 4661              		.type	m_sample_ready, %object
 4662              		.size	m_sample_ready, 4
 4663              	m_sample_ready:
 4664 0000 00000000 		.space	4
 4665              		.section	.bss.m_ph2_samples,"aw",%nobits
 4666              		.align	2
ARM GAS  C:\Users\euanm\AppData\Local\Temp\ccnlTGs7.s 			page 84


 4667              		.set	.LANCHOR5,. + 0
 4668              		.type	m_ph2_samples, %object
 4669              		.size	m_ph2_samples, 4000
 4670              	m_ph2_samples:
 4671 0000 00000000 		.space	4000
 4671      00000000 
 4671      00000000 
 4671      00000000 
 4671      00000000 
 4672              		.section	.bss.m_motor_current_sum,"aw",%nobits
 4673              		.align	2
 4674              		.set	.LANCHOR18,. + 0
 4675              		.type	m_motor_current_sum, %object
 4676              		.size	m_motor_current_sum, 4
 4677              	m_motor_current_sum:
 4678 0000 00000000 		.space	4
 4679              		.section	.bss.m_input_current_iterations,"aw",%nobits
 4680              		.align	2
 4681              		.set	.LANCHOR21,. + 0
 4682              		.type	m_input_current_iterations, %object
 4683              		.size	m_input_current_iterations, 4
 4684              	m_input_current_iterations:
 4685 0000 00000000 		.space	4
 4686              		.section	.bss.m_amp_seconds,"aw",%nobits
 4687              		.align	2
 4688              		.set	.LANCHOR22,. + 0
 4689              		.type	m_amp_seconds, %object
 4690              		.size	m_amp_seconds, 4
 4691              	m_amp_seconds:
 4692 0000 00000000 		.space	4
 4693              		.section	.bss.sample_send_thread_wa,"aw",%nobits
 4694              		.align	3
 4695              		.set	.LANCHOR35,. + 0
 4696              		.type	sample_send_thread_wa, %object
 4697              		.size	sample_send_thread_wa, 1432
 4698              	sample_send_thread_wa:
 4699 0000 00000000 		.space	1432
 4699      00000000 
 4699      00000000 
 4699      00000000 
 4699      00000000 
 4700              		.section	.bss.m_curr_fir_samples,"aw",%nobits
 4701              		.align	2
 4702              		.set	.LANCHOR9,. + 0
 4703              		.type	m_curr_fir_samples, %object
 4704              		.size	m_curr_fir_samples, 4000
 4705              	m_curr_fir_samples:
 4706 0000 00000000 		.space	4000
 4706      00000000 
 4706      00000000 
 4706      00000000 
 4706      00000000 
 4707              		.section	.bss.m_sample_now,"aw",%nobits
 4708              		.align	2
 4709              		.set	.LANCHOR31,. + 0
 4710              		.type	m_sample_now, %object
 4711              		.size	m_sample_now, 4
ARM GAS  C:\Users\euanm\AppData\Local\Temp\ccnlTGs7.s 			page 85


 4712              	m_sample_now:
 4713 0000 00000000 		.space	4
 4714              		.section	.bss.curr_diff_samples.10702,"aw",%nobits
 4715              		.align	2
 4716              		.set	.LANCHOR41,. + 0
 4717              		.type	curr_diff_samples.10702, %object
 4718              		.size	curr_diff_samples.10702, 4
 4719              	curr_diff_samples.10702:
 4720 0000 00000000 		.space	4
 4721              		.section	.bss.m_status_samples,"aw",%nobits
 4722              		.align	2
 4723              		.set	.LANCHOR8,. + 0
 4724              		.type	m_status_samples, %object
 4725              		.size	m_status_samples, 2000
 4726              	m_status_samples:
 4727 0000 00000000 		.space	2000
 4727      00000000 
 4727      00000000 
 4727      00000000 
 4727      00000000 
 4728              		.section	.bss.m_lock_enabled,"aw",%nobits
 4729              		.set	.LANCHOR16,. + 0
 4730              		.type	m_lock_enabled, %object
 4731              		.size	m_lock_enabled, 1
 4732              	m_lock_enabled:
 4733 0000 00       		.space	1
 4734              		.section	.bss.m_start_comm,"aw",%nobits
 4735              		.align	2
 4736              		.set	.LANCHOR33,. + 0
 4737              		.type	m_start_comm, %object
 4738              		.size	m_start_comm, 4
 4739              	m_start_comm:
 4740 0000 00000000 		.space	4
 4741              		.section	.bss.m_watt_seconds,"aw",%nobits
 4742              		.align	2
 4743              		.set	.LANCHOR24,. + 0
 4744              		.type	m_watt_seconds, %object
 4745              		.size	m_watt_seconds, 4
 4746              	m_watt_seconds:
 4747 0000 00000000 		.space	4
 4748              		.section	.bss.m_curr1_samples,"aw",%nobits
 4749              		.align	2
 4750              		.set	.LANCHOR3,. + 0
 4751              		.type	m_curr1_samples, %object
 4752              		.size	m_curr1_samples, 4000
 4753              	m_curr1_samples:
 4754 0000 00000000 		.space	4000
 4754      00000000 
 4754      00000000 
 4754      00000000 
 4754      00000000 
 4755              		.section	.bss.m_sample_at_start,"aw",%nobits
 4756              		.align	2
 4757              		.set	.LANCHOR32,. + 0
 4758              		.type	m_sample_at_start, %object
 4759              		.size	m_sample_at_start, 4
 4760              	m_sample_at_start:
ARM GAS  C:\Users\euanm\AppData\Local\Temp\ccnlTGs7.s 			page 86


 4761 0000 00000000 		.space	4
 4762              		.section	.bss.wrong_voltage_iterations.10695,"aw",%nobits
 4763              		.align	2
 4764              		.set	.LANCHOR39,. + 0
 4765              		.type	wrong_voltage_iterations.10695, %object
 4766              		.size	wrong_voltage_iterations.10695, 4
 4767              	wrong_voltage_iterations.10695:
 4768 0000 00000000 		.space	4
 4769              		.section	.rodata.CSWTCH.124,"a",%progbits
 4770              		.align	2
 4771              		.set	.LANCHOR37,. + 0
 4772              		.type	CSWTCH.124, %object
 4773              		.size	CSWTCH.124, 28
 4774              	CSWTCH.124:
 4775 0000 2C000000 		.word	.LC3
 4776 0004 3C000000 		.word	.LC4
 4777 0008 54000000 		.word	.LC5
 4778 000c 70000000 		.word	.LC6
 4779 0010 84000000 		.word	.LC7
 4780 0014 A0000000 		.word	.LC8
 4781 0018 BC000000 		.word	.LC9
 4782              		.section	.bss.curr_diff_sum.10701,"aw",%nobits
 4783              		.align	2
 4784              		.set	.LANCHOR40,. + 0
 4785              		.type	curr_diff_sum.10701, %object
 4786              		.size	curr_diff_sum.10701, 4
 4787              	curr_diff_sum.10701:
 4788 0000 00000000 		.space	4
 4789              		.section	.bss.timer_thread_wa,"aw",%nobits
 4790              		.align	3
 4791              		.set	.LANCHOR34,. + 0
 4792              		.type	timer_thread_wa, %object
 4793              		.size	timer_thread_wa, 1432
 4794              	timer_thread_wa:
 4795 0000 00000000 		.space	1432
 4795      00000000 
 4795      00000000 
 4795      00000000 
 4795      00000000 
 4796              		.section	.bss.m_ph3_samples,"aw",%nobits
 4797              		.align	2
 4798              		.set	.LANCHOR6,. + 0
 4799              		.type	m_ph3_samples, %object
 4800              		.size	m_ph3_samples, 4000
 4801              	m_ph3_samples:
 4802 0000 00000000 		.space	4000
 4802      00000000 
 4802      00000000 
 4802      00000000 
 4802      00000000 
 4803              		.text
 4804              	.Letext0:
 4805              		.file 4 "c:\\program files (x86)\\gnu tools arm embedded\\5.4 2016q3\\arm-none-eabi\\include\\mach
 4806              		.file 5 "c:\\program files (x86)\\gnu tools arm embedded\\5.4 2016q3\\arm-none-eabi\\include\\sys\
 4807              		.file 6 "c:\\program files (x86)\\gnu tools arm embedded\\5.4 2016q3\\lib\\gcc\\arm-none-eabi\\5.4
 4808              		.file 7 "ChibiOS_3.0.2/os/rt/ports/ARMCMx/compilers/GCC/chtypes.h"
 4809              		.file 8 "ChibiOS_3.0.2/os/rt/include/chsystypes.h"
ARM GAS  C:\Users\euanm\AppData\Local\Temp\ccnlTGs7.s 			page 87


 4810              		.file 9 "ChibiOS_3.0.2/os/rt/include/chschd.h"
 4811              		.file 10 "ChibiOS_3.0.2/os/ext/CMSIS/ST/stm32f407xx.h"
 4812              		.file 11 "ChibiOS_3.0.2/os/rt/ports/ARMCMx/chcore.h"
 4813              		.file 12 "ChibiOS_3.0.2/os/rt/ports/ARMCMx/chcore_v7m.h"
 4814              		.file 13 "ChibiOS_3.0.2/os/rt/include/chtm.h"
 4815              		.file 14 "ChibiOS_3.0.2/os/rt/include/chsem.h"
 4816              		.file 15 "ChibiOS_3.0.2/os/rt/include/chmtx.h"
 4817              		.file 16 "datatypes.h"
 4818              		.file 17 "ChibiOS_3.0.2/os/hal/ports/STM32/LLD/GPIOv2/pal_lld.h"
 4819              		.file 18 "ChibiOS_3.0.2/os/rt/include/chsys.h"
 4820              		.file 19 "ChibiOS_3.0.2/os/ext/CMSIS/include/core_cm4.h"
 4821              		.file 20 "mcpwm.h"
 4822              		.file 21 "commands.h"
 4823              		.file 22 "ChibiOS_3.0.2/os/rt/include/chevents.h"
 4824              		.file 23 "mcpwm_foc.h"
 4825              		.file 24 "ChibiOS_3.0.2/os/rt/include/chthreads.h"
 4826              		.file 25 "encoder.h"
 4827              		.file 26 "utils.h"
 4828              		.file 27 "c:\\program files (x86)\\gnu tools arm embedded\\5.4 2016q3\\arm-none-eabi\\include\\mat
 4829              		.file 28 "terminal.h"
 4830              		.file 29 "ledpwm.h"
 4831              		.section	.debug_info,"",%progbits
 4832              	.Ldebug_info0:
 4833 0000 D42B0000 		.4byte	0x2bd4
 4834 0004 0400     		.2byte	0x4
 4835 0006 00000000 		.4byte	.Ldebug_abbrev0
 4836 000a 04       		.byte	0x4
 4837 000b 01       		.uleb128 0x1
 4838 000c 01190000 		.4byte	.LASF490
 4839 0010 0C       		.byte	0xc
 4840 0011 8D090000 		.4byte	.LASF491
 4841 0015 EA030000 		.4byte	.LASF492
 4842 0019 C0000000 		.4byte	.Ldebug_ranges0+0xc0
 4843 001d 00000000 		.4byte	0
 4844 0021 00000000 		.4byte	.Ldebug_line0
 4845 0025 02       		.uleb128 0x2
 4846 0026 04       		.byte	0x4
 4847 0027 04       		.byte	0x4
 4848 0028 9B060000 		.4byte	.LASF0
 4849 002c 03       		.uleb128 0x3
 4850 002d FA1F0000 		.4byte	.LASF2
 4851 0031 04       		.byte	0x4
 4852 0032 1B       		.byte	0x1b
 4853 0033 37000000 		.4byte	0x37
 4854 0037 02       		.uleb128 0x2
 4855 0038 01       		.byte	0x1
 4856 0039 06       		.byte	0x6
 4857 003a D3100000 		.4byte	.LASF1
 4858 003e 03       		.uleb128 0x3
 4859 003f 79000000 		.4byte	.LASF3
 4860 0043 04       		.byte	0x4
 4861 0044 1D       		.byte	0x1d
 4862 0045 49000000 		.4byte	0x49
 4863 0049 02       		.uleb128 0x2
 4864 004a 01       		.byte	0x1
 4865 004b 08       		.byte	0x8
 4866 004c 4F060000 		.4byte	.LASF4
ARM GAS  C:\Users\euanm\AppData\Local\Temp\ccnlTGs7.s 			page 88


 4867 0050 03       		.uleb128 0x3
 4868 0051 2B050000 		.4byte	.LASF5
 4869 0055 04       		.byte	0x4
 4870 0056 29       		.byte	0x29
 4871 0057 5B000000 		.4byte	0x5b
 4872 005b 02       		.uleb128 0x2
 4873 005c 02       		.byte	0x2
 4874 005d 05       		.byte	0x5
 4875 005e F8200000 		.4byte	.LASF6
 4876 0062 03       		.uleb128 0x3
 4877 0063 35050000 		.4byte	.LASF7
 4878 0067 04       		.byte	0x4
 4879 0068 2B       		.byte	0x2b
 4880 0069 6D000000 		.4byte	0x6d
 4881 006d 02       		.uleb128 0x2
 4882 006e 02       		.byte	0x2
 4883 006f 07       		.byte	0x7
 4884 0070 BB100000 		.4byte	.LASF8
 4885 0074 03       		.uleb128 0x3
 4886 0075 481A0000 		.4byte	.LASF9
 4887 0079 04       		.byte	0x4
 4888 007a 3F       		.byte	0x3f
 4889 007b 7F000000 		.4byte	0x7f
 4890 007f 02       		.uleb128 0x2
 4891 0080 04       		.byte	0x4
 4892 0081 05       		.byte	0x5
 4893 0082 F1120000 		.4byte	.LASF10
 4894 0086 03       		.uleb128 0x3
 4895 0087 521A0000 		.4byte	.LASF11
 4896 008b 04       		.byte	0x4
 4897 008c 41       		.byte	0x41
 4898 008d 91000000 		.4byte	0x91
 4899 0091 02       		.uleb128 0x2
 4900 0092 04       		.byte	0x4
 4901 0093 07       		.byte	0x7
 4902 0094 9A140000 		.4byte	.LASF12
 4903 0098 02       		.uleb128 0x2
 4904 0099 08       		.byte	0x8
 4905 009a 05       		.byte	0x5
 4906 009b A01E0000 		.4byte	.LASF13
 4907 009f 03       		.uleb128 0x3
 4908 00a0 630C0000 		.4byte	.LASF14
 4909 00a4 04       		.byte	0x4
 4910 00a5 5B       		.byte	0x5b
 4911 00a6 AA000000 		.4byte	0xaa
 4912 00aa 02       		.uleb128 0x2
 4913 00ab 08       		.byte	0x8
 4914 00ac 07       		.byte	0x7
 4915 00ad A71B0000 		.4byte	.LASF15
 4916 00b1 04       		.uleb128 0x4
 4917 00b2 04       		.byte	0x4
 4918 00b3 05       		.byte	0x5
 4919 00b4 696E7400 		.ascii	"int\000"
 4920 00b8 02       		.uleb128 0x2
 4921 00b9 04       		.byte	0x4
 4922 00ba 07       		.byte	0x7
 4923 00bb AC200000 		.4byte	.LASF16
ARM GAS  C:\Users\euanm\AppData\Local\Temp\ccnlTGs7.s 			page 89


 4924 00bf 03       		.uleb128 0x3
 4925 00c0 920F0000 		.4byte	.LASF17
 4926 00c4 05       		.byte	0x5
 4927 00c5 14       		.byte	0x14
 4928 00c6 2C000000 		.4byte	0x2c
 4929 00ca 03       		.uleb128 0x3
 4930 00cb 080A0000 		.4byte	.LASF18
 4931 00cf 05       		.byte	0x5
 4932 00d0 18       		.byte	0x18
 4933 00d1 3E000000 		.4byte	0x3e
 4934 00d5 03       		.uleb128 0x3
 4935 00d6 B3100000 		.4byte	.LASF19
 4936 00da 05       		.byte	0x5
 4937 00db 20       		.byte	0x20
 4938 00dc 50000000 		.4byte	0x50
 4939 00e0 03       		.uleb128 0x3
 4940 00e1 0A010000 		.4byte	.LASF20
 4941 00e5 05       		.byte	0x5
 4942 00e6 24       		.byte	0x24
 4943 00e7 62000000 		.4byte	0x62
 4944 00eb 03       		.uleb128 0x3
 4945 00ec F6020000 		.4byte	.LASF21
 4946 00f0 05       		.byte	0x5
 4947 00f1 2C       		.byte	0x2c
 4948 00f2 74000000 		.4byte	0x74
 4949 00f6 03       		.uleb128 0x3
 4950 00f7 E6130000 		.4byte	.LASF22
 4951 00fb 05       		.byte	0x5
 4952 00fc 30       		.byte	0x30
 4953 00fd 86000000 		.4byte	0x86
 4954 0101 03       		.uleb128 0x3
 4955 0102 CA070000 		.4byte	.LASF23
 4956 0106 05       		.byte	0x5
 4957 0107 3C       		.byte	0x3c
 4958 0108 9F000000 		.4byte	0x9f
 4959 010c 03       		.uleb128 0x3
 4960 010d B6090000 		.4byte	.LASF24
 4961 0111 06       		.byte	0x6
 4962 0112 D8       		.byte	0xd8
 4963 0113 B8000000 		.4byte	0xb8
 4964 0117 05       		.uleb128 0x5
 4965 0118 CA000000 		.4byte	0xca
 4966 011c 05       		.uleb128 0x5
 4967 011d D5000000 		.4byte	0xd5
 4968 0121 05       		.uleb128 0x5
 4969 0122 E0000000 		.4byte	0xe0
 4970 0126 05       		.uleb128 0x5
 4971 0127 EB000000 		.4byte	0xeb
 4972 012b 05       		.uleb128 0x5
 4973 012c F6000000 		.4byte	0xf6
 4974 0130 03       		.uleb128 0x3
 4975 0131 2A090000 		.4byte	.LASF25
 4976 0135 07       		.byte	0x7
 4977 0136 45       		.byte	0x45
 4978 0137 F6000000 		.4byte	0xf6
 4979 013b 03       		.uleb128 0x3
 4980 013c 0B0E0000 		.4byte	.LASF26
ARM GAS  C:\Users\euanm\AppData\Local\Temp\ccnlTGs7.s 			page 90


 4981 0140 07       		.byte	0x7
 4982 0141 48       		.byte	0x48
 4983 0142 CA000000 		.4byte	0xca
 4984 0146 03       		.uleb128 0x3
 4985 0147 101D0000 		.4byte	.LASF27
 4986 014b 07       		.byte	0x7
 4987 014c 49       		.byte	0x49
 4988 014d CA000000 		.4byte	0xca
 4989 0151 03       		.uleb128 0x3
 4990 0152 5E0D0000 		.4byte	.LASF28
 4991 0156 07       		.byte	0x7
 4992 0157 4A       		.byte	0x4a
 4993 0158 CA000000 		.4byte	0xca
 4994 015c 03       		.uleb128 0x3
 4995 015d E20F0000 		.4byte	.LASF29
 4996 0161 07       		.byte	0x7
 4997 0162 4B       		.byte	0x4b
 4998 0163 CA000000 		.4byte	0xca
 4999 0167 03       		.uleb128 0x3
 5000 0168 7B040000 		.4byte	.LASF30
 5001 016c 07       		.byte	0x7
 5002 016d 4C       		.byte	0x4c
 5003 016e F6000000 		.4byte	0xf6
 5004 0172 03       		.uleb128 0x3
 5005 0173 67000000 		.4byte	.LASF31
 5006 0177 07       		.byte	0x7
 5007 0178 4D       		.byte	0x4d
 5008 0179 EB000000 		.4byte	0xeb
 5009 017d 03       		.uleb128 0x3
 5010 017e 6C140000 		.4byte	.LASF32
 5011 0182 07       		.byte	0x7
 5012 0183 4F       		.byte	0x4f
 5013 0184 F6000000 		.4byte	0xf6
 5014 0188 03       		.uleb128 0x3
 5015 0189 4C170000 		.4byte	.LASF33
 5016 018d 07       		.byte	0x7
 5017 018e 51       		.byte	0x51
 5018 018f EB000000 		.4byte	0xeb
 5019 0193 03       		.uleb128 0x3
 5020 0194 FE020000 		.4byte	.LASF34
 5021 0198 08       		.byte	0x8
 5022 0199 33       		.byte	0x33
 5023 019a F6000000 		.4byte	0xf6
 5024 019e 03       		.uleb128 0x3
 5025 019f D6020000 		.4byte	.LASF35
 5026 01a3 08       		.byte	0x8
 5027 01a4 3F       		.byte	0x3f
 5028 01a5 A9010000 		.4byte	0x1a9
 5029 01a9 06       		.uleb128 0x6
 5030 01aa 91060000 		.4byte	.LASF57
 5031 01ae 48       		.byte	0x48
 5032 01af 09       		.byte	0x9
 5033 01b0 C2       		.byte	0xc2
 5034 01b1 AE020000 		.4byte	0x2ae
 5035 01b5 07       		.uleb128 0x7
 5036 01b6 3B0D0000 		.4byte	.LASF36
 5037 01ba 09       		.byte	0x9
ARM GAS  C:\Users\euanm\AppData\Local\Temp\ccnlTGs7.s 			page 91


 5038 01bb C3       		.byte	0xc3
 5039 01bc B9020000 		.4byte	0x2b9
 5040 01c0 00       		.byte	0
 5041 01c1 07       		.uleb128 0x7
 5042 01c2 350A0000 		.4byte	.LASF37
 5043 01c6 09       		.byte	0x9
 5044 01c7 C5       		.byte	0xc5
 5045 01c8 B9020000 		.4byte	0x2b9
 5046 01cc 04       		.byte	0x4
 5047 01cd 07       		.uleb128 0x7
 5048 01ce 450C0000 		.4byte	.LASF38
 5049 01d2 09       		.byte	0x9
 5050 01d3 C7       		.byte	0xc7
 5051 01d4 67010000 		.4byte	0x167
 5052 01d8 08       		.byte	0x8
 5053 01d9 07       		.uleb128 0x7
 5054 01da 15070000 		.4byte	.LASF39
 5055 01de 09       		.byte	0x9
 5056 01df C8       		.byte	0xc8
 5057 01e0 0E060000 		.4byte	0x60e
 5058 01e4 0C       		.byte	0xc
 5059 01e5 07       		.uleb128 0x7
 5060 01e6 C5010000 		.4byte	.LASF40
 5061 01ea 09       		.byte	0x9
 5062 01eb CA       		.byte	0xca
 5063 01ec B9020000 		.4byte	0x2b9
 5064 01f0 10       		.byte	0x10
 5065 01f1 07       		.uleb128 0x7
 5066 01f2 711F0000 		.4byte	.LASF41
 5067 01f6 09       		.byte	0x9
 5068 01f7 CB       		.byte	0xcb
 5069 01f8 B9020000 		.4byte	0x2b9
 5070 01fc 14       		.byte	0x14
 5071 01fd 07       		.uleb128 0x7
 5072 01fe 571D0000 		.4byte	.LASF42
 5073 0202 09       		.byte	0x9
 5074 0203 D2       		.byte	0xd2
 5075 0204 53080000 		.4byte	0x853
 5076 0208 18       		.byte	0x18
 5077 0209 07       		.uleb128 0x7
 5078 020a E4210000 		.4byte	.LASF43
 5079 020e 09       		.byte	0x9
 5080 020f DD       		.byte	0xdd
 5081 0210 46010000 		.4byte	0x146
 5082 0214 1C       		.byte	0x1c
 5083 0215 07       		.uleb128 0x7
 5084 0216 711C0000 		.4byte	.LASF44
 5085 021a 09       		.byte	0x9
 5086 021b E1       		.byte	0xe1
 5087 021c 3B010000 		.4byte	0x13b
 5088 0220 1D       		.byte	0x1d
 5089 0221 07       		.uleb128 0x7
 5090 0222 AF120000 		.4byte	.LASF45
 5091 0226 09       		.byte	0x9
 5092 0227 E6       		.byte	0xe6
 5093 0228 51010000 		.4byte	0x151
 5094 022c 1E       		.byte	0x1e
ARM GAS  C:\Users\euanm\AppData\Local\Temp\ccnlTGs7.s 			page 92


 5095 022d 07       		.uleb128 0x7
 5096 022e F5100000 		.4byte	.LASF46
 5097 0232 09       		.byte	0x9
 5098 0233 EC       		.byte	0xec
 5099 0234 5C010000 		.4byte	0x15c
 5100 0238 1F       		.byte	0x1f
 5101 0239 07       		.uleb128 0x7
 5102 023a 0A110000 		.4byte	.LASF47
 5103 023e 09       		.byte	0x9
 5104 023f F3       		.byte	0xf3
 5105 0240 65080000 		.4byte	0x865
 5106 0244 20       		.byte	0x20
 5107 0245 08       		.uleb128 0x8
 5108 0246 705F7500 		.ascii	"p_u\000"
 5109 024a 09       		.byte	0x9
 5110 024b 3101     		.2byte	0x131
 5111 024d 8E070000 		.4byte	0x78e
 5112 0251 24       		.byte	0x24
 5113 0252 09       		.uleb128 0x9
 5114 0253 A9030000 		.4byte	.LASF48
 5115 0257 09       		.byte	0x9
 5116 0258 3601     		.2byte	0x136
 5117 025a BF020000 		.4byte	0x2bf
 5118 025e 28       		.byte	0x28
 5119 025f 09       		.uleb128 0x9
 5120 0260 C1110000 		.4byte	.LASF49
 5121 0264 09       		.byte	0x9
 5122 0265 3C01     		.2byte	0x13c
 5123 0267 E3020000 		.4byte	0x2e3
 5124 026b 2C       		.byte	0x2c
 5125 026c 09       		.uleb128 0x9
 5126 026d 40050000 		.4byte	.LASF50
 5127 0271 09       		.byte	0x9
 5128 0272 4001     		.2byte	0x140
 5129 0274 72010000 		.4byte	0x172
 5130 0278 34       		.byte	0x34
 5131 0279 09       		.uleb128 0x9
 5132 027a EE1A0000 		.4byte	.LASF51
 5133 027e 09       		.byte	0x9
 5134 027f 4601     		.2byte	0x146
 5135 0281 7D010000 		.4byte	0x17d
 5136 0285 38       		.byte	0x38
 5137 0286 09       		.uleb128 0x9
 5138 0287 CC1C0000 		.4byte	.LASF52
 5139 028b 09       		.byte	0x9
 5140 028c 4D01     		.2byte	0x14d
 5141 028e 4D080000 		.4byte	0x84d
 5142 0292 3C       		.byte	0x3c
 5143 0293 09       		.uleb128 0x9
 5144 0294 5F180000 		.4byte	.LASF53
 5145 0298 09       		.byte	0x9
 5146 0299 5101     		.2byte	0x151
 5147 029b 67010000 		.4byte	0x167
 5148 029f 40       		.byte	0x40
 5149 02a0 09       		.uleb128 0x9
 5150 02a1 660D0000 		.4byte	.LASF54
 5151 02a5 09       		.byte	0x9
ARM GAS  C:\Users\euanm\AppData\Local\Temp\ccnlTGs7.s 			page 93


 5152 02a6 5801     		.2byte	0x158
 5153 02a8 96030000 		.4byte	0x396
 5154 02ac 44       		.byte	0x44
 5155 02ad 00       		.byte	0
 5156 02ae 03       		.uleb128 0x3
 5157 02af 9B1F0000 		.4byte	.LASF55
 5158 02b3 08       		.byte	0x8
 5159 02b4 44       		.byte	0x44
 5160 02b5 B9020000 		.4byte	0x2b9
 5161 02b9 0A       		.uleb128 0xa
 5162 02ba 04       		.byte	0x4
 5163 02bb 9E010000 		.4byte	0x19e
 5164 02bf 03       		.uleb128 0x3
 5165 02c0 BF030000 		.4byte	.LASF56
 5166 02c4 08       		.byte	0x8
 5167 02c5 49       		.byte	0x49
 5168 02c6 CA020000 		.4byte	0x2ca
 5169 02ca 06       		.uleb128 0x6
 5170 02cb FB210000 		.4byte	.LASF58
 5171 02cf 04       		.byte	0x4
 5172 02d0 09       		.byte	0x9
 5173 02d1 B0       		.byte	0xb0
 5174 02d2 E3020000 		.4byte	0x2e3
 5175 02d6 07       		.uleb128 0x7
 5176 02d7 3B0D0000 		.4byte	.LASF36
 5177 02db 09       		.byte	0x9
 5178 02dc B1       		.byte	0xb1
 5179 02dd B9020000 		.4byte	0x2b9
 5180 02e1 00       		.byte	0
 5181 02e2 00       		.byte	0
 5182 02e3 03       		.uleb128 0x3
 5183 02e4 64120000 		.4byte	.LASF59
 5184 02e8 08       		.byte	0x8
 5185 02e9 50       		.byte	0x50
 5186 02ea EE020000 		.4byte	0x2ee
 5187 02ee 06       		.uleb128 0x6
 5188 02ef 9D010000 		.4byte	.LASF60
 5189 02f3 08       		.byte	0x8
 5190 02f4 09       		.byte	0x9
 5191 02f5 B7       		.byte	0xb7
 5192 02f6 13030000 		.4byte	0x313
 5193 02fa 07       		.uleb128 0x7
 5194 02fb 3B0D0000 		.4byte	.LASF36
 5195 02ff 09       		.byte	0x9
 5196 0300 B8       		.byte	0xb8
 5197 0301 B9020000 		.4byte	0x2b9
 5198 0305 00       		.byte	0
 5199 0306 07       		.uleb128 0x7
 5200 0307 350A0000 		.4byte	.LASF37
 5201 030b 09       		.byte	0x9
 5202 030c B9       		.byte	0xb9
 5203 030d B9020000 		.4byte	0x2b9
 5204 0311 04       		.byte	0x4
 5205 0312 00       		.byte	0
 5206 0313 03       		.uleb128 0x3
 5207 0314 84060000 		.4byte	.LASF61
 5208 0318 08       		.byte	0x8
ARM GAS  C:\Users\euanm\AppData\Local\Temp\ccnlTGs7.s 			page 94


 5209 0319 57       		.byte	0x57
 5210 031a 1E030000 		.4byte	0x31e
 5211 031e 0B       		.uleb128 0xb
 5212 031f F3180000 		.4byte	.LASF62
 5213 0323 1C       		.byte	0x1c
 5214 0324 09       		.byte	0x9
 5215 0325 9001     		.2byte	0x190
 5216 0327 7A030000 		.4byte	0x37a
 5217 032b 09       		.uleb128 0x9
 5218 032c 52150000 		.4byte	.LASF63
 5219 0330 09       		.byte	0x9
 5220 0331 9101     		.2byte	0x191
 5221 0333 E3020000 		.4byte	0x2e3
 5222 0337 00       		.byte	0
 5223 0338 09       		.uleb128 0x9
 5224 0339 5B1B0000 		.4byte	.LASF64
 5225 033d 09       		.byte	0x9
 5226 033e 9201     		.2byte	0x192
 5227 0340 67010000 		.4byte	0x167
 5228 0344 08       		.byte	0x8
 5229 0345 09       		.uleb128 0x9
 5230 0346 DE080000 		.4byte	.LASF65
 5231 034a 09       		.byte	0x9
 5232 034b 9401     		.2byte	0x194
 5233 034d 0E060000 		.4byte	0x60e
 5234 0351 0C       		.byte	0xc
 5235 0352 09       		.uleb128 0x9
 5236 0353 B90F0000 		.4byte	.LASF66
 5237 0357 09       		.byte	0x9
 5238 0358 9701     		.2byte	0x197
 5239 035a B9020000 		.4byte	0x2b9
 5240 035e 10       		.byte	0x10
 5241 035f 09       		.uleb128 0x9
 5242 0360 2D0A0000 		.4byte	.LASF67
 5243 0364 09       		.byte	0x9
 5244 0365 9801     		.2byte	0x198
 5245 0367 B9020000 		.4byte	0x2b9
 5246 036b 14       		.byte	0x14
 5247 036c 09       		.uleb128 0x9
 5248 036d 40070000 		.4byte	.LASF68
 5249 0371 09       		.byte	0x9
 5250 0372 9B01     		.2byte	0x19b
 5251 0374 B9020000 		.4byte	0x2b9
 5252 0378 18       		.byte	0x18
 5253 0379 00       		.byte	0
 5254 037a 03       		.uleb128 0x3
 5255 037b 4F180000 		.4byte	.LASF69
 5256 037f 08       		.byte	0x8
 5257 0380 5C       		.byte	0x5c
 5258 0381 85030000 		.4byte	0x385
 5259 0385 0A       		.uleb128 0xa
 5260 0386 04       		.byte	0x4
 5261 0387 8B030000 		.4byte	0x38b
 5262 038b 0C       		.uleb128 0xc
 5263 038c 96030000 		.4byte	0x396
 5264 0390 0D       		.uleb128 0xd
 5265 0391 96030000 		.4byte	0x396
ARM GAS  C:\Users\euanm\AppData\Local\Temp\ccnlTGs7.s 			page 95


 5266 0395 00       		.byte	0
 5267 0396 0E       		.uleb128 0xe
 5268 0397 04       		.byte	0x4
 5269 0398 03       		.uleb128 0x3
 5270 0399 CE080000 		.4byte	.LASF70
 5271 039d 08       		.byte	0x8
 5272 039e 61       		.byte	0x61
 5273 039f A3030000 		.4byte	0x3a3
 5274 03a3 0B       		.uleb128 0xb
 5275 03a4 601C0000 		.4byte	.LASF71
 5276 03a8 14       		.byte	0x14
 5277 03a9 09       		.byte	0x9
 5278 03aa 6B01     		.2byte	0x16b
 5279 03ac F2030000 		.4byte	0x3f2
 5280 03b0 09       		.uleb128 0x9
 5281 03b1 E4080000 		.4byte	.LASF72
 5282 03b5 09       		.byte	0x9
 5283 03b6 6C01     		.2byte	0x16c
 5284 03b8 6A080000 		.4byte	0x86a
 5285 03bc 00       		.byte	0
 5286 03bd 09       		.uleb128 0x9
 5287 03be 35060000 		.4byte	.LASF73
 5288 03c2 09       		.byte	0x9
 5289 03c3 6D01     		.2byte	0x16d
 5290 03c5 6A080000 		.4byte	0x86a
 5291 03c9 04       		.byte	0x4
 5292 03ca 09       		.uleb128 0x9
 5293 03cb 57100000 		.4byte	.LASF74
 5294 03cf 09       		.byte	0x9
 5295 03d0 6E01     		.2byte	0x16e
 5296 03d2 93010000 		.4byte	0x193
 5297 03d6 08       		.byte	0x8
 5298 03d7 09       		.uleb128 0x9
 5299 03d8 111C0000 		.4byte	.LASF75
 5300 03dc 09       		.byte	0x9
 5301 03dd 6F01     		.2byte	0x16f
 5302 03df 7A030000 		.4byte	0x37a
 5303 03e3 0C       		.byte	0xc
 5304 03e4 09       		.uleb128 0x9
 5305 03e5 1B070000 		.4byte	.LASF76
 5306 03e9 09       		.byte	0x9
 5307 03ea 7101     		.2byte	0x171
 5308 03ec 96030000 		.4byte	0x396
 5309 03f0 10       		.byte	0x10
 5310 03f1 00       		.byte	0
 5311 03f2 03       		.uleb128 0x3
 5312 03f3 A71D0000 		.4byte	.LASF77
 5313 03f7 08       		.byte	0x8
 5314 03f8 66       		.byte	0x66
 5315 03f9 FD030000 		.4byte	0x3fd
 5316 03fd 0B       		.uleb128 0xb
 5317 03fe DF020000 		.4byte	.LASF78
 5318 0402 10       		.byte	0x10
 5319 0403 09       		.byte	0x9
 5320 0404 7B01     		.2byte	0x17b
 5321 0406 3F040000 		.4byte	0x43f
 5322 040a 09       		.uleb128 0x9
ARM GAS  C:\Users\euanm\AppData\Local\Temp\ccnlTGs7.s 			page 96


 5323 040b E4080000 		.4byte	.LASF72
 5324 040f 09       		.byte	0x9
 5325 0410 7C01     		.2byte	0x17c
 5326 0412 6A080000 		.4byte	0x86a
 5327 0416 00       		.byte	0
 5328 0417 09       		.uleb128 0x9
 5329 0418 35060000 		.4byte	.LASF73
 5330 041c 09       		.byte	0x9
 5331 041d 7E01     		.2byte	0x17e
 5332 041f 6A080000 		.4byte	0x86a
 5333 0423 04       		.byte	0x4
 5334 0424 09       		.uleb128 0x9
 5335 0425 57100000 		.4byte	.LASF74
 5336 0429 09       		.byte	0x9
 5337 042a 8001     		.2byte	0x180
 5338 042c 93010000 		.4byte	0x193
 5339 0430 08       		.byte	0x8
 5340 0431 09       		.uleb128 0x9
 5341 0432 CF000000 		.4byte	.LASF79
 5342 0436 09       		.byte	0x9
 5343 0437 8201     		.2byte	0x182
 5344 0439 65080000 		.4byte	0x865
 5345 043d 0C       		.byte	0xc
 5346 043e 00       		.byte	0
 5347 043f 03       		.uleb128 0x3
 5348 0440 F0060000 		.4byte	.LASF80
 5349 0444 08       		.byte	0x8
 5350 0445 6B       		.byte	0x6b
 5351 0446 4A040000 		.4byte	0x44a
 5352 044a 0B       		.uleb128 0xb
 5353 044b 5D1A0000 		.4byte	.LASF81
 5354 044f 04       		.byte	0x4
 5355 0450 09       		.byte	0x9
 5356 0451 A201     		.2byte	0x1a2
 5357 0453 65040000 		.4byte	0x465
 5358 0457 09       		.uleb128 0x9
 5359 0458 990F0000 		.4byte	.LASF82
 5360 045c 09       		.byte	0x9
 5361 045d AA01     		.2byte	0x1aa
 5362 045f 70080000 		.4byte	0x870
 5363 0463 00       		.byte	0
 5364 0464 00       		.byte	0
 5365 0465 03       		.uleb128 0x3
 5366 0466 6D000000 		.4byte	.LASF83
 5367 046a 08       		.byte	0x8
 5368 046b 70       		.byte	0x70
 5369 046c 70040000 		.4byte	0x470
 5370 0470 0F       		.uleb128 0xf
 5371 0471 33120000 		.4byte	.LASF84
 5372 0475 5802     		.2byte	0x258
 5373 0477 09       		.byte	0x9
 5374 0478 C201     		.2byte	0x1c2
 5375 047a CC040000 		.4byte	0x4cc
 5376 047e 09       		.uleb128 0x9
 5377 047f B9030000 		.4byte	.LASF85
 5378 0483 09       		.byte	0x9
 5379 0484 C601     		.2byte	0x1c6
ARM GAS  C:\Users\euanm\AppData\Local\Temp\ccnlTGs7.s 			page 97


 5380 0486 13030000 		.4byte	0x313
 5381 048a 00       		.byte	0
 5382 048b 09       		.uleb128 0x9
 5383 048c A2030000 		.4byte	.LASF86
 5384 0490 09       		.byte	0x9
 5385 0491 CA01     		.2byte	0x1ca
 5386 0493 F2030000 		.4byte	0x3f2
 5387 0497 1C       		.byte	0x1c
 5388 0498 08       		.uleb128 0x8
 5389 0499 64626700 		.ascii	"dbg\000"
 5390 049d 09       		.byte	0x9
 5391 049e CE01     		.2byte	0x1ce
 5392 04a0 3F040000 		.4byte	0x43f
 5393 04a4 2C       		.byte	0x2c
 5394 04a5 09       		.uleb128 0x9
 5395 04a6 FA120000 		.4byte	.LASF87
 5396 04aa 09       		.byte	0x9
 5397 04ab D201     		.2byte	0x1d2
 5398 04ad 9E010000 		.4byte	0x19e
 5399 04b1 30       		.byte	0x30
 5400 04b2 08       		.uleb128 0x8
 5401 04b3 746D00   		.ascii	"tm\000"
 5402 04b6 09       		.byte	0x9
 5403 04b7 D701     		.2byte	0x1d7
 5404 04b9 83070000 		.4byte	0x783
 5405 04bd 78       		.byte	0x78
 5406 04be 09       		.uleb128 0x9
 5407 04bf 021C0000 		.4byte	.LASF88
 5408 04c3 09       		.byte	0x9
 5409 04c4 E301     		.2byte	0x1e3
 5410 04c6 75080000 		.4byte	0x875
 5411 04ca 80       		.byte	0x80
 5412 04cb 00       		.byte	0
 5413 04cc 02       		.uleb128 0x2
 5414 04cd 04       		.byte	0x4
 5415 04ce 07       		.byte	0x7
 5416 04cf 60100000 		.4byte	.LASF89
 5417 04d3 10       		.uleb128 0x10
 5418 04d4 54       		.byte	0x54
 5419 04d5 0A       		.byte	0xa
 5420 04d6 EC02     		.2byte	0x2ec
 5421 04d8 EC050000 		.4byte	0x5ec
 5422 04dc 08       		.uleb128 0x8
 5423 04dd 43523100 		.ascii	"CR1\000"
 5424 04e1 0A       		.byte	0xa
 5425 04e2 EE02     		.2byte	0x2ee
 5426 04e4 2B010000 		.4byte	0x12b
 5427 04e8 00       		.byte	0
 5428 04e9 08       		.uleb128 0x8
 5429 04ea 43523200 		.ascii	"CR2\000"
 5430 04ee 0A       		.byte	0xa
 5431 04ef EF02     		.2byte	0x2ef
 5432 04f1 2B010000 		.4byte	0x12b
 5433 04f5 04       		.byte	0x4
 5434 04f6 09       		.uleb128 0x9
 5435 04f7 191C0000 		.4byte	.LASF90
 5436 04fb 0A       		.byte	0xa
ARM GAS  C:\Users\euanm\AppData\Local\Temp\ccnlTGs7.s 			page 98


 5437 04fc F002     		.2byte	0x2f0
 5438 04fe 2B010000 		.4byte	0x12b
 5439 0502 08       		.byte	0x8
 5440 0503 09       		.uleb128 0x9
 5441 0504 10070000 		.4byte	.LASF91
 5442 0508 0A       		.byte	0xa
 5443 0509 F102     		.2byte	0x2f1
 5444 050b 2B010000 		.4byte	0x12b
 5445 050f 0C       		.byte	0xc
 5446 0510 08       		.uleb128 0x8
 5447 0511 535200   		.ascii	"SR\000"
 5448 0514 0A       		.byte	0xa
 5449 0515 F202     		.2byte	0x2f2
 5450 0517 2B010000 		.4byte	0x12b
 5451 051b 10       		.byte	0x10
 5452 051c 08       		.uleb128 0x8
 5453 051d 45475200 		.ascii	"EGR\000"
 5454 0521 0A       		.byte	0xa
 5455 0522 F302     		.2byte	0x2f3
 5456 0524 2B010000 		.4byte	0x12b
 5457 0528 14       		.byte	0x14
 5458 0529 09       		.uleb128 0x9
 5459 052a 8D200000 		.4byte	.LASF92
 5460 052e 0A       		.byte	0xa
 5461 052f F402     		.2byte	0x2f4
 5462 0531 2B010000 		.4byte	0x12b
 5463 0535 18       		.byte	0x18
 5464 0536 09       		.uleb128 0x9
 5465 0537 93200000 		.4byte	.LASF93
 5466 053b 0A       		.byte	0xa
 5467 053c F502     		.2byte	0x2f5
 5468 053e 2B010000 		.4byte	0x12b
 5469 0542 1C       		.byte	0x1c
 5470 0543 09       		.uleb128 0x9
 5471 0544 F7040000 		.4byte	.LASF94
 5472 0548 0A       		.byte	0xa
 5473 0549 F602     		.2byte	0x2f6
 5474 054b 2B010000 		.4byte	0x12b
 5475 054f 20       		.byte	0x20
 5476 0550 08       		.uleb128 0x8
 5477 0551 434E5400 		.ascii	"CNT\000"
 5478 0555 0A       		.byte	0xa
 5479 0556 F702     		.2byte	0x2f7
 5480 0558 2B010000 		.4byte	0x12b
 5481 055c 24       		.byte	0x24
 5482 055d 08       		.uleb128 0x8
 5483 055e 50534300 		.ascii	"PSC\000"
 5484 0562 0A       		.byte	0xa
 5485 0563 F802     		.2byte	0x2f8
 5486 0565 2B010000 		.4byte	0x12b
 5487 0569 28       		.byte	0x28
 5488 056a 08       		.uleb128 0x8
 5489 056b 41525200 		.ascii	"ARR\000"
 5490 056f 0A       		.byte	0xa
 5491 0570 F902     		.2byte	0x2f9
 5492 0572 2B010000 		.4byte	0x12b
 5493 0576 2C       		.byte	0x2c
ARM GAS  C:\Users\euanm\AppData\Local\Temp\ccnlTGs7.s 			page 99


 5494 0577 08       		.uleb128 0x8
 5495 0578 52435200 		.ascii	"RCR\000"
 5496 057c 0A       		.byte	0xa
 5497 057d FA02     		.2byte	0x2fa
 5498 057f 2B010000 		.4byte	0x12b
 5499 0583 30       		.byte	0x30
 5500 0584 09       		.uleb128 0x9
 5501 0585 8B0B0000 		.4byte	.LASF95
 5502 0589 0A       		.byte	0xa
 5503 058a FB02     		.2byte	0x2fb
 5504 058c 2B010000 		.4byte	0x12b
 5505 0590 34       		.byte	0x34
 5506 0591 09       		.uleb128 0x9
 5507 0592 900B0000 		.4byte	.LASF96
 5508 0596 0A       		.byte	0xa
 5509 0597 FC02     		.2byte	0x2fc
 5510 0599 2B010000 		.4byte	0x12b
 5511 059d 38       		.byte	0x38
 5512 059e 09       		.uleb128 0x9
 5513 059f 950B0000 		.4byte	.LASF97
 5514 05a3 0A       		.byte	0xa
 5515 05a4 FD02     		.2byte	0x2fd
 5516 05a6 2B010000 		.4byte	0x12b
 5517 05aa 3C       		.byte	0x3c
 5518 05ab 09       		.uleb128 0x9
 5519 05ac 9A0B0000 		.4byte	.LASF98
 5520 05b0 0A       		.byte	0xa
 5521 05b1 FE02     		.2byte	0x2fe
 5522 05b3 2B010000 		.4byte	0x12b
 5523 05b7 40       		.byte	0x40
 5524 05b8 09       		.uleb128 0x9
 5525 05b9 05010000 		.4byte	.LASF99
 5526 05bd 0A       		.byte	0xa
 5527 05be FF02     		.2byte	0x2ff
 5528 05c0 2B010000 		.4byte	0x12b
 5529 05c4 44       		.byte	0x44
 5530 05c5 08       		.uleb128 0x8
 5531 05c6 44435200 		.ascii	"DCR\000"
 5532 05ca 0A       		.byte	0xa
 5533 05cb 0003     		.2byte	0x300
 5534 05cd 2B010000 		.4byte	0x12b
 5535 05d1 48       		.byte	0x48
 5536 05d2 09       		.uleb128 0x9
 5537 05d3 15120000 		.4byte	.LASF100
 5538 05d7 0A       		.byte	0xa
 5539 05d8 0103     		.2byte	0x301
 5540 05da 2B010000 		.4byte	0x12b
 5541 05de 4C       		.byte	0x4c
 5542 05df 08       		.uleb128 0x8
 5543 05e0 4F5200   		.ascii	"OR\000"
 5544 05e3 0A       		.byte	0xa
 5545 05e4 0203     		.2byte	0x302
 5546 05e6 2B010000 		.4byte	0x12b
 5547 05ea 50       		.byte	0x50
 5548 05eb 00       		.byte	0
 5549 05ec 11       		.uleb128 0x11
 5550 05ed 660E0000 		.4byte	.LASF101
ARM GAS  C:\Users\euanm\AppData\Local\Temp\ccnlTGs7.s 			page 100


 5551 05f1 0A       		.byte	0xa
 5552 05f2 0303     		.2byte	0x303
 5553 05f4 D3040000 		.4byte	0x4d3
 5554 05f8 03       		.uleb128 0x3
 5555 05f9 63140000 		.4byte	.LASF102
 5556 05fd 0B       		.byte	0xb
 5557 05fe 65       		.byte	0x65
 5558 05ff 96030000 		.4byte	0x396
 5559 0603 03       		.uleb128 0x3
 5560 0604 2A060000 		.4byte	.LASF103
 5561 0608 0B       		.byte	0xb
 5562 0609 6D       		.byte	0x6d
 5563 060a 01010000 		.4byte	0x101
 5564 060e 06       		.uleb128 0x6
 5565 060f 58130000 		.4byte	.LASF104
 5566 0613 04       		.byte	0x4
 5567 0614 0B       		.byte	0xb
 5568 0615 89       		.byte	0x89
 5569 0616 27060000 		.4byte	0x627
 5570 061a 12       		.uleb128 0x12
 5571 061b 72313300 		.ascii	"r13\000"
 5572 061f 0B       		.byte	0xb
 5573 0620 8A       		.byte	0x8a
 5574 0621 68070000 		.4byte	0x768
 5575 0625 00       		.byte	0
 5576 0626 00       		.byte	0
 5577 0627 06       		.uleb128 0x6
 5578 0628 00000000 		.4byte	.LASF105
 5579 062c 64       		.byte	0x64
 5580 062d 0C       		.byte	0xc
 5581 062e F4       		.byte	0xf4
 5582 062f 68070000 		.4byte	0x768
 5583 0633 12       		.uleb128 0x12
 5584 0634 73313600 		.ascii	"s16\000"
 5585 0638 0C       		.byte	0xc
 5586 0639 F6       		.byte	0xf6
 5587 063a F8050000 		.4byte	0x5f8
 5588 063e 00       		.byte	0
 5589 063f 12       		.uleb128 0x12
 5590 0640 73313700 		.ascii	"s17\000"
 5591 0644 0C       		.byte	0xc
 5592 0645 F7       		.byte	0xf7
 5593 0646 F8050000 		.4byte	0x5f8
 5594 064a 04       		.byte	0x4
 5595 064b 12       		.uleb128 0x12
 5596 064c 73313800 		.ascii	"s18\000"
 5597 0650 0C       		.byte	0xc
 5598 0651 F8       		.byte	0xf8
 5599 0652 F8050000 		.4byte	0x5f8
 5600 0656 08       		.byte	0x8
 5601 0657 12       		.uleb128 0x12
 5602 0658 73313900 		.ascii	"s19\000"
 5603 065c 0C       		.byte	0xc
 5604 065d F9       		.byte	0xf9
 5605 065e F8050000 		.4byte	0x5f8
 5606 0662 0C       		.byte	0xc
 5607 0663 12       		.uleb128 0x12
ARM GAS  C:\Users\euanm\AppData\Local\Temp\ccnlTGs7.s 			page 101


 5608 0664 73323000 		.ascii	"s20\000"
 5609 0668 0C       		.byte	0xc
 5610 0669 FA       		.byte	0xfa
 5611 066a F8050000 		.4byte	0x5f8
 5612 066e 10       		.byte	0x10
 5613 066f 12       		.uleb128 0x12
 5614 0670 73323100 		.ascii	"s21\000"
 5615 0674 0C       		.byte	0xc
 5616 0675 FB       		.byte	0xfb
 5617 0676 F8050000 		.4byte	0x5f8
 5618 067a 14       		.byte	0x14
 5619 067b 12       		.uleb128 0x12
 5620 067c 73323200 		.ascii	"s22\000"
 5621 0680 0C       		.byte	0xc
 5622 0681 FC       		.byte	0xfc
 5623 0682 F8050000 		.4byte	0x5f8
 5624 0686 18       		.byte	0x18
 5625 0687 12       		.uleb128 0x12
 5626 0688 73323300 		.ascii	"s23\000"
 5627 068c 0C       		.byte	0xc
 5628 068d FD       		.byte	0xfd
 5629 068e F8050000 		.4byte	0x5f8
 5630 0692 1C       		.byte	0x1c
 5631 0693 12       		.uleb128 0x12
 5632 0694 73323400 		.ascii	"s24\000"
 5633 0698 0C       		.byte	0xc
 5634 0699 FE       		.byte	0xfe
 5635 069a F8050000 		.4byte	0x5f8
 5636 069e 20       		.byte	0x20
 5637 069f 12       		.uleb128 0x12
 5638 06a0 73323500 		.ascii	"s25\000"
 5639 06a4 0C       		.byte	0xc
 5640 06a5 FF       		.byte	0xff
 5641 06a6 F8050000 		.4byte	0x5f8
 5642 06aa 24       		.byte	0x24
 5643 06ab 08       		.uleb128 0x8
 5644 06ac 73323600 		.ascii	"s26\000"
 5645 06b0 0C       		.byte	0xc
 5646 06b1 0001     		.2byte	0x100
 5647 06b3 F8050000 		.4byte	0x5f8
 5648 06b7 28       		.byte	0x28
 5649 06b8 08       		.uleb128 0x8
 5650 06b9 73323700 		.ascii	"s27\000"
 5651 06bd 0C       		.byte	0xc
 5652 06be 0101     		.2byte	0x101
 5653 06c0 F8050000 		.4byte	0x5f8
 5654 06c4 2C       		.byte	0x2c
 5655 06c5 08       		.uleb128 0x8
 5656 06c6 73323800 		.ascii	"s28\000"
 5657 06ca 0C       		.byte	0xc
 5658 06cb 0201     		.2byte	0x102
 5659 06cd F8050000 		.4byte	0x5f8
 5660 06d1 30       		.byte	0x30
 5661 06d2 08       		.uleb128 0x8
 5662 06d3 73323900 		.ascii	"s29\000"
 5663 06d7 0C       		.byte	0xc
 5664 06d8 0301     		.2byte	0x103
ARM GAS  C:\Users\euanm\AppData\Local\Temp\ccnlTGs7.s 			page 102


 5665 06da F8050000 		.4byte	0x5f8
 5666 06de 34       		.byte	0x34
 5667 06df 08       		.uleb128 0x8
 5668 06e0 73333000 		.ascii	"s30\000"
 5669 06e4 0C       		.byte	0xc
 5670 06e5 0401     		.2byte	0x104
 5671 06e7 F8050000 		.4byte	0x5f8
 5672 06eb 38       		.byte	0x38
 5673 06ec 08       		.uleb128 0x8
 5674 06ed 73333100 		.ascii	"s31\000"
 5675 06f1 0C       		.byte	0xc
 5676 06f2 0501     		.2byte	0x105
 5677 06f4 F8050000 		.4byte	0x5f8
 5678 06f8 3C       		.byte	0x3c
 5679 06f9 08       		.uleb128 0x8
 5680 06fa 723400   		.ascii	"r4\000"
 5681 06fd 0C       		.byte	0xc
 5682 06fe 0701     		.2byte	0x107
 5683 0700 F8050000 		.4byte	0x5f8
 5684 0704 40       		.byte	0x40
 5685 0705 08       		.uleb128 0x8
 5686 0706 723500   		.ascii	"r5\000"
 5687 0709 0C       		.byte	0xc
 5688 070a 0801     		.2byte	0x108
 5689 070c F8050000 		.4byte	0x5f8
 5690 0710 44       		.byte	0x44
 5691 0711 08       		.uleb128 0x8
 5692 0712 723600   		.ascii	"r6\000"
 5693 0715 0C       		.byte	0xc
 5694 0716 0901     		.2byte	0x109
 5695 0718 F8050000 		.4byte	0x5f8
 5696 071c 48       		.byte	0x48
 5697 071d 08       		.uleb128 0x8
 5698 071e 723700   		.ascii	"r7\000"
 5699 0721 0C       		.byte	0xc
 5700 0722 0A01     		.2byte	0x10a
 5701 0724 F8050000 		.4byte	0x5f8
 5702 0728 4C       		.byte	0x4c
 5703 0729 08       		.uleb128 0x8
 5704 072a 723800   		.ascii	"r8\000"
 5705 072d 0C       		.byte	0xc
 5706 072e 0B01     		.2byte	0x10b
 5707 0730 F8050000 		.4byte	0x5f8
 5708 0734 50       		.byte	0x50
 5709 0735 08       		.uleb128 0x8
 5710 0736 723900   		.ascii	"r9\000"
 5711 0739 0C       		.byte	0xc
 5712 073a 0C01     		.2byte	0x10c
 5713 073c F8050000 		.4byte	0x5f8
 5714 0740 54       		.byte	0x54
 5715 0741 08       		.uleb128 0x8
 5716 0742 72313000 		.ascii	"r10\000"
 5717 0746 0C       		.byte	0xc
 5718 0747 0D01     		.2byte	0x10d
 5719 0749 F8050000 		.4byte	0x5f8
 5720 074d 58       		.byte	0x58
 5721 074e 08       		.uleb128 0x8
ARM GAS  C:\Users\euanm\AppData\Local\Temp\ccnlTGs7.s 			page 103


 5722 074f 72313100 		.ascii	"r11\000"
 5723 0753 0C       		.byte	0xc
 5724 0754 0E01     		.2byte	0x10e
 5725 0756 F8050000 		.4byte	0x5f8
 5726 075a 5C       		.byte	0x5c
 5727 075b 08       		.uleb128 0x8
 5728 075c 6C7200   		.ascii	"lr\000"
 5729 075f 0C       		.byte	0xc
 5730 0760 0F01     		.2byte	0x10f
 5731 0762 F8050000 		.4byte	0x5f8
 5732 0766 60       		.byte	0x60
 5733 0767 00       		.byte	0
 5734 0768 0A       		.uleb128 0xa
 5735 0769 04       		.byte	0x4
 5736 076a 27060000 		.4byte	0x627
 5737 076e 13       		.uleb128 0x13
 5738 076f 04       		.byte	0x4
 5739 0770 0D       		.byte	0xd
 5740 0771 38       		.byte	0x38
 5741 0772 83070000 		.4byte	0x783
 5742 0776 07       		.uleb128 0x7
 5743 0777 BE1B0000 		.4byte	.LASF106
 5744 077b 0D       		.byte	0xd
 5745 077c 3C       		.byte	0x3c
 5746 077d 30010000 		.4byte	0x130
 5747 0781 00       		.byte	0
 5748 0782 00       		.byte	0
 5749 0783 03       		.uleb128 0x3
 5750 0784 D11F0000 		.4byte	.LASF107
 5751 0788 0D       		.byte	0xd
 5752 0789 3D       		.byte	0x3d
 5753 078a 6E070000 		.4byte	0x76e
 5754 078e 14       		.uleb128 0x14
 5755 078f 04       		.byte	0x4
 5756 0790 09       		.byte	0x9
 5757 0791 FA       		.byte	0xfa
 5758 0792 EB070000 		.4byte	0x7eb
 5759 0796 15       		.uleb128 0x15
 5760 0797 060C0000 		.4byte	.LASF108
 5761 079b 09       		.byte	0x9
 5762 079c 0101     		.2byte	0x101
 5763 079e 72010000 		.4byte	0x172
 5764 07a2 15       		.uleb128 0x15
 5765 07a3 460A0000 		.4byte	.LASF109
 5766 07a7 09       		.byte	0x9
 5767 07a8 0801     		.2byte	0x108
 5768 07aa 72010000 		.4byte	0x172
 5769 07ae 15       		.uleb128 0x15
 5770 07af 58180000 		.4byte	.LASF110
 5771 07b3 09       		.byte	0x9
 5772 07b4 0F01     		.2byte	0x10f
 5773 07b6 96030000 		.4byte	0x396
 5774 07ba 15       		.uleb128 0x15
 5775 07bb 52130000 		.4byte	.LASF111
 5776 07bf 09       		.byte	0x9
 5777 07c0 1601     		.2byte	0x116
 5778 07c2 EB070000 		.4byte	0x7eb
ARM GAS  C:\Users\euanm\AppData\Local\Temp\ccnlTGs7.s 			page 104


 5779 07c6 15       		.uleb128 0x15
 5780 07c7 83000000 		.4byte	.LASF112
 5781 07cb 09       		.byte	0x9
 5782 07cc 1E01     		.2byte	0x11e
 5783 07ce 16080000 		.4byte	0x816
 5784 07d2 15       		.uleb128 0x15
 5785 07d3 6A180000 		.4byte	.LASF113
 5786 07d7 09       		.byte	0x9
 5787 07d8 2701     		.2byte	0x127
 5788 07da 4D080000 		.4byte	0x84d
 5789 07de 15       		.uleb128 0x15
 5790 07df 791C0000 		.4byte	.LASF114
 5791 07e3 09       		.byte	0x9
 5792 07e4 2F01     		.2byte	0x12f
 5793 07e6 7D010000 		.4byte	0x17d
 5794 07ea 00       		.byte	0
 5795 07eb 0A       		.uleb128 0xa
 5796 07ec 04       		.byte	0x4
 5797 07ed AE020000 		.4byte	0x2ae
 5798 07f1 06       		.uleb128 0x6
 5799 07f2 4B120000 		.4byte	.LASF115
 5800 07f6 0C       		.byte	0xc
 5801 07f7 0E       		.byte	0xe
 5802 07f8 34       		.byte	0x34
 5803 07f9 16080000 		.4byte	0x816
 5804 07fd 07       		.uleb128 0x7
 5805 07fe 221E0000 		.4byte	.LASF116
 5806 0802 0E       		.byte	0xe
 5807 0803 35       		.byte	0x35
 5808 0804 E3020000 		.4byte	0x2e3
 5809 0808 00       		.byte	0
 5810 0809 07       		.uleb128 0x7
 5811 080a 7E060000 		.4byte	.LASF117
 5812 080e 0E       		.byte	0xe
 5813 080f 37       		.byte	0x37
 5814 0810 88010000 		.4byte	0x188
 5815 0814 08       		.byte	0x8
 5816 0815 00       		.byte	0
 5817 0816 0A       		.uleb128 0xa
 5818 0817 04       		.byte	0x4
 5819 0818 F1070000 		.4byte	0x7f1
 5820 081c 06       		.uleb128 0x6
 5821 081d 1A080000 		.4byte	.LASF118
 5822 0821 10       		.byte	0x10
 5823 0822 0F       		.byte	0xf
 5824 0823 39       		.byte	0x39
 5825 0824 4D080000 		.4byte	0x84d
 5826 0828 07       		.uleb128 0x7
 5827 0829 05130000 		.4byte	.LASF119
 5828 082d 0F       		.byte	0xf
 5829 082e 3A       		.byte	0x3a
 5830 082f E3020000 		.4byte	0x2e3
 5831 0833 00       		.byte	0
 5832 0834 07       		.uleb128 0x7
 5833 0835 E1110000 		.4byte	.LASF120
 5834 0839 0F       		.byte	0xf
 5835 083a 3C       		.byte	0x3c
ARM GAS  C:\Users\euanm\AppData\Local\Temp\ccnlTGs7.s 			page 105


 5836 083b B9020000 		.4byte	0x2b9
 5837 083f 08       		.byte	0x8
 5838 0840 07       		.uleb128 0x7
 5839 0841 DA000000 		.4byte	.LASF121
 5840 0845 0F       		.byte	0xf
 5841 0846 3E       		.byte	0x3e
 5842 0847 90080000 		.4byte	0x890
 5843 084b 0C       		.byte	0xc
 5844 084c 00       		.byte	0
 5845 084d 0A       		.uleb128 0xa
 5846 084e 04       		.byte	0x4
 5847 084f 1C080000 		.4byte	0x81c
 5848 0853 0A       		.uleb128 0xa
 5849 0854 04       		.byte	0x4
 5850 0855 60080000 		.4byte	0x860
 5851 0859 02       		.uleb128 0x2
 5852 085a 01       		.byte	0x1
 5853 085b 08       		.byte	0x8
 5854 085c 4D150000 		.4byte	.LASF122
 5855 0860 16       		.uleb128 0x16
 5856 0861 59080000 		.4byte	0x859
 5857 0865 05       		.uleb128 0x5
 5858 0866 93010000 		.4byte	0x193
 5859 086a 0A       		.uleb128 0xa
 5860 086b 04       		.byte	0x4
 5861 086c 98030000 		.4byte	0x398
 5862 0870 05       		.uleb128 0x5
 5863 0871 53080000 		.4byte	0x853
 5864 0875 17       		.uleb128 0x17
 5865 0876 03060000 		.4byte	0x603
 5866 087a 85080000 		.4byte	0x885
 5867 087e 18       		.uleb128 0x18
 5868 087f CC040000 		.4byte	0x4cc
 5869 0883 3A       		.byte	0x3a
 5870 0884 00       		.byte	0
 5871 0885 03       		.uleb128 0x3
 5872 0886 C91A0000 		.4byte	.LASF123
 5873 088a 0F       		.byte	0xf
 5874 088b 34       		.byte	0x34
 5875 088c 1C080000 		.4byte	0x81c
 5876 0890 0A       		.uleb128 0xa
 5877 0891 04       		.byte	0x4
 5878 0892 85080000 		.4byte	0x885
 5879 0896 19       		.uleb128 0x19
 5880 0897 01       		.byte	0x1
 5881 0898 49000000 		.4byte	0x49
 5882 089c 10       		.byte	0x10
 5883 089d 21       		.byte	0x21
 5884 089e BB080000 		.4byte	0x8bb
 5885 08a2 1A       		.uleb128 0x1a
 5886 08a3 1A1F0000 		.4byte	.LASF124
 5887 08a7 00       		.byte	0
 5888 08a8 1A       		.uleb128 0x1a
 5889 08a9 45020000 		.4byte	.LASF125
 5890 08ad 01       		.byte	0x1
 5891 08ae 1A       		.uleb128 0x1a
 5892 08af 170F0000 		.4byte	.LASF126
ARM GAS  C:\Users\euanm\AppData\Local\Temp\ccnlTGs7.s 			page 106


 5893 08b3 02       		.byte	0x2
 5894 08b4 1A       		.uleb128 0x1a
 5895 08b5 3A030000 		.4byte	.LASF127
 5896 08b9 03       		.byte	0x3
 5897 08ba 00       		.byte	0
 5898 08bb 03       		.uleb128 0x3
 5899 08bc 10160000 		.4byte	.LASF128
 5900 08c0 10       		.byte	0x10
 5901 08c1 26       		.byte	0x26
 5902 08c2 96080000 		.4byte	0x896
 5903 08c6 19       		.uleb128 0x19
 5904 08c7 01       		.byte	0x1
 5905 08c8 49000000 		.4byte	0x49
 5906 08cc 10       		.byte	0x10
 5907 08cd 28       		.byte	0x28
 5908 08ce EB080000 		.4byte	0x8eb
 5909 08d2 1A       		.uleb128 0x1a
 5910 08d3 A40C0000 		.4byte	.LASF129
 5911 08d7 00       		.byte	0
 5912 08d8 1A       		.uleb128 0x1a
 5913 08d9 0D0C0000 		.4byte	.LASF130
 5914 08dd 01       		.byte	0x1
 5915 08de 1A       		.uleb128 0x1a
 5916 08df FF050000 		.4byte	.LASF131
 5917 08e3 02       		.byte	0x2
 5918 08e4 1A       		.uleb128 0x1a
 5919 08e5 9B100000 		.4byte	.LASF132
 5920 08e9 03       		.byte	0x3
 5921 08ea 00       		.byte	0
 5922 08eb 03       		.uleb128 0x3
 5923 08ec CD200000 		.4byte	.LASF133
 5924 08f0 10       		.byte	0x10
 5925 08f1 2D       		.byte	0x2d
 5926 08f2 C6080000 		.4byte	0x8c6
 5927 08f6 19       		.uleb128 0x19
 5928 08f7 01       		.byte	0x1
 5929 08f8 49000000 		.4byte	0x49
 5930 08fc 10       		.byte	0x10
 5931 08fd 2F       		.byte	0x2f
 5932 08fe 15090000 		.4byte	0x915
 5933 0902 1A       		.uleb128 0x1a
 5934 0903 BD1D0000 		.4byte	.LASF134
 5935 0907 00       		.byte	0
 5936 0908 1A       		.uleb128 0x1a
 5937 0909 20150000 		.4byte	.LASF135
 5938 090d 01       		.byte	0x1
 5939 090e 1A       		.uleb128 0x1a
 5940 090f 4E030000 		.4byte	.LASF136
 5941 0913 02       		.byte	0x2
 5942 0914 00       		.byte	0
 5943 0915 03       		.uleb128 0x3
 5944 0916 5F030000 		.4byte	.LASF137
 5945 091a 10       		.byte	0x10
 5946 091b 33       		.byte	0x33
 5947 091c F6080000 		.4byte	0x8f6
 5948 0920 19       		.uleb128 0x19
 5949 0921 01       		.byte	0x1
ARM GAS  C:\Users\euanm\AppData\Local\Temp\ccnlTGs7.s 			page 107


 5950 0922 49000000 		.4byte	0x49
 5951 0926 10       		.byte	0x10
 5952 0927 35       		.byte	0x35
 5953 0928 39090000 		.4byte	0x939
 5954 092c 1A       		.uleb128 0x1a
 5955 092d 0D130000 		.4byte	.LASF138
 5956 0931 00       		.byte	0
 5957 0932 1A       		.uleb128 0x1a
 5958 0933 0B220000 		.4byte	.LASF139
 5959 0937 01       		.byte	0x1
 5960 0938 00       		.byte	0
 5961 0939 03       		.uleb128 0x3
 5962 093a 391D0000 		.4byte	.LASF140
 5963 093e 10       		.byte	0x10
 5964 093f 38       		.byte	0x38
 5965 0940 20090000 		.4byte	0x920
 5966 0944 19       		.uleb128 0x19
 5967 0945 01       		.byte	0x1
 5968 0946 49000000 		.4byte	0x49
 5969 094a 10       		.byte	0x10
 5970 094b 3A       		.byte	0x3a
 5971 094c 63090000 		.4byte	0x963
 5972 0950 1A       		.uleb128 0x1a
 5973 0951 DC180000 		.4byte	.LASF141
 5974 0955 00       		.byte	0
 5975 0956 1A       		.uleb128 0x1a
 5976 0957 67080000 		.4byte	.LASF142
 5977 095b 01       		.byte	0x1
 5978 095c 1A       		.uleb128 0x1a
 5979 095d 32090000 		.4byte	.LASF143
 5980 0961 02       		.byte	0x2
 5981 0962 00       		.byte	0
 5982 0963 03       		.uleb128 0x3
 5983 0964 E2120000 		.4byte	.LASF144
 5984 0968 10       		.byte	0x10
 5985 0969 3E       		.byte	0x3e
 5986 096a 44090000 		.4byte	0x944
 5987 096e 19       		.uleb128 0x19
 5988 096f 01       		.byte	0x1
 5989 0970 49000000 		.4byte	0x49
 5990 0974 10       		.byte	0x10
 5991 0975 40       		.byte	0x40
 5992 0976 8D090000 		.4byte	0x98d
 5993 097a 1A       		.uleb128 0x1a
 5994 097b 94120000 		.4byte	.LASF145
 5995 097f 00       		.byte	0
 5996 0980 1A       		.uleb128 0x1a
 5997 0981 FC040000 		.4byte	.LASF146
 5998 0985 01       		.byte	0x1
 5999 0986 1A       		.uleb128 0x1a
 6000 0987 921B0000 		.4byte	.LASF147
 6001 098b 02       		.byte	0x2
 6002 098c 00       		.byte	0
 6003 098d 03       		.uleb128 0x3
 6004 098e 99200000 		.4byte	.LASF148
 6005 0992 10       		.byte	0x10
 6006 0993 44       		.byte	0x44
ARM GAS  C:\Users\euanm\AppData\Local\Temp\ccnlTGs7.s 			page 108


 6007 0994 6E090000 		.4byte	0x96e
 6008 0998 19       		.uleb128 0x19
 6009 0999 01       		.byte	0x1
 6010 099a 49000000 		.4byte	0x49
 6011 099e 10       		.byte	0x10
 6012 099f 46       		.byte	0x46
 6013 09a0 B7090000 		.4byte	0x9b7
 6014 09a4 1A       		.uleb128 0x1a
 6015 09a5 64210000 		.4byte	.LASF149
 6016 09a9 00       		.byte	0
 6017 09aa 1A       		.uleb128 0x1a
 6018 09ab F60E0000 		.4byte	.LASF150
 6019 09af 01       		.byte	0x1
 6020 09b0 1A       		.uleb128 0x1a
 6021 09b1 700B0000 		.4byte	.LASF151
 6022 09b5 02       		.byte	0x2
 6023 09b6 00       		.byte	0
 6024 09b7 03       		.uleb128 0x3
 6025 09b8 71180000 		.4byte	.LASF152
 6026 09bc 10       		.byte	0x10
 6027 09bd 4A       		.byte	0x4a
 6028 09be 98090000 		.4byte	0x998
 6029 09c2 19       		.uleb128 0x19
 6030 09c3 01       		.byte	0x1
 6031 09c4 49000000 		.4byte	0x49
 6032 09c8 10       		.byte	0x10
 6033 09c9 4C       		.byte	0x4c
 6034 09ca F9090000 		.4byte	0x9f9
 6035 09ce 1A       		.uleb128 0x1a
 6036 09cf 57170000 		.4byte	.LASF153
 6037 09d3 00       		.byte	0
 6038 09d4 1A       		.uleb128 0x1a
 6039 09d5 BF0B0000 		.4byte	.LASF154
 6040 09d9 01       		.byte	0x1
 6041 09da 1A       		.uleb128 0x1a
 6042 09db FA160000 		.4byte	.LASF155
 6043 09df 02       		.byte	0x2
 6044 09e0 1A       		.uleb128 0x1a
 6045 09e1 7F1B0000 		.4byte	.LASF156
 6046 09e5 03       		.byte	0x3
 6047 09e6 1A       		.uleb128 0x1a
 6048 09e7 8F070000 		.4byte	.LASF157
 6049 09eb 04       		.byte	0x4
 6050 09ec 1A       		.uleb128 0x1a
 6051 09ed 1A030000 		.4byte	.LASF158
 6052 09f1 05       		.byte	0x5
 6053 09f2 1A       		.uleb128 0x1a
 6054 09f3 8F110000 		.4byte	.LASF159
 6055 09f7 06       		.byte	0x6
 6056 09f8 00       		.byte	0
 6057 09f9 03       		.uleb128 0x3
 6058 09fa 3F1E0000 		.4byte	.LASF160
 6059 09fe 10       		.byte	0x10
 6060 09ff 54       		.byte	0x54
 6061 0a00 C2090000 		.4byte	0x9c2
 6062 0a04 19       		.uleb128 0x19
 6063 0a05 01       		.byte	0x1
ARM GAS  C:\Users\euanm\AppData\Local\Temp\ccnlTGs7.s 			page 109


 6064 0a06 49000000 		.4byte	0x49
 6065 0a0a 10       		.byte	0x10
 6066 0a0b 69       		.byte	0x69
 6067 0a0c 230A0000 		.4byte	0xa23
 6068 0a10 1A       		.uleb128 0x1a
 6069 0a11 74120000 		.4byte	.LASF161
 6070 0a15 00       		.byte	0
 6071 0a16 1A       		.uleb128 0x1a
 6072 0a17 78090000 		.4byte	.LASF162
 6073 0a1b 01       		.byte	0x1
 6074 0a1c 1A       		.uleb128 0x1a
 6075 0a1d EC090000 		.4byte	.LASF163
 6076 0a21 02       		.byte	0x2
 6077 0a22 00       		.byte	0
 6078 0a23 03       		.uleb128 0x3
 6079 0a24 7C200000 		.4byte	.LASF164
 6080 0a28 10       		.byte	0x10
 6081 0a29 6D       		.byte	0x6d
 6082 0a2a 040A0000 		.4byte	0xa04
 6083 0a2e 1B       		.uleb128 0x1b
 6084 0a2f 4001     		.2byte	0x140
 6085 0a31 10       		.byte	0x10
 6086 0a32 79       		.byte	0x79
 6087 0a33 200E0000 		.4byte	0xe20
 6088 0a37 07       		.uleb128 0x7
 6089 0a38 8E0D0000 		.4byte	.LASF165
 6090 0a3c 10       		.byte	0x10
 6091 0a3d 7B       		.byte	0x7b
 6092 0a3e 15090000 		.4byte	0x915
 6093 0a42 00       		.byte	0
 6094 0a43 07       		.uleb128 0x7
 6095 0a44 4A070000 		.4byte	.LASF166
 6096 0a48 10       		.byte	0x10
 6097 0a49 7C       		.byte	0x7c
 6098 0a4a 39090000 		.4byte	0x939
 6099 0a4e 01       		.byte	0x1
 6100 0a4f 07       		.uleb128 0x7
 6101 0a50 B50D0000 		.4byte	.LASF167
 6102 0a54 10       		.byte	0x10
 6103 0a55 7D       		.byte	0x7d
 6104 0a56 B7090000 		.4byte	0x9b7
 6105 0a5a 02       		.byte	0x2
 6106 0a5b 07       		.uleb128 0x7
 6107 0a5c D0180000 		.4byte	.LASF168
 6108 0a60 10       		.byte	0x10
 6109 0a61 7E       		.byte	0x7e
 6110 0a62 63090000 		.4byte	0x963
 6111 0a66 03       		.byte	0x3
 6112 0a67 07       		.uleb128 0x7
 6113 0a68 3D120000 		.4byte	.LASF169
 6114 0a6c 10       		.byte	0x10
 6115 0a6d 80       		.byte	0x80
 6116 0a6e 25000000 		.4byte	0x25
 6117 0a72 04       		.byte	0x4
 6118 0a73 07       		.uleb128 0x7
 6119 0a74 BF160000 		.4byte	.LASF170
 6120 0a78 10       		.byte	0x10
ARM GAS  C:\Users\euanm\AppData\Local\Temp\ccnlTGs7.s 			page 110


 6121 0a79 81       		.byte	0x81
 6122 0a7a 25000000 		.4byte	0x25
 6123 0a7e 08       		.byte	0x8
 6124 0a7f 07       		.uleb128 0x7
 6125 0a80 511F0000 		.4byte	.LASF171
 6126 0a84 10       		.byte	0x10
 6127 0a85 82       		.byte	0x82
 6128 0a86 25000000 		.4byte	0x25
 6129 0a8a 0C       		.byte	0xc
 6130 0a8b 07       		.uleb128 0x7
 6131 0a8c F4000000 		.4byte	.LASF172
 6132 0a90 10       		.byte	0x10
 6133 0a91 83       		.byte	0x83
 6134 0a92 25000000 		.4byte	0x25
 6135 0a96 10       		.byte	0x10
 6136 0a97 07       		.uleb128 0x7
 6137 0a98 1E000000 		.4byte	.LASF173
 6138 0a9c 10       		.byte	0x10
 6139 0a9d 84       		.byte	0x84
 6140 0a9e 25000000 		.4byte	0x25
 6141 0aa2 14       		.byte	0x14
 6142 0aa3 07       		.uleb128 0x7
 6143 0aa4 E30E0000 		.4byte	.LASF174
 6144 0aa8 10       		.byte	0x10
 6145 0aa9 85       		.byte	0x85
 6146 0aaa 200E0000 		.4byte	0xe20
 6147 0aae 18       		.byte	0x18
 6148 0aaf 07       		.uleb128 0x7
 6149 0ab0 DA210000 		.4byte	.LASF175
 6150 0ab4 10       		.byte	0x10
 6151 0ab5 86       		.byte	0x86
 6152 0ab6 25000000 		.4byte	0x25
 6153 0aba 1C       		.byte	0x1c
 6154 0abb 07       		.uleb128 0x7
 6155 0abc AE010000 		.4byte	.LASF176
 6156 0ac0 10       		.byte	0x10
 6157 0ac1 87       		.byte	0x87
 6158 0ac2 25000000 		.4byte	0x25
 6159 0ac6 20       		.byte	0x20
 6160 0ac7 07       		.uleb128 0x7
 6161 0ac8 FF100000 		.4byte	.LASF177
 6162 0acc 10       		.byte	0x10
 6163 0acd 88       		.byte	0x88
 6164 0ace 25000000 		.4byte	0x25
 6165 0ad2 24       		.byte	0x24
 6166 0ad3 07       		.uleb128 0x7
 6167 0ad4 0C000000 		.4byte	.LASF178
 6168 0ad8 10       		.byte	0x10
 6169 0ad9 89       		.byte	0x89
 6170 0ada 25000000 		.4byte	0x25
 6171 0ade 28       		.byte	0x28
 6172 0adf 07       		.uleb128 0x7
 6173 0ae0 D11E0000 		.4byte	.LASF179
 6174 0ae4 10       		.byte	0x10
 6175 0ae5 8A       		.byte	0x8a
 6176 0ae6 25000000 		.4byte	0x25
 6177 0aea 2C       		.byte	0x2c
ARM GAS  C:\Users\euanm\AppData\Local\Temp\ccnlTGs7.s 			page 111


 6178 0aeb 07       		.uleb128 0x7
 6179 0aec 060B0000 		.4byte	.LASF180
 6180 0af0 10       		.byte	0x10
 6181 0af1 8B       		.byte	0x8b
 6182 0af2 25000000 		.4byte	0x25
 6183 0af6 30       		.byte	0x30
 6184 0af7 07       		.uleb128 0x7
 6185 0af8 3C0A0000 		.4byte	.LASF181
 6186 0afc 10       		.byte	0x10
 6187 0afd 8C       		.byte	0x8c
 6188 0afe 25000000 		.4byte	0x25
 6189 0b02 34       		.byte	0x34
 6190 0b03 07       		.uleb128 0x7
 6191 0b04 BC0A0000 		.4byte	.LASF182
 6192 0b08 10       		.byte	0x10
 6193 0b09 8D       		.byte	0x8d
 6194 0b0a 25000000 		.4byte	0x25
 6195 0b0e 38       		.byte	0x38
 6196 0b0f 07       		.uleb128 0x7
 6197 0b10 E80A0000 		.4byte	.LASF183
 6198 0b14 10       		.byte	0x10
 6199 0b15 8E       		.byte	0x8e
 6200 0b16 25000000 		.4byte	0x25
 6201 0b1a 3C       		.byte	0x3c
 6202 0b1b 07       		.uleb128 0x7
 6203 0b1c E1000000 		.4byte	.LASF184
 6204 0b20 10       		.byte	0x10
 6205 0b21 8F       		.byte	0x8f
 6206 0b22 200E0000 		.4byte	0xe20
 6207 0b26 40       		.byte	0x40
 6208 0b27 07       		.uleb128 0x7
 6209 0b28 7A070000 		.4byte	.LASF185
 6210 0b2c 10       		.byte	0x10
 6211 0b2d 90       		.byte	0x90
 6212 0b2e 200E0000 		.4byte	0xe20
 6213 0b32 41       		.byte	0x41
 6214 0b33 07       		.uleb128 0x7
 6215 0b34 FF060000 		.4byte	.LASF186
 6216 0b38 10       		.byte	0x10
 6217 0b39 91       		.byte	0x91
 6218 0b3a 25000000 		.4byte	0x25
 6219 0b3e 44       		.byte	0x44
 6220 0b3f 07       		.uleb128 0x7
 6221 0b40 71020000 		.4byte	.LASF187
 6222 0b44 10       		.byte	0x10
 6223 0b45 92       		.byte	0x92
 6224 0b46 25000000 		.4byte	0x25
 6225 0b4a 48       		.byte	0x48
 6226 0b4b 07       		.uleb128 0x7
 6227 0b4c 110D0000 		.4byte	.LASF188
 6228 0b50 10       		.byte	0x10
 6229 0b51 93       		.byte	0x93
 6230 0b52 25000000 		.4byte	0x25
 6231 0b56 4C       		.byte	0x4c
 6232 0b57 07       		.uleb128 0x7
 6233 0b58 B2180000 		.4byte	.LASF189
 6234 0b5c 10       		.byte	0x10
ARM GAS  C:\Users\euanm\AppData\Local\Temp\ccnlTGs7.s 			page 112


 6235 0b5d 94       		.byte	0x94
 6236 0b5e 25000000 		.4byte	0x25
 6237 0b62 50       		.byte	0x50
 6238 0b63 07       		.uleb128 0x7
 6239 0b64 71200000 		.4byte	.LASF190
 6240 0b68 10       		.byte	0x10
 6241 0b69 95       		.byte	0x95
 6242 0b6a 25000000 		.4byte	0x25
 6243 0b6e 54       		.byte	0x54
 6244 0b6f 07       		.uleb128 0x7
 6245 0b70 3A0C0000 		.4byte	.LASF191
 6246 0b74 10       		.byte	0x10
 6247 0b75 96       		.byte	0x96
 6248 0b76 25000000 		.4byte	0x25
 6249 0b7a 58       		.byte	0x58
 6250 0b7b 07       		.uleb128 0x7
 6251 0b7c 45090000 		.4byte	.LASF192
 6252 0b80 10       		.byte	0x10
 6253 0b81 98       		.byte	0x98
 6254 0b82 25000000 		.4byte	0x25
 6255 0b86 5C       		.byte	0x5c
 6256 0b87 07       		.uleb128 0x7
 6257 0b88 C00D0000 		.4byte	.LASF193
 6258 0b8c 10       		.byte	0x10
 6259 0b8d 99       		.byte	0x99
 6260 0b8e 25000000 		.4byte	0x25
 6261 0b92 60       		.byte	0x60
 6262 0b93 07       		.uleb128 0x7
 6263 0b94 491B0000 		.4byte	.LASF194
 6264 0b98 10       		.byte	0x10
 6265 0b99 9A       		.byte	0x9a
 6266 0b9a 25000000 		.4byte	0x25
 6267 0b9e 64       		.byte	0x64
 6268 0b9f 07       		.uleb128 0x7
 6269 0ba0 03200000 		.4byte	.LASF195
 6270 0ba4 10       		.byte	0x10
 6271 0ba5 9B       		.byte	0x9b
 6272 0ba6 25000000 		.4byte	0x25
 6273 0baa 68       		.byte	0x68
 6274 0bab 07       		.uleb128 0x7
 6275 0bac 7F0B0000 		.4byte	.LASF196
 6276 0bb0 10       		.byte	0x10
 6277 0bb1 9D       		.byte	0x9d
 6278 0bb2 25000000 		.4byte	0x25
 6279 0bb6 6C       		.byte	0x6c
 6280 0bb7 07       		.uleb128 0x7
 6281 0bb8 CE030000 		.4byte	.LASF197
 6282 0bbc 10       		.byte	0x10
 6283 0bbd 9E       		.byte	0x9e
 6284 0bbe 25000000 		.4byte	0x25
 6285 0bc2 70       		.byte	0x70
 6286 0bc3 07       		.uleb128 0x7
 6287 0bc4 CF0D0000 		.4byte	.LASF198
 6288 0bc8 10       		.byte	0x10
 6289 0bc9 9F       		.byte	0x9f
 6290 0bca 25000000 		.4byte	0x25
 6291 0bce 74       		.byte	0x74
ARM GAS  C:\Users\euanm\AppData\Local\Temp\ccnlTGs7.s 			page 113


 6292 0bcf 07       		.uleb128 0x7
 6293 0bd0 7F0F0000 		.4byte	.LASF199
 6294 0bd4 10       		.byte	0x10
 6295 0bd5 A0       		.byte	0xa0
 6296 0bd6 25000000 		.4byte	0x25
 6297 0bda 78       		.byte	0x78
 6298 0bdb 07       		.uleb128 0x7
 6299 0bdc 240D0000 		.4byte	.LASF200
 6300 0be0 10       		.byte	0x10
 6301 0be1 A1       		.byte	0xa1
 6302 0be2 25000000 		.4byte	0x25
 6303 0be6 7C       		.byte	0x7c
 6304 0be7 07       		.uleb128 0x7
 6305 0be8 D61C0000 		.4byte	.LASF201
 6306 0bec 10       		.byte	0x10
 6307 0bed A2       		.byte	0xa2
 6308 0bee 25000000 		.4byte	0x25
 6309 0bf2 80       		.byte	0x80
 6310 0bf3 07       		.uleb128 0x7
 6311 0bf4 79150000 		.4byte	.LASF202
 6312 0bf8 10       		.byte	0x10
 6313 0bf9 A3       		.byte	0xa3
 6314 0bfa 25000000 		.4byte	0x25
 6315 0bfe 84       		.byte	0x84
 6316 0bff 07       		.uleb128 0x7
 6317 0c00 720E0000 		.4byte	.LASF203
 6318 0c04 10       		.byte	0x10
 6319 0c05 A5       		.byte	0xa5
 6320 0c06 270E0000 		.4byte	0xe27
 6321 0c0a 88       		.byte	0x88
 6322 0c0b 07       		.uleb128 0x7
 6323 0c0c 70170000 		.4byte	.LASF204
 6324 0c10 10       		.byte	0x10
 6325 0c11 A6       		.byte	0xa6
 6326 0c12 25000000 		.4byte	0x25
 6327 0c16 90       		.byte	0x90
 6328 0c17 07       		.uleb128 0x7
 6329 0c18 18040000 		.4byte	.LASF205
 6330 0c1c 10       		.byte	0x10
 6331 0c1d A8       		.byte	0xa8
 6332 0c1e 25000000 		.4byte	0x25
 6333 0c22 94       		.byte	0x94
 6334 0c23 07       		.uleb128 0x7
 6335 0c24 09040000 		.4byte	.LASF206
 6336 0c28 10       		.byte	0x10
 6337 0c29 A9       		.byte	0xa9
 6338 0c2a 25000000 		.4byte	0x25
 6339 0c2e 98       		.byte	0x98
 6340 0c2f 07       		.uleb128 0x7
 6341 0c30 A1060000 		.4byte	.LASF207
 6342 0c34 10       		.byte	0x10
 6343 0c35 AA       		.byte	0xaa
 6344 0c36 25000000 		.4byte	0x25
 6345 0c3a 9C       		.byte	0x9c
 6346 0c3b 07       		.uleb128 0x7
 6347 0c3c D51B0000 		.4byte	.LASF208
 6348 0c40 10       		.byte	0x10
ARM GAS  C:\Users\euanm\AppData\Local\Temp\ccnlTGs7.s 			page 114


 6349 0c41 AB       		.byte	0xab
 6350 0c42 25000000 		.4byte	0x25
 6351 0c46 A0       		.byte	0xa0
 6352 0c47 07       		.uleb128 0x7
 6353 0c48 F0010000 		.4byte	.LASF209
 6354 0c4c 10       		.byte	0x10
 6355 0c4d AC       		.byte	0xac
 6356 0c4e 25000000 		.4byte	0x25
 6357 0c52 A4       		.byte	0xa4
 6358 0c53 07       		.uleb128 0x7
 6359 0c54 54090000 		.4byte	.LASF210
 6360 0c58 10       		.byte	0x10
 6361 0c59 AD       		.byte	0xad
 6362 0c5a 200E0000 		.4byte	0xe20
 6363 0c5e A8       		.byte	0xa8
 6364 0c5f 07       		.uleb128 0x7
 6365 0c60 D4130000 		.4byte	.LASF211
 6366 0c64 10       		.byte	0x10
 6367 0c65 AE       		.byte	0xae
 6368 0c66 25000000 		.4byte	0x25
 6369 0c6a AC       		.byte	0xac
 6370 0c6b 07       		.uleb128 0x7
 6371 0c6c F3050000 		.4byte	.LASF212
 6372 0c70 10       		.byte	0x10
 6373 0c71 AF       		.byte	0xaf
 6374 0c72 25000000 		.4byte	0x25
 6375 0c76 B0       		.byte	0xb0
 6376 0c77 07       		.uleb128 0x7
 6377 0c78 1E060000 		.4byte	.LASF213
 6378 0c7c 10       		.byte	0x10
 6379 0c7d B0       		.byte	0xb0
 6380 0c7e 25000000 		.4byte	0x25
 6381 0c82 B4       		.byte	0xb4
 6382 0c83 07       		.uleb128 0x7
 6383 0c84 530F0000 		.4byte	.LASF214
 6384 0c88 10       		.byte	0x10
 6385 0c89 B1       		.byte	0xb1
 6386 0c8a 25000000 		.4byte	0x25
 6387 0c8e B8       		.byte	0xb8
 6388 0c8f 07       		.uleb128 0x7
 6389 0c90 AB070000 		.4byte	.LASF215
 6390 0c94 10       		.byte	0x10
 6391 0c95 B2       		.byte	0xb2
 6392 0c96 25000000 		.4byte	0x25
 6393 0c9a BC       		.byte	0xbc
 6394 0c9b 07       		.uleb128 0x7
 6395 0c9c 1D180000 		.4byte	.LASF216
 6396 0ca0 10       		.byte	0x10
 6397 0ca1 B3       		.byte	0xb3
 6398 0ca2 25000000 		.4byte	0x25
 6399 0ca6 C0       		.byte	0xc0
 6400 0ca7 07       		.uleb128 0x7
 6401 0ca8 FC170000 		.4byte	.LASF217
 6402 0cac 10       		.byte	0x10
 6403 0cad B4       		.byte	0xb4
 6404 0cae 25000000 		.4byte	0x25
 6405 0cb2 C4       		.byte	0xc4
ARM GAS  C:\Users\euanm\AppData\Local\Temp\ccnlTGs7.s 			page 115


 6406 0cb3 07       		.uleb128 0x7
 6407 0cb4 E9110000 		.4byte	.LASF218
 6408 0cb8 10       		.byte	0x10
 6409 0cb9 B5       		.byte	0xb5
 6410 0cba 25000000 		.4byte	0x25
 6411 0cbe C8       		.byte	0xc8
 6412 0cbf 07       		.uleb128 0x7
 6413 0cc0 CC110000 		.4byte	.LASF219
 6414 0cc4 10       		.byte	0x10
 6415 0cc5 B6       		.byte	0xb6
 6416 0cc6 25000000 		.4byte	0x25
 6417 0cca CC       		.byte	0xcc
 6418 0ccb 07       		.uleb128 0x7
 6419 0ccc D3170000 		.4byte	.LASF220
 6420 0cd0 10       		.byte	0x10
 6421 0cd1 B7       		.byte	0xb7
 6422 0cd2 25000000 		.4byte	0x25
 6423 0cd6 D0       		.byte	0xd0
 6424 0cd7 07       		.uleb128 0x7
 6425 0cd8 121B0000 		.4byte	.LASF221
 6426 0cdc 10       		.byte	0x10
 6427 0cdd B8       		.byte	0xb8
 6428 0cde 25000000 		.4byte	0x25
 6429 0ce2 D4       		.byte	0xd4
 6430 0ce3 07       		.uleb128 0x7
 6431 0ce4 BC1F0000 		.4byte	.LASF222
 6432 0ce8 10       		.byte	0x10
 6433 0ce9 B9       		.byte	0xb9
 6434 0cea 25000000 		.4byte	0x25
 6435 0cee D8       		.byte	0xd8
 6436 0cef 07       		.uleb128 0x7
 6437 0cf0 3B0E0000 		.4byte	.LASF223
 6438 0cf4 10       		.byte	0x10
 6439 0cf5 BA       		.byte	0xba
 6440 0cf6 25000000 		.4byte	0x25
 6441 0cfa DC       		.byte	0xdc
 6442 0cfb 07       		.uleb128 0x7
 6443 0cfc E4170000 		.4byte	.LASF224
 6444 0d00 10       		.byte	0x10
 6445 0d01 BB       		.byte	0xbb
 6446 0d02 25000000 		.4byte	0x25
 6447 0d06 E0       		.byte	0xe0
 6448 0d07 07       		.uleb128 0x7
 6449 0d08 621B0000 		.4byte	.LASF225
 6450 0d0c 10       		.byte	0x10
 6451 0d0d BC       		.byte	0xbc
 6452 0d0e 8D090000 		.4byte	0x98d
 6453 0d12 E4       		.byte	0xe4
 6454 0d13 07       		.uleb128 0x7
 6455 0d14 410B0000 		.4byte	.LASF226
 6456 0d18 10       		.byte	0x10
 6457 0d19 BD       		.byte	0xbd
 6458 0d1a 370E0000 		.4byte	0xe37
 6459 0d1e E5       		.byte	0xe5
 6460 0d1f 07       		.uleb128 0x7
 6461 0d20 860C0000 		.4byte	.LASF227
 6462 0d24 10       		.byte	0x10
ARM GAS  C:\Users\euanm\AppData\Local\Temp\ccnlTGs7.s 			page 116


 6463 0d25 BE       		.byte	0xbe
 6464 0d26 25000000 		.4byte	0x25
 6465 0d2a F0       		.byte	0xf0
 6466 0d2b 07       		.uleb128 0x7
 6467 0d2c 7D170000 		.4byte	.LASF228
 6468 0d30 10       		.byte	0x10
 6469 0d31 C0       		.byte	0xc0
 6470 0d32 25000000 		.4byte	0x25
 6471 0d36 F4       		.byte	0xf4
 6472 0d37 07       		.uleb128 0x7
 6473 0d38 67170000 		.4byte	.LASF229
 6474 0d3c 10       		.byte	0x10
 6475 0d3d C1       		.byte	0xc1
 6476 0d3e 25000000 		.4byte	0x25
 6477 0d42 F8       		.byte	0xf8
 6478 0d43 07       		.uleb128 0x7
 6479 0d44 9B050000 		.4byte	.LASF230
 6480 0d48 10       		.byte	0x10
 6481 0d49 C2       		.byte	0xc2
 6482 0d4a 25000000 		.4byte	0x25
 6483 0d4e FC       		.byte	0xfc
 6484 0d4f 1C       		.uleb128 0x1c
 6485 0d50 6F060000 		.4byte	.LASF231
 6486 0d54 10       		.byte	0x10
 6487 0d55 C3       		.byte	0xc3
 6488 0d56 25000000 		.4byte	0x25
 6489 0d5a 0001     		.2byte	0x100
 6490 0d5c 1C       		.uleb128 0x1c
 6491 0d5d 981A0000 		.4byte	.LASF232
 6492 0d61 10       		.byte	0x10
 6493 0d62 C4       		.byte	0xc4
 6494 0d63 200E0000 		.4byte	0xe20
 6495 0d67 0401     		.2byte	0x104
 6496 0d69 1C       		.uleb128 0x1c
 6497 0d6a EB140000 		.4byte	.LASF233
 6498 0d6e 10       		.byte	0x10
 6499 0d6f C6       		.byte	0xc6
 6500 0d70 25000000 		.4byte	0x25
 6501 0d74 0801     		.2byte	0x108
 6502 0d76 1C       		.uleb128 0x1c
 6503 0d77 E2140000 		.4byte	.LASF234
 6504 0d7b 10       		.byte	0x10
 6505 0d7c C7       		.byte	0xc7
 6506 0d7d 25000000 		.4byte	0x25
 6507 0d81 0C01     		.2byte	0x10c
 6508 0d83 1C       		.uleb128 0x1c
 6509 0d84 D9140000 		.4byte	.LASF235
 6510 0d88 10       		.byte	0x10
 6511 0d89 C8       		.byte	0xc8
 6512 0d8a 25000000 		.4byte	0x25
 6513 0d8e 1001     		.2byte	0x110
 6514 0d90 1C       		.uleb128 0x1c
 6515 0d91 AE1F0000 		.4byte	.LASF236
 6516 0d95 10       		.byte	0x10
 6517 0d96 C9       		.byte	0xc9
 6518 0d97 25000000 		.4byte	0x25
 6519 0d9b 1401     		.2byte	0x114
ARM GAS  C:\Users\euanm\AppData\Local\Temp\ccnlTGs7.s 			page 117


 6520 0d9d 1C       		.uleb128 0x1c
 6521 0d9e 60010000 		.4byte	.LASF237
 6522 0da2 10       		.byte	0x10
 6523 0da3 CB       		.byte	0xcb
 6524 0da4 25000000 		.4byte	0x25
 6525 0da8 1801     		.2byte	0x118
 6526 0daa 1C       		.uleb128 0x1c
 6527 0dab 69090000 		.4byte	.LASF238
 6528 0daf 10       		.byte	0x10
 6529 0db0 CC       		.byte	0xcc
 6530 0db1 25000000 		.4byte	0x25
 6531 0db5 1C01     		.2byte	0x11c
 6532 0db7 1C       		.uleb128 0x1c
 6533 0db8 420D0000 		.4byte	.LASF239
 6534 0dbc 10       		.byte	0x10
 6535 0dbd CD       		.byte	0xcd
 6536 0dbe 25000000 		.4byte	0x25
 6537 0dc2 2001     		.2byte	0x120
 6538 0dc4 1C       		.uleb128 0x1c
 6539 0dc5 AC140000 		.4byte	.LASF240
 6540 0dc9 10       		.byte	0x10
 6541 0dca CE       		.byte	0xce
 6542 0dcb 25000000 		.4byte	0x25
 6543 0dcf 2401     		.2byte	0x124
 6544 0dd1 1C       		.uleb128 0x1c
 6545 0dd2 46050000 		.4byte	.LASF241
 6546 0dd6 10       		.byte	0x10
 6547 0dd7 D0       		.byte	0xd0
 6548 0dd8 EB000000 		.4byte	0xeb
 6549 0ddc 2801     		.2byte	0x128
 6550 0dde 1C       		.uleb128 0x1c
 6551 0ddf 4D1E0000 		.4byte	.LASF242
 6552 0de3 10       		.byte	0x10
 6553 0de4 D1       		.byte	0xd1
 6554 0de5 25000000 		.4byte	0x25
 6555 0de9 2C01     		.2byte	0x12c
 6556 0deb 1C       		.uleb128 0x1c
 6557 0dec 80020000 		.4byte	.LASF243
 6558 0df0 10       		.byte	0x10
 6559 0df1 D2       		.byte	0xd2
 6560 0df2 25000000 		.4byte	0x25
 6561 0df6 3001     		.2byte	0x130
 6562 0df8 1C       		.uleb128 0x1c
 6563 0df9 D70B0000 		.4byte	.LASF244
 6564 0dfd 10       		.byte	0x10
 6565 0dfe D3       		.byte	0xd3
 6566 0dff 25000000 		.4byte	0x25
 6567 0e03 3401     		.2byte	0x134
 6568 0e05 1C       		.uleb128 0x1c
 6569 0e06 1B220000 		.4byte	.LASF245
 6570 0e0a 10       		.byte	0x10
 6571 0e0b D4       		.byte	0xd4
 6572 0e0c F6000000 		.4byte	0xf6
 6573 0e10 3801     		.2byte	0x138
 6574 0e12 1C       		.uleb128 0x1c
 6575 0e13 AC0B0000 		.4byte	.LASF246
 6576 0e17 10       		.byte	0x10
ARM GAS  C:\Users\euanm\AppData\Local\Temp\ccnlTGs7.s 			page 118


 6577 0e18 D5       		.byte	0xd5
 6578 0e19 230A0000 		.4byte	0xa23
 6579 0e1d 3C01     		.2byte	0x13c
 6580 0e1f 00       		.byte	0
 6581 0e20 02       		.uleb128 0x2
 6582 0e21 01       		.byte	0x1
 6583 0e22 02       		.byte	0x2
 6584 0e23 8A000000 		.4byte	.LASF247
 6585 0e27 17       		.uleb128 0x17
 6586 0e28 BF000000 		.4byte	0xbf
 6587 0e2c 370E0000 		.4byte	0xe37
 6588 0e30 18       		.uleb128 0x18
 6589 0e31 CC040000 		.4byte	0x4cc
 6590 0e35 07       		.byte	0x7
 6591 0e36 00       		.byte	0
 6592 0e37 17       		.uleb128 0x17
 6593 0e38 CA000000 		.4byte	0xca
 6594 0e3c 470E0000 		.4byte	0xe47
 6595 0e40 18       		.uleb128 0x18
 6596 0e41 CC040000 		.4byte	0x4cc
 6597 0e45 07       		.byte	0x7
 6598 0e46 00       		.byte	0
 6599 0e47 03       		.uleb128 0x3
 6600 0e48 5E1E0000 		.4byte	.LASF248
 6601 0e4c 10       		.byte	0x10
 6602 0e4d D6       		.byte	0xd6
 6603 0e4e 2E0A0000 		.4byte	0xa2e
 6604 0e52 10       		.uleb128 0x10
 6605 0e53 34       		.byte	0x34
 6606 0e54 10       		.byte	0x10
 6607 0e55 E701     		.2byte	0x1e7
 6608 0e57 050F0000 		.4byte	0xf05
 6609 0e5b 09       		.uleb128 0x9
 6610 0e5c 38160000 		.4byte	.LASF249
 6611 0e60 10       		.byte	0x10
 6612 0e61 E801     		.2byte	0x1e8
 6613 0e63 F9090000 		.4byte	0x9f9
 6614 0e67 00       		.byte	0
 6615 0e68 09       		.uleb128 0x9
 6616 0e69 2A110000 		.4byte	.LASF250
 6617 0e6d 10       		.byte	0x10
 6618 0e6e E901     		.2byte	0x1e9
 6619 0e70 25000000 		.4byte	0x25
 6620 0e74 04       		.byte	0x4
 6621 0e75 09       		.uleb128 0x9
 6622 0e76 5E1D0000 		.4byte	.LASF251
 6623 0e7a 10       		.byte	0x10
 6624 0e7b EA01     		.2byte	0x1ea
 6625 0e7d 25000000 		.4byte	0x25
 6626 0e81 08       		.byte	0x8
 6627 0e82 09       		.uleb128 0x9
 6628 0e83 411B0000 		.4byte	.LASF252
 6629 0e87 10       		.byte	0x10
 6630 0e88 EB01     		.2byte	0x1eb
 6631 0e8a 25000000 		.4byte	0x25
 6632 0e8e 0C       		.byte	0xc
 6633 0e8f 09       		.uleb128 0x9
ARM GAS  C:\Users\euanm\AppData\Local\Temp\ccnlTGs7.s 			page 119


 6634 0e90 52170000 		.4byte	.LASF253
 6635 0e94 10       		.byte	0x10
 6636 0e95 EC01     		.2byte	0x1ec
 6637 0e97 25000000 		.4byte	0x25
 6638 0e9b 10       		.byte	0x10
 6639 0e9c 08       		.uleb128 0x8
 6640 0e9d 72706D00 		.ascii	"rpm\000"
 6641 0ea1 10       		.byte	0x10
 6642 0ea2 ED01     		.2byte	0x1ed
 6643 0ea4 25000000 		.4byte	0x25
 6644 0ea8 14       		.byte	0x14
 6645 0ea9 09       		.uleb128 0x9
 6646 0eaa F4160000 		.4byte	.LASF254
 6647 0eae 10       		.byte	0x10
 6648 0eaf EE01     		.2byte	0x1ee
 6649 0eb1 B1000000 		.4byte	0xb1
 6650 0eb5 18       		.byte	0x18
 6651 0eb6 09       		.uleb128 0x9
 6652 0eb7 00100000 		.4byte	.LASF255
 6653 0ebb 10       		.byte	0x10
 6654 0ebc EF01     		.2byte	0x1ef
 6655 0ebe B1000000 		.4byte	0xb1
 6656 0ec2 1C       		.byte	0x1c
 6657 0ec3 09       		.uleb128 0x9
 6658 0ec4 C1080000 		.4byte	.LASF256
 6659 0ec8 10       		.byte	0x10
 6660 0ec9 F001     		.2byte	0x1f0
 6661 0ecb B1000000 		.4byte	0xb1
 6662 0ecf 20       		.byte	0x20
 6663 0ed0 09       		.uleb128 0x9
 6664 0ed1 461D0000 		.4byte	.LASF257
 6665 0ed5 10       		.byte	0x10
 6666 0ed6 F101     		.2byte	0x1f1
 6667 0ed8 B1000000 		.4byte	0xb1
 6668 0edc 24       		.byte	0x24
 6669 0edd 09       		.uleb128 0x9
 6670 0ede 771A0000 		.4byte	.LASF258
 6671 0ee2 10       		.byte	0x10
 6672 0ee3 F201     		.2byte	0x1f2
 6673 0ee5 B1000000 		.4byte	0xb1
 6674 0ee9 28       		.byte	0x28
 6675 0eea 09       		.uleb128 0x9
 6676 0eeb 16150000 		.4byte	.LASF259
 6677 0eef 10       		.byte	0x10
 6678 0ef0 F301     		.2byte	0x1f3
 6679 0ef2 B1000000 		.4byte	0xb1
 6680 0ef6 2C       		.byte	0x2c
 6681 0ef7 09       		.uleb128 0x9
 6682 0ef8 3D1C0000 		.4byte	.LASF260
 6683 0efc 10       		.byte	0x10
 6684 0efd F401     		.2byte	0x1f4
 6685 0eff 25000000 		.4byte	0x25
 6686 0f03 30       		.byte	0x30
 6687 0f04 00       		.byte	0
 6688 0f05 11       		.uleb128 0x11
 6689 0f06 46210000 		.4byte	.LASF261
 6690 0f0a 10       		.byte	0x10
ARM GAS  C:\Users\euanm\AppData\Local\Temp\ccnlTGs7.s 			page 120


 6691 0f0b F501     		.2byte	0x1f5
 6692 0f0d 520E0000 		.4byte	0xe52
 6693 0f11 13       		.uleb128 0x13
 6694 0f12 04       		.byte	0x4
 6695 0f13 11       		.byte	0x11
 6696 0f14 B3       		.byte	0xb3
 6697 0f15 320F0000 		.4byte	0xf32
 6698 0f19 12       		.uleb128 0x12
 6699 0f1a 73657400 		.ascii	"set\000"
 6700 0f1e 11       		.byte	0x11
 6701 0f1f B4       		.byte	0xb4
 6702 0f20 E0000000 		.4byte	0xe0
 6703 0f24 00       		.byte	0
 6704 0f25 07       		.uleb128 0x7
 6705 0f26 9C090000 		.4byte	.LASF262
 6706 0f2a 11       		.byte	0x11
 6707 0f2b B5       		.byte	0xb5
 6708 0f2c E0000000 		.4byte	0xe0
 6709 0f30 02       		.byte	0x2
 6710 0f31 00       		.byte	0
 6711 0f32 14       		.uleb128 0x14
 6712 0f33 04       		.byte	0x4
 6713 0f34 11       		.byte	0x11
 6714 0f35 B1       		.byte	0xb1
 6715 0f36 4D0F0000 		.4byte	0xf4d
 6716 0f3a 1D       		.uleb128 0x1d
 6717 0f3b 5700     		.ascii	"W\000"
 6718 0f3d 11       		.byte	0x11
 6719 0f3e B2       		.byte	0xb2
 6720 0f3f F6000000 		.4byte	0xf6
 6721 0f43 1D       		.uleb128 0x1d
 6722 0f44 4800     		.ascii	"H\000"
 6723 0f46 11       		.byte	0x11
 6724 0f47 B6       		.byte	0xb6
 6725 0f48 110F0000 		.4byte	0xf11
 6726 0f4c 00       		.byte	0
 6727 0f4d 13       		.uleb128 0x13
 6728 0f4e 2C       		.byte	0x2c
 6729 0f4f 11       		.byte	0x11
 6730 0f50 A9       		.byte	0xa9
 6731 0f51 DA0F0000 		.4byte	0xfda
 6732 0f55 07       		.uleb128 0x7
 6733 0f56 0C1B0000 		.4byte	.LASF263
 6734 0f5a 11       		.byte	0x11
 6735 0f5b AB       		.byte	0xab
 6736 0f5c 2B010000 		.4byte	0x12b
 6737 0f60 00       		.byte	0
 6738 0f61 07       		.uleb128 0x7
 6739 0f62 99020000 		.4byte	.LASF264
 6740 0f66 11       		.byte	0x11
 6741 0f67 AC       		.byte	0xac
 6742 0f68 2B010000 		.4byte	0x12b
 6743 0f6c 04       		.byte	0x4
 6744 0f6d 07       		.uleb128 0x7
 6745 0f6e B40A0000 		.4byte	.LASF265
 6746 0f72 11       		.byte	0x11
 6747 0f73 AD       		.byte	0xad
ARM GAS  C:\Users\euanm\AppData\Local\Temp\ccnlTGs7.s 			page 121


 6748 0f74 2B010000 		.4byte	0x12b
 6749 0f78 08       		.byte	0x8
 6750 0f79 07       		.uleb128 0x7
 6751 0f7a 421A0000 		.4byte	.LASF266
 6752 0f7e 11       		.byte	0x11
 6753 0f7f AE       		.byte	0xae
 6754 0f80 2B010000 		.4byte	0x12b
 6755 0f84 0C       		.byte	0xc
 6756 0f85 12       		.uleb128 0x12
 6757 0f86 49445200 		.ascii	"IDR\000"
 6758 0f8a 11       		.byte	0x11
 6759 0f8b AF       		.byte	0xaf
 6760 0f8c 2B010000 		.4byte	0x12b
 6761 0f90 10       		.byte	0x10
 6762 0f91 12       		.uleb128 0x12
 6763 0f92 4F445200 		.ascii	"ODR\000"
 6764 0f96 11       		.byte	0x11
 6765 0f97 B0       		.byte	0xb0
 6766 0f98 2B010000 		.4byte	0x12b
 6767 0f9c 14       		.byte	0x14
 6768 0f9d 07       		.uleb128 0x7
 6769 0f9e 610E0000 		.4byte	.LASF267
 6770 0fa2 11       		.byte	0x11
 6771 0fa3 B7       		.byte	0xb7
 6772 0fa4 DA0F0000 		.4byte	0xfda
 6773 0fa8 18       		.byte	0x18
 6774 0fa9 07       		.uleb128 0x7
 6775 0faa CF130000 		.4byte	.LASF268
 6776 0fae 11       		.byte	0x11
 6777 0faf B8       		.byte	0xb8
 6778 0fb0 2B010000 		.4byte	0x12b
 6779 0fb4 1C       		.byte	0x1c
 6780 0fb5 07       		.uleb128 0x7
 6781 0fb6 A8170000 		.4byte	.LASF269
 6782 0fba 11       		.byte	0x11
 6783 0fbb B9       		.byte	0xb9
 6784 0fbc 2B010000 		.4byte	0x12b
 6785 0fc0 20       		.byte	0x20
 6786 0fc1 07       		.uleb128 0x7
 6787 0fc2 86170000 		.4byte	.LASF270
 6788 0fc6 11       		.byte	0x11
 6789 0fc7 BA       		.byte	0xba
 6790 0fc8 2B010000 		.4byte	0x12b
 6791 0fcc 24       		.byte	0x24
 6792 0fcd 12       		.uleb128 0x12
 6793 0fce 42525200 		.ascii	"BRR\000"
 6794 0fd2 11       		.byte	0x11
 6795 0fd3 BB       		.byte	0xbb
 6796 0fd4 2B010000 		.4byte	0x12b
 6797 0fd8 28       		.byte	0x28
 6798 0fd9 00       		.byte	0
 6799 0fda 05       		.uleb128 0x5
 6800 0fdb 320F0000 		.4byte	0xf32
 6801 0fdf 03       		.uleb128 0x3
 6802 0fe0 F90B0000 		.4byte	.LASF271
 6803 0fe4 11       		.byte	0x11
 6804 0fe5 BC       		.byte	0xbc
ARM GAS  C:\Users\euanm\AppData\Local\Temp\ccnlTGs7.s 			page 122


 6805 0fe6 4D0F0000 		.4byte	0xf4d
 6806 0fea 0A       		.uleb128 0xa
 6807 0feb 04       		.byte	0x4
 6808 0fec F00F0000 		.4byte	0xff0
 6809 0ff0 1E       		.uleb128 0x1e
 6810 0ff1 02       		.uleb128 0x2
 6811 0ff2 08       		.byte	0x8
 6812 0ff3 04       		.byte	0x4
 6813 0ff4 7F180000 		.4byte	.LASF272
 6814 0ff8 02       		.uleb128 0x2
 6815 0ff9 08       		.byte	0x8
 6816 0ffa 04       		.byte	0x4
 6817 0ffb 57140000 		.4byte	.LASF273
 6818 0fff 1F       		.uleb128 0x1f
 6819 1000 271F0000 		.4byte	.LASF278
 6820 1004 03       		.byte	0x3
 6821 1005 2002     		.2byte	0x220
 6822 1007 03       		.byte	0x3
 6823 1008 19100000 		.4byte	0x1019
 6824 100c 20       		.uleb128 0x20
 6825 100d 61080000 		.4byte	.LASF280
 6826 1011 03       		.byte	0x3
 6827 1012 2002     		.2byte	0x220
 6828 1014 F6000000 		.4byte	0xf6
 6829 1018 00       		.byte	0
 6830 1019 21       		.uleb128 0x21
 6831 101a 4D140000 		.4byte	.LASF274
 6832 101e 0C       		.byte	0xc
 6833 101f BC01     		.2byte	0x1bc
 6834 1021 03       		.byte	0x3
 6835 1022 21       		.uleb128 0x21
 6836 1023 58120000 		.4byte	.LASF275
 6837 1027 0C       		.byte	0xc
 6838 1028 CA01     		.2byte	0x1ca
 6839 102a 03       		.byte	0x3
 6840 102b 21       		.uleb128 0x21
 6841 102c C10F0000 		.4byte	.LASF276
 6842 1030 0C       		.byte	0xc
 6843 1031 D901     		.2byte	0x1d9
 6844 1033 03       		.byte	0x3
 6845 1034 21       		.uleb128 0x21
 6846 1035 6A0F0000 		.4byte	.LASF277
 6847 1039 0C       		.byte	0xc
 6848 103a E401     		.2byte	0x1e4
 6849 103c 03       		.byte	0x3
 6850 103d 22       		.uleb128 0x22
 6851 103e 19160000 		.4byte	.LASF493
 6852 1042 18       		.byte	0x18
 6853 1043 AE       		.byte	0xae
 6854 1044 B9020000 		.4byte	0x2b9
 6855 1048 03       		.byte	0x3
 6856 1049 23       		.uleb128 0x23
 6857 104a EF1B0000 		.4byte	.LASF279
 6858 104e 02       		.byte	0x2
 6859 104f 84       		.byte	0x84
 6860 1050 03       		.byte	0x3
 6861 1051 61100000 		.4byte	0x1061
ARM GAS  C:\Users\euanm\AppData\Local\Temp\ccnlTGs7.s 			page 123


 6862 1055 24       		.uleb128 0x24
 6863 1056 A21D0000 		.4byte	.LASF281
 6864 105a 02       		.byte	0x2
 6865 105b 84       		.byte	0x84
 6866 105c 53080000 		.4byte	0x853
 6867 1060 00       		.byte	0
 6868 1061 25       		.uleb128 0x25
 6869 1062 130E0000 		.4byte	.LASF494
 6870 1066 01       		.byte	0x1
 6871 1067 5402     		.2byte	0x254
 6872 1069 25000000 		.4byte	0x25
 6873 106d 01       		.byte	0x1
 6874 106e 7F100000 		.4byte	0x107f
 6875 1072 26       		.uleb128 0x26
 6876 1073 72657400 		.ascii	"ret\000"
 6877 1077 01       		.byte	0x1
 6878 1078 5502     		.2byte	0x255
 6879 107a 25000000 		.4byte	0x25
 6880 107e 00       		.byte	0
 6881 107f 27       		.uleb128 0x27
 6882 1080 041F0000 		.4byte	.LASF283
 6883 1084 01       		.byte	0x1
 6884 1085 2E01     		.2byte	0x12e
 6885 1087 01       		.byte	0x1
 6886 1088 99100000 		.4byte	0x1099
 6887 108c 20       		.uleb128 0x20
 6888 108d 970D0000 		.4byte	.LASF282
 6889 1091 01       		.byte	0x1
 6890 1092 2E01     		.2byte	0x12e
 6891 1094 25000000 		.4byte	0x25
 6892 1098 00       		.byte	0
 6893 1099 27       		.uleb128 0x27
 6894 109a C9120000 		.4byte	.LASF284
 6895 109e 01       		.byte	0x1
 6896 109f 9D01     		.2byte	0x19d
 6897 10a1 01       		.byte	0x1
 6898 10a2 B3100000 		.4byte	0x10b3
 6899 10a6 20       		.uleb128 0x20
 6900 10a7 2A110000 		.4byte	.LASF250
 6901 10ab 01       		.byte	0x1
 6902 10ac 9D01     		.2byte	0x19d
 6903 10ae 25000000 		.4byte	0x25
 6904 10b2 00       		.byte	0
 6905 10b3 1F       		.uleb128 0x1f
 6906 10b4 A0020000 		.4byte	.LASF285
 6907 10b8 12       		.byte	0x12
 6908 10b9 6601     		.2byte	0x166
 6909 10bb 03       		.byte	0x3
 6910 10bc CE100000 		.4byte	0x10ce
 6911 10c0 28       		.uleb128 0x28
 6912 10c1 3F000000 		.4byte	.LASF286
 6913 10c5 DE100000 		.4byte	0x10de
 6914 10c9 A0020000 		.4byte	.LASF285
 6915 10cd 00       		.byte	0
 6916 10ce 17       		.uleb128 0x17
 6917 10cf 60080000 		.4byte	0x860
 6918 10d3 DE100000 		.4byte	0x10de
ARM GAS  C:\Users\euanm\AppData\Local\Temp\ccnlTGs7.s 			page 124


 6919 10d7 18       		.uleb128 0x18
 6920 10d8 CC040000 		.4byte	0x4cc
 6921 10dc 0B       		.byte	0xb
 6922 10dd 00       		.byte	0
 6923 10de 16       		.uleb128 0x16
 6924 10df CE100000 		.4byte	0x10ce
 6925 10e3 21       		.uleb128 0x21
 6926 10e4 3F040000 		.4byte	.LASF287
 6927 10e8 12       		.byte	0x12
 6928 10e9 5A01     		.2byte	0x15a
 6929 10eb 03       		.byte	0x3
 6930 10ec 21       		.uleb128 0x21
 6931 10ed 8C150000 		.4byte	.LASF288
 6932 10f1 12       		.byte	0x12
 6933 10f2 9601     		.2byte	0x196
 6934 10f4 03       		.byte	0x3
 6935 10f5 21       		.uleb128 0x21
 6936 10f6 C01E0000 		.4byte	.LASF289
 6937 10fa 12       		.byte	0x12
 6938 10fb 8201     		.2byte	0x182
 6939 10fd 03       		.byte	0x3
 6940 10fe 1F       		.uleb128 0x1f
 6941 10ff AA110000 		.4byte	.LASF290
 6942 1103 01       		.byte	0x1
 6943 1104 A004     		.2byte	0x4a0
 6944 1106 01       		.byte	0x1
 6945 1107 3E110000 		.4byte	0x113e
 6946 110b 20       		.uleb128 0x20
 6947 110c 4D130000 		.4byte	.LASF291
 6948 1110 01       		.byte	0x1
 6949 1111 A004     		.2byte	0x4a0
 6950 1113 3E110000 		.4byte	0x113e
 6951 1117 29       		.uleb128 0x29
 6952 1118 8B050000 		.4byte	.LASF292
 6953 111c 01       		.byte	0x1
 6954 111d A104     		.2byte	0x4a1
 6955 111f 49110000 		.4byte	0x1149
 6956 1123 29       		.uleb128 0x29
 6957 1124 CE100000 		.4byte	.LASF293
 6958 1128 01       		.byte	0x1
 6959 1129 A204     		.2byte	0x4a2
 6960 112b 49110000 		.4byte	0x1149
 6961 112f 2A       		.uleb128 0x2a
 6962 1130 29       		.uleb128 0x29
 6963 1131 F2040000 		.4byte	.LASF294
 6964 1135 01       		.byte	0x1
 6965 1136 AD04     		.2byte	0x4ad
 6966 1138 25000000 		.4byte	0x25
 6967 113c 00       		.byte	0
 6968 113d 00       		.byte	0
 6969 113e 0A       		.uleb128 0xa
 6970 113f 04       		.byte	0x4
 6971 1140 44110000 		.4byte	0x1144
 6972 1144 05       		.uleb128 0x5
 6973 1145 470E0000 		.4byte	0xe47
 6974 1149 16       		.uleb128 0x16
 6975 114a 25000000 		.4byte	0x25
ARM GAS  C:\Users\euanm\AppData\Local\Temp\ccnlTGs7.s 			page 125


 6976 114e 2B       		.uleb128 0x2b
 6977 114f F91A0000 		.4byte	.LASF358
 6978 1153 01       		.byte	0x1
 6979 1154 E404     		.2byte	0x4e4
 6980 1156 00000000 		.4byte	.LFB310
 6981 115a 30010000 		.4byte	.LFE310-.LFB310
 6982 115e 01       		.uleb128 0x1
 6983 115f 9C       		.byte	0x9c
 6984 1160 FC110000 		.4byte	0x11fc
 6985 1164 2C       		.uleb128 0x2c
 6986 1165 61726700 		.ascii	"arg\000"
 6987 1169 01       		.byte	0x1
 6988 116a E404     		.2byte	0x4e4
 6989 116c 96030000 		.4byte	0x396
 6990 1170 00000000 		.4byte	.LLST0
 6991 1174 2D       		.uleb128 0x2d
 6992 1175 49100000 		.4byte	0x1049
 6993 1179 04000000 		.4byte	.LBB69
 6994 117d 00000000 		.4byte	.Ldebug_ranges0+0
 6995 1181 01       		.byte	0x1
 6996 1182 E704     		.2byte	0x4e7
 6997 1184 92110000 		.4byte	0x1192
 6998 1188 2E       		.uleb128 0x2e
 6999 1189 55100000 		.4byte	0x1055
 7000 118d 21000000 		.4byte	.LLST1
 7001 1191 00       		.byte	0
 7002 1192 2F       		.uleb128 0x2f
 7003 1193 30000000 		.4byte	.LBB73
 7004 1197 00010000 		.4byte	.LBE73-.LBB73
 7005 119b EC110000 		.4byte	0x11ec
 7006 119f 30       		.uleb128 0x30
 7007 11a0 6900     		.ascii	"i\000"
 7008 11a2 01       		.byte	0x1
 7009 11a3 EE04     		.2byte	0x4ee
 7010 11a5 B1000000 		.4byte	0xb1
 7011 11a9 39000000 		.4byte	.LLST2
 7012 11ad 31       		.uleb128 0x31
 7013 11ae 3A000000 		.4byte	.LBB74
 7014 11b2 B2000000 		.4byte	.LBE74-.LBB74
 7015 11b6 32       		.uleb128 0x32
 7016 11b7 ED160000 		.4byte	.LASF295
 7017 11bb 01       		.byte	0x1
 7018 11bc EF04     		.2byte	0x4ef
 7019 11be FC110000 		.4byte	0x11fc
 7020 11c2 02       		.uleb128 0x2
 7021 11c3 91       		.byte	0x91
 7022 11c4 44       		.sleb128 -60
 7023 11c5 33       		.uleb128 0x33
 7024 11c6 B3030000 		.4byte	.LASF296
 7025 11ca 01       		.byte	0x1
 7026 11cb F004     		.2byte	0x4f0
 7027 11cd B1000000 		.4byte	0xb1
 7028 11d1 70000000 		.4byte	.LLST3
 7029 11d5 34       		.uleb128 0x34
 7030 11d6 EC000000 		.4byte	.LVL12
 7031 11da 89280000 		.4byte	0x2889
 7032 11de 35       		.uleb128 0x35
ARM GAS  C:\Users\euanm\AppData\Local\Temp\ccnlTGs7.s 			page 126


 7033 11df 01       		.uleb128 0x1
 7034 11e0 50       		.byte	0x50
 7035 11e1 02       		.uleb128 0x2
 7036 11e2 91       		.byte	0x91
 7037 11e3 44       		.sleb128 -60
 7038 11e4 35       		.uleb128 0x35
 7039 11e5 01       		.uleb128 0x1
 7040 11e6 51       		.byte	0x51
 7041 11e7 01       		.uleb128 0x1
 7042 11e8 41       		.byte	0x41
 7043 11e9 00       		.byte	0
 7044 11ea 00       		.byte	0
 7045 11eb 00       		.byte	0
 7046 11ec 34       		.uleb128 0x34
 7047 11ed 30000000 		.4byte	.LVL3
 7048 11f1 94280000 		.4byte	0x2894
 7049 11f5 35       		.uleb128 0x35
 7050 11f6 01       		.uleb128 0x1
 7051 11f7 50       		.byte	0x50
 7052 11f8 01       		.uleb128 0x1
 7053 11f9 31       		.byte	0x31
 7054 11fa 00       		.byte	0
 7055 11fb 00       		.byte	0
 7056 11fc 17       		.uleb128 0x17
 7057 11fd CA000000 		.4byte	0xca
 7058 1201 0C120000 		.4byte	0x120c
 7059 1205 18       		.uleb128 0x18
 7060 1206 CC040000 		.4byte	0x4cc
 7061 120a 13       		.byte	0x13
 7062 120b 00       		.byte	0
 7063 120c 36       		.uleb128 0x36
 7064 120d 7F100000 		.4byte	0x107f
 7065 1211 00000000 		.4byte	.LFB312
 7066 1215 1C000000 		.4byte	.LFE312-.LFB312
 7067 1219 01       		.uleb128 0x1
 7068 121a 9C       		.byte	0x9c
 7069 121b 4A120000 		.4byte	0x124a
 7070 121f 2E       		.uleb128 0x2e
 7071 1220 8C100000 		.4byte	0x108c
 7072 1224 D8000000 		.4byte	.LLST4
 7073 1228 37       		.uleb128 0x37
 7074 1229 12000000 		.4byte	.LVL15
 7075 122d 9F280000 		.4byte	0x289f
 7076 1231 40120000 		.4byte	0x1240
 7077 1235 35       		.uleb128 0x35
 7078 1236 02       		.uleb128 0x2
 7079 1237 90       		.byte	0x90
 7080 1238 40       		.uleb128 0x40
 7081 1239 05       		.uleb128 0x5
 7082 123a F3       		.byte	0xf3
 7083 123b 03       		.uleb128 0x3
 7084 123c F5       		.byte	0xf5
 7085 123d 40       		.uleb128 0x40
 7086 123e 25       		.uleb128 0x25
 7087 123f 00       		.byte	0
 7088 1240 38       		.uleb128 0x38
 7089 1241 18000000 		.4byte	.LVL16
ARM GAS  C:\Users\euanm\AppData\Local\Temp\ccnlTGs7.s 			page 127


 7090 1245 AA280000 		.4byte	0x28aa
 7091 1249 00       		.byte	0
 7092 124a 36       		.uleb128 0x36
 7093 124b 99100000 		.4byte	0x1099
 7094 124f 00000000 		.4byte	.LFB313
 7095 1253 1C000000 		.4byte	.LFE313-.LFB313
 7096 1257 01       		.uleb128 0x1
 7097 1258 9C       		.byte	0x9c
 7098 1259 88120000 		.4byte	0x1288
 7099 125d 2E       		.uleb128 0x2e
 7100 125e A6100000 		.4byte	0x10a6
 7101 1262 18010000 		.4byte	.LLST5
 7102 1266 37       		.uleb128 0x37
 7103 1267 12000000 		.4byte	.LVL18
 7104 126b B5280000 		.4byte	0x28b5
 7105 126f 7E120000 		.4byte	0x127e
 7106 1273 35       		.uleb128 0x35
 7107 1274 02       		.uleb128 0x2
 7108 1275 90       		.byte	0x90
 7109 1276 40       		.uleb128 0x40
 7110 1277 05       		.uleb128 0x5
 7111 1278 F3       		.byte	0xf3
 7112 1279 03       		.uleb128 0x3
 7113 127a F5       		.byte	0xf5
 7114 127b 40       		.uleb128 0x40
 7115 127c 25       		.uleb128 0x25
 7116 127d 00       		.byte	0
 7117 127e 38       		.uleb128 0x38
 7118 127f 18000000 		.4byte	.LVL19
 7119 1283 C0280000 		.4byte	0x28c0
 7120 1287 00       		.byte	0
 7121 1288 39       		.uleb128 0x39
 7122 1289 74210000 		.4byte	.LASF298
 7123 128d 01       		.byte	0x1
 7124 128e 5F       		.byte	0x5f
 7125 128f 00000000 		.4byte	.LFB256
 7126 1293 68010000 		.4byte	.LFE256-.LFB256
 7127 1297 01       		.uleb128 0x1
 7128 1298 9C       		.byte	0x9c
 7129 1299 93130000 		.4byte	0x1393
 7130 129d 3A       		.uleb128 0x3a
 7131 129e 3E160000 		.4byte	.LASF297
 7132 12a2 01       		.byte	0x1
 7133 12a3 5F       		.byte	0x5f
 7134 12a4 93130000 		.4byte	0x1393
 7135 12a8 58010000 		.4byte	.LLST6
 7136 12ac 3B       		.uleb128 0x3b
 7137 12ad 18000000 		.4byte	.LVL22
 7138 12b1 CB280000 		.4byte	0x28cb
 7139 12b5 CD120000 		.4byte	0x12cd
 7140 12b9 35       		.uleb128 0x35
 7141 12ba 01       		.uleb128 0x1
 7142 12bb 50       		.byte	0x50
 7143 12bc 02       		.uleb128 0x2
 7144 12bd 75       		.byte	0x75
 7145 12be 00       		.sleb128 0
 7146 12bf 35       		.uleb128 0x35
ARM GAS  C:\Users\euanm\AppData\Local\Temp\ccnlTGs7.s 			page 128


 7147 12c0 01       		.uleb128 0x1
 7148 12c1 51       		.byte	0x51
 7149 12c2 02       		.uleb128 0x2
 7150 12c3 74       		.byte	0x74
 7151 12c4 00       		.sleb128 0
 7152 12c5 35       		.uleb128 0x35
 7153 12c6 01       		.uleb128 0x1
 7154 12c7 52       		.byte	0x52
 7155 12c8 03       		.uleb128 0x3
 7156 12c9 0A       		.byte	0xa
 7157 12ca 4001     		.2byte	0x140
 7158 12cc 00       		.byte	0
 7159 12cd 3B       		.uleb128 0x3b
 7160 12ce 24000000 		.4byte	.LVL23
 7161 12d2 CB280000 		.4byte	0x28cb
 7162 12d6 F1120000 		.4byte	0x12f1
 7163 12da 35       		.uleb128 0x35
 7164 12db 01       		.uleb128 0x1
 7165 12dc 50       		.byte	0x50
 7166 12dd 05       		.uleb128 0x5
 7167 12de 03       		.byte	0x3
 7168 12df 00000000 		.4byte	.LANCHOR12
 7169 12e3 35       		.uleb128 0x35
 7170 12e4 01       		.uleb128 0x1
 7171 12e5 51       		.byte	0x51
 7172 12e6 02       		.uleb128 0x2
 7173 12e7 74       		.byte	0x74
 7174 12e8 00       		.sleb128 0
 7175 12e9 35       		.uleb128 0x35
 7176 12ea 01       		.uleb128 0x1
 7177 12eb 52       		.byte	0x52
 7178 12ec 03       		.uleb128 0x3
 7179 12ed 0A       		.byte	0xa
 7180 12ee 4001     		.2byte	0x140
 7181 12f0 00       		.byte	0
 7182 12f1 3B       		.uleb128 0x3b
 7183 12f2 9C000000 		.4byte	.LVL25
 7184 12f6 D4280000 		.4byte	0x28d4
 7185 12fa 1E130000 		.4byte	0x131e
 7186 12fe 35       		.uleb128 0x35
 7187 12ff 01       		.uleb128 0x1
 7188 1300 50       		.byte	0x50
 7189 1301 05       		.uleb128 0x5
 7190 1302 03       		.byte	0x3
 7191 1303 00000000 		.4byte	.LANCHOR34
 7192 1307 35       		.uleb128 0x35
 7193 1308 01       		.uleb128 0x1
 7194 1309 51       		.byte	0x51
 7195 130a 03       		.uleb128 0x3
 7196 130b 0A       		.byte	0xa
 7197 130c 9805     		.2byte	0x598
 7198 130e 35       		.uleb128 0x35
 7199 130f 01       		.uleb128 0x1
 7200 1310 52       		.byte	0x52
 7201 1311 02       		.uleb128 0x2
 7202 1312 08       		.byte	0x8
 7203 1313 40       		.byte	0x40
ARM GAS  C:\Users\euanm\AppData\Local\Temp\ccnlTGs7.s 			page 129


 7204 1314 35       		.uleb128 0x35
 7205 1315 01       		.uleb128 0x1
 7206 1316 53       		.byte	0x53
 7207 1317 05       		.uleb128 0x5
 7208 1318 03       		.byte	0x3
 7209 1319 00000000 		.4byte	timer_thread
 7210 131d 00       		.byte	0
 7211 131e 3B       		.uleb128 0x3b
 7212 131f AC000000 		.4byte	.LVL26
 7213 1323 D4280000 		.4byte	0x28d4
 7214 1327 52130000 		.4byte	0x1352
 7215 132b 35       		.uleb128 0x35
 7216 132c 01       		.uleb128 0x1
 7217 132d 50       		.byte	0x50
 7218 132e 05       		.uleb128 0x5
 7219 132f 03       		.byte	0x3
 7220 1330 00000000 		.4byte	.LANCHOR35
 7221 1334 35       		.uleb128 0x35
 7222 1335 01       		.uleb128 0x1
 7223 1336 51       		.byte	0x51
 7224 1337 03       		.uleb128 0x3
 7225 1338 0A       		.byte	0xa
 7226 1339 9805     		.2byte	0x598
 7227 133b 35       		.uleb128 0x35
 7228 133c 01       		.uleb128 0x1
 7229 133d 52       		.byte	0x52
 7230 133e 02       		.uleb128 0x2
 7231 133f 08       		.byte	0x8
 7232 1340 3F       		.byte	0x3f
 7233 1341 35       		.uleb128 0x35
 7234 1342 01       		.uleb128 0x1
 7235 1343 53       		.byte	0x53
 7236 1344 05       		.uleb128 0x5
 7237 1345 03       		.byte	0x3
 7238 1346 00000000 		.4byte	sample_send_thread
 7239 134a 35       		.uleb128 0x35
 7240 134b 02       		.uleb128 0x2
 7241 134c 7D       		.byte	0x7d
 7242 134d 00       		.sleb128 0
 7243 134e 02       		.uleb128 0x2
 7244 134f 74       		.byte	0x74
 7245 1350 00       		.sleb128 0
 7246 1351 00       		.byte	0
 7247 1352 37       		.uleb128 0x37
 7248 1353 D2000000 		.4byte	.LVL27
 7249 1357 DF280000 		.4byte	0x28df
 7250 135b 69130000 		.4byte	0x1369
 7251 135f 35       		.uleb128 0x35
 7252 1360 01       		.uleb128 0x1
 7253 1361 50       		.byte	0x50
 7254 1362 05       		.uleb128 0x5
 7255 1363 03       		.byte	0x3
 7256 1364 00000000 		.4byte	.LANCHOR11
 7257 1368 00       		.byte	0
 7258 1369 3C       		.uleb128 0x3c
 7259 136a D6000000 		.4byte	.LVL28
 7260 136e EA280000 		.4byte	0x28ea
ARM GAS  C:\Users\euanm\AppData\Local\Temp\ccnlTGs7.s 			page 130


 7261 1372 37       		.uleb128 0x37
 7262 1373 EA000000 		.4byte	.LVL29
 7263 1377 F5280000 		.4byte	0x28f5
 7264 137b 89130000 		.4byte	0x1389
 7265 137f 35       		.uleb128 0x35
 7266 1380 01       		.uleb128 0x1
 7267 1381 50       		.byte	0x50
 7268 1382 05       		.uleb128 0x5
 7269 1383 03       		.byte	0x3
 7270 1384 00000000 		.4byte	.LANCHOR11
 7271 1388 00       		.byte	0
 7272 1389 3C       		.uleb128 0x3c
 7273 138a F6000000 		.4byte	.LVL30
 7274 138e 00290000 		.4byte	0x2900
 7275 1392 00       		.byte	0
 7276 1393 0A       		.uleb128 0xa
 7277 1394 04       		.byte	0x4
 7278 1395 470E0000 		.4byte	0xe47
 7279 1399 3D       		.uleb128 0x3d
 7280 139a 801C0000 		.4byte	.LASF304
 7281 139e 01       		.byte	0x1
 7282 139f 9E       		.byte	0x9e
 7283 13a0 AE130000 		.4byte	0x13ae
 7284 13a4 00000000 		.4byte	.LFB257
 7285 13a8 08000000 		.4byte	.LFE257-.LFB257
 7286 13ac 01       		.uleb128 0x1
 7287 13ad 9C       		.byte	0x9c
 7288 13ae 0A       		.uleb128 0xa
 7289 13af 04       		.byte	0x4
 7290 13b0 B4130000 		.4byte	0x13b4
 7291 13b4 16       		.uleb128 0x16
 7292 13b5 44110000 		.4byte	0x1144
 7293 13b9 3E       		.uleb128 0x3e
 7294 13ba A2000000 		.4byte	.LASF306
 7295 13be 01       		.byte	0x1
 7296 13bf D8       		.byte	0xd8
 7297 13c0 200E0000 		.4byte	0xe20
 7298 13c4 00000000 		.4byte	.LFB259
 7299 13c8 20000000 		.4byte	.LFE259-.LFB259
 7300 13cc 01       		.uleb128 0x1
 7301 13cd 9C       		.byte	0x9c
 7302 13ce F1130000 		.4byte	0x13f1
 7303 13d2 3F       		.uleb128 0x3f
 7304 13d3 72657400 		.ascii	"ret\000"
 7305 13d7 01       		.byte	0x1
 7306 13d8 D9       		.byte	0xd9
 7307 13d9 200E0000 		.4byte	0xe20
 7308 13dd 00       		.byte	0
 7309 13de 38       		.uleb128 0x38
 7310 13df 12000000 		.4byte	.LVL32
 7311 13e3 0B290000 		.4byte	0x290b
 7312 13e7 38       		.uleb128 0x38
 7313 13e8 1A000000 		.4byte	.LVL33
 7314 13ec 16290000 		.4byte	0x2916
 7315 13f0 00       		.byte	0
 7316 13f1 39       		.uleb128 0x39
 7317 13f2 22070000 		.4byte	.LASF299
ARM GAS  C:\Users\euanm\AppData\Local\Temp\ccnlTGs7.s 			page 131


 7318 13f6 01       		.byte	0x1
 7319 13f7 F1       		.byte	0xf1
 7320 13f8 00000000 		.4byte	.LFB260
 7321 13fc 0C000000 		.4byte	.LFE260-.LFB260
 7322 1400 01       		.uleb128 0x1
 7323 1401 9C       		.byte	0x9c
 7324 1402 14140000 		.4byte	0x1414
 7325 1406 40       		.uleb128 0x40
 7326 1407 C6200000 		.4byte	.LASF300
 7327 140b 01       		.byte	0x1
 7328 140c F1       		.byte	0xf1
 7329 140d EA0F0000 		.4byte	0xfea
 7330 1411 01       		.uleb128 0x1
 7331 1412 50       		.byte	0x50
 7332 1413 00       		.byte	0
 7333 1414 41       		.uleb128 0x41
 7334 1415 920C0000 		.4byte	.LASF301
 7335 1419 01       		.byte	0x1
 7336 141a F8       		.byte	0xf8
 7337 141b 00000000 		.4byte	.LFB261
 7338 141f 0C000000 		.4byte	.LFE261-.LFB261
 7339 1423 01       		.uleb128 0x1
 7340 1424 9C       		.byte	0x9c
 7341 1425 41       		.uleb128 0x41
 7342 1426 CD010000 		.4byte	.LASF302
 7343 142a 01       		.byte	0x1
 7344 142b FF       		.byte	0xff
 7345 142c 00000000 		.4byte	.LFB262
 7346 1430 0C000000 		.4byte	.LFE262-.LFB262
 7347 1434 01       		.uleb128 0x1
 7348 1435 9C       		.byte	0x9c
 7349 1436 42       		.uleb128 0x42
 7350 1437 86210000 		.4byte	.LASF303
 7351 143b 01       		.byte	0x1
 7352 143c 0601     		.2byte	0x106
 7353 143e 00000000 		.4byte	.LFB263
 7354 1442 0C000000 		.4byte	.LFE263-.LFB263
 7355 1446 01       		.uleb128 0x1
 7356 1447 9C       		.byte	0x9c
 7357 1448 43       		.uleb128 0x43
 7358 1449 4C0C0000 		.4byte	.LASF305
 7359 144d 01       		.byte	0x1
 7360 144e 0A01     		.2byte	0x10a
 7361 1450 F9090000 		.4byte	0x9f9
 7362 1454 00000000 		.4byte	.LFB264
 7363 1458 0C000000 		.4byte	.LFE264-.LFB264
 7364 145c 01       		.uleb128 0x1
 7365 145d 9C       		.byte	0x9c
 7366 145e 44       		.uleb128 0x44
 7367 145f D3070000 		.4byte	.LASF307
 7368 1463 01       		.byte	0x1
 7369 1464 0E01     		.2byte	0x10e
 7370 1466 53080000 		.4byte	0x853
 7371 146a 00000000 		.4byte	.LFB265
 7372 146e 18000000 		.4byte	.LFE265-.LFB265
 7373 1472 01       		.uleb128 0x1
 7374 1473 9C       		.byte	0x9c
ARM GAS  C:\Users\euanm\AppData\Local\Temp\ccnlTGs7.s 			page 132


 7375 1474 89140000 		.4byte	0x1489
 7376 1478 45       		.uleb128 0x45
 7377 1479 38160000 		.4byte	.LASF249
 7378 147d 01       		.byte	0x1
 7379 147e 0E01     		.2byte	0x10e
 7380 1480 F9090000 		.4byte	0x9f9
 7381 1484 8F010000 		.4byte	.LLST7
 7382 1488 00       		.byte	0
 7383 1489 44       		.uleb128 0x44
 7384 148a 491C0000 		.4byte	.LASF308
 7385 148e 01       		.byte	0x1
 7386 148f 1B01     		.2byte	0x11b
 7387 1491 BB080000 		.4byte	0x8bb
 7388 1495 00000000 		.4byte	.LFB266
 7389 1499 20000000 		.4byte	.LFE266-.LFB266
 7390 149d 01       		.uleb128 0x1
 7391 149e 9C       		.byte	0x9c
 7392 149f C3140000 		.4byte	0x14c3
 7393 14a3 46       		.uleb128 0x46
 7394 14a4 72657400 		.ascii	"ret\000"
 7395 14a8 01       		.byte	0x1
 7396 14a9 1C01     		.2byte	0x11c
 7397 14ab BB080000 		.4byte	0x8bb
 7398 14af 00       		.byte	0
 7399 14b0 38       		.uleb128 0x38
 7400 14b1 12000000 		.4byte	.LVL38
 7401 14b5 21290000 		.4byte	0x2921
 7402 14b9 38       		.uleb128 0x38
 7403 14ba 1A000000 		.4byte	.LVL39
 7404 14be 2C290000 		.4byte	0x292c
 7405 14c2 00       		.byte	0
 7406 14c3 43       		.uleb128 0x43
 7407 14c4 03090000 		.4byte	.LASF309
 7408 14c8 01       		.byte	0x1
 7409 14c9 7E01     		.2byte	0x17e
 7410 14cb EB080000 		.4byte	0x8eb
 7411 14cf 00000000 		.4byte	.LFB271
 7412 14d3 0C000000 		.4byte	.LFE271-.LFB271
 7413 14d7 01       		.uleb128 0x1
 7414 14d8 9C       		.byte	0x9c
 7415 14d9 47       		.uleb128 0x47
 7416 14da 23080000 		.4byte	.LASF310
 7417 14de 01       		.byte	0x1
 7418 14df 8301     		.2byte	0x183
 7419 14e1 00000000 		.4byte	.LFB272
 7420 14e5 0C000000 		.4byte	.LFE272-.LFB272
 7421 14e9 01       		.uleb128 0x1
 7422 14ea 9C       		.byte	0x9c
 7423 14eb FE140000 		.4byte	0x14fe
 7424 14ef 48       		.uleb128 0x48
 7425 14f0 4F110000 		.4byte	.LASF311
 7426 14f4 01       		.byte	0x1
 7427 14f5 8301     		.2byte	0x183
 7428 14f7 EB080000 		.4byte	0x8eb
 7429 14fb 01       		.uleb128 0x1
 7430 14fc 50       		.byte	0x50
 7431 14fd 00       		.byte	0
ARM GAS  C:\Users\euanm\AppData\Local\Temp\ccnlTGs7.s 			page 133


 7432 14fe 44       		.uleb128 0x44
 7433 14ff CD160000 		.4byte	.LASF312
 7434 1503 01       		.byte	0x1
 7435 1504 2C02     		.2byte	0x22c
 7436 1506 25000000 		.4byte	0x25
 7437 150a 00000000 		.4byte	.LFB281
 7438 150e 24000000 		.4byte	.LFE281-.LFB281
 7439 1512 01       		.uleb128 0x1
 7440 1513 9C       		.byte	0x9c
 7441 1514 3C150000 		.4byte	0x153c
 7442 1518 49       		.uleb128 0x49
 7443 1519 72657400 		.ascii	"ret\000"
 7444 151d 01       		.byte	0x1
 7445 151e 2D02     		.2byte	0x22d
 7446 1520 25000000 		.4byte	0x25
 7447 1524 04       		.byte	0x4
 7448 1525 00000000 		.4byte	0
 7449 1529 38       		.uleb128 0x38
 7450 152a 12000000 		.4byte	.LVL42
 7451 152e 37290000 		.4byte	0x2937
 7452 1532 38       		.uleb128 0x38
 7453 1533 1C000000 		.4byte	.LVL43
 7454 1537 42290000 		.4byte	0x2942
 7455 153b 00       		.byte	0
 7456 153c 44       		.uleb128 0x44
 7457 153d 500B0000 		.4byte	.LASF313
 7458 1541 01       		.byte	0x1
 7459 1542 4002     		.2byte	0x240
 7460 1544 25000000 		.4byte	0x25
 7461 1548 00000000 		.4byte	.LFB282
 7462 154c 24000000 		.4byte	.LFE282-.LFB282
 7463 1550 01       		.uleb128 0x1
 7464 1551 9C       		.byte	0x9c
 7465 1552 7A150000 		.4byte	0x157a
 7466 1556 49       		.uleb128 0x49
 7467 1557 72657400 		.ascii	"ret\000"
 7468 155b 01       		.byte	0x1
 7469 155c 4102     		.2byte	0x241
 7470 155e 25000000 		.4byte	0x25
 7471 1562 04       		.byte	0x4
 7472 1563 00000000 		.4byte	0
 7473 1567 38       		.uleb128 0x38
 7474 1568 12000000 		.4byte	.LVL45
 7475 156c 4D290000 		.4byte	0x294d
 7476 1570 38       		.uleb128 0x38
 7477 1571 1C000000 		.4byte	.LVL46
 7478 1575 58290000 		.4byte	0x2958
 7479 1579 00       		.byte	0
 7480 157a 44       		.uleb128 0x44
 7481 157b 6F1E0000 		.4byte	.LASF314
 7482 157f 01       		.byte	0x1
 7483 1580 1402     		.2byte	0x214
 7484 1582 25000000 		.4byte	0x25
 7485 1586 00000000 		.4byte	.LFB280
 7486 158a 44000000 		.4byte	.LFE280-.LFB280
 7487 158e 01       		.uleb128 0x1
 7488 158f 9C       		.byte	0x9c
ARM GAS  C:\Users\euanm\AppData\Local\Temp\ccnlTGs7.s 			page 134


 7489 1590 B7150000 		.4byte	0x15b7
 7490 1594 33       		.uleb128 0x33
 7491 1595 B9010000 		.4byte	.LASF315
 7492 1599 01       		.byte	0x1
 7493 159a 1502     		.2byte	0x215
 7494 159c 25000000 		.4byte	0x25
 7495 15a0 B0010000 		.4byte	.LLST8
 7496 15a4 3C       		.uleb128 0x3c
 7497 15a5 0E000000 		.4byte	.LVL47
 7498 15a9 3C150000 		.4byte	0x153c
 7499 15ad 3C       		.uleb128 0x3c
 7500 15ae 2C000000 		.4byte	.LVL50
 7501 15b2 4D290000 		.4byte	0x294d
 7502 15b6 00       		.byte	0
 7503 15b7 36       		.uleb128 0x36
 7504 15b8 61100000 		.4byte	0x1061
 7505 15bc 00000000 		.4byte	.LFB283
 7506 15c0 34000000 		.4byte	.LFE283-.LFB283
 7507 15c4 01       		.uleb128 0x1
 7508 15c5 9C       		.byte	0x9c
 7509 15c6 F9150000 		.4byte	0x15f9
 7510 15ca 4A       		.uleb128 0x4a
 7511 15cb 72100000 		.4byte	0x1072
 7512 15cf D0010000 		.4byte	.LLST9
 7513 15d3 2F       		.uleb128 0x2f
 7514 15d4 10000000 		.4byte	.LBB78
 7515 15d8 0E000000 		.4byte	.LBE78-.LBB78
 7516 15dc EF150000 		.4byte	0x15ef
 7517 15e0 4B       		.uleb128 0x4b
 7518 15e1 72100000 		.4byte	0x1072
 7519 15e5 3C       		.uleb128 0x3c
 7520 15e6 14000000 		.4byte	.LVL53
 7521 15ea 63290000 		.4byte	0x2963
 7522 15ee 00       		.byte	0
 7523 15ef 38       		.uleb128 0x38
 7524 15f0 2C000000 		.4byte	.LVL56
 7525 15f4 6E290000 		.4byte	0x296e
 7526 15f8 00       		.byte	0
 7527 15f9 44       		.uleb128 0x44
 7528 15fa 9F0A0000 		.4byte	.LASF316
 7529 15fe 01       		.byte	0x1
 7530 15ff 6802     		.2byte	0x268
 7531 1601 25000000 		.4byte	0x25
 7532 1605 00000000 		.4byte	.LFB284
 7533 1609 24000000 		.4byte	.LFE284-.LFB284
 7534 160d 01       		.uleb128 0x1
 7535 160e 9C       		.byte	0x9c
 7536 160f 37160000 		.4byte	0x1637
 7537 1613 49       		.uleb128 0x49
 7538 1614 72657400 		.ascii	"ret\000"
 7539 1618 01       		.byte	0x1
 7540 1619 6902     		.2byte	0x269
 7541 161b 25000000 		.4byte	0x25
 7542 161f 04       		.byte	0x4
 7543 1620 00000000 		.4byte	0
 7544 1624 38       		.uleb128 0x38
 7545 1625 12000000 		.4byte	.LVL58
ARM GAS  C:\Users\euanm\AppData\Local\Temp\ccnlTGs7.s 			page 135


 7546 1629 79290000 		.4byte	0x2979
 7547 162d 38       		.uleb128 0x38
 7548 162e 1C000000 		.4byte	.LVL59
 7549 1632 84290000 		.4byte	0x2984
 7550 1636 00       		.byte	0
 7551 1637 44       		.uleb128 0x44
 7552 1638 071E0000 		.4byte	.LASF317
 7553 163c 01       		.byte	0x1
 7554 163d 8502     		.2byte	0x285
 7555 163f 25000000 		.4byte	0x25
 7556 1643 00000000 		.4byte	.LFB285
 7557 1647 20000000 		.4byte	.LFE285-.LFB285
 7558 164b 01       		.uleb128 0x1
 7559 164c 9C       		.byte	0x9c
 7560 164d 6F160000 		.4byte	0x166f
 7561 1651 48       		.uleb128 0x48
 7562 1652 FA0F0000 		.4byte	.LASF318
 7563 1656 01       		.byte	0x1
 7564 1657 8502     		.2byte	0x285
 7565 1659 200E0000 		.4byte	0xe20
 7566 165d 01       		.uleb128 0x1
 7567 165e 50       		.byte	0x50
 7568 165f 4C       		.uleb128 0x4c
 7569 1660 76616C00 		.ascii	"val\000"
 7570 1664 01       		.byte	0x1
 7571 1665 8602     		.2byte	0x286
 7572 1667 25000000 		.4byte	0x25
 7573 166b 02       		.uleb128 0x2
 7574 166c 90       		.byte	0x90
 7575 166d 40       		.uleb128 0x40
 7576 166e 00       		.byte	0
 7577 166f 44       		.uleb128 0x44
 7578 1670 67160000 		.4byte	.LASF319
 7579 1674 01       		.byte	0x1
 7580 1675 9802     		.2byte	0x298
 7581 1677 25000000 		.4byte	0x25
 7582 167b 00000000 		.4byte	.LFB286
 7583 167f 20000000 		.4byte	.LFE286-.LFB286
 7584 1683 01       		.uleb128 0x1
 7585 1684 9C       		.byte	0x9c
 7586 1685 A7160000 		.4byte	0x16a7
 7587 1689 48       		.uleb128 0x48
 7588 168a FA0F0000 		.4byte	.LASF318
 7589 168e 01       		.byte	0x1
 7590 168f 9802     		.2byte	0x298
 7591 1691 200E0000 		.4byte	0xe20
 7592 1695 01       		.uleb128 0x1
 7593 1696 50       		.byte	0x50
 7594 1697 4C       		.uleb128 0x4c
 7595 1698 76616C00 		.ascii	"val\000"
 7596 169c 01       		.byte	0x1
 7597 169d 9902     		.2byte	0x299
 7598 169f 25000000 		.4byte	0x25
 7599 16a3 02       		.uleb128 0x2
 7600 16a4 90       		.byte	0x90
 7601 16a5 40       		.uleb128 0x40
 7602 16a6 00       		.byte	0
ARM GAS  C:\Users\euanm\AppData\Local\Temp\ccnlTGs7.s 			page 136


 7603 16a7 44       		.uleb128 0x44
 7604 16a8 BD140000 		.4byte	.LASF320
 7605 16ac 01       		.byte	0x1
 7606 16ad AB02     		.2byte	0x2ab
 7607 16af 25000000 		.4byte	0x25
 7608 16b3 00000000 		.4byte	.LFB287
 7609 16b7 24000000 		.4byte	.LFE287-.LFB287
 7610 16bb 01       		.uleb128 0x1
 7611 16bc 9C       		.byte	0x9c
 7612 16bd DF160000 		.4byte	0x16df
 7613 16c1 48       		.uleb128 0x48
 7614 16c2 FA0F0000 		.4byte	.LASF318
 7615 16c6 01       		.byte	0x1
 7616 16c7 AB02     		.2byte	0x2ab
 7617 16c9 200E0000 		.4byte	0xe20
 7618 16cd 01       		.uleb128 0x1
 7619 16ce 50       		.byte	0x50
 7620 16cf 4C       		.uleb128 0x4c
 7621 16d0 76616C00 		.ascii	"val\000"
 7622 16d4 01       		.byte	0x1
 7623 16d5 AC02     		.2byte	0x2ac
 7624 16d7 25000000 		.4byte	0x25
 7625 16db 02       		.uleb128 0x2
 7626 16dc 90       		.byte	0x90
 7627 16dd 40       		.uleb128 0x40
 7628 16de 00       		.byte	0
 7629 16df 44       		.uleb128 0x44
 7630 16e0 40200000 		.4byte	.LASF321
 7631 16e4 01       		.byte	0x1
 7632 16e5 BE02     		.2byte	0x2be
 7633 16e7 25000000 		.4byte	0x25
 7634 16eb 00000000 		.4byte	.LFB288
 7635 16ef 20000000 		.4byte	.LFE288-.LFB288
 7636 16f3 01       		.uleb128 0x1
 7637 16f4 9C       		.byte	0x9c
 7638 16f5 17170000 		.4byte	0x1717
 7639 16f9 48       		.uleb128 0x48
 7640 16fa FA0F0000 		.4byte	.LASF318
 7641 16fe 01       		.byte	0x1
 7642 16ff BE02     		.2byte	0x2be
 7643 1701 200E0000 		.4byte	0xe20
 7644 1705 01       		.uleb128 0x1
 7645 1706 50       		.byte	0x50
 7646 1707 4C       		.uleb128 0x4c
 7647 1708 76616C00 		.ascii	"val\000"
 7648 170c 01       		.byte	0x1
 7649 170d BF02     		.2byte	0x2bf
 7650 170f 25000000 		.4byte	0x25
 7651 1713 02       		.uleb128 0x2
 7652 1714 90       		.byte	0x90
 7653 1715 40       		.uleb128 0x40
 7654 1716 00       		.byte	0
 7655 1717 44       		.uleb128 0x44
 7656 1718 100A0000 		.4byte	.LASF322
 7657 171c 01       		.byte	0x1
 7658 171d C802     		.2byte	0x2c8
 7659 171f 25000000 		.4byte	0x25
ARM GAS  C:\Users\euanm\AppData\Local\Temp\ccnlTGs7.s 			page 137


 7660 1723 00000000 		.4byte	.LFB289
 7661 1727 24000000 		.4byte	.LFE289-.LFB289
 7662 172b 01       		.uleb128 0x1
 7663 172c 9C       		.byte	0x9c
 7664 172d 55170000 		.4byte	0x1755
 7665 1731 49       		.uleb128 0x49
 7666 1732 72657400 		.ascii	"ret\000"
 7667 1736 01       		.byte	0x1
 7668 1737 C902     		.2byte	0x2c9
 7669 1739 25000000 		.4byte	0x25
 7670 173d 04       		.byte	0x4
 7671 173e 00000000 		.4byte	0
 7672 1742 38       		.uleb128 0x38
 7673 1743 12000000 		.4byte	.LVL69
 7674 1747 8F290000 		.4byte	0x298f
 7675 174b 38       		.uleb128 0x38
 7676 174c 1C000000 		.4byte	.LVL70
 7677 1750 9A290000 		.4byte	0x299a
 7678 1754 00       		.byte	0
 7679 1755 44       		.uleb128 0x44
 7680 1756 A9130000 		.4byte	.LASF323
 7681 175a 01       		.byte	0x1
 7682 175b DC02     		.2byte	0x2dc
 7683 175d 25000000 		.4byte	0x25
 7684 1761 00000000 		.4byte	.LFB290
 7685 1765 24000000 		.4byte	.LFE290-.LFB290
 7686 1769 01       		.uleb128 0x1
 7687 176a 9C       		.byte	0x9c
 7688 176b 93170000 		.4byte	0x1793
 7689 176f 49       		.uleb128 0x49
 7690 1770 72657400 		.ascii	"ret\000"
 7691 1774 01       		.byte	0x1
 7692 1775 DD02     		.2byte	0x2dd
 7693 1777 25000000 		.4byte	0x25
 7694 177b 04       		.byte	0x4
 7695 177c 00000000 		.4byte	0
 7696 1780 38       		.uleb128 0x38
 7697 1781 12000000 		.4byte	.LVL72
 7698 1785 A5290000 		.4byte	0x29a5
 7699 1789 38       		.uleb128 0x38
 7700 178a 1C000000 		.4byte	.LVL73
 7701 178e B0290000 		.4byte	0x29b0
 7702 1792 00       		.byte	0
 7703 1793 44       		.uleb128 0x44
 7704 1794 03020000 		.4byte	.LASF324
 7705 1798 01       		.byte	0x1
 7706 1799 F002     		.2byte	0x2f0
 7707 179b 25000000 		.4byte	0x25
 7708 179f 00000000 		.4byte	.LFB291
 7709 17a3 24000000 		.4byte	.LFE291-.LFB291
 7710 17a7 01       		.uleb128 0x1
 7711 17a8 9C       		.byte	0x9c
 7712 17a9 D1170000 		.4byte	0x17d1
 7713 17ad 49       		.uleb128 0x49
 7714 17ae 72657400 		.ascii	"ret\000"
 7715 17b2 01       		.byte	0x1
 7716 17b3 F102     		.2byte	0x2f1
ARM GAS  C:\Users\euanm\AppData\Local\Temp\ccnlTGs7.s 			page 138


 7717 17b5 25000000 		.4byte	0x25
 7718 17b9 04       		.byte	0x4
 7719 17ba 00000000 		.4byte	0
 7720 17be 38       		.uleb128 0x38
 7721 17bf 12000000 		.4byte	.LVL75
 7722 17c3 BB290000 		.4byte	0x29bb
 7723 17c7 38       		.uleb128 0x38
 7724 17c8 1C000000 		.4byte	.LVL76
 7725 17cc C6290000 		.4byte	0x29c6
 7726 17d0 00       		.byte	0
 7727 17d1 44       		.uleb128 0x44
 7728 17d2 69100000 		.4byte	.LASF325
 7729 17d6 01       		.byte	0x1
 7730 17d7 0403     		.2byte	0x304
 7731 17d9 25000000 		.4byte	0x25
 7732 17dd 00000000 		.4byte	.LFB292
 7733 17e1 24000000 		.4byte	.LFE292-.LFB292
 7734 17e5 01       		.uleb128 0x1
 7735 17e6 9C       		.byte	0x9c
 7736 17e7 0F180000 		.4byte	0x180f
 7737 17eb 49       		.uleb128 0x49
 7738 17ec 72657400 		.ascii	"ret\000"
 7739 17f0 01       		.byte	0x1
 7740 17f1 0503     		.2byte	0x305
 7741 17f3 25000000 		.4byte	0x25
 7742 17f7 04       		.byte	0x4
 7743 17f8 00000000 		.4byte	0
 7744 17fc 38       		.uleb128 0x38
 7745 17fd 12000000 		.4byte	.LVL78
 7746 1801 D1290000 		.4byte	0x29d1
 7747 1805 38       		.uleb128 0x38
 7748 1806 1C000000 		.4byte	.LVL79
 7749 180a DC290000 		.4byte	0x29dc
 7750 180e 00       		.byte	0
 7751 180f 44       		.uleb128 0x44
 7752 1810 D0060000 		.4byte	.LASF326
 7753 1814 01       		.byte	0x1
 7754 1815 1803     		.2byte	0x318
 7755 1817 25000000 		.4byte	0x25
 7756 181b 00000000 		.4byte	.LFB293
 7757 181f 24000000 		.4byte	.LFE293-.LFB293
 7758 1823 01       		.uleb128 0x1
 7759 1824 9C       		.byte	0x9c
 7760 1825 4D180000 		.4byte	0x184d
 7761 1829 49       		.uleb128 0x49
 7762 182a 72657400 		.ascii	"ret\000"
 7763 182e 01       		.byte	0x1
 7764 182f 1903     		.2byte	0x319
 7765 1831 25000000 		.4byte	0x25
 7766 1835 04       		.byte	0x4
 7767 1836 00000000 		.4byte	0
 7768 183a 38       		.uleb128 0x38
 7769 183b 12000000 		.4byte	.LVL81
 7770 183f E7290000 		.4byte	0x29e7
 7771 1843 38       		.uleb128 0x38
 7772 1844 1C000000 		.4byte	.LVL82
 7773 1848 F2290000 		.4byte	0x29f2
ARM GAS  C:\Users\euanm\AppData\Local\Temp\ccnlTGs7.s 			page 139


 7774 184c 00       		.byte	0
 7775 184d 44       		.uleb128 0x44
 7776 184e C9040000 		.4byte	.LASF327
 7777 1852 01       		.byte	0x1
 7778 1853 2C03     		.2byte	0x32c
 7779 1855 25000000 		.4byte	0x25
 7780 1859 00000000 		.4byte	.LFB294
 7781 185d 24000000 		.4byte	.LFE294-.LFB294
 7782 1861 01       		.uleb128 0x1
 7783 1862 9C       		.byte	0x9c
 7784 1863 8B180000 		.4byte	0x188b
 7785 1867 49       		.uleb128 0x49
 7786 1868 72657400 		.ascii	"ret\000"
 7787 186c 01       		.byte	0x1
 7788 186d 2D03     		.2byte	0x32d
 7789 186f 25000000 		.4byte	0x25
 7790 1873 04       		.byte	0x4
 7791 1874 00000000 		.4byte	0
 7792 1878 38       		.uleb128 0x38
 7793 1879 12000000 		.4byte	.LVL84
 7794 187d FD290000 		.4byte	0x29fd
 7795 1881 38       		.uleb128 0x38
 7796 1882 1C000000 		.4byte	.LVL85
 7797 1886 082A0000 		.4byte	0x2a08
 7798 188a 00       		.byte	0
 7799 188b 44       		.uleb128 0x44
 7800 188c F4140000 		.4byte	.LASF328
 7801 1890 01       		.byte	0x1
 7802 1891 4003     		.2byte	0x340
 7803 1893 B1000000 		.4byte	0xb1
 7804 1897 00000000 		.4byte	.LFB295
 7805 189b 20000000 		.4byte	.LFE295-.LFB295
 7806 189f 01       		.uleb128 0x1
 7807 18a0 9C       		.byte	0x9c
 7808 18a1 D5180000 		.4byte	0x18d5
 7809 18a5 45       		.uleb128 0x45
 7810 18a6 FA0F0000 		.4byte	.LASF318
 7811 18aa 01       		.byte	0x1
 7812 18ab 4003     		.2byte	0x340
 7813 18ad 200E0000 		.4byte	0xe20
 7814 18b1 04020000 		.4byte	.LLST10
 7815 18b5 46       		.uleb128 0x46
 7816 18b6 72657400 		.ascii	"ret\000"
 7817 18ba 01       		.byte	0x1
 7818 18bb 4103     		.2byte	0x341
 7819 18bd B1000000 		.4byte	0xb1
 7820 18c1 00       		.byte	0
 7821 18c2 38       		.uleb128 0x38
 7822 18c3 12000000 		.4byte	.LVL87
 7823 18c7 132A0000 		.4byte	0x2a13
 7824 18cb 38       		.uleb128 0x38
 7825 18cc 1A000000 		.4byte	.LVL90
 7826 18d0 1E2A0000 		.4byte	0x2a1e
 7827 18d4 00       		.byte	0
 7828 18d5 44       		.uleb128 0x44
 7829 18d6 AD170000 		.4byte	.LASF329
 7830 18da 01       		.byte	0x1
ARM GAS  C:\Users\euanm\AppData\Local\Temp\ccnlTGs7.s 			page 140


 7831 18db 5403     		.2byte	0x354
 7832 18dd B1000000 		.4byte	0xb1
 7833 18e1 00000000 		.4byte	.LFB296
 7834 18e5 20000000 		.4byte	.LFE296-.LFB296
 7835 18e9 01       		.uleb128 0x1
 7836 18ea 9C       		.byte	0x9c
 7837 18eb 1F190000 		.4byte	0x191f
 7838 18ef 45       		.uleb128 0x45
 7839 18f0 FA0F0000 		.4byte	.LASF318
 7840 18f4 01       		.byte	0x1
 7841 18f5 5403     		.2byte	0x354
 7842 18f7 200E0000 		.4byte	0xe20
 7843 18fb 57020000 		.4byte	.LLST11
 7844 18ff 46       		.uleb128 0x46
 7845 1900 72657400 		.ascii	"ret\000"
 7846 1904 01       		.byte	0x1
 7847 1905 5503     		.2byte	0x355
 7848 1907 B1000000 		.4byte	0xb1
 7849 190b 00       		.byte	0
 7850 190c 38       		.uleb128 0x38
 7851 190d 12000000 		.4byte	.LVL92
 7852 1911 292A0000 		.4byte	0x2a29
 7853 1915 38       		.uleb128 0x38
 7854 1916 1A000000 		.4byte	.LVL95
 7855 191a 342A0000 		.4byte	0x2a34
 7856 191e 00       		.byte	0
 7857 191f 44       		.uleb128 0x44
 7858 1920 280F0000 		.4byte	.LASF330
 7859 1924 01       		.byte	0x1
 7860 1925 6803     		.2byte	0x368
 7861 1927 25000000 		.4byte	0x25
 7862 192b 00000000 		.4byte	.LFB297
 7863 192f 24000000 		.4byte	.LFE297-.LFB297
 7864 1933 01       		.uleb128 0x1
 7865 1934 9C       		.byte	0x9c
 7866 1935 5D190000 		.4byte	0x195d
 7867 1939 49       		.uleb128 0x49
 7868 193a 72657400 		.ascii	"ret\000"
 7869 193e 01       		.byte	0x1
 7870 193f 6903     		.2byte	0x369
 7871 1941 25000000 		.4byte	0x25
 7872 1945 04       		.byte	0x4
 7873 1946 00000000 		.4byte	0
 7874 194a 38       		.uleb128 0x38
 7875 194b 12000000 		.4byte	.LVL97
 7876 194f 3F2A0000 		.4byte	0x2a3f
 7877 1953 38       		.uleb128 0x38
 7878 1954 1C000000 		.4byte	.LVL98
 7879 1958 4A2A0000 		.4byte	0x2a4a
 7880 195c 00       		.byte	0
 7881 195d 44       		.uleb128 0x44
 7882 195e F0070000 		.4byte	.LASF331
 7883 1962 01       		.byte	0x1
 7884 1963 7C03     		.2byte	0x37c
 7885 1965 25000000 		.4byte	0x25
 7886 1969 00000000 		.4byte	.LFB298
 7887 196d 20000000 		.4byte	.LFE298-.LFB298
ARM GAS  C:\Users\euanm\AppData\Local\Temp\ccnlTGs7.s 			page 141


 7888 1971 01       		.uleb128 0x1
 7889 1972 9C       		.byte	0x9c
 7890 1973 88190000 		.4byte	0x1988
 7891 1977 30       		.uleb128 0x30
 7892 1978 72657300 		.ascii	"res\000"
 7893 197c 01       		.byte	0x1
 7894 197d 7D03     		.2byte	0x37d
 7895 197f 25000000 		.4byte	0x25
 7896 1983 AA020000 		.4byte	.LLST12
 7897 1987 00       		.byte	0
 7898 1988 44       		.uleb128 0x44
 7899 1989 750A0000 		.4byte	.LASF332
 7900 198d 01       		.byte	0x1
 7901 198e 8303     		.2byte	0x383
 7902 1990 25000000 		.4byte	0x25
 7903 1994 00000000 		.4byte	.LFB299
 7904 1998 20000000 		.4byte	.LFE299-.LFB299
 7905 199c 01       		.uleb128 0x1
 7906 199d 9C       		.byte	0x9c
 7907 199e B3190000 		.4byte	0x19b3
 7908 19a2 30       		.uleb128 0x30
 7909 19a3 72657300 		.ascii	"res\000"
 7910 19a7 01       		.byte	0x1
 7911 19a8 8403     		.2byte	0x384
 7912 19aa 25000000 		.4byte	0x25
 7913 19ae D0020000 		.4byte	.LLST13
 7914 19b2 00       		.byte	0
 7915 19b3 43       		.uleb128 0x43
 7916 19b4 D11A0000 		.4byte	.LASF333
 7917 19b8 01       		.byte	0x1
 7918 19b9 8A03     		.2byte	0x38a
 7919 19bb 25000000 		.4byte	0x25
 7920 19bf 00000000 		.4byte	.LFB300
 7921 19c3 0C000000 		.4byte	.LFE300-.LFB300
 7922 19c7 01       		.uleb128 0x1
 7923 19c8 9C       		.byte	0x9c
 7924 19c9 44       		.uleb128 0x44
 7925 19ca 7D0E0000 		.4byte	.LASF334
 7926 19ce 01       		.byte	0x1
 7927 19cf 8E03     		.2byte	0x38e
 7928 19d1 25000000 		.4byte	0x25
 7929 19d5 00000000 		.4byte	.LFB301
 7930 19d9 24000000 		.4byte	.LFE301-.LFB301
 7931 19dd 01       		.uleb128 0x1
 7932 19de 9C       		.byte	0x9c
 7933 19df 071A0000 		.4byte	0x1a07
 7934 19e3 49       		.uleb128 0x49
 7935 19e4 72657400 		.ascii	"ret\000"
 7936 19e8 01       		.byte	0x1
 7937 19e9 8F03     		.2byte	0x38f
 7938 19eb 25000000 		.4byte	0x25
 7939 19ef 04       		.byte	0x4
 7940 19f0 00000000 		.4byte	0
 7941 19f4 38       		.uleb128 0x38
 7942 19f5 12000000 		.4byte	.LVL104
 7943 19f9 552A0000 		.4byte	0x2a55
 7944 19fd 38       		.uleb128 0x38
ARM GAS  C:\Users\euanm\AppData\Local\Temp\ccnlTGs7.s 			page 142


 7945 19fe 1C000000 		.4byte	.LVL105
 7946 1a02 602A0000 		.4byte	0x2a60
 7947 1a06 00       		.byte	0
 7948 1a07 43       		.uleb128 0x43
 7949 1a08 B50E0000 		.4byte	.LASF335
 7950 1a0c 01       		.byte	0x1
 7951 1a0d A203     		.2byte	0x3a2
 7952 1a0f 25000000 		.4byte	0x25
 7953 1a13 00000000 		.4byte	.LFB302
 7954 1a17 0C000000 		.4byte	.LFE302-.LFB302
 7955 1a1b 01       		.uleb128 0x1
 7956 1a1c 9C       		.byte	0x9c
 7957 1a1d 47       		.uleb128 0x47
 7958 1a1e 60130000 		.4byte	.LASF336
 7959 1a22 01       		.byte	0x1
 7960 1a23 A603     		.2byte	0x3a6
 7961 1a25 00000000 		.4byte	.LFB303
 7962 1a29 48000000 		.4byte	.LFE303-.LFB303
 7963 1a2d 01       		.uleb128 0x1
 7964 1a2e 9C       		.byte	0x9c
 7965 1a2f 6D1A0000 		.4byte	0x1a6d
 7966 1a33 45       		.uleb128 0x45
 7967 1a34 2A120000 		.4byte	.LASF337
 7968 1a38 01       		.byte	0x1
 7969 1a39 A603     		.2byte	0x3a6
 7970 1a3b 200E0000 		.4byte	0xe20
 7971 1a3f F6020000 		.4byte	.LLST14
 7972 1a43 2C       		.uleb128 0x2c
 7973 1a44 6C656E00 		.ascii	"len\000"
 7974 1a48 01       		.byte	0x1
 7975 1a49 A603     		.2byte	0x3a6
 7976 1a4b E0000000 		.4byte	0xe0
 7977 1a4f 17030000 		.4byte	.LLST15
 7978 1a53 45       		.uleb128 0x45
 7979 1a54 1D210000 		.4byte	.LASF338
 7980 1a58 01       		.byte	0x1
 7981 1a59 A603     		.2byte	0x3a6
 7982 1a5b CA000000 		.4byte	0xca
 7983 1a5f 6D030000 		.4byte	.LLST16
 7984 1a63 3C       		.uleb128 0x3c
 7985 1a64 2A000000 		.4byte	.LVL111
 7986 1a68 6B2A0000 		.4byte	0x2a6b
 7987 1a6c 00       		.byte	0
 7988 1a6d 44       		.uleb128 0x44
 7989 1a6e FE110000 		.4byte	.LASF339
 7990 1a72 01       		.byte	0x1
 7991 1a73 C003     		.2byte	0x3c0
 7992 1a75 B1000000 		.4byte	0xb1
 7993 1a79 00000000 		.4byte	.LFB304
 7994 1a7d 40000000 		.4byte	.LFE304-.LFB304
 7995 1a81 01       		.uleb128 0x1
 7996 1a82 9C       		.byte	0x9c
 7997 1a83 AA1A0000 		.4byte	0x1aaa
 7998 1a87 33       		.uleb128 0x33
 7999 1a88 2A1E0000 		.4byte	.LASF340
 8000 1a8c 01       		.byte	0x1
 8001 1a8d C703     		.2byte	0x3c7
ARM GAS  C:\Users\euanm\AppData\Local\Temp\ccnlTGs7.s 			page 143


 8002 1a8f B1000000 		.4byte	0xb1
 8003 1a93 A7030000 		.4byte	.LLST17
 8004 1a97 3C       		.uleb128 0x3c
 8005 1a98 06000000 		.4byte	.LVL112
 8006 1a9c 89140000 		.4byte	0x1489
 8007 1aa0 3C       		.uleb128 0x3c
 8008 1aa1 28000000 		.4byte	.LVL116
 8009 1aa5 762A0000 		.4byte	0x2a76
 8010 1aa9 00       		.byte	0
 8011 1aaa 36       		.uleb128 0x36
 8012 1aab 7F100000 		.4byte	0x107f
 8013 1aaf 00000000 		.4byte	.LFB267
 8014 1ab3 26000000 		.4byte	.LFE267-.LFB267
 8015 1ab7 01       		.uleb128 0x1
 8016 1ab8 9C       		.byte	0x9c
 8017 1ab9 E41A0000 		.4byte	0x1ae4
 8018 1abd 2E       		.uleb128 0x2e
 8019 1abe 8C100000 		.4byte	0x108c
 8020 1ac2 C8030000 		.4byte	.LLST18
 8021 1ac6 3C       		.uleb128 0x3c
 8022 1ac7 0E000000 		.4byte	.LVL119
 8023 1acb 6D1A0000 		.4byte	0x1a6d
 8024 1acf 4D       		.uleb128 0x4d
 8025 1ad0 20000000 		.4byte	.LVL121
 8026 1ad4 0C120000 		.4byte	0x120c
 8027 1ad8 35       		.uleb128 0x35
 8028 1ad9 02       		.uleb128 0x2
 8029 1ada 90       		.byte	0x90
 8030 1adb 40       		.uleb128 0x40
 8031 1adc 05       		.uleb128 0x5
 8032 1add F3       		.byte	0xf3
 8033 1ade 03       		.uleb128 0x3
 8034 1adf F5       		.byte	0xf5
 8035 1ae0 40       		.uleb128 0x40
 8036 1ae1 25       		.uleb128 0x25
 8037 1ae2 00       		.byte	0
 8038 1ae3 00       		.byte	0
 8039 1ae4 47       		.uleb128 0x47
 8040 1ae5 EC080000 		.4byte	.LASF341
 8041 1ae9 01       		.byte	0x1
 8042 1aea 0902     		.2byte	0x209
 8043 1aec 00000000 		.4byte	.LFB278
 8044 1af0 1C000000 		.4byte	.LFE278-.LFB278
 8045 1af4 01       		.uleb128 0x1
 8046 1af5 9C       		.byte	0x9c
 8047 1af6 351B0000 		.4byte	0x1b35
 8048 1afa 4E       		.uleb128 0x4e
 8049 1afb 7F100000 		.4byte	0x107f
 8050 1aff 02000000 		.4byte	.LBB79
 8051 1b03 18000000 		.4byte	.Ldebug_ranges0+0x18
 8052 1b07 01       		.byte	0x1
 8053 1b08 0A02     		.2byte	0x20a
 8054 1b0a 4F       		.uleb128 0x4f
 8055 1b0b 8C100000 		.4byte	0x108c
 8056 1b0f 04       		.byte	0x4
 8057 1b10 00000000 		.4byte	0
 8058 1b14 3C       		.uleb128 0x3c
ARM GAS  C:\Users\euanm\AppData\Local\Temp\ccnlTGs7.s 			page 144


 8059 1b15 06000000 		.4byte	.LVL124
 8060 1b19 6D1A0000 		.4byte	0x1a6d
 8061 1b1d 4D       		.uleb128 0x4d
 8062 1b1e 16000000 		.4byte	.LVL125
 8063 1b22 0C120000 		.4byte	0x120c
 8064 1b26 35       		.uleb128 0x35
 8065 1b27 02       		.uleb128 0x2
 8066 1b28 90       		.byte	0x90
 8067 1b29 40       		.uleb128 0x40
 8068 1b2a 07       		.uleb128 0x7
 8069 1b2b F4       		.byte	0xf4
 8070 1b2c 25       		.uleb128 0x25
 8071 1b2d 04       		.byte	0x4
 8072 1b2e 00000000 		.4byte	0
 8073 1b32 00       		.byte	0
 8074 1b33 00       		.byte	0
 8075 1b34 00       		.byte	0
 8076 1b35 47       		.uleb128 0x47
 8077 1b36 6F1D0000 		.4byte	.LASF342
 8078 1b3a 01       		.byte	0x1
 8079 1b3b 4201     		.2byte	0x142
 8080 1b3d 00000000 		.4byte	.LFB268
 8081 1b41 48000000 		.4byte	.LFE268-.LFB268
 8082 1b45 01       		.uleb128 0x1
 8083 1b46 9C       		.byte	0x9c
 8084 1b47 911B0000 		.4byte	0x1b91
 8085 1b4b 45       		.uleb128 0x45
 8086 1b4c 970D0000 		.4byte	.LASF282
 8087 1b50 01       		.byte	0x1
 8088 1b51 4201     		.2byte	0x142
 8089 1b53 25000000 		.4byte	0x25
 8090 1b57 20040000 		.4byte	.LLST19
 8091 1b5b 3C       		.uleb128 0x3c
 8092 1b5c 0E000000 		.4byte	.LVL127
 8093 1b60 6D1A0000 		.4byte	0x1a6d
 8094 1b64 37       		.uleb128 0x37
 8095 1b65 2E000000 		.4byte	.LVL129
 8096 1b69 812A0000 		.4byte	0x2a81
 8097 1b6d 7C1B0000 		.4byte	0x1b7c
 8098 1b71 35       		.uleb128 0x35
 8099 1b72 02       		.uleb128 0x2
 8100 1b73 90       		.byte	0x90
 8101 1b74 40       		.uleb128 0x40
 8102 1b75 05       		.uleb128 0x5
 8103 1b76 F3       		.byte	0xf3
 8104 1b77 03       		.uleb128 0x3
 8105 1b78 F5       		.byte	0xf5
 8106 1b79 40       		.uleb128 0x40
 8107 1b7a 25       		.uleb128 0x25
 8108 1b7b 00       		.byte	0
 8109 1b7c 4D       		.uleb128 0x4d
 8110 1b7d 44000000 		.4byte	.LVL133
 8111 1b81 8C2A0000 		.4byte	0x2a8c
 8112 1b85 35       		.uleb128 0x35
 8113 1b86 02       		.uleb128 0x2
 8114 1b87 90       		.byte	0x90
 8115 1b88 40       		.uleb128 0x40
ARM GAS  C:\Users\euanm\AppData\Local\Temp\ccnlTGs7.s 			page 145


 8116 1b89 05       		.uleb128 0x5
 8117 1b8a F3       		.byte	0xf3
 8118 1b8b 03       		.uleb128 0x3
 8119 1b8c F5       		.byte	0xf5
 8120 1b8d 40       		.uleb128 0x40
 8121 1b8e 25       		.uleb128 0x25
 8122 1b8f 00       		.byte	0
 8123 1b90 00       		.byte	0
 8124 1b91 47       		.uleb128 0x47
 8125 1b92 5B050000 		.4byte	.LASF343
 8126 1b96 01       		.byte	0x1
 8127 1b97 5601     		.2byte	0x156
 8128 1b99 00000000 		.4byte	.LFB269
 8129 1b9d 48000000 		.4byte	.LFE269-.LFB269
 8130 1ba1 01       		.uleb128 0x1
 8131 1ba2 9C       		.byte	0x9c
 8132 1ba3 ED1B0000 		.4byte	0x1bed
 8133 1ba7 2C       		.uleb128 0x2c
 8134 1ba8 72706D00 		.ascii	"rpm\000"
 8135 1bac 01       		.byte	0x1
 8136 1bad 5601     		.2byte	0x156
 8137 1baf 25000000 		.4byte	0x25
 8138 1bb3 A0040000 		.4byte	.LLST20
 8139 1bb7 3C       		.uleb128 0x3c
 8140 1bb8 0E000000 		.4byte	.LVL135
 8141 1bbc 6D1A0000 		.4byte	0x1a6d
 8142 1bc0 37       		.uleb128 0x37
 8143 1bc1 2E000000 		.4byte	.LVL137
 8144 1bc5 972A0000 		.4byte	0x2a97
 8145 1bc9 D81B0000 		.4byte	0x1bd8
 8146 1bcd 35       		.uleb128 0x35
 8147 1bce 02       		.uleb128 0x2
 8148 1bcf 90       		.byte	0x90
 8149 1bd0 40       		.uleb128 0x40
 8150 1bd1 05       		.uleb128 0x5
 8151 1bd2 F3       		.byte	0xf3
 8152 1bd3 03       		.uleb128 0x3
 8153 1bd4 F5       		.byte	0xf5
 8154 1bd5 40       		.uleb128 0x40
 8155 1bd6 25       		.uleb128 0x25
 8156 1bd7 00       		.byte	0
 8157 1bd8 4D       		.uleb128 0x4d
 8158 1bd9 44000000 		.4byte	.LVL141
 8159 1bdd A22A0000 		.4byte	0x2aa2
 8160 1be1 35       		.uleb128 0x35
 8161 1be2 02       		.uleb128 0x2
 8162 1be3 90       		.byte	0x90
 8163 1be4 40       		.uleb128 0x40
 8164 1be5 05       		.uleb128 0x5
 8165 1be6 F3       		.byte	0xf3
 8166 1be7 03       		.uleb128 0x3
 8167 1be8 F5       		.byte	0xf5
 8168 1be9 40       		.uleb128 0x40
 8169 1bea 25       		.uleb128 0x25
 8170 1beb 00       		.byte	0
 8171 1bec 00       		.byte	0
 8172 1bed 47       		.uleb128 0x47
ARM GAS  C:\Users\euanm\AppData\Local\Temp\ccnlTGs7.s 			page 146


 8173 1bee 0F100000 		.4byte	.LASF344
 8174 1bf2 01       		.byte	0x1
 8175 1bf3 6A01     		.2byte	0x16a
 8176 1bf5 00000000 		.4byte	.LFB270
 8177 1bf9 50000000 		.4byte	.LFE270-.LFB270
 8178 1bfd 01       		.uleb128 0x1
 8179 1bfe 9C       		.byte	0x9c
 8180 1bff 591C0000 		.4byte	0x1c59
 8181 1c03 2C       		.uleb128 0x2c
 8182 1c04 72706D00 		.ascii	"rpm\000"
 8183 1c08 01       		.byte	0x1
 8184 1c09 6A01     		.2byte	0x16a
 8185 1c0b 25000000 		.4byte	0x25
 8186 1c0f 20050000 		.4byte	.LLST21
 8187 1c13 45       		.uleb128 0x45
 8188 1c14 311E0000 		.4byte	.LASF345
 8189 1c18 01       		.byte	0x1
 8190 1c19 6A01     		.2byte	0x16a
 8191 1c1b EB080000 		.4byte	0x8eb
 8192 1c1f A0050000 		.4byte	.LLST22
 8193 1c23 3C       		.uleb128 0x3c
 8194 1c24 10000000 		.4byte	.LVL143
 8195 1c28 6D1A0000 		.4byte	0x1a6d
 8196 1c2c 37       		.uleb128 0x37
 8197 1c2d 32000000 		.4byte	.LVL145
 8198 1c31 AD2A0000 		.4byte	0x2aad
 8199 1c35 441C0000 		.4byte	0x1c44
 8200 1c39 35       		.uleb128 0x35
 8201 1c3a 02       		.uleb128 0x2
 8202 1c3b 90       		.byte	0x90
 8203 1c3c 40       		.uleb128 0x40
 8204 1c3d 05       		.uleb128 0x5
 8205 1c3e F3       		.byte	0xf3
 8206 1c3f 03       		.uleb128 0x3
 8207 1c40 F5       		.byte	0xf5
 8208 1c41 40       		.uleb128 0x40
 8209 1c42 25       		.uleb128 0x25
 8210 1c43 00       		.byte	0
 8211 1c44 4D       		.uleb128 0x4d
 8212 1c45 4A000000 		.4byte	.LVL149
 8213 1c49 B82A0000 		.4byte	0x2ab8
 8214 1c4d 35       		.uleb128 0x35
 8215 1c4e 02       		.uleb128 0x2
 8216 1c4f 90       		.byte	0x90
 8217 1c50 40       		.uleb128 0x40
 8218 1c51 05       		.uleb128 0x5
 8219 1c52 F3       		.byte	0xf3
 8220 1c53 03       		.uleb128 0x3
 8221 1c54 F5       		.byte	0xf5
 8222 1c55 40       		.uleb128 0x40
 8223 1c56 25       		.uleb128 0x25
 8224 1c57 00       		.byte	0
 8225 1c58 00       		.byte	0
 8226 1c59 47       		.uleb128 0x47
 8227 1c5a 99180000 		.4byte	.LASF346
 8228 1c5e 01       		.byte	0x1
 8229 1c5f 8701     		.2byte	0x187
ARM GAS  C:\Users\euanm\AppData\Local\Temp\ccnlTGs7.s 			page 147


 8230 1c61 00000000 		.4byte	.LFB273
 8231 1c65 54000000 		.4byte	.LFE273-.LFB273
 8232 1c69 01       		.uleb128 0x1
 8233 1c6a 9C       		.byte	0x9c
 8234 1c6b B51C0000 		.4byte	0x1cb5
 8235 1c6f 2C       		.uleb128 0x2c
 8236 1c70 706F7300 		.ascii	"pos\000"
 8237 1c74 01       		.byte	0x1
 8238 1c75 8701     		.2byte	0x187
 8239 1c77 25000000 		.4byte	0x25
 8240 1c7b C1050000 		.4byte	.LLST23
 8241 1c7f 3C       		.uleb128 0x3c
 8242 1c80 0E000000 		.4byte	.LVL151
 8243 1c84 6D1A0000 		.4byte	0x1a6d
 8244 1c88 37       		.uleb128 0x37
 8245 1c89 34000000 		.4byte	.LVL153
 8246 1c8d C32A0000 		.4byte	0x2ac3
 8247 1c91 A01C0000 		.4byte	0x1ca0
 8248 1c95 35       		.uleb128 0x35
 8249 1c96 02       		.uleb128 0x2
 8250 1c97 90       		.byte	0x90
 8251 1c98 40       		.uleb128 0x40
 8252 1c99 05       		.uleb128 0x5
 8253 1c9a F3       		.byte	0xf3
 8254 1c9b 03       		.uleb128 0x3
 8255 1c9c F5       		.byte	0xf5
 8256 1c9d 40       		.uleb128 0x40
 8257 1c9e 25       		.uleb128 0x25
 8258 1c9f 00       		.byte	0
 8259 1ca0 4D       		.uleb128 0x4d
 8260 1ca1 4A000000 		.4byte	.LVL157
 8261 1ca5 CE2A0000 		.4byte	0x2ace
 8262 1ca9 35       		.uleb128 0x35
 8263 1caa 02       		.uleb128 0x2
 8264 1cab 90       		.byte	0x90
 8265 1cac 40       		.uleb128 0x40
 8266 1cad 05       		.uleb128 0x5
 8267 1cae F3       		.byte	0xf3
 8268 1caf 03       		.uleb128 0x3
 8269 1cb0 F5       		.byte	0xf5
 8270 1cb1 40       		.uleb128 0x40
 8271 1cb2 25       		.uleb128 0x25
 8272 1cb3 00       		.byte	0
 8273 1cb4 00       		.byte	0
 8274 1cb5 36       		.uleb128 0x36
 8275 1cb6 99100000 		.4byte	0x1099
 8276 1cba 00000000 		.4byte	.LFB274
 8277 1cbe 26000000 		.4byte	.LFE274-.LFB274
 8278 1cc2 01       		.uleb128 0x1
 8279 1cc3 9C       		.byte	0x9c
 8280 1cc4 EF1C0000 		.4byte	0x1cef
 8281 1cc8 2E       		.uleb128 0x2e
 8282 1cc9 A6100000 		.4byte	0x10a6
 8283 1ccd 44060000 		.4byte	.LLST24
 8284 1cd1 3C       		.uleb128 0x3c
 8285 1cd2 0E000000 		.4byte	.LVL159
 8286 1cd6 6D1A0000 		.4byte	0x1a6d
ARM GAS  C:\Users\euanm\AppData\Local\Temp\ccnlTGs7.s 			page 148


 8287 1cda 4D       		.uleb128 0x4d
 8288 1cdb 20000000 		.4byte	.LVL161
 8289 1cdf 4A120000 		.4byte	0x124a
 8290 1ce3 35       		.uleb128 0x35
 8291 1ce4 02       		.uleb128 0x2
 8292 1ce5 90       		.byte	0x90
 8293 1ce6 40       		.uleb128 0x40
 8294 1ce7 05       		.uleb128 0x5
 8295 1ce8 F3       		.byte	0xf3
 8296 1ce9 03       		.uleb128 0x3
 8297 1cea F5       		.byte	0xf5
 8298 1ceb 40       		.uleb128 0x40
 8299 1cec 25       		.uleb128 0x25
 8300 1ced 00       		.byte	0
 8301 1cee 00       		.byte	0
 8302 1cef 47       		.uleb128 0x47
 8303 1cf0 34180000 		.4byte	.LASF347
 8304 1cf4 01       		.byte	0x1
 8305 1cf5 1002     		.2byte	0x210
 8306 1cf7 00000000 		.4byte	.LFB279
 8307 1cfb 1C000000 		.4byte	.LFE279-.LFB279
 8308 1cff 01       		.uleb128 0x1
 8309 1d00 9C       		.byte	0x9c
 8310 1d01 401D0000 		.4byte	0x1d40
 8311 1d05 4E       		.uleb128 0x4e
 8312 1d06 99100000 		.4byte	0x1099
 8313 1d0a 02000000 		.4byte	.LBB83
 8314 1d0e 30000000 		.4byte	.Ldebug_ranges0+0x30
 8315 1d12 01       		.byte	0x1
 8316 1d13 1102     		.2byte	0x211
 8317 1d15 4F       		.uleb128 0x4f
 8318 1d16 A6100000 		.4byte	0x10a6
 8319 1d1a 04       		.byte	0x4
 8320 1d1b 00000000 		.4byte	0
 8321 1d1f 3C       		.uleb128 0x3c
 8322 1d20 06000000 		.4byte	.LVL164
 8323 1d24 6D1A0000 		.4byte	0x1a6d
 8324 1d28 4D       		.uleb128 0x4d
 8325 1d29 16000000 		.4byte	.LVL165
 8326 1d2d 4A120000 		.4byte	0x124a
 8327 1d31 35       		.uleb128 0x35
 8328 1d32 02       		.uleb128 0x2
 8329 1d33 90       		.byte	0x90
 8330 1d34 40       		.uleb128 0x40
 8331 1d35 07       		.uleb128 0x7
 8332 1d36 F4       		.byte	0xf4
 8333 1d37 25       		.uleb128 0x25
 8334 1d38 04       		.byte	0x4
 8335 1d39 00000000 		.4byte	0
 8336 1d3d 00       		.byte	0
 8337 1d3e 00       		.byte	0
 8338 1d3f 00       		.byte	0
 8339 1d40 47       		.uleb128 0x47
 8340 1d41 1E1C0000 		.4byte	.LASF348
 8341 1d45 01       		.byte	0x1
 8342 1d46 B101     		.2byte	0x1b1
 8343 1d48 00000000 		.4byte	.LFB275
ARM GAS  C:\Users\euanm\AppData\Local\Temp\ccnlTGs7.s 			page 149


 8344 1d4c 48000000 		.4byte	.LFE275-.LFB275
 8345 1d50 01       		.uleb128 0x1
 8346 1d51 9C       		.byte	0x9c
 8347 1d52 9C1D0000 		.4byte	0x1d9c
 8348 1d56 45       		.uleb128 0x45
 8349 1d57 2A110000 		.4byte	.LASF250
 8350 1d5b 01       		.byte	0x1
 8351 1d5c B101     		.2byte	0x1b1
 8352 1d5e 25000000 		.4byte	0x25
 8353 1d62 9C060000 		.4byte	.LLST25
 8354 1d66 3C       		.uleb128 0x3c
 8355 1d67 0E000000 		.4byte	.LVL167
 8356 1d6b 6D1A0000 		.4byte	0x1a6d
 8357 1d6f 37       		.uleb128 0x37
 8358 1d70 2E000000 		.4byte	.LVL169
 8359 1d74 D92A0000 		.4byte	0x2ad9
 8360 1d78 871D0000 		.4byte	0x1d87
 8361 1d7c 35       		.uleb128 0x35
 8362 1d7d 02       		.uleb128 0x2
 8363 1d7e 90       		.byte	0x90
 8364 1d7f 40       		.uleb128 0x40
 8365 1d80 05       		.uleb128 0x5
 8366 1d81 F3       		.byte	0xf3
 8367 1d82 03       		.uleb128 0x3
 8368 1d83 F5       		.byte	0xf5
 8369 1d84 40       		.uleb128 0x40
 8370 1d85 25       		.uleb128 0x25
 8371 1d86 00       		.byte	0
 8372 1d87 4D       		.uleb128 0x4d
 8373 1d88 44000000 		.4byte	.LVL173
 8374 1d8c E42A0000 		.4byte	0x2ae4
 8375 1d90 35       		.uleb128 0x35
 8376 1d91 02       		.uleb128 0x2
 8377 1d92 90       		.byte	0x90
 8378 1d93 40       		.uleb128 0x40
 8379 1d94 05       		.uleb128 0x5
 8380 1d95 F3       		.byte	0xf3
 8381 1d96 03       		.uleb128 0x3
 8382 1d97 F5       		.byte	0xf5
 8383 1d98 40       		.uleb128 0x40
 8384 1d99 25       		.uleb128 0x25
 8385 1d9a 00       		.byte	0
 8386 1d9b 00       		.byte	0
 8387 1d9c 47       		.uleb128 0x47
 8388 1d9d 4A080000 		.4byte	.LASF349
 8389 1da1 01       		.byte	0x1
 8390 1da2 C501     		.2byte	0x1c5
 8391 1da4 00000000 		.4byte	.LFB276
 8392 1da8 70010000 		.4byte	.LFE276-.LFB276
 8393 1dac 01       		.uleb128 0x1
 8394 1dad 9C       		.byte	0x9c
 8395 1dae 8E1E0000 		.4byte	0x1e8e
 8396 1db2 45       		.uleb128 0x45
 8397 1db3 6D1A0000 		.4byte	.LASF350
 8398 1db7 01       		.byte	0x1
 8399 1db8 C501     		.2byte	0x1c5
 8400 1dba 25000000 		.4byte	0x25
ARM GAS  C:\Users\euanm\AppData\Local\Temp\ccnlTGs7.s 			page 150


 8401 1dbe 1C070000 		.4byte	.LLST26
 8402 1dc2 45       		.uleb128 0x45
 8403 1dc3 1A120000 		.4byte	.LASF351
 8404 1dc7 01       		.byte	0x1
 8405 1dc8 C501     		.2byte	0x1c5
 8406 1dca 200E0000 		.4byte	0xe20
 8407 1dce A0070000 		.4byte	.LLST27
 8408 1dd2 33       		.uleb128 0x33
 8409 1dd3 2A110000 		.4byte	.LASF250
 8410 1dd7 01       		.byte	0x1
 8411 1dd8 CA01     		.2byte	0x1ca
 8412 1dda 25000000 		.4byte	0x25
 8413 1dde C1070000 		.4byte	.LLST28
 8414 1de2 3C       		.uleb128 0x3c
 8415 1de3 10000000 		.4byte	.LVL175
 8416 1de7 6D1A0000 		.4byte	0x1a6d
 8417 1deb 3C       		.uleb128 0x3c
 8418 1dec 54000000 		.4byte	.LVL177
 8419 1df0 7A150000 		.4byte	0x157a
 8420 1df4 3B       		.uleb128 0x3b
 8421 1df5 64000000 		.4byte	.LVL178
 8422 1df9 EF2A0000 		.4byte	0x2aef
 8423 1dfd 0A1E0000 		.4byte	0x1e0a
 8424 1e01 35       		.uleb128 0x35
 8425 1e02 02       		.uleb128 0x2
 8426 1e03 90       		.byte	0x90
 8427 1e04 40       		.uleb128 0x40
 8428 1e05 03       		.uleb128 0x3
 8429 1e06 F5       		.byte	0xf5
 8430 1e07 51       		.uleb128 0x51
 8431 1e08 25       		.uleb128 0x25
 8432 1e09 00       		.byte	0
 8433 1e0a 38       		.uleb128 0x38
 8434 1e0b 7E000000 		.4byte	.LVL180
 8435 1e0f B5280000 		.4byte	0x28b5
 8436 1e13 3C       		.uleb128 0x3c
 8437 1e14 98000000 		.4byte	.LVL183
 8438 1e18 7A150000 		.4byte	0x157a
 8439 1e1c 3B       		.uleb128 0x3b
 8440 1e1d A4000000 		.4byte	.LVL184
 8441 1e21 EF2A0000 		.4byte	0x2aef
 8442 1e25 321E0000 		.4byte	0x1e32
 8443 1e29 35       		.uleb128 0x35
 8444 1e2a 02       		.uleb128 0x2
 8445 1e2b 90       		.byte	0x90
 8446 1e2c 40       		.uleb128 0x40
 8447 1e2d 03       		.uleb128 0x3
 8448 1e2e F5       		.byte	0xf5
 8449 1e2f 51       		.uleb128 0x51
 8450 1e30 25       		.uleb128 0x25
 8451 1e31 00       		.byte	0
 8452 1e32 3C       		.uleb128 0x3c
 8453 1e33 B0000000 		.4byte	.LVL185
 8454 1e37 FA2A0000 		.4byte	0x2afa
 8455 1e3b 38       		.uleb128 0x38
 8456 1e3c C4000000 		.4byte	.LVL186
 8457 1e40 C0280000 		.4byte	0x28c0
ARM GAS  C:\Users\euanm\AppData\Local\Temp\ccnlTGs7.s 			page 151


 8458 1e44 3C       		.uleb128 0x3c
 8459 1e45 02010000 		.4byte	.LVL187
 8460 1e49 7A150000 		.4byte	0x157a
 8461 1e4d 3B       		.uleb128 0x3b
 8462 1e4e 1A010000 		.4byte	.LVL188
 8463 1e52 EF2A0000 		.4byte	0x2aef
 8464 1e56 681E0000 		.4byte	0x1e68
 8465 1e5a 35       		.uleb128 0x35
 8466 1e5b 02       		.uleb128 0x2
 8467 1e5c 90       		.byte	0x90
 8468 1e5d 40       		.uleb128 0x40
 8469 1e5e 08       		.uleb128 0x8
 8470 1e5f F5       		.byte	0xf5
 8471 1e60 50       		.uleb128 0x50
 8472 1e61 25       		.uleb128 0x25
 8473 1e62 F5       		.byte	0xf5
 8474 1e63 51       		.uleb128 0x51
 8475 1e64 25       		.uleb128 0x25
 8476 1e65 1E       		.byte	0x1e
 8477 1e66 19       		.byte	0x19
 8478 1e67 00       		.byte	0
 8479 1e68 3C       		.uleb128 0x3c
 8480 1e69 2E010000 		.4byte	.LVL190
 8481 1e6d EF2A0000 		.4byte	0x2aef
 8482 1e71 3C       		.uleb128 0x3c
 8483 1e72 3C010000 		.4byte	.LVL192
 8484 1e76 7A150000 		.4byte	0x157a
 8485 1e7a 34       		.uleb128 0x34
 8486 1e7b 54010000 		.4byte	.LVL194
 8487 1e7f EF2A0000 		.4byte	0x2aef
 8488 1e83 35       		.uleb128 0x35
 8489 1e84 02       		.uleb128 0x2
 8490 1e85 90       		.byte	0x90
 8491 1e86 40       		.uleb128 0x40
 8492 1e87 04       		.uleb128 0x4
 8493 1e88 F5       		.byte	0xf5
 8494 1e89 50       		.uleb128 0x50
 8495 1e8a 25       		.uleb128 0x25
 8496 1e8b 19       		.byte	0x19
 8497 1e8c 00       		.byte	0
 8498 1e8d 00       		.byte	0
 8499 1e8e 47       		.uleb128 0x47
 8500 1e8f 8B170000 		.4byte	.LASF352
 8501 1e93 01       		.byte	0x1
 8502 1e94 F301     		.2byte	0x1f3
 8503 1e96 00000000 		.4byte	.LFB277
 8504 1e9a 4C000000 		.4byte	.LFE277-.LFB277
 8505 1e9e 01       		.uleb128 0x1
 8506 1e9f 9C       		.byte	0x9c
 8507 1ea0 E01E0000 		.4byte	0x1ee0
 8508 1ea4 45       		.uleb128 0x45
 8509 1ea5 6D1A0000 		.4byte	.LASF350
 8510 1ea9 01       		.byte	0x1
 8511 1eaa F301     		.2byte	0x1f3
 8512 1eac 25000000 		.4byte	0x25
 8513 1eb0 51080000 		.4byte	.LLST29
 8514 1eb4 33       		.uleb128 0x33
ARM GAS  C:\Users\euanm\AppData\Local\Temp\ccnlTGs7.s 			page 152


 8515 1eb5 2A110000 		.4byte	.LASF250
 8516 1eb9 01       		.byte	0x1
 8517 1eba F801     		.2byte	0x1f8
 8518 1ebc 25000000 		.4byte	0x25
 8519 1ec0 B9080000 		.4byte	.LLST30
 8520 1ec4 3C       		.uleb128 0x3c
 8521 1ec5 0E000000 		.4byte	.LVL197
 8522 1ec9 6D1A0000 		.4byte	0x1a6d
 8523 1ecd 38       		.uleb128 0x38
 8524 1ece 36000000 		.4byte	.LVL200
 8525 1ed2 D92A0000 		.4byte	0x2ad9
 8526 1ed6 38       		.uleb128 0x38
 8527 1ed7 48000000 		.4byte	.LVL204
 8528 1edb E42A0000 		.4byte	0x2ae4
 8529 1edf 00       		.byte	0
 8530 1ee0 47       		.uleb128 0x47
 8531 1ee1 E21F0000 		.4byte	.LASF353
 8532 1ee5 01       		.byte	0x1
 8533 1ee6 D403     		.2byte	0x3d4
 8534 1ee8 00000000 		.4byte	.LFB305
 8535 1eec 60010000 		.4byte	.LFE305-.LFB305
 8536 1ef0 01       		.uleb128 0x1
 8537 1ef1 9C       		.byte	0x9c
 8538 1ef2 6B200000 		.4byte	0x206b
 8539 1ef6 45       		.uleb128 0x45
 8540 1ef7 38160000 		.4byte	.LASF249
 8541 1efb 01       		.byte	0x1
 8542 1efc D403     		.2byte	0x3d4
 8543 1efe F9090000 		.4byte	0x9f9
 8544 1f02 D9080000 		.4byte	.LLST31
 8545 1f06 50       		.uleb128 0x50
 8546 1f07 48000000 		.4byte	.Ldebug_ranges0+0x48
 8547 1f0b 4F200000 		.4byte	0x204f
 8548 1f0f 32       		.uleb128 0x32
 8549 1f10 56040000 		.4byte	.LASF354
 8550 1f14 01       		.byte	0x1
 8551 1f15 D903     		.2byte	0x3d9
 8552 1f17 6B200000 		.4byte	0x206b
 8553 1f1b 03       		.uleb128 0x3
 8554 1f1c 91       		.byte	0x91
 8555 1f1d A87F     		.sleb128 -88
 8556 1f1f 32       		.uleb128 0x32
 8557 1f20 49040000 		.4byte	.LASF355
 8558 1f24 01       		.byte	0x1
 8559 1f25 DA03     		.2byte	0x3da
 8560 1f27 6B200000 		.4byte	0x206b
 8561 1f2b 03       		.uleb128 0x3
 8562 1f2c 91       		.byte	0x91
 8563 1f2d AC7F     		.sleb128 -84
 8564 1f2f 32       		.uleb128 0x32
 8565 1f30 771A0000 		.4byte	.LASF258
 8566 1f34 01       		.byte	0x1
 8567 1f35 DB03     		.2byte	0x3db
 8568 1f37 6B200000 		.4byte	0x206b
 8569 1f3b 03       		.uleb128 0x3
 8570 1f3c 91       		.byte	0x91
 8571 1f3d B07F     		.sleb128 -80
ARM GAS  C:\Users\euanm\AppData\Local\Temp\ccnlTGs7.s 			page 153


 8572 1f3f 32       		.uleb128 0x32
 8573 1f40 A2090000 		.4byte	.LASF356
 8574 1f44 01       		.byte	0x1
 8575 1f45 DE03     		.2byte	0x3de
 8576 1f47 050F0000 		.4byte	0xf05
 8577 1f4b 03       		.uleb128 0x3
 8578 1f4c 91       		.byte	0x91
 8579 1f4d B47F     		.sleb128 -76
 8580 1f4f 51       		.uleb128 0x51
 8581 1f50 E3100000 		.4byte	0x10e3
 8582 1f54 32000000 		.4byte	.LBB88
 8583 1f58 06000000 		.4byte	.LBE88-.LBB88
 8584 1f5c 01       		.byte	0x1
 8585 1f5d D803     		.2byte	0x3d8
 8586 1f5f 8F1F0000 		.4byte	0x1f8f
 8587 1f63 52       		.uleb128 0x52
 8588 1f64 19100000 		.4byte	0x1019
 8589 1f68 32000000 		.4byte	.LBB89
 8590 1f6c 06000000 		.4byte	.LBE89-.LBB89
 8591 1f70 12       		.byte	0x12
 8592 1f71 5C01     		.2byte	0x15c
 8593 1f73 52       		.uleb128 0x52
 8594 1f74 FF0F0000 		.4byte	0xfff
 8595 1f78 32000000 		.4byte	.LBB90
 8596 1f7c 06000000 		.4byte	.LBE90-.LBB90
 8597 1f80 0C       		.byte	0xc
 8598 1f81 BF01     		.2byte	0x1bf
 8599 1f83 2E       		.uleb128 0x2e
 8600 1f84 0C100000 		.4byte	0x100c
 8601 1f88 FA080000 		.4byte	.LLST32
 8602 1f8c 00       		.byte	0
 8603 1f8d 00       		.byte	0
 8604 1f8e 00       		.byte	0
 8605 1f8f 51       		.uleb128 0x51
 8606 1f90 B3100000 		.4byte	0x10b3
 8607 1f94 48000000 		.4byte	.LBB92
 8608 1f98 04000000 		.4byte	.LBE92-.LBB92
 8609 1f9c 01       		.byte	0x1
 8610 1f9d DC03     		.2byte	0x3dc
 8611 1f9f DE1F0000 		.4byte	0x1fde
 8612 1fa3 31       		.uleb128 0x31
 8613 1fa4 48000000 		.4byte	.LBB93
 8614 1fa8 04000000 		.4byte	.LBE93-.LBB93
 8615 1fac 4B       		.uleb128 0x4b
 8616 1fad C0100000 		.4byte	0x10c0
 8617 1fb1 52       		.uleb128 0x52
 8618 1fb2 22100000 		.4byte	0x1022
 8619 1fb6 48000000 		.4byte	.LBB94
 8620 1fba 04000000 		.4byte	.LBE94-.LBB94
 8621 1fbe 12       		.byte	0x12
 8622 1fbf 7301     		.2byte	0x173
 8623 1fc1 52       		.uleb128 0x52
 8624 1fc2 FF0F0000 		.4byte	0xfff
 8625 1fc6 48000000 		.4byte	.LBB95
 8626 1fca 04000000 		.4byte	.LBE95-.LBB95
 8627 1fce 0C       		.byte	0xc
 8628 1fcf CD01     		.2byte	0x1cd
ARM GAS  C:\Users\euanm\AppData\Local\Temp\ccnlTGs7.s 			page 154


 8629 1fd1 2E       		.uleb128 0x2e
 8630 1fd2 0C100000 		.4byte	0x100c
 8631 1fd6 0F090000 		.4byte	.LLST33
 8632 1fda 00       		.byte	0
 8633 1fdb 00       		.byte	0
 8634 1fdc 00       		.byte	0
 8635 1fdd 00       		.byte	0
 8636 1fde 3C       		.uleb128 0x3c
 8637 1fdf 5C000000 		.4byte	.LVL212
 8638 1fe3 17170000 		.4byte	0x1717
 8639 1fe7 3C       		.uleb128 0x3c
 8640 1fe8 64000000 		.4byte	.LVL213
 8641 1fec 55170000 		.4byte	0x1755
 8642 1ff0 3C       		.uleb128 0x3c
 8643 1ff1 8E000000 		.4byte	.LVL214
 8644 1ff5 3C150000 		.4byte	0x153c
 8645 1ff9 3C       		.uleb128 0x3c
 8646 1ffa 96000000 		.4byte	.LVL215
 8647 1ffe F9150000 		.4byte	0x15f9
 8648 2002 3B       		.uleb128 0x3b
 8649 2003 A0000000 		.4byte	.LVL216
 8650 2007 8B180000 		.4byte	0x188b
 8651 200b 15200000 		.4byte	0x2015
 8652 200f 35       		.uleb128 0x35
 8653 2010 01       		.uleb128 0x1
 8654 2011 50       		.byte	0x50
 8655 2012 01       		.uleb128 0x1
 8656 2013 30       		.byte	0x30
 8657 2014 00       		.byte	0
 8658 2015 3C       		.uleb128 0x3c
 8659 2016 B8000000 		.4byte	.LVL217
 8660 201a 6B2A0000 		.4byte	0x2a6b
 8661 201e 3C       		.uleb128 0x3c
 8662 201f DE000000 		.4byte	.LVL218
 8663 2023 052B0000 		.4byte	0x2b05
 8664 2027 3B       		.uleb128 0x3b
 8665 2028 08010000 		.4byte	.LVL219
 8666 202c 112B0000 		.4byte	0x2b11
 8667 2030 3C200000 		.4byte	0x203c
 8668 2034 35       		.uleb128 0x35
 8669 2035 01       		.uleb128 0x1
 8670 2036 50       		.byte	0x50
 8671 2037 03       		.uleb128 0x3
 8672 2038 91       		.byte	0x91
 8673 2039 B47F     		.sleb128 -76
 8674 203b 00       		.byte	0
 8675 203c 3C       		.uleb128 0x3c
 8676 203d 18010000 		.4byte	.LVL221
 8677 2041 1C2B0000 		.4byte	0x2b1c
 8678 2045 3C       		.uleb128 0x3c
 8679 2046 20010000 		.4byte	.LVL222
 8680 204a 272B0000 		.4byte	0x2b27
 8681 204e 00       		.byte	0
 8682 204f 3C       		.uleb128 0x3c
 8683 2050 0A000000 		.4byte	.LVL206
 8684 2054 B9130000 		.4byte	0x13b9
 8685 2058 3C       		.uleb128 0x3c
ARM GAS  C:\Users\euanm\AppData\Local\Temp\ccnlTGs7.s 			page 155


 8686 2059 2C000000 		.4byte	.LVL207
 8687 205d 322B0000 		.4byte	0x2b32
 8688 2061 3C       		.uleb128 0x3c
 8689 2062 0E010000 		.4byte	.LVL220
 8690 2066 762A0000 		.4byte	0x2a76
 8691 206a 00       		.byte	0
 8692 206b 05       		.uleb128 0x5
 8693 206c B1000000 		.4byte	0xb1
 8694 2070 36       		.uleb128 0x36
 8695 2071 FE100000 		.4byte	0x10fe
 8696 2075 00000000 		.4byte	.LFB314
 8697 2079 C8010000 		.4byte	.LFE314-.LFB314
 8698 207d 01       		.uleb128 0x1
 8699 207e 9C       		.byte	0x9c
 8700 207f 09210000 		.4byte	0x2109
 8701 2083 4A       		.uleb128 0x4a
 8702 2084 17110000 		.4byte	0x1117
 8703 2088 23090000 		.4byte	.LLST34
 8704 208c 4A       		.uleb128 0x4a
 8705 208d 23110000 		.4byte	0x1123
 8706 2091 4F090000 		.4byte	.LLST35
 8707 2095 53       		.uleb128 0x53
 8708 2096 0B110000 		.4byte	0x110b
 8709 209a 06       		.uleb128 0x6
 8710 209b 03       		.byte	0x3
 8711 209c 00000000 		.4byte	m_conf
 8712 20a0 9F       		.byte	0x9f
 8713 20a1 2F       		.uleb128 0x2f
 8714 20a2 BA000000 		.4byte	.LBB98
 8715 20a6 A2000000 		.4byte	.LBE98-.LBB98
 8716 20aa CE200000 		.4byte	0x20ce
 8717 20ae 4A       		.uleb128 0x4a
 8718 20af 30110000 		.4byte	0x1130
 8719 20b3 87090000 		.4byte	.LLST36
 8720 20b7 34       		.uleb128 0x34
 8721 20b8 F0000000 		.4byte	.LVL233
 8722 20bc 3D2B0000 		.4byte	0x2b3d
 8723 20c0 35       		.uleb128 0x35
 8724 20c1 02       		.uleb128 0x2
 8725 20c2 90       		.byte	0x90
 8726 20c3 44       		.uleb128 0x44
 8727 20c4 07       		.uleb128 0x7
 8728 20c5 F4       		.byte	0xf4
 8729 20c6 25       		.uleb128 0x25
 8730 20c7 04       		.byte	0x4
 8731 20c8 00000000 		.4byte	0
 8732 20cc 00       		.byte	0
 8733 20cd 00       		.byte	0
 8734 20ce 3C       		.uleb128 0x3c
 8735 20cf 32000000 		.4byte	.LVL224
 8736 20d3 052B0000 		.4byte	0x2b05
 8737 20d7 3B       		.uleb128 0x3b
 8738 20d8 74010000 		.4byte	.LVL235
 8739 20dc 3D2B0000 		.4byte	0x2b3d
 8740 20e0 F9200000 		.4byte	0x20f9
 8741 20e4 35       		.uleb128 0x35
 8742 20e5 02       		.uleb128 0x2
ARM GAS  C:\Users\euanm\AppData\Local\Temp\ccnlTGs7.s 			page 156


 8743 20e6 90       		.byte	0x90
 8744 20e7 40       		.uleb128 0x40
 8745 20e8 03       		.uleb128 0x3
 8746 20e9 F5       		.byte	0xf5
 8747 20ea 50       		.uleb128 0x50
 8748 20eb 25       		.uleb128 0x25
 8749 20ec 35       		.uleb128 0x35
 8750 20ed 02       		.uleb128 0x2
 8751 20ee 90       		.byte	0x90
 8752 20ef 44       		.uleb128 0x44
 8753 20f0 07       		.uleb128 0x7
 8754 20f1 F4       		.byte	0xf4
 8755 20f2 25       		.uleb128 0x25
 8756 20f3 04       		.byte	0x4
 8757 20f4 00000000 		.4byte	0
 8758 20f8 00       		.byte	0
 8759 20f9 34       		.uleb128 0x34
 8760 20fa 9C010000 		.4byte	.LVL240
 8761 20fe E01E0000 		.4byte	0x1ee0
 8762 2102 35       		.uleb128 0x35
 8763 2103 01       		.uleb128 0x1
 8764 2104 50       		.byte	0x50
 8765 2105 01       		.uleb128 0x1
 8766 2106 35       		.byte	0x35
 8767 2107 00       		.byte	0
 8768 2108 00       		.byte	0
 8769 2109 39       		.uleb128 0x39
 8770 210a E81D0000 		.4byte	.LASF357
 8771 210e 01       		.byte	0x1
 8772 210f A2       		.byte	0xa2
 8773 2110 00000000 		.4byte	.LFB258
 8774 2114 D0000000 		.4byte	.LFE258-.LFB258
 8775 2118 01       		.uleb128 0x1
 8776 2119 9C       		.byte	0x9c
 8777 211a 22220000 		.4byte	0x2222
 8778 211e 3A       		.uleb128 0x3a
 8779 211f 3E160000 		.4byte	.LASF297
 8780 2123 01       		.byte	0x1
 8781 2124 A2       		.byte	0xa2
 8782 2125 93130000 		.4byte	0x1393
 8783 2129 B3090000 		.4byte	.LLST37
 8784 212d 3C       		.uleb128 0x3c
 8785 212e 16000000 		.4byte	.LVL242
 8786 2132 482B0000 		.4byte	0x2b48
 8787 2136 3B       		.uleb128 0x3b
 8788 2137 46000000 		.4byte	.LVL243
 8789 213b CB280000 		.4byte	0x28cb
 8790 213f 57210000 		.4byte	0x2157
 8791 2143 35       		.uleb128 0x35
 8792 2144 01       		.uleb128 0x1
 8793 2145 50       		.byte	0x50
 8794 2146 02       		.uleb128 0x2
 8795 2147 75       		.byte	0x75
 8796 2148 00       		.sleb128 0
 8797 2149 35       		.uleb128 0x35
 8798 214a 01       		.uleb128 0x1
 8799 214b 51       		.byte	0x51
ARM GAS  C:\Users\euanm\AppData\Local\Temp\ccnlTGs7.s 			page 157


 8800 214c 02       		.uleb128 0x2
 8801 214d 74       		.byte	0x74
 8802 214e 00       		.sleb128 0
 8803 214f 35       		.uleb128 0x35
 8804 2150 01       		.uleb128 0x1
 8805 2151 52       		.byte	0x52
 8806 2152 03       		.uleb128 0x3
 8807 2153 0A       		.byte	0xa
 8808 2154 4001     		.2byte	0x140
 8809 2156 00       		.byte	0
 8810 2157 3C       		.uleb128 0x3c
 8811 2158 4A000000 		.4byte	.LVL244
 8812 215c 70200000 		.4byte	0x2070
 8813 2160 37       		.uleb128 0x37
 8814 2161 60000000 		.4byte	.LVL246
 8815 2165 532B0000 		.4byte	0x2b53
 8816 2169 77210000 		.4byte	0x2177
 8817 216d 35       		.uleb128 0x35
 8818 216e 01       		.uleb128 0x1
 8819 216f 50       		.byte	0x50
 8820 2170 05       		.uleb128 0x5
 8821 2171 03       		.byte	0x3
 8822 2172 00000000 		.4byte	.LANCHOR11
 8823 2176 00       		.byte	0
 8824 2177 37       		.uleb128 0x37
 8825 2178 6C000000 		.4byte	.LVL249
 8826 217c 5E2B0000 		.4byte	0x2b5e
 8827 2180 8E210000 		.4byte	0x218e
 8828 2184 35       		.uleb128 0x35
 8829 2185 01       		.uleb128 0x1
 8830 2186 50       		.byte	0x50
 8831 2187 05       		.uleb128 0x5
 8832 2188 03       		.byte	0x3
 8833 2189 00000000 		.4byte	.LANCHOR11
 8834 218d 00       		.byte	0
 8835 218e 3C       		.uleb128 0x3c
 8836 218f 76000000 		.4byte	.LVL250
 8837 2193 692B0000 		.4byte	0x2b69
 8838 2197 3B       		.uleb128 0x3b
 8839 2198 82000000 		.4byte	.LVL251
 8840 219c CB280000 		.4byte	0x28cb
 8841 21a0 B8210000 		.4byte	0x21b8
 8842 21a4 35       		.uleb128 0x35
 8843 21a5 01       		.uleb128 0x1
 8844 21a6 50       		.byte	0x50
 8845 21a7 02       		.uleb128 0x2
 8846 21a8 75       		.byte	0x75
 8847 21a9 00       		.sleb128 0
 8848 21aa 35       		.uleb128 0x35
 8849 21ab 01       		.uleb128 0x1
 8850 21ac 51       		.byte	0x51
 8851 21ad 02       		.uleb128 0x2
 8852 21ae 74       		.byte	0x74
 8853 21af 00       		.sleb128 0
 8854 21b0 35       		.uleb128 0x35
 8855 21b1 01       		.uleb128 0x1
 8856 21b2 52       		.byte	0x52
ARM GAS  C:\Users\euanm\AppData\Local\Temp\ccnlTGs7.s 			page 158


 8857 21b3 03       		.uleb128 0x3
 8858 21b4 0A       		.byte	0xa
 8859 21b5 4001     		.2byte	0x140
 8860 21b7 00       		.byte	0
 8861 21b8 3B       		.uleb128 0x3b
 8862 21b9 88000000 		.4byte	.LVL252
 8863 21bd F5280000 		.4byte	0x28f5
 8864 21c1 CC210000 		.4byte	0x21cc
 8865 21c5 35       		.uleb128 0x35
 8866 21c6 01       		.uleb128 0x1
 8867 21c7 50       		.byte	0x50
 8868 21c8 02       		.uleb128 0x2
 8869 21c9 75       		.byte	0x75
 8870 21ca 00       		.sleb128 0
 8871 21cb 00       		.byte	0
 8872 21cc 3C       		.uleb128 0x3c
 8873 21cd 8E000000 		.4byte	.LVL253
 8874 21d1 EA280000 		.4byte	0x28ea
 8875 21d5 3C       		.uleb128 0x3c
 8876 21d6 9E000000 		.4byte	.LVL254
 8877 21da 742B0000 		.4byte	0x2b74
 8878 21de 3C       		.uleb128 0x3c
 8879 21df A8000000 		.4byte	.LVL255
 8880 21e3 00290000 		.4byte	0x2900
 8881 21e7 3C       		.uleb128 0x3c
 8882 21e8 B8000000 		.4byte	.LVL256
 8883 21ec 7F2B0000 		.4byte	0x2b7f
 8884 21f0 3B       		.uleb128 0x3b
 8885 21f1 C4000000 		.4byte	.LVL257
 8886 21f5 CB280000 		.4byte	0x28cb
 8887 21f9 11220000 		.4byte	0x2211
 8888 21fd 35       		.uleb128 0x35
 8889 21fe 01       		.uleb128 0x1
 8890 21ff 50       		.byte	0x50
 8891 2200 02       		.uleb128 0x2
 8892 2201 75       		.byte	0x75
 8893 2202 00       		.sleb128 0
 8894 2203 35       		.uleb128 0x35
 8895 2204 01       		.uleb128 0x1
 8896 2205 51       		.byte	0x51
 8897 2206 02       		.uleb128 0x2
 8898 2207 74       		.byte	0x74
 8899 2208 00       		.sleb128 0
 8900 2209 35       		.uleb128 0x35
 8901 220a 01       		.uleb128 0x1
 8902 220b 52       		.byte	0x52
 8903 220c 03       		.uleb128 0x3
 8904 220d 0A       		.byte	0xa
 8905 220e 4001     		.2byte	0x140
 8906 2210 00       		.byte	0
 8907 2211 34       		.uleb128 0x34
 8908 2212 CA000000 		.4byte	.LVL258
 8909 2216 DF280000 		.4byte	0x28df
 8910 221a 35       		.uleb128 0x35
 8911 221b 01       		.uleb128 0x1
 8912 221c 50       		.byte	0x50
 8913 221d 02       		.uleb128 0x2
ARM GAS  C:\Users\euanm\AppData\Local\Temp\ccnlTGs7.s 			page 159


 8914 221e 75       		.byte	0x75
 8915 221f 00       		.sleb128 0
 8916 2220 00       		.byte	0
 8917 2221 00       		.byte	0
 8918 2222 2B       		.uleb128 0x2b
 8919 2223 C9020000 		.4byte	.LASF359
 8920 2227 01       		.byte	0x1
 8921 2228 CA04     		.2byte	0x4ca
 8922 222a 00000000 		.4byte	.LFB309
 8923 222e 60000000 		.4byte	.LFE309-.LFB309
 8924 2232 01       		.uleb128 0x1
 8925 2233 9C       		.byte	0x9c
 8926 2234 95220000 		.4byte	0x2295
 8927 2238 2C       		.uleb128 0x2c
 8928 2239 61726700 		.ascii	"arg\000"
 8929 223d 01       		.byte	0x1
 8930 223e CA04     		.2byte	0x4ca
 8931 2240 96030000 		.4byte	0x396
 8932 2244 030A0000 		.4byte	.LLST38
 8933 2248 2D       		.uleb128 0x2d
 8934 2249 49100000 		.4byte	0x1049
 8935 224d 00000000 		.4byte	.LBB99
 8936 2251 60000000 		.4byte	.Ldebug_ranges0+0x60
 8937 2255 01       		.byte	0x1
 8938 2256 CD04     		.2byte	0x4cd
 8939 2258 69220000 		.4byte	0x2269
 8940 225c 53       		.uleb128 0x53
 8941 225d 55100000 		.4byte	0x1055
 8942 2261 06       		.uleb128 0x6
 8943 2262 03       		.byte	0x3
 8944 2263 20000000 		.4byte	.LC2
 8945 2267 9F       		.byte	0x9f
 8946 2268 00       		.byte	0
 8947 2269 3C       		.uleb128 0x3c
 8948 226a 24000000 		.4byte	.LVL261
 8949 226e 70200000 		.4byte	0x2070
 8950 2272 3B       		.uleb128 0x3b
 8951 2273 2A000000 		.4byte	.LVL262
 8952 2277 8A2B0000 		.4byte	0x2b8a
 8953 227b 85220000 		.4byte	0x2285
 8954 227f 35       		.uleb128 0x35
 8955 2280 01       		.uleb128 0x1
 8956 2281 50       		.byte	0x50
 8957 2282 01       		.uleb128 0x1
 8958 2283 3A       		.byte	0x3a
 8959 2284 00       		.byte	0
 8960 2285 34       		.uleb128 0x34
 8961 2286 36000000 		.4byte	.LVL263
 8962 228a E01E0000 		.4byte	0x1ee0
 8963 228e 35       		.uleb128 0x35
 8964 228f 01       		.uleb128 0x1
 8965 2290 50       		.byte	0x50
 8966 2291 01       		.uleb128 0x1
 8967 2292 33       		.byte	0x33
 8968 2293 00       		.byte	0
 8969 2294 00       		.byte	0
 8970 2295 54       		.uleb128 0x54
ARM GAS  C:\Users\euanm\AppData\Local\Temp\ccnlTGs7.s 			page 160


 8971 2296 16140000 		.4byte	.LASF360
 8972 229a 01       		.byte	0x1
 8973 229b 0704     		.2byte	0x407
 8974 229d 00000000 		.4byte	.LFB306
 8975 22a1 88040000 		.4byte	.LFE306-.LFB306
 8976 22a5 01       		.uleb128 0x1
 8977 22a6 9C       		.byte	0x9c
 8978 22a7 CF240000 		.4byte	0x24cf
 8979 22ab 33       		.uleb128 0x33
 8980 22ac DA1D0000 		.4byte	.LASF361
 8981 22b0 01       		.byte	0x1
 8982 22b1 0A04     		.2byte	0x40a
 8983 22b3 49110000 		.4byte	0x1149
 8984 22b7 240A0000 		.4byte	.LLST39
 8985 22bb 32       		.uleb128 0x32
 8986 22bc 58020000 		.4byte	.LASF362
 8987 22c0 01       		.byte	0x1
 8988 22c1 0D04     		.2byte	0x40d
 8989 22c3 B1000000 		.4byte	0xb1
 8990 22c7 05       		.uleb128 0x5
 8991 22c8 03       		.byte	0x3
 8992 22c9 00000000 		.4byte	wrong_voltage_iterations.10695
 8993 22cd 33       		.uleb128 0x33
 8994 22ce 2A110000 		.4byte	.LASF250
 8995 22d2 01       		.byte	0x1
 8996 22d3 2404     		.2byte	0x424
 8997 22d5 49110000 		.4byte	0x1149
 8998 22d9 500A0000 		.4byte	.LLST40
 8999 22dd 33       		.uleb128 0x33
 9000 22de 90050000 		.4byte	.LASF363
 9001 22e2 01       		.byte	0x1
 9002 22e3 2504     		.2byte	0x425
 9003 22e5 49110000 		.4byte	0x1149
 9004 22e9 880A0000 		.4byte	.LLST41
 9005 22ed 33       		.uleb128 0x33
 9006 22ee 28180000 		.4byte	.LASF364
 9007 22f2 01       		.byte	0x1
 9008 22f3 2B04     		.2byte	0x42b
 9009 22f5 25000000 		.4byte	0x25
 9010 22f9 D80A0000 		.4byte	.LLST42
 9011 22fd 33       		.uleb128 0x33
 9012 22fe BA000000 		.4byte	.LASF365
 9013 2302 01       		.byte	0x1
 9014 2303 2C04     		.2byte	0x42c
 9015 2305 25000000 		.4byte	0x25
 9016 2309 340B0000 		.4byte	.LLST43
 9017 230d 33       		.uleb128 0x33
 9018 230e 33030000 		.4byte	.LASF366
 9019 2312 01       		.byte	0x1
 9020 2313 3F04     		.2byte	0x43f
 9021 2315 49110000 		.4byte	0x1149
 9022 2319 780B0000 		.4byte	.LLST44
 9023 231d 4C       		.uleb128 0x4c
 9024 231e 6100     		.ascii	"a\000"
 9025 2320 01       		.byte	0x1
 9026 2321 5E04     		.2byte	0x45e
 9027 2323 B1000000 		.4byte	0xb1
ARM GAS  C:\Users\euanm\AppData\Local\Temp\ccnlTGs7.s 			page 161


 9028 2327 05       		.uleb128 0x5
 9029 2328 03       		.byte	0x3
 9030 2329 00000000 		.4byte	a.10703
 9031 232d 50       		.uleb128 0x50
 9032 232e 78000000 		.4byte	.Ldebug_ranges0+0x78
 9033 2332 5B230000 		.4byte	0x235b
 9034 2336 32       		.uleb128 0x32
 9035 2337 9F150000 		.4byte	.LASF367
 9036 233b 01       		.byte	0x1
 9037 233c 4204     		.2byte	0x442
 9038 233e 25000000 		.4byte	0x25
 9039 2342 05       		.uleb128 0x5
 9040 2343 03       		.byte	0x3
 9041 2344 00000000 		.4byte	curr_diff_sum.10701
 9042 2348 32       		.uleb128 0x32
 9043 2349 AE1E0000 		.4byte	.LASF368
 9044 234d 01       		.byte	0x1
 9045 234e 4304     		.2byte	0x443
 9046 2350 25000000 		.4byte	0x25
 9047 2354 05       		.uleb128 0x5
 9048 2355 03       		.byte	0x3
 9049 2356 00000000 		.4byte	curr_diff_samples.10702
 9050 235a 00       		.byte	0
 9051 235b 2D       		.uleb128 0x2d
 9052 235c F5100000 		.4byte	0x10f5
 9053 2360 A8030000 		.4byte	.LBB108
 9054 2364 A8000000 		.4byte	.Ldebug_ranges0+0xa8
 9055 2368 01       		.byte	0x1
 9056 2369 8004     		.2byte	0x480
 9057 236b AC230000 		.4byte	0x23ac
 9058 236f 4E       		.uleb128 0x4e
 9059 2370 2B100000 		.4byte	0x102b
 9060 2374 A8030000 		.4byte	.LBB109
 9061 2378 A8000000 		.4byte	.Ldebug_ranges0+0xa8
 9062 237c 12       		.byte	0x12
 9063 237d 8401     		.2byte	0x184
 9064 237f 4E       		.uleb128 0x4e
 9065 2380 19100000 		.4byte	0x1019
 9066 2384 A8030000 		.4byte	.LBB110
 9067 2388 A8000000 		.4byte	.Ldebug_ranges0+0xa8
 9068 238c 0C       		.byte	0xc
 9069 238d DB01     		.2byte	0x1db
 9070 238f 4E       		.uleb128 0x4e
 9071 2390 FF0F0000 		.4byte	0xfff
 9072 2394 A8030000 		.4byte	.LBB111
 9073 2398 A8000000 		.4byte	.Ldebug_ranges0+0xa8
 9074 239c 0C       		.byte	0xc
 9075 239d BF01     		.2byte	0x1bf
 9076 239f 2E       		.uleb128 0x2e
 9077 23a0 0C100000 		.4byte	0x100c
 9078 23a4 D40B0000 		.4byte	.LLST45
 9079 23a8 00       		.byte	0
 9080 23a9 00       		.byte	0
 9081 23aa 00       		.byte	0
 9082 23ab 00       		.byte	0
 9083 23ac 51       		.uleb128 0x51
 9084 23ad EC100000 		.4byte	0x10ec
ARM GAS  C:\Users\euanm\AppData\Local\Temp\ccnlTGs7.s 			page 162


 9085 23b1 B8030000 		.4byte	.LBB118
 9086 23b5 06000000 		.4byte	.LBE118-.LBB118
 9087 23b9 01       		.byte	0x1
 9088 23ba 8204     		.2byte	0x482
 9089 23bc FD230000 		.4byte	0x23fd
 9090 23c0 52       		.uleb128 0x52
 9091 23c1 34100000 		.4byte	0x1034
 9092 23c5 B8030000 		.4byte	.LBB119
 9093 23c9 06000000 		.4byte	.LBE119-.LBB119
 9094 23cd 12       		.byte	0x12
 9095 23ce 9A01     		.2byte	0x19a
 9096 23d0 52       		.uleb128 0x52
 9097 23d1 22100000 		.4byte	0x1022
 9098 23d5 B8030000 		.4byte	.LBB120
 9099 23d9 06000000 		.4byte	.LBE120-.LBB120
 9100 23dd 0C       		.byte	0xc
 9101 23de E601     		.2byte	0x1e6
 9102 23e0 52       		.uleb128 0x52
 9103 23e1 FF0F0000 		.4byte	0xfff
 9104 23e5 B8030000 		.4byte	.LBB121
 9105 23e9 06000000 		.4byte	.LBE121-.LBB121
 9106 23ed 0C       		.byte	0xc
 9107 23ee CD01     		.2byte	0x1cd
 9108 23f0 2E       		.uleb128 0x2e
 9109 23f1 0C100000 		.4byte	0x100c
 9110 23f5 E90B0000 		.4byte	.LLST46
 9111 23f9 00       		.byte	0
 9112 23fa 00       		.byte	0
 9113 23fb 00       		.byte	0
 9114 23fc 00       		.byte	0
 9115 23fd 3C       		.uleb128 0x3c
 9116 23fe 16000000 		.4byte	.LVL264
 9117 2402 952B0000 		.4byte	0x2b95
 9118 2406 3C       		.uleb128 0x3c
 9119 2407 5E000000 		.4byte	.LVL266
 9120 240b 89140000 		.4byte	0x1489
 9121 240f 3C       		.uleb128 0x3c
 9122 2410 76000000 		.4byte	.LVL268
 9123 2414 55170000 		.4byte	0x1755
 9124 2418 3C       		.uleb128 0x3c
 9125 2419 7E000000 		.4byte	.LVL270
 9126 241d 4D180000 		.4byte	0x184d
 9127 2421 3C       		.uleb128 0x3c
 9128 2422 C2000000 		.4byte	.LVL272
 9129 2426 17170000 		.4byte	0x1717
 9130 242a 3C       		.uleb128 0x3c
 9131 242b F2000000 		.4byte	.LVL277
 9132 242f 61100000 		.4byte	0x1061
 9133 2433 3B       		.uleb128 0x3b
 9134 2434 76010000 		.4byte	.LVL285
 9135 2438 E01E0000 		.4byte	0x1ee0
 9136 243c 46240000 		.4byte	0x2446
 9137 2440 35       		.uleb128 0x35
 9138 2441 01       		.uleb128 0x1
 9139 2442 50       		.byte	0x50
 9140 2443 01       		.uleb128 0x1
 9141 2444 34       		.byte	0x34
ARM GAS  C:\Users\euanm\AppData\Local\Temp\ccnlTGs7.s 			page 163


 9142 2445 00       		.byte	0
 9143 2446 3C       		.uleb128 0x3c
 9144 2447 8E010000 		.4byte	.LVL287
 9145 244b E01E0000 		.4byte	0x1ee0
 9146 244f 3C       		.uleb128 0x3c
 9147 2450 92010000 		.4byte	.LVL288
 9148 2454 89140000 		.4byte	0x1489
 9149 2458 3C       		.uleb128 0x3c
 9150 2459 DC010000 		.4byte	.LVL290
 9151 245d 89140000 		.4byte	0x1489
 9152 2461 3C       		.uleb128 0x3c
 9153 2462 E4010000 		.4byte	.LVL291
 9154 2466 6B2A0000 		.4byte	0x2a6b
 9155 246a 3C       		.uleb128 0x3c
 9156 246b 08020000 		.4byte	.LVL294
 9157 246f 89140000 		.4byte	0x1489
 9158 2473 3C       		.uleb128 0x3c
 9159 2474 70020000 		.4byte	.LVL295
 9160 2478 17170000 		.4byte	0x1717
 9161 247c 3C       		.uleb128 0x3c
 9162 247d AE020000 		.4byte	.LVL296
 9163 2481 6B2A0000 		.4byte	0x2a6b
 9164 2485 3C       		.uleb128 0x3c
 9165 2486 B4020000 		.4byte	.LVL297
 9166 248a A02B0000 		.4byte	0x2ba0
 9167 248e 3C       		.uleb128 0x3c
 9168 248f D4020000 		.4byte	.LVL298
 9169 2493 AB2B0000 		.4byte	0x2bab
 9170 2497 3C       		.uleb128 0x3c
 9171 2498 E8020000 		.4byte	.LVL301
 9172 249c 1C2B0000 		.4byte	0x2b1c
 9173 24a0 3C       		.uleb128 0x3c
 9174 24a1 F0020000 		.4byte	.LVL303
 9175 24a5 272B0000 		.4byte	0x2b27
 9176 24a9 3B       		.uleb128 0x3b
 9177 24aa B8030000 		.4byte	.LVL308
 9178 24ae B62B0000 		.4byte	0x2bb6
 9179 24b2 BC240000 		.4byte	0x24bc
 9180 24b6 35       		.uleb128 0x35
 9181 24b7 01       		.uleb128 0x1
 9182 24b8 51       		.byte	0x51
 9183 24b9 01       		.uleb128 0x1
 9184 24ba 31       		.byte	0x31
 9185 24bb 00       		.byte	0
 9186 24bc 3C       		.uleb128 0x3c
 9187 24bd C6030000 		.4byte	.LVL310
 9188 24c1 6B2A0000 		.4byte	0x2a6b
 9189 24c5 3C       		.uleb128 0x3c
 9190 24c6 EE030000 		.4byte	.LVL311
 9191 24ca 6B2A0000 		.4byte	0x2a6b
 9192 24ce 00       		.byte	0
 9193 24cf 47       		.uleb128 0x47
 9194 24d0 DB150000 		.4byte	.LASF369
 9195 24d4 01       		.byte	0x1
 9196 24d5 8A04     		.2byte	0x48a
 9197 24d7 00000000 		.4byte	.LFB307
 9198 24db 1C000000 		.4byte	.LFE307-.LFB307
ARM GAS  C:\Users\euanm\AppData\Local\Temp\ccnlTGs7.s 			page 164


 9199 24df 01       		.uleb128 0x1
 9200 24e0 9C       		.byte	0x9c
 9201 24e1 F8240000 		.4byte	0x24f8
 9202 24e5 38       		.uleb128 0x38
 9203 24e6 12000000 		.4byte	.LVL312
 9204 24ea C12B0000 		.4byte	0x2bc1
 9205 24ee 38       		.uleb128 0x38
 9206 24ef 18000000 		.4byte	.LVL313
 9207 24f3 CC2B0000 		.4byte	0x2bcc
 9208 24f7 00       		.byte	0
 9209 24f8 55       		.uleb128 0x55
 9210 24f9 48110000 		.4byte	.LASF370
 9211 24fd 01       		.byte	0x1
 9212 24fe 2C       		.byte	0x2c
 9213 24ff 44110000 		.4byte	0x1144
 9214 2503 05       		.uleb128 0x5
 9215 2504 03       		.byte	0x3
 9216 2505 00000000 		.4byte	m_conf
 9217 2509 55       		.uleb128 0x55
 9218 250a 510E0000 		.4byte	.LASF371
 9219 250e 01       		.byte	0x1
 9220 250f 2D       		.byte	0x2d
 9221 2510 44110000 		.4byte	0x1144
 9222 2514 05       		.uleb128 0x5
 9223 2515 03       		.byte	0x3
 9224 2516 00000000 		.4byte	m_conf_original
 9225 251a 55       		.uleb128 0x55
 9226 251b 14050000 		.4byte	.LASF372
 9227 251f 01       		.byte	0x1
 9228 2520 2E       		.byte	0x2e
 9229 2521 F9090000 		.4byte	0x9f9
 9230 2525 05       		.uleb128 0x5
 9231 2526 03       		.byte	0x3
 9232 2527 00000000 		.4byte	m_fault_now
 9233 252b 55       		.uleb128 0x55
 9234 252c 54070000 		.4byte	.LASF373
 9235 2530 01       		.byte	0x1
 9236 2531 2F       		.byte	0x2f
 9237 2532 B1000000 		.4byte	0xb1
 9238 2536 05       		.uleb128 0x5
 9239 2537 03       		.byte	0x3
 9240 2538 00000000 		.4byte	m_ignore_iterations
 9241 253c 55       		.uleb128 0x55
 9242 253d 7E110000 		.4byte	.LASF374
 9243 2541 01       		.byte	0x1
 9244 2542 30       		.byte	0x30
 9245 2543 4D250000 		.4byte	0x254d
 9246 2547 05       		.uleb128 0x5
 9247 2548 03       		.byte	0x3
 9248 2549 00000000 		.4byte	m_cycles_running
 9249 254d 05       		.uleb128 0x5
 9250 254e B8000000 		.4byte	0xb8
 9251 2552 55       		.uleb128 0x55
 9252 2553 37210000 		.4byte	.LASF375
 9253 2557 01       		.byte	0x1
 9254 2558 31       		.byte	0x31
 9255 2559 63250000 		.4byte	0x2563
ARM GAS  C:\Users\euanm\AppData\Local\Temp\ccnlTGs7.s 			page 165


 9256 255d 05       		.uleb128 0x5
 9257 255e 03       		.byte	0x3
 9258 255f 00000000 		.4byte	m_lock_enabled
 9259 2563 05       		.uleb128 0x5
 9260 2564 200E0000 		.4byte	0xe20
 9261 2568 55       		.uleb128 0x55
 9262 2569 76050000 		.4byte	.LASF376
 9263 256d 01       		.byte	0x1
 9264 256e 32       		.byte	0x32
 9265 256f 63250000 		.4byte	0x2563
 9266 2573 05       		.uleb128 0x5
 9267 2574 03       		.byte	0x3
 9268 2575 00000000 		.4byte	m_lock_override_once
 9269 2579 55       		.uleb128 0x55
 9270 257a FC150000 		.4byte	.LASF377
 9271 257e 01       		.byte	0x1
 9272 257f 33       		.byte	0x33
 9273 2580 8A250000 		.4byte	0x258a
 9274 2584 05       		.uleb128 0x5
 9275 2585 03       		.byte	0x3
 9276 2586 00000000 		.4byte	m_motor_current_sum
 9277 258a 05       		.uleb128 0x5
 9278 258b 25000000 		.4byte	0x25
 9279 258f 55       		.uleb128 0x55
 9280 2590 7F1A0000 		.4byte	.LASF378
 9281 2594 01       		.byte	0x1
 9282 2595 34       		.byte	0x34
 9283 2596 8A250000 		.4byte	0x258a
 9284 259a 05       		.uleb128 0x5
 9285 259b 03       		.byte	0x3
 9286 259c 00000000 		.4byte	m_input_current_sum
 9287 25a0 55       		.uleb128 0x55
 9288 25a1 4C160000 		.4byte	.LASF379
 9289 25a5 01       		.byte	0x1
 9290 25a6 35       		.byte	0x35
 9291 25a7 8A250000 		.4byte	0x258a
 9292 25ab 05       		.uleb128 0x5
 9293 25ac 03       		.byte	0x3
 9294 25ad 00000000 		.4byte	m_motor_current_iterations
 9295 25b1 55       		.uleb128 0x55
 9296 25b2 9A0E0000 		.4byte	.LASF380
 9297 25b6 01       		.byte	0x1
 9298 25b7 36       		.byte	0x36
 9299 25b8 8A250000 		.4byte	0x258a
 9300 25bc 05       		.uleb128 0x5
 9301 25bd 03       		.byte	0x3
 9302 25be 00000000 		.4byte	m_input_current_iterations
 9303 25c2 55       		.uleb128 0x55
 9304 25c3 EC0F0000 		.4byte	.LASF381
 9305 25c7 01       		.byte	0x1
 9306 25c8 37       		.byte	0x37
 9307 25c9 8A250000 		.4byte	0x258a
 9308 25cd 05       		.uleb128 0x5
 9309 25ce 03       		.byte	0x3
 9310 25cf 00000000 		.4byte	m_amp_seconds
 9311 25d3 55       		.uleb128 0x55
 9312 25d4 A30F0000 		.4byte	.LASF382
ARM GAS  C:\Users\euanm\AppData\Local\Temp\ccnlTGs7.s 			page 166


 9313 25d8 01       		.byte	0x1
 9314 25d9 38       		.byte	0x38
 9315 25da 8A250000 		.4byte	0x258a
 9316 25de 05       		.uleb128 0x5
 9317 25df 03       		.byte	0x3
 9318 25e0 00000000 		.4byte	m_amp_seconds_charged
 9319 25e4 55       		.uleb128 0x55
 9320 25e5 B4050000 		.4byte	.LASF383
 9321 25e9 01       		.byte	0x1
 9322 25ea 39       		.byte	0x39
 9323 25eb 8A250000 		.4byte	0x258a
 9324 25ef 05       		.uleb128 0x5
 9325 25f0 03       		.byte	0x3
 9326 25f1 00000000 		.4byte	m_watt_seconds
 9327 25f5 55       		.uleb128 0x55
 9328 25f6 DC050000 		.4byte	.LASF384
 9329 25fa 01       		.byte	0x1
 9330 25fb 3A       		.byte	0x3a
 9331 25fc 8A250000 		.4byte	0x258a
 9332 2600 05       		.uleb128 0x5
 9333 2601 03       		.byte	0x3
 9334 2602 00000000 		.4byte	m_watt_seconds_charged
 9335 2606 55       		.uleb128 0x55
 9336 2607 30000000 		.4byte	.LASF385
 9337 260b 01       		.byte	0x1
 9338 260c 3B       		.byte	0x3b
 9339 260d 8A250000 		.4byte	0x258a
 9340 2611 05       		.uleb128 0x5
 9341 2612 03       		.byte	0x3
 9342 2613 00000000 		.4byte	m_position_set
 9343 2617 55       		.uleb128 0x55
 9344 2618 07180000 		.4byte	.LASF386
 9345 261c 01       		.byte	0x1
 9346 261d 3D       		.byte	0x3d
 9347 261e 28260000 		.4byte	0x2628
 9348 2622 05       		.uleb128 0x5
 9349 2623 03       		.byte	0x3
 9350 2624 00000000 		.4byte	cruise_control_status
 9351 2628 05       		.uleb128 0x5
 9352 2629 EB080000 		.4byte	0x8eb
 9353 262d 17       		.uleb128 0x17
 9354 262e 1C010000 		.4byte	0x11c
 9355 2632 3E260000 		.4byte	0x263e
 9356 2636 56       		.uleb128 0x56
 9357 2637 CC040000 		.4byte	0x4cc
 9358 263b CF07     		.2byte	0x7cf
 9359 263d 00       		.byte	0
 9360 263e 55       		.uleb128 0x55
 9361 263f C51B0000 		.4byte	.LASF387
 9362 2643 01       		.byte	0x1
 9363 2644 41       		.byte	0x41
 9364 2645 4F260000 		.4byte	0x264f
 9365 2649 05       		.uleb128 0x5
 9366 264a 03       		.byte	0x3
 9367 264b 00000000 		.4byte	m_curr0_samples
 9368 264f 05       		.uleb128 0x5
 9369 2650 2D260000 		.4byte	0x262d
ARM GAS  C:\Users\euanm\AppData\Local\Temp\ccnlTGs7.s 			page 167


 9370 2654 55       		.uleb128 0x55
 9371 2655 DF1B0000 		.4byte	.LASF388
 9372 2659 01       		.byte	0x1
 9373 265a 42       		.byte	0x42
 9374 265b 65260000 		.4byte	0x2665
 9375 265f 05       		.uleb128 0x5
 9376 2660 03       		.byte	0x3
 9377 2661 00000000 		.4byte	m_curr1_samples
 9378 2665 05       		.uleb128 0x5
 9379 2666 2D260000 		.4byte	0x262d
 9380 266a 55       		.uleb128 0x55
 9381 266b 7C080000 		.4byte	.LASF389
 9382 266f 01       		.byte	0x1
 9383 2670 43       		.byte	0x43
 9384 2671 7B260000 		.4byte	0x267b
 9385 2675 05       		.uleb128 0x5
 9386 2676 03       		.byte	0x3
 9387 2677 00000000 		.4byte	m_ph1_samples
 9388 267b 05       		.uleb128 0x5
 9389 267c 2D260000 		.4byte	0x262d
 9390 2680 55       		.uleb128 0x55
 9391 2681 8A080000 		.4byte	.LASF390
 9392 2685 01       		.byte	0x1
 9393 2686 44       		.byte	0x44
 9394 2687 91260000 		.4byte	0x2691
 9395 268b 05       		.uleb128 0x5
 9396 268c 03       		.byte	0x3
 9397 268d 00000000 		.4byte	m_ph2_samples
 9398 2691 05       		.uleb128 0x5
 9399 2692 2D260000 		.4byte	0x262d
 9400 2696 55       		.uleb128 0x55
 9401 2697 A8090000 		.4byte	.LASF391
 9402 269b 01       		.byte	0x1
 9403 269c 45       		.byte	0x45
 9404 269d A7260000 		.4byte	0x26a7
 9405 26a1 05       		.uleb128 0x5
 9406 26a2 03       		.byte	0x3
 9407 26a3 00000000 		.4byte	m_ph3_samples
 9408 26a7 05       		.uleb128 0x5
 9409 26a8 2D260000 		.4byte	0x262d
 9410 26ac 55       		.uleb128 0x55
 9411 26ad A6210000 		.4byte	.LASF392
 9412 26b1 01       		.byte	0x1
 9413 26b2 46       		.byte	0x46
 9414 26b3 BD260000 		.4byte	0x26bd
 9415 26b7 05       		.uleb128 0x5
 9416 26b8 03       		.byte	0x3
 9417 26b9 00000000 		.4byte	m_vzero_samples
 9418 26bd 05       		.uleb128 0x5
 9419 26be 2D260000 		.4byte	0x262d
 9420 26c2 17       		.uleb128 0x17
 9421 26c3 17010000 		.4byte	0x117
 9422 26c7 D3260000 		.4byte	0x26d3
 9423 26cb 56       		.uleb128 0x56
 9424 26cc CC040000 		.4byte	0x4cc
 9425 26d0 CF07     		.2byte	0x7cf
 9426 26d2 00       		.byte	0
ARM GAS  C:\Users\euanm\AppData\Local\Temp\ccnlTGs7.s 			page 168


 9427 26d3 55       		.uleb128 0x55
 9428 26d4 27040000 		.4byte	.LASF393
 9429 26d8 01       		.byte	0x1
 9430 26d9 47       		.byte	0x47
 9431 26da E4260000 		.4byte	0x26e4
 9432 26de 05       		.uleb128 0x5
 9433 26df 03       		.byte	0x3
 9434 26e0 00000000 		.4byte	m_status_samples
 9435 26e4 05       		.uleb128 0x5
 9436 26e5 C2260000 		.4byte	0x26c2
 9437 26e9 55       		.uleb128 0x55
 9438 26ea 51210000 		.4byte	.LASF394
 9439 26ee 01       		.byte	0x1
 9440 26ef 48       		.byte	0x48
 9441 26f0 FA260000 		.4byte	0x26fa
 9442 26f4 05       		.uleb128 0x5
 9443 26f5 03       		.byte	0x3
 9444 26f6 00000000 		.4byte	m_curr_fir_samples
 9445 26fa 05       		.uleb128 0x5
 9446 26fb 2D260000 		.4byte	0x262d
 9447 26ff 55       		.uleb128 0x55
 9448 2700 621F0000 		.4byte	.LASF395
 9449 2704 01       		.byte	0x1
 9450 2705 49       		.byte	0x49
 9451 2706 10270000 		.4byte	0x2710
 9452 270a 05       		.uleb128 0x5
 9453 270b 03       		.byte	0x3
 9454 270c 00000000 		.4byte	m_f_sw_samples
 9455 2710 05       		.uleb128 0x5
 9456 2711 2D260000 		.4byte	0x262d
 9457 2715 55       		.uleb128 0x55
 9458 2716 2D0C0000 		.4byte	.LASF396
 9459 271a 01       		.byte	0x1
 9460 271b 4A       		.byte	0x4a
 9461 271c 6B200000 		.4byte	0x206b
 9462 2720 05       		.uleb128 0x5
 9463 2721 03       		.byte	0x3
 9464 2722 00000000 		.4byte	m_sample_len
 9465 2726 55       		.uleb128 0x55
 9466 2727 BD070000 		.4byte	.LASF397
 9467 272b 01       		.byte	0x1
 9468 272c 4B       		.byte	0x4b
 9469 272d 6B200000 		.4byte	0x206b
 9470 2731 05       		.uleb128 0x5
 9471 2732 03       		.byte	0x3
 9472 2733 00000000 		.4byte	m_sample_int
 9473 2737 55       		.uleb128 0x55
 9474 2738 191D0000 		.4byte	.LASF398
 9475 273c 01       		.byte	0x1
 9476 273d 4C       		.byte	0x4c
 9477 273e 6B200000 		.4byte	0x206b
 9478 2742 05       		.uleb128 0x5
 9479 2743 03       		.byte	0x3
 9480 2744 00000000 		.4byte	m_sample_ready
 9481 2748 55       		.uleb128 0x55
 9482 2749 C3180000 		.4byte	.LASF399
 9483 274d 01       		.byte	0x1
ARM GAS  C:\Users\euanm\AppData\Local\Temp\ccnlTGs7.s 			page 169


 9484 274e 4D       		.byte	0x4d
 9485 274f 6B200000 		.4byte	0x206b
 9486 2753 05       		.uleb128 0x5
 9487 2754 03       		.byte	0x3
 9488 2755 00000000 		.4byte	m_sample_now
 9489 2759 55       		.uleb128 0x55
 9490 275a 08030000 		.4byte	.LASF400
 9491 275e 01       		.byte	0x1
 9492 275f 4E       		.byte	0x4e
 9493 2760 6B200000 		.4byte	0x206b
 9494 2764 05       		.uleb128 0x5
 9495 2765 03       		.byte	0x3
 9496 2766 00000000 		.4byte	m_sample_at_start
 9497 276a 55       		.uleb128 0x55
 9498 276b 64200000 		.4byte	.LASF401
 9499 276f 01       		.byte	0x1
 9500 2770 4F       		.byte	0x4f
 9501 2771 6B200000 		.4byte	0x206b
 9502 2775 05       		.uleb128 0x5
 9503 2776 03       		.byte	0x3
 9504 2777 00000000 		.4byte	m_start_comm
 9505 277b 55       		.uleb128 0x55
 9506 277c F60C0000 		.4byte	.LASF402
 9507 2780 01       		.byte	0x1
 9508 2781 50       		.byte	0x50
 9509 2782 8A250000 		.4byte	0x258a
 9510 2786 05       		.uleb128 0x5
 9511 2787 03       		.byte	0x3
 9512 2788 00000000 		.4byte	m_last_adc_duration_sample
 9513 278c 55       		.uleb128 0x55
 9514 278d D40F0000 		.4byte	.LASF403
 9515 2791 01       		.byte	0x1
 9516 2792 56       		.byte	0x56
 9517 2793 EA0F0000 		.4byte	0xfea
 9518 2797 05       		.uleb128 0x5
 9519 2798 03       		.byte	0x3
 9520 2799 00000000 		.4byte	pwn_done_func
 9521 279d 17       		.uleb128 0x17
 9522 279e 03060000 		.4byte	0x603
 9523 27a2 AD270000 		.4byte	0x27ad
 9524 27a6 18       		.uleb128 0x18
 9525 27a7 CC040000 		.4byte	0x4cc
 9526 27ab B2       		.byte	0xb2
 9527 27ac 00       		.byte	0
 9528 27ad 55       		.uleb128 0x55
 9529 27ae 85030000 		.4byte	.LASF404
 9530 27b2 01       		.byte	0x1
 9531 27b3 59       		.byte	0x59
 9532 27b4 9D270000 		.4byte	0x279d
 9533 27b8 05       		.uleb128 0x5
 9534 27b9 03       		.byte	0x3
 9535 27ba 00000000 		.4byte	timer_thread_wa
 9536 27be 55       		.uleb128 0x55
 9537 27bf 37130000 		.4byte	.LASF405
 9538 27c3 01       		.byte	0x1
 9539 27c4 5B       		.byte	0x5b
 9540 27c5 9D270000 		.4byte	0x279d
ARM GAS  C:\Users\euanm\AppData\Local\Temp\ccnlTGs7.s 			page 170


 9541 27c9 05       		.uleb128 0x5
 9542 27ca 03       		.byte	0x3
 9543 27cb 00000000 		.4byte	sample_send_thread_wa
 9544 27cf 55       		.uleb128 0x55
 9545 27d0 EC210000 		.4byte	.LASF406
 9546 27d4 01       		.byte	0x1
 9547 27d5 5D       		.byte	0x5d
 9548 27d6 B9020000 		.4byte	0x2b9
 9549 27da 05       		.uleb128 0x5
 9550 27db 03       		.byte	0x3
 9551 27dc 00000000 		.4byte	sample_send_tp
 9552 27e0 57       		.uleb128 0x57
 9553 27e1 721B0000 		.4byte	.LASF407
 9554 27e5 13       		.byte	0x13
 9555 27e6 A706     		.2byte	0x6a7
 9556 27e8 26010000 		.4byte	0x126
 9557 27ec 58       		.uleb128 0x58
 9558 27ed 636800   		.ascii	"ch\000"
 9559 27f0 09       		.byte	0x9
 9560 27f1 0902     		.2byte	0x209
 9561 27f3 65040000 		.4byte	0x465
 9562 27f7 17       		.uleb128 0x17
 9563 27f8 21010000 		.4byte	0x121
 9564 27fc 07280000 		.4byte	0x2807
 9565 2800 18       		.uleb128 0x18
 9566 2801 CC040000 		.4byte	0x4cc
 9567 2805 0B       		.byte	0xb
 9568 2806 00       		.byte	0
 9569 2807 59       		.uleb128 0x59
 9570 2808 8A120000 		.4byte	.LASF408
 9571 280c 01       		.byte	0x1
 9572 280d 28       		.byte	0x28
 9573 280e 18280000 		.4byte	0x2818
 9574 2812 05       		.uleb128 0x5
 9575 2813 03       		.byte	0x3
 9576 2814 00000000 		.4byte	ADC_Value
 9577 2818 05       		.uleb128 0x5
 9578 2819 F7270000 		.4byte	0x27f7
 9579 281d 17       		.uleb128 0x17
 9580 281e 6B200000 		.4byte	0x206b
 9581 2822 2D280000 		.4byte	0x282d
 9582 2826 18       		.uleb128 0x18
 9583 2827 CC040000 		.4byte	0x4cc
 9584 282b 02       		.byte	0x2
 9585 282c 00       		.byte	0
 9586 282d 59       		.uleb128 0x59
 9587 282e 4A0D0000 		.4byte	.LASF409
 9588 2832 01       		.byte	0x1
 9589 2833 29       		.byte	0x29
 9590 2834 3E280000 		.4byte	0x283e
 9591 2838 05       		.uleb128 0x5
 9592 2839 03       		.byte	0x3
 9593 283a 00000000 		.4byte	ADC_curr_norm_value
 9594 283e 05       		.uleb128 0x5
 9595 283f 1D280000 		.4byte	0x281d
 9596 2843 17       		.uleb128 0x17
 9597 2844 8A250000 		.4byte	0x258a
ARM GAS  C:\Users\euanm\AppData\Local\Temp\ccnlTGs7.s 			page 171


 9598 2848 4E280000 		.4byte	0x284e
 9599 284c 5A       		.uleb128 0x5a
 9600 284d 00       		.byte	0
 9601 284e 5B       		.uleb128 0x5b
 9602 284f 21130000 		.4byte	.LASF410
 9603 2853 14       		.byte	0x14
 9604 2854 4F       		.byte	0x4f
 9605 2855 59280000 		.4byte	0x2859
 9606 2859 05       		.uleb128 0x5
 9607 285a 43280000 		.4byte	0x2843
 9608 285e 5B       		.uleb128 0x5b
 9609 285f 93130000 		.4byte	.LASF411
 9610 2863 14       		.byte	0x14
 9611 2864 50       		.byte	0x50
 9612 2865 69280000 		.4byte	0x2869
 9613 2869 05       		.uleb128 0x5
 9614 286a 43280000 		.4byte	0x2843
 9615 286e 5B       		.uleb128 0x5b
 9616 286f 02210000 		.4byte	.LASF412
 9617 2873 14       		.byte	0x14
 9618 2874 51       		.byte	0x51
 9619 2875 79280000 		.4byte	0x2879
 9620 2879 05       		.uleb128 0x5
 9621 287a 43280000 		.4byte	0x2843
 9622 287e 5B       		.uleb128 0x5b
 9623 287f FA0A0000 		.4byte	.LASF413
 9624 2883 14       		.byte	0x14
 9625 2884 52       		.byte	0x52
 9626 2885 6B200000 		.4byte	0x206b
 9627 2889 5C       		.uleb128 0x5c
 9628 288a 8C1D0000 		.4byte	.LASF414
 9629 288e 8C1D0000 		.4byte	.LASF414
 9630 2892 15       		.byte	0x15
 9631 2893 24       		.byte	0x24
 9632 2894 5C       		.uleb128 0x5c
 9633 2895 B9200000 		.4byte	.LASF415
 9634 2899 B9200000 		.4byte	.LASF415
 9635 289d 16       		.byte	0x16
 9636 289e 8B       		.byte	0x8b
 9637 289f 5C       		.uleb128 0x5c
 9638 28a0 B6120000 		.4byte	.LASF416
 9639 28a4 B6120000 		.4byte	.LASF416
 9640 28a8 17       		.byte	0x17
 9641 28a9 27       		.byte	0x27
 9642 28aa 5C       		.uleb128 0x5c
 9643 28ab 28210000 		.4byte	.LASF417
 9644 28af 28210000 		.4byte	.LASF417
 9645 28b3 14       		.byte	0x14
 9646 28b4 23       		.byte	0x23
 9647 28b5 5C       		.uleb128 0x5c
 9648 28b6 32110000 		.4byte	.LASF418
 9649 28ba 32110000 		.4byte	.LASF418
 9650 28be 17       		.byte	0x17
 9651 28bf 2C       		.byte	0x2c
 9652 28c0 5C       		.uleb128 0x5c
 9653 28c1 68070000 		.4byte	.LASF419
 9654 28c5 68070000 		.4byte	.LASF419
ARM GAS  C:\Users\euanm\AppData\Local\Temp\ccnlTGs7.s 			page 172


 9655 28c9 14       		.byte	0x14
 9656 28ca 28       		.byte	0x28
 9657 28cb 5D       		.uleb128 0x5d
 9658 28cc 38040000 		.4byte	.LASF495
 9659 28d0 38040000 		.4byte	.LASF495
 9660 28d4 5C       		.uleb128 0x5c
 9661 28d5 3D060000 		.4byte	.LASF420
 9662 28d9 3D060000 		.4byte	.LASF420
 9663 28dd 18       		.byte	0x18
 9664 28de 89       		.byte	0x89
 9665 28df 5C       		.uleb128 0x5c
 9666 28e0 E1010000 		.4byte	.LASF421
 9667 28e4 E1010000 		.4byte	.LASF421
 9668 28e8 17       		.byte	0x17
 9669 28e9 21       		.byte	0x21
 9670 28ea 5C       		.uleb128 0x5c
 9671 28eb 13170000 		.4byte	.LASF422
 9672 28ef 13170000 		.4byte	.LASF422
 9673 28f3 19       		.byte	0x19
 9674 28f4 21       		.byte	0x21
 9675 28f5 5C       		.uleb128 0x5c
 9676 28f6 20050000 		.4byte	.LASF423
 9677 28fa 20050000 		.4byte	.LASF423
 9678 28fe 14       		.byte	0x14
 9679 28ff 1F       		.byte	0x1f
 9680 2900 5C       		.uleb128 0x5c
 9681 2901 281D0000 		.4byte	.LASF424
 9682 2905 281D0000 		.4byte	.LASF424
 9683 2909 19       		.byte	0x19
 9684 290a 20       		.byte	0x20
 9685 290b 5C       		.uleb128 0x5c
 9686 290c 35150000 		.4byte	.LASF425
 9687 2910 35150000 		.4byte	.LASF425
 9688 2914 17       		.byte	0x17
 9689 2915 25       		.byte	0x25
 9690 2916 5C       		.uleb128 0x5c
 9691 2917 E61E0000 		.4byte	.LASF426
 9692 291b E61E0000 		.4byte	.LASF426
 9693 291f 14       		.byte	0x14
 9694 2920 48       		.byte	0x48
 9695 2921 5C       		.uleb128 0x5c
 9696 2922 A10D0000 		.4byte	.LASF427
 9697 2926 A10D0000 		.4byte	.LASF427
 9698 292a 17       		.byte	0x17
 9699 292b 24       		.byte	0x24
 9700 292c 5C       		.uleb128 0x5c
 9701 292d A4050000 		.4byte	.LASF428
 9702 2931 A4050000 		.4byte	.LASF428
 9703 2935 14       		.byte	0x14
 9704 2936 31       		.byte	0x31
 9705 2937 5C       		.uleb128 0x5c
 9706 2938 AC020000 		.4byte	.LASF429
 9707 293c AC020000 		.4byte	.LASF429
 9708 2940 17       		.byte	0x17
 9709 2941 2E       		.byte	0x2e
 9710 2942 5C       		.uleb128 0x5c
 9711 2943 11110000 		.4byte	.LASF430
ARM GAS  C:\Users\euanm\AppData\Local\Temp\ccnlTGs7.s 			page 173


 9712 2947 11110000 		.4byte	.LASF430
 9713 294b 14       		.byte	0x14
 9714 294c 2D       		.byte	0x2d
 9715 294d 5C       		.uleb128 0x5c
 9716 294e 251A0000 		.4byte	.LASF431
 9717 2952 251A0000 		.4byte	.LASF431
 9718 2956 17       		.byte	0x17
 9719 2957 2F       		.byte	0x2f
 9720 2958 5C       		.uleb128 0x5c
 9721 2959 C3050000 		.4byte	.LASF432
 9722 295d C3050000 		.4byte	.LASF432
 9723 2961 14       		.byte	0x14
 9724 2962 2E       		.byte	0x2e
 9725 2963 5C       		.uleb128 0x5c
 9726 2964 EA1C0000 		.4byte	.LASF433
 9727 2968 EA1C0000 		.4byte	.LASF433
 9728 296c 17       		.byte	0x17
 9729 296d 32       		.byte	0x32
 9730 296e 5C       		.uleb128 0x5c
 9731 296f C20C0000 		.4byte	.LASF434
 9732 2973 C20C0000 		.4byte	.LASF434
 9733 2977 14       		.byte	0x14
 9734 2978 2F       		.byte	0x2f
 9735 2979 5C       		.uleb128 0x5c
 9736 297a 90000000 		.4byte	.LASF435
 9737 297e 90000000 		.4byte	.LASF435
 9738 2982 17       		.byte	0x17
 9739 2983 33       		.byte	0x33
 9740 2984 5C       		.uleb128 0x5c
 9741 2985 100B0000 		.4byte	.LASF436
 9742 2989 100B0000 		.4byte	.LASF436
 9743 298d 14       		.byte	0x14
 9744 298e 30       		.byte	0x30
 9745 298f 5C       		.uleb128 0x5c
 9746 2990 271B0000 		.4byte	.LASF437
 9747 2994 271B0000 		.4byte	.LASF437
 9748 2998 17       		.byte	0x17
 9749 2999 34       		.byte	0x34
 9750 299a 5C       		.uleb128 0x5c
 9751 299b DF100000 		.4byte	.LASF438
 9752 299f DF100000 		.4byte	.LASF438
 9753 29a3 14       		.byte	0x14
 9754 29a4 37       		.byte	0x37
 9755 29a5 5C       		.uleb128 0x5c
 9756 29a6 1E0B0000 		.4byte	.LASF439
 9757 29aa 1E0B0000 		.4byte	.LASF439
 9758 29ae 17       		.byte	0x17
 9759 29af 35       		.byte	0x35
 9760 29b0 5C       		.uleb128 0x5c
 9761 29b1 48000000 		.4byte	.LASF440
 9762 29b5 48000000 		.4byte	.LASF440
 9763 29b9 14       		.byte	0x14
 9764 29ba 38       		.byte	0x38
 9765 29bb 5C       		.uleb128 0x5c
 9766 29bc AA060000 		.4byte	.LASF441
 9767 29c0 AA060000 		.4byte	.LASF441
 9768 29c4 17       		.byte	0x17
ARM GAS  C:\Users\euanm\AppData\Local\Temp\ccnlTGs7.s 			page 174


 9769 29c5 38       		.byte	0x38
 9770 29c6 5C       		.uleb128 0x5c
 9771 29c7 78140000 		.4byte	.LASF442
 9772 29cb 78140000 		.4byte	.LASF442
 9773 29cf 14       		.byte	0x14
 9774 29d0 39       		.byte	0x39
 9775 29d1 5C       		.uleb128 0x5c
 9776 29d2 BD090000 		.4byte	.LASF443
 9777 29d6 BD090000 		.4byte	.LASF443
 9778 29da 17       		.byte	0x17
 9779 29db 39       		.byte	0x39
 9780 29dc 5C       		.uleb128 0x5c
 9781 29dd 9E040000 		.4byte	.LASF444
 9782 29e1 9E040000 		.4byte	.LASF444
 9783 29e5 14       		.byte	0x14
 9784 29e6 3A       		.byte	0x3a
 9785 29e7 5C       		.uleb128 0x5c
 9786 29e8 30140000 		.4byte	.LASF445
 9787 29ec 30140000 		.4byte	.LASF445
 9788 29f0 17       		.byte	0x17
 9789 29f1 3A       		.byte	0x3a
 9790 29f2 5C       		.uleb128 0x5c
 9791 29f3 2C020000 		.4byte	.LASF446
 9792 29f7 2C020000 		.4byte	.LASF446
 9793 29fb 14       		.byte	0x14
 9794 29fc 3B       		.byte	0x3b
 9795 29fd 5C       		.uleb128 0x5c
 9796 29fe 4F0A0000 		.4byte	.LASF447
 9797 2a02 4F0A0000 		.4byte	.LASF447
 9798 2a06 17       		.byte	0x17
 9799 2a07 3B       		.byte	0x3b
 9800 2a08 5C       		.uleb128 0x5c
 9801 2a09 791F0000 		.4byte	.LASF448
 9802 2a0d 791F0000 		.4byte	.LASF448
 9803 2a11 14       		.byte	0x14
 9804 2a12 3C       		.byte	0x3c
 9805 2a13 5C       		.uleb128 0x5c
 9806 2a14 A0160000 		.4byte	.LASF449
 9807 2a18 A0160000 		.4byte	.LASF449
 9808 2a1c 17       		.byte	0x17
 9809 2a1d 3C       		.byte	0x3c
 9810 2a1e 5C       		.uleb128 0x5c
 9811 2a1f 83040000 		.4byte	.LASF450
 9812 2a23 83040000 		.4byte	.LASF450
 9813 2a27 14       		.byte	0x14
 9814 2a28 34       		.byte	0x34
 9815 2a29 5C       		.uleb128 0x5c
 9816 2a2a 13010000 		.4byte	.LASF451
 9817 2a2e 13010000 		.4byte	.LASF451
 9818 2a32 17       		.byte	0x17
 9819 2a33 3D       		.byte	0x3d
 9820 2a34 5C       		.uleb128 0x5c
 9821 2a35 5A150000 		.4byte	.LASF452
 9822 2a39 5A150000 		.4byte	.LASF452
 9823 2a3d 14       		.byte	0x14
 9824 2a3e 35       		.byte	0x35
 9825 2a3f 5C       		.uleb128 0x5c
ARM GAS  C:\Users\euanm\AppData\Local\Temp\ccnlTGs7.s 			page 175


 9826 2a40 56110000 		.4byte	.LASF453
 9827 2a44 56110000 		.4byte	.LASF453
 9828 2a48 17       		.byte	0x17
 9829 2a49 49       		.byte	0x49
 9830 2a4a 5C       		.uleb128 0x5c
 9831 2a4b B6210000 		.4byte	.LASF454
 9832 2a4f B6210000 		.4byte	.LASF454
 9833 2a53 14       		.byte	0x14
 9834 2a54 46       		.byte	0x46
 9835 2a55 5C       		.uleb128 0x5c
 9836 2a56 6B030000 		.4byte	.LASF455
 9837 2a5a 6B030000 		.4byte	.LASF455
 9838 2a5e 17       		.byte	0x17
 9839 2a5f 31       		.byte	0x31
 9840 2a60 5C       		.uleb128 0x5c
 9841 2a61 2C170000 		.4byte	.LASF456
 9842 2a65 2C170000 		.4byte	.LASF456
 9843 2a69 19       		.byte	0x19
 9844 2a6a 23       		.byte	0x23
 9845 2a6b 5C       		.uleb128 0x5c
 9846 2a6c 4C010000 		.4byte	.LASF457
 9847 2a70 4C010000 		.4byte	.LASF457
 9848 2a74 14       		.byte	0x14
 9849 2a75 2C       		.byte	0x2c
 9850 2a76 5C       		.uleb128 0x5c
 9851 2a77 3D170000 		.4byte	.LASF458
 9852 2a7b 3D170000 		.4byte	.LASF458
 9853 2a7f 14       		.byte	0x14
 9854 2a80 36       		.byte	0x36
 9855 2a81 5C       		.uleb128 0x5c
 9856 2a82 3D100000 		.4byte	.LASF459
 9857 2a86 3D100000 		.4byte	.LASF459
 9858 2a8a 17       		.byte	0x17
 9859 2a8b 28       		.byte	0x28
 9860 2a8c 5C       		.uleb128 0x5c
 9861 2a8d 36010000 		.4byte	.LASF460
 9862 2a91 36010000 		.4byte	.LASF460
 9863 2a95 14       		.byte	0x14
 9864 2a96 24       		.byte	0x24
 9865 2a97 5C       		.uleb128 0x5c
 9866 2a98 D00A0000 		.4byte	.LASF461
 9867 2a9c D00A0000 		.4byte	.LASF461
 9868 2aa0 17       		.byte	0x17
 9869 2aa1 29       		.byte	0x29
 9870 2aa2 5C       		.uleb128 0x5c
 9871 2aa3 7F130000 		.4byte	.LASF462
 9872 2aa7 7F130000 		.4byte	.LASF462
 9873 2aab 14       		.byte	0x14
 9874 2aac 25       		.byte	0x25
 9875 2aad 5C       		.uleb128 0x5c
 9876 2aae 15200000 		.4byte	.LASF463
 9877 2ab2 15200000 		.4byte	.LASF463
 9878 2ab6 17       		.byte	0x17
 9879 2ab7 2A       		.byte	0x2a
 9880 2ab8 5C       		.uleb128 0x5c
 9881 2ab9 76010000 		.4byte	.LASF464
 9882 2abd 76010000 		.4byte	.LASF464
ARM GAS  C:\Users\euanm\AppData\Local\Temp\ccnlTGs7.s 			page 176


 9883 2ac1 14       		.byte	0x14
 9884 2ac2 26       		.byte	0x26
 9885 2ac3 5C       		.uleb128 0x5c
 9886 2ac4 8A160000 		.4byte	.LASF465
 9887 2ac8 8A160000 		.4byte	.LASF465
 9888 2acc 17       		.byte	0x17
 9889 2acd 2B       		.byte	0x2b
 9890 2ace 5C       		.uleb128 0x5c
 9891 2acf E40C0000 		.4byte	.LASF466
 9892 2ad3 E40C0000 		.4byte	.LASF466
 9893 2ad7 14       		.byte	0x14
 9894 2ad8 27       		.byte	0x27
 9895 2ad9 5C       		.uleb128 0x5c
 9896 2ada 351F0000 		.4byte	.LASF467
 9897 2ade 351F0000 		.4byte	.LASF467
 9898 2ae2 17       		.byte	0x17
 9899 2ae3 2D       		.byte	0x2d
 9900 2ae4 5C       		.uleb128 0x5c
 9901 2ae5 6E0C0000 		.4byte	.LASF468
 9902 2ae9 6E0C0000 		.4byte	.LASF468
 9903 2aed 14       		.byte	0x14
 9904 2aee 29       		.byte	0x29
 9905 2aef 5C       		.uleb128 0x5c
 9906 2af0 02140000 		.4byte	.LASF469
 9907 2af4 02140000 		.4byte	.LASF469
 9908 2af8 1A       		.byte	0x1a
 9909 2af9 2A       		.byte	0x2a
 9910 2afa 5C       		.uleb128 0x5c
 9911 2afb EF130000 		.4byte	.LASF470
 9912 2aff EF130000 		.4byte	.LASF470
 9913 2b03 1A       		.byte	0x1a
 9914 2b04 2C       		.byte	0x2c
 9915 2b05 5E       		.uleb128 0x5e
 9916 2b06 931A0000 		.4byte	.LASF471
 9917 2b0a 931A0000 		.4byte	.LASF471
 9918 2b0e 1B       		.byte	0x1b
 9919 2b0f 8201     		.2byte	0x182
 9920 2b11 5C       		.uleb128 0x5c
 9921 2b12 C3150000 		.4byte	.LASF472
 9922 2b16 C3150000 		.4byte	.LASF472
 9923 2b1a 1C       		.byte	0x1c
 9924 2b1b 20       		.byte	0x20
 9925 2b1c 5C       		.uleb128 0x5c
 9926 2b1d 6E0D0000 		.4byte	.LASF473
 9927 2b21 6E0D0000 		.4byte	.LASF473
 9928 2b25 17       		.byte	0x17
 9929 2b26 36       		.byte	0x36
 9930 2b27 5C       		.uleb128 0x5c
 9931 2b28 98080000 		.4byte	.LASF474
 9932 2b2c 98080000 		.4byte	.LASF474
 9933 2b30 17       		.byte	0x17
 9934 2b31 37       		.byte	0x37
 9935 2b32 5C       		.uleb128 0x5c
 9936 2b33 040F0000 		.4byte	.LASF475
 9937 2b37 040F0000 		.4byte	.LASF475
 9938 2b3b 17       		.byte	0x17
 9939 2b3c 26       		.byte	0x26
ARM GAS  C:\Users\euanm\AppData\Local\Temp\ccnlTGs7.s 			page 177


 9940 2b3d 5C       		.uleb128 0x5c
 9941 2b3e FA1E0000 		.4byte	.LASF476
 9942 2b42 FA1E0000 		.4byte	.LASF476
 9943 2b46 1A       		.byte	0x1a
 9944 2b47 23       		.byte	0x23
 9945 2b48 5C       		.uleb128 0x5c
 9946 2b49 9F1C0000 		.4byte	.LASF477
 9947 2b4d 9F1C0000 		.4byte	.LASF477
 9948 2b51 19       		.byte	0x19
 9949 2b52 1F       		.byte	0x1f
 9950 2b53 5C       		.uleb128 0x5c
 9951 2b54 5F040000 		.4byte	.LASF478
 9952 2b58 5F040000 		.4byte	.LASF478
 9953 2b5c 17       		.byte	0x17
 9954 2b5d 23       		.byte	0x23
 9955 2b5e 5C       		.uleb128 0x5c
 9956 2b5f F30D0000 		.4byte	.LASF479
 9957 2b63 F30D0000 		.4byte	.LASF479
 9958 2b67 14       		.byte	0x14
 9959 2b68 21       		.byte	0x21
 9960 2b69 5C       		.uleb128 0x5c
 9961 2b6a 27160000 		.4byte	.LASF480
 9962 2b6e 27160000 		.4byte	.LASF480
 9963 2b72 17       		.byte	0x17
 9964 2b73 22       		.byte	0x22
 9965 2b74 5C       		.uleb128 0x5c
 9966 2b75 86180000 		.4byte	.LASF481
 9967 2b79 86180000 		.4byte	.LASF481
 9968 2b7d 19       		.byte	0x19
 9969 2b7e 26       		.byte	0x26
 9970 2b7f 5C       		.uleb128 0x5c
 9971 2b80 9F0B0000 		.4byte	.LASF482
 9972 2b84 9F0B0000 		.4byte	.LASF482
 9973 2b88 14       		.byte	0x14
 9974 2b89 20       		.byte	0x20
 9975 2b8a 5C       		.uleb128 0x5c
 9976 2b8b EE0B0000 		.4byte	.LASF483
 9977 2b8f EE0B0000 		.4byte	.LASF483
 9978 2b93 18       		.byte	0x18
 9979 2b94 96       		.byte	0x96
 9980 2b95 5C       		.uleb128 0x5c
 9981 2b96 5D060000 		.4byte	.LASF484
 9982 2b9a 5D060000 		.4byte	.LASF484
 9983 2b9e 1D       		.byte	0x1d
 9984 2b9f 28       		.byte	0x28
 9985 2ba0 5C       		.uleb128 0x5c
 9986 2ba1 AD150000 		.4byte	.LASF485
 9987 2ba5 AD150000 		.4byte	.LASF485
 9988 2ba9 14       		.byte	0x14
 9989 2baa 41       		.byte	0x41
 9990 2bab 5C       		.uleb128 0x5c
 9991 2bac D8200000 		.4byte	.LASF486
 9992 2bb0 D8200000 		.4byte	.LASF486
 9993 2bb4 14       		.byte	0x14
 9994 2bb5 45       		.byte	0x45
 9995 2bb6 5C       		.uleb128 0x5c
 9996 2bb7 95030000 		.4byte	.LASF487
ARM GAS  C:\Users\euanm\AppData\Local\Temp\ccnlTGs7.s 			page 178


 9997 2bbb 95030000 		.4byte	.LASF487
 9998 2bbf 16       		.byte	0x16
 9999 2bc0 85       		.byte	0x85
 10000 2bc1 5C       		.uleb128 0x5c
 10001 2bc2 AE1C0000 		.4byte	.LASF488
 10002 2bc6 AE1C0000 		.4byte	.LASF488
 10003 2bca 17       		.byte	0x17
 10004 2bcb 4C       		.byte	0x4c
 10005 2bcc 5C       		.uleb128 0x5c
 10006 2bcd AF1A0000 		.4byte	.LASF489
 10007 2bd1 AF1A0000 		.4byte	.LASF489
 10008 2bd5 14       		.byte	0x14
 10009 2bd6 4B       		.byte	0x4b
 10010 2bd7 00       		.byte	0
 10011              		.section	.debug_abbrev,"",%progbits
 10012              	.Ldebug_abbrev0:
 10013 0000 01       		.uleb128 0x1
 10014 0001 11       		.uleb128 0x11
 10015 0002 01       		.byte	0x1
 10016 0003 25       		.uleb128 0x25
 10017 0004 0E       		.uleb128 0xe
 10018 0005 13       		.uleb128 0x13
 10019 0006 0B       		.uleb128 0xb
 10020 0007 03       		.uleb128 0x3
 10021 0008 0E       		.uleb128 0xe
 10022 0009 1B       		.uleb128 0x1b
 10023 000a 0E       		.uleb128 0xe
 10024 000b 55       		.uleb128 0x55
 10025 000c 17       		.uleb128 0x17
 10026 000d 11       		.uleb128 0x11
 10027 000e 01       		.uleb128 0x1
 10028 000f 10       		.uleb128 0x10
 10029 0010 17       		.uleb128 0x17
 10030 0011 00       		.byte	0
 10031 0012 00       		.byte	0
 10032 0013 02       		.uleb128 0x2
 10033 0014 24       		.uleb128 0x24
 10034 0015 00       		.byte	0
 10035 0016 0B       		.uleb128 0xb
 10036 0017 0B       		.uleb128 0xb
 10037 0018 3E       		.uleb128 0x3e
 10038 0019 0B       		.uleb128 0xb
 10039 001a 03       		.uleb128 0x3
 10040 001b 0E       		.uleb128 0xe
 10041 001c 00       		.byte	0
 10042 001d 00       		.byte	0
 10043 001e 03       		.uleb128 0x3
 10044 001f 16       		.uleb128 0x16
 10045 0020 00       		.byte	0
 10046 0021 03       		.uleb128 0x3
 10047 0022 0E       		.uleb128 0xe
 10048 0023 3A       		.uleb128 0x3a
 10049 0024 0B       		.uleb128 0xb
 10050 0025 3B       		.uleb128 0x3b
 10051 0026 0B       		.uleb128 0xb
 10052 0027 49       		.uleb128 0x49
 10053 0028 13       		.uleb128 0x13
ARM GAS  C:\Users\euanm\AppData\Local\Temp\ccnlTGs7.s 			page 179


 10054 0029 00       		.byte	0
 10055 002a 00       		.byte	0
 10056 002b 04       		.uleb128 0x4
 10057 002c 24       		.uleb128 0x24
 10058 002d 00       		.byte	0
 10059 002e 0B       		.uleb128 0xb
 10060 002f 0B       		.uleb128 0xb
 10061 0030 3E       		.uleb128 0x3e
 10062 0031 0B       		.uleb128 0xb
 10063 0032 03       		.uleb128 0x3
 10064 0033 08       		.uleb128 0x8
 10065 0034 00       		.byte	0
 10066 0035 00       		.byte	0
 10067 0036 05       		.uleb128 0x5
 10068 0037 35       		.uleb128 0x35
 10069 0038 00       		.byte	0
 10070 0039 49       		.uleb128 0x49
 10071 003a 13       		.uleb128 0x13
 10072 003b 00       		.byte	0
 10073 003c 00       		.byte	0
 10074 003d 06       		.uleb128 0x6
 10075 003e 13       		.uleb128 0x13
 10076 003f 01       		.byte	0x1
 10077 0040 03       		.uleb128 0x3
 10078 0041 0E       		.uleb128 0xe
 10079 0042 0B       		.uleb128 0xb
 10080 0043 0B       		.uleb128 0xb
 10081 0044 3A       		.uleb128 0x3a
 10082 0045 0B       		.uleb128 0xb
 10083 0046 3B       		.uleb128 0x3b
 10084 0047 0B       		.uleb128 0xb
 10085 0048 01       		.uleb128 0x1
 10086 0049 13       		.uleb128 0x13
 10087 004a 00       		.byte	0
 10088 004b 00       		.byte	0
 10089 004c 07       		.uleb128 0x7
 10090 004d 0D       		.uleb128 0xd
 10091 004e 00       		.byte	0
 10092 004f 03       		.uleb128 0x3
 10093 0050 0E       		.uleb128 0xe
 10094 0051 3A       		.uleb128 0x3a
 10095 0052 0B       		.uleb128 0xb
 10096 0053 3B       		.uleb128 0x3b
 10097 0054 0B       		.uleb128 0xb
 10098 0055 49       		.uleb128 0x49
 10099 0056 13       		.uleb128 0x13
 10100 0057 38       		.uleb128 0x38
 10101 0058 0B       		.uleb128 0xb
 10102 0059 00       		.byte	0
 10103 005a 00       		.byte	0
 10104 005b 08       		.uleb128 0x8
 10105 005c 0D       		.uleb128 0xd
 10106 005d 00       		.byte	0
 10107 005e 03       		.uleb128 0x3
 10108 005f 08       		.uleb128 0x8
 10109 0060 3A       		.uleb128 0x3a
 10110 0061 0B       		.uleb128 0xb
ARM GAS  C:\Users\euanm\AppData\Local\Temp\ccnlTGs7.s 			page 180


 10111 0062 3B       		.uleb128 0x3b
 10112 0063 05       		.uleb128 0x5
 10113 0064 49       		.uleb128 0x49
 10114 0065 13       		.uleb128 0x13
 10115 0066 38       		.uleb128 0x38
 10116 0067 0B       		.uleb128 0xb
 10117 0068 00       		.byte	0
 10118 0069 00       		.byte	0
 10119 006a 09       		.uleb128 0x9
 10120 006b 0D       		.uleb128 0xd
 10121 006c 00       		.byte	0
 10122 006d 03       		.uleb128 0x3
 10123 006e 0E       		.uleb128 0xe
 10124 006f 3A       		.uleb128 0x3a
 10125 0070 0B       		.uleb128 0xb
 10126 0071 3B       		.uleb128 0x3b
 10127 0072 05       		.uleb128 0x5
 10128 0073 49       		.uleb128 0x49
 10129 0074 13       		.uleb128 0x13
 10130 0075 38       		.uleb128 0x38
 10131 0076 0B       		.uleb128 0xb
 10132 0077 00       		.byte	0
 10133 0078 00       		.byte	0
 10134 0079 0A       		.uleb128 0xa
 10135 007a 0F       		.uleb128 0xf
 10136 007b 00       		.byte	0
 10137 007c 0B       		.uleb128 0xb
 10138 007d 0B       		.uleb128 0xb
 10139 007e 49       		.uleb128 0x49
 10140 007f 13       		.uleb128 0x13
 10141 0080 00       		.byte	0
 10142 0081 00       		.byte	0
 10143 0082 0B       		.uleb128 0xb
 10144 0083 13       		.uleb128 0x13
 10145 0084 01       		.byte	0x1
 10146 0085 03       		.uleb128 0x3
 10147 0086 0E       		.uleb128 0xe
 10148 0087 0B       		.uleb128 0xb
 10149 0088 0B       		.uleb128 0xb
 10150 0089 3A       		.uleb128 0x3a
 10151 008a 0B       		.uleb128 0xb
 10152 008b 3B       		.uleb128 0x3b
 10153 008c 05       		.uleb128 0x5
 10154 008d 01       		.uleb128 0x1
 10155 008e 13       		.uleb128 0x13
 10156 008f 00       		.byte	0
 10157 0090 00       		.byte	0
 10158 0091 0C       		.uleb128 0xc
 10159 0092 15       		.uleb128 0x15
 10160 0093 01       		.byte	0x1
 10161 0094 27       		.uleb128 0x27
 10162 0095 19       		.uleb128 0x19
 10163 0096 01       		.uleb128 0x1
 10164 0097 13       		.uleb128 0x13
 10165 0098 00       		.byte	0
 10166 0099 00       		.byte	0
 10167 009a 0D       		.uleb128 0xd
ARM GAS  C:\Users\euanm\AppData\Local\Temp\ccnlTGs7.s 			page 181


 10168 009b 05       		.uleb128 0x5
 10169 009c 00       		.byte	0
 10170 009d 49       		.uleb128 0x49
 10171 009e 13       		.uleb128 0x13
 10172 009f 00       		.byte	0
 10173 00a0 00       		.byte	0
 10174 00a1 0E       		.uleb128 0xe
 10175 00a2 0F       		.uleb128 0xf
 10176 00a3 00       		.byte	0
 10177 00a4 0B       		.uleb128 0xb
 10178 00a5 0B       		.uleb128 0xb
 10179 00a6 00       		.byte	0
 10180 00a7 00       		.byte	0
 10181 00a8 0F       		.uleb128 0xf
 10182 00a9 13       		.uleb128 0x13
 10183 00aa 01       		.byte	0x1
 10184 00ab 03       		.uleb128 0x3
 10185 00ac 0E       		.uleb128 0xe
 10186 00ad 0B       		.uleb128 0xb
 10187 00ae 05       		.uleb128 0x5
 10188 00af 3A       		.uleb128 0x3a
 10189 00b0 0B       		.uleb128 0xb
 10190 00b1 3B       		.uleb128 0x3b
 10191 00b2 05       		.uleb128 0x5
 10192 00b3 01       		.uleb128 0x1
 10193 00b4 13       		.uleb128 0x13
 10194 00b5 00       		.byte	0
 10195 00b6 00       		.byte	0
 10196 00b7 10       		.uleb128 0x10
 10197 00b8 13       		.uleb128 0x13
 10198 00b9 01       		.byte	0x1
 10199 00ba 0B       		.uleb128 0xb
 10200 00bb 0B       		.uleb128 0xb
 10201 00bc 3A       		.uleb128 0x3a
 10202 00bd 0B       		.uleb128 0xb
 10203 00be 3B       		.uleb128 0x3b
 10204 00bf 05       		.uleb128 0x5
 10205 00c0 01       		.uleb128 0x1
 10206 00c1 13       		.uleb128 0x13
 10207 00c2 00       		.byte	0
 10208 00c3 00       		.byte	0
 10209 00c4 11       		.uleb128 0x11
 10210 00c5 16       		.uleb128 0x16
 10211 00c6 00       		.byte	0
 10212 00c7 03       		.uleb128 0x3
 10213 00c8 0E       		.uleb128 0xe
 10214 00c9 3A       		.uleb128 0x3a
 10215 00ca 0B       		.uleb128 0xb
 10216 00cb 3B       		.uleb128 0x3b
 10217 00cc 05       		.uleb128 0x5
 10218 00cd 49       		.uleb128 0x49
 10219 00ce 13       		.uleb128 0x13
 10220 00cf 00       		.byte	0
 10221 00d0 00       		.byte	0
 10222 00d1 12       		.uleb128 0x12
 10223 00d2 0D       		.uleb128 0xd
 10224 00d3 00       		.byte	0
ARM GAS  C:\Users\euanm\AppData\Local\Temp\ccnlTGs7.s 			page 182


 10225 00d4 03       		.uleb128 0x3
 10226 00d5 08       		.uleb128 0x8
 10227 00d6 3A       		.uleb128 0x3a
 10228 00d7 0B       		.uleb128 0xb
 10229 00d8 3B       		.uleb128 0x3b
 10230 00d9 0B       		.uleb128 0xb
 10231 00da 49       		.uleb128 0x49
 10232 00db 13       		.uleb128 0x13
 10233 00dc 38       		.uleb128 0x38
 10234 00dd 0B       		.uleb128 0xb
 10235 00de 00       		.byte	0
 10236 00df 00       		.byte	0
 10237 00e0 13       		.uleb128 0x13
 10238 00e1 13       		.uleb128 0x13
 10239 00e2 01       		.byte	0x1
 10240 00e3 0B       		.uleb128 0xb
 10241 00e4 0B       		.uleb128 0xb
 10242 00e5 3A       		.uleb128 0x3a
 10243 00e6 0B       		.uleb128 0xb
 10244 00e7 3B       		.uleb128 0x3b
 10245 00e8 0B       		.uleb128 0xb
 10246 00e9 01       		.uleb128 0x1
 10247 00ea 13       		.uleb128 0x13
 10248 00eb 00       		.byte	0
 10249 00ec 00       		.byte	0
 10250 00ed 14       		.uleb128 0x14
 10251 00ee 17       		.uleb128 0x17
 10252 00ef 01       		.byte	0x1
 10253 00f0 0B       		.uleb128 0xb
 10254 00f1 0B       		.uleb128 0xb
 10255 00f2 3A       		.uleb128 0x3a
 10256 00f3 0B       		.uleb128 0xb
 10257 00f4 3B       		.uleb128 0x3b
 10258 00f5 0B       		.uleb128 0xb
 10259 00f6 01       		.uleb128 0x1
 10260 00f7 13       		.uleb128 0x13
 10261 00f8 00       		.byte	0
 10262 00f9 00       		.byte	0
 10263 00fa 15       		.uleb128 0x15
 10264 00fb 0D       		.uleb128 0xd
 10265 00fc 00       		.byte	0
 10266 00fd 03       		.uleb128 0x3
 10267 00fe 0E       		.uleb128 0xe
 10268 00ff 3A       		.uleb128 0x3a
 10269 0100 0B       		.uleb128 0xb
 10270 0101 3B       		.uleb128 0x3b
 10271 0102 05       		.uleb128 0x5
 10272 0103 49       		.uleb128 0x49
 10273 0104 13       		.uleb128 0x13
 10274 0105 00       		.byte	0
 10275 0106 00       		.byte	0
 10276 0107 16       		.uleb128 0x16
 10277 0108 26       		.uleb128 0x26
 10278 0109 00       		.byte	0
 10279 010a 49       		.uleb128 0x49
 10280 010b 13       		.uleb128 0x13
 10281 010c 00       		.byte	0
ARM GAS  C:\Users\euanm\AppData\Local\Temp\ccnlTGs7.s 			page 183


 10282 010d 00       		.byte	0
 10283 010e 17       		.uleb128 0x17
 10284 010f 01       		.uleb128 0x1
 10285 0110 01       		.byte	0x1
 10286 0111 49       		.uleb128 0x49
 10287 0112 13       		.uleb128 0x13
 10288 0113 01       		.uleb128 0x1
 10289 0114 13       		.uleb128 0x13
 10290 0115 00       		.byte	0
 10291 0116 00       		.byte	0
 10292 0117 18       		.uleb128 0x18
 10293 0118 21       		.uleb128 0x21
 10294 0119 00       		.byte	0
 10295 011a 49       		.uleb128 0x49
 10296 011b 13       		.uleb128 0x13
 10297 011c 2F       		.uleb128 0x2f
 10298 011d 0B       		.uleb128 0xb
 10299 011e 00       		.byte	0
 10300 011f 00       		.byte	0
 10301 0120 19       		.uleb128 0x19
 10302 0121 04       		.uleb128 0x4
 10303 0122 01       		.byte	0x1
 10304 0123 0B       		.uleb128 0xb
 10305 0124 0B       		.uleb128 0xb
 10306 0125 49       		.uleb128 0x49
 10307 0126 13       		.uleb128 0x13
 10308 0127 3A       		.uleb128 0x3a
 10309 0128 0B       		.uleb128 0xb
 10310 0129 3B       		.uleb128 0x3b
 10311 012a 0B       		.uleb128 0xb
 10312 012b 01       		.uleb128 0x1
 10313 012c 13       		.uleb128 0x13
 10314 012d 00       		.byte	0
 10315 012e 00       		.byte	0
 10316 012f 1A       		.uleb128 0x1a
 10317 0130 28       		.uleb128 0x28
 10318 0131 00       		.byte	0
 10319 0132 03       		.uleb128 0x3
 10320 0133 0E       		.uleb128 0xe
 10321 0134 1C       		.uleb128 0x1c
 10322 0135 0B       		.uleb128 0xb
 10323 0136 00       		.byte	0
 10324 0137 00       		.byte	0
 10325 0138 1B       		.uleb128 0x1b
 10326 0139 13       		.uleb128 0x13
 10327 013a 01       		.byte	0x1
 10328 013b 0B       		.uleb128 0xb
 10329 013c 05       		.uleb128 0x5
 10330 013d 3A       		.uleb128 0x3a
 10331 013e 0B       		.uleb128 0xb
 10332 013f 3B       		.uleb128 0x3b
 10333 0140 0B       		.uleb128 0xb
 10334 0141 01       		.uleb128 0x1
 10335 0142 13       		.uleb128 0x13
 10336 0143 00       		.byte	0
 10337 0144 00       		.byte	0
 10338 0145 1C       		.uleb128 0x1c
ARM GAS  C:\Users\euanm\AppData\Local\Temp\ccnlTGs7.s 			page 184


 10339 0146 0D       		.uleb128 0xd
 10340 0147 00       		.byte	0
 10341 0148 03       		.uleb128 0x3
 10342 0149 0E       		.uleb128 0xe
 10343 014a 3A       		.uleb128 0x3a
 10344 014b 0B       		.uleb128 0xb
 10345 014c 3B       		.uleb128 0x3b
 10346 014d 0B       		.uleb128 0xb
 10347 014e 49       		.uleb128 0x49
 10348 014f 13       		.uleb128 0x13
 10349 0150 38       		.uleb128 0x38
 10350 0151 05       		.uleb128 0x5
 10351 0152 00       		.byte	0
 10352 0153 00       		.byte	0
 10353 0154 1D       		.uleb128 0x1d
 10354 0155 0D       		.uleb128 0xd
 10355 0156 00       		.byte	0
 10356 0157 03       		.uleb128 0x3
 10357 0158 08       		.uleb128 0x8
 10358 0159 3A       		.uleb128 0x3a
 10359 015a 0B       		.uleb128 0xb
 10360 015b 3B       		.uleb128 0x3b
 10361 015c 0B       		.uleb128 0xb
 10362 015d 49       		.uleb128 0x49
 10363 015e 13       		.uleb128 0x13
 10364 015f 00       		.byte	0
 10365 0160 00       		.byte	0
 10366 0161 1E       		.uleb128 0x1e
 10367 0162 15       		.uleb128 0x15
 10368 0163 00       		.byte	0
 10369 0164 27       		.uleb128 0x27
 10370 0165 19       		.uleb128 0x19
 10371 0166 00       		.byte	0
 10372 0167 00       		.byte	0
 10373 0168 1F       		.uleb128 0x1f
 10374 0169 2E       		.uleb128 0x2e
 10375 016a 01       		.byte	0x1
 10376 016b 03       		.uleb128 0x3
 10377 016c 0E       		.uleb128 0xe
 10378 016d 3A       		.uleb128 0x3a
 10379 016e 0B       		.uleb128 0xb
 10380 016f 3B       		.uleb128 0x3b
 10381 0170 05       		.uleb128 0x5
 10382 0171 27       		.uleb128 0x27
 10383 0172 19       		.uleb128 0x19
 10384 0173 20       		.uleb128 0x20
 10385 0174 0B       		.uleb128 0xb
 10386 0175 01       		.uleb128 0x1
 10387 0176 13       		.uleb128 0x13
 10388 0177 00       		.byte	0
 10389 0178 00       		.byte	0
 10390 0179 20       		.uleb128 0x20
 10391 017a 05       		.uleb128 0x5
 10392 017b 00       		.byte	0
 10393 017c 03       		.uleb128 0x3
 10394 017d 0E       		.uleb128 0xe
 10395 017e 3A       		.uleb128 0x3a
ARM GAS  C:\Users\euanm\AppData\Local\Temp\ccnlTGs7.s 			page 185


 10396 017f 0B       		.uleb128 0xb
 10397 0180 3B       		.uleb128 0x3b
 10398 0181 05       		.uleb128 0x5
 10399 0182 49       		.uleb128 0x49
 10400 0183 13       		.uleb128 0x13
 10401 0184 00       		.byte	0
 10402 0185 00       		.byte	0
 10403 0186 21       		.uleb128 0x21
 10404 0187 2E       		.uleb128 0x2e
 10405 0188 00       		.byte	0
 10406 0189 03       		.uleb128 0x3
 10407 018a 0E       		.uleb128 0xe
 10408 018b 3A       		.uleb128 0x3a
 10409 018c 0B       		.uleb128 0xb
 10410 018d 3B       		.uleb128 0x3b
 10411 018e 05       		.uleb128 0x5
 10412 018f 27       		.uleb128 0x27
 10413 0190 19       		.uleb128 0x19
 10414 0191 20       		.uleb128 0x20
 10415 0192 0B       		.uleb128 0xb
 10416 0193 00       		.byte	0
 10417 0194 00       		.byte	0
 10418 0195 22       		.uleb128 0x22
 10419 0196 2E       		.uleb128 0x2e
 10420 0197 00       		.byte	0
 10421 0198 03       		.uleb128 0x3
 10422 0199 0E       		.uleb128 0xe
 10423 019a 3A       		.uleb128 0x3a
 10424 019b 0B       		.uleb128 0xb
 10425 019c 3B       		.uleb128 0x3b
 10426 019d 0B       		.uleb128 0xb
 10427 019e 27       		.uleb128 0x27
 10428 019f 19       		.uleb128 0x19
 10429 01a0 49       		.uleb128 0x49
 10430 01a1 13       		.uleb128 0x13
 10431 01a2 20       		.uleb128 0x20
 10432 01a3 0B       		.uleb128 0xb
 10433 01a4 00       		.byte	0
 10434 01a5 00       		.byte	0
 10435 01a6 23       		.uleb128 0x23
 10436 01a7 2E       		.uleb128 0x2e
 10437 01a8 01       		.byte	0x1
 10438 01a9 03       		.uleb128 0x3
 10439 01aa 0E       		.uleb128 0xe
 10440 01ab 3A       		.uleb128 0x3a
 10441 01ac 0B       		.uleb128 0xb
 10442 01ad 3B       		.uleb128 0x3b
 10443 01ae 0B       		.uleb128 0xb
 10444 01af 27       		.uleb128 0x27
 10445 01b0 19       		.uleb128 0x19
 10446 01b1 20       		.uleb128 0x20
 10447 01b2 0B       		.uleb128 0xb
 10448 01b3 01       		.uleb128 0x1
 10449 01b4 13       		.uleb128 0x13
 10450 01b5 00       		.byte	0
 10451 01b6 00       		.byte	0
 10452 01b7 24       		.uleb128 0x24
ARM GAS  C:\Users\euanm\AppData\Local\Temp\ccnlTGs7.s 			page 186


 10453 01b8 05       		.uleb128 0x5
 10454 01b9 00       		.byte	0
 10455 01ba 03       		.uleb128 0x3
 10456 01bb 0E       		.uleb128 0xe
 10457 01bc 3A       		.uleb128 0x3a
 10458 01bd 0B       		.uleb128 0xb
 10459 01be 3B       		.uleb128 0x3b
 10460 01bf 0B       		.uleb128 0xb
 10461 01c0 49       		.uleb128 0x49
 10462 01c1 13       		.uleb128 0x13
 10463 01c2 00       		.byte	0
 10464 01c3 00       		.byte	0
 10465 01c4 25       		.uleb128 0x25
 10466 01c5 2E       		.uleb128 0x2e
 10467 01c6 01       		.byte	0x1
 10468 01c7 3F       		.uleb128 0x3f
 10469 01c8 19       		.uleb128 0x19
 10470 01c9 03       		.uleb128 0x3
 10471 01ca 0E       		.uleb128 0xe
 10472 01cb 3A       		.uleb128 0x3a
 10473 01cc 0B       		.uleb128 0xb
 10474 01cd 3B       		.uleb128 0x3b
 10475 01ce 05       		.uleb128 0x5
 10476 01cf 27       		.uleb128 0x27
 10477 01d0 19       		.uleb128 0x19
 10478 01d1 49       		.uleb128 0x49
 10479 01d2 13       		.uleb128 0x13
 10480 01d3 20       		.uleb128 0x20
 10481 01d4 0B       		.uleb128 0xb
 10482 01d5 01       		.uleb128 0x1
 10483 01d6 13       		.uleb128 0x13
 10484 01d7 00       		.byte	0
 10485 01d8 00       		.byte	0
 10486 01d9 26       		.uleb128 0x26
 10487 01da 34       		.uleb128 0x34
 10488 01db 00       		.byte	0
 10489 01dc 03       		.uleb128 0x3
 10490 01dd 08       		.uleb128 0x8
 10491 01de 3A       		.uleb128 0x3a
 10492 01df 0B       		.uleb128 0xb
 10493 01e0 3B       		.uleb128 0x3b
 10494 01e1 05       		.uleb128 0x5
 10495 01e2 49       		.uleb128 0x49
 10496 01e3 13       		.uleb128 0x13
 10497 01e4 00       		.byte	0
 10498 01e5 00       		.byte	0
 10499 01e6 27       		.uleb128 0x27
 10500 01e7 2E       		.uleb128 0x2e
 10501 01e8 01       		.byte	0x1
 10502 01e9 3F       		.uleb128 0x3f
 10503 01ea 19       		.uleb128 0x19
 10504 01eb 03       		.uleb128 0x3
 10505 01ec 0E       		.uleb128 0xe
 10506 01ed 3A       		.uleb128 0x3a
 10507 01ee 0B       		.uleb128 0xb
 10508 01ef 3B       		.uleb128 0x3b
 10509 01f0 05       		.uleb128 0x5
ARM GAS  C:\Users\euanm\AppData\Local\Temp\ccnlTGs7.s 			page 187


 10510 01f1 27       		.uleb128 0x27
 10511 01f2 19       		.uleb128 0x19
 10512 01f3 20       		.uleb128 0x20
 10513 01f4 0B       		.uleb128 0xb
 10514 01f5 01       		.uleb128 0x1
 10515 01f6 13       		.uleb128 0x13
 10516 01f7 00       		.byte	0
 10517 01f8 00       		.byte	0
 10518 01f9 28       		.uleb128 0x28
 10519 01fa 34       		.uleb128 0x34
 10520 01fb 00       		.byte	0
 10521 01fc 03       		.uleb128 0x3
 10522 01fd 0E       		.uleb128 0xe
 10523 01fe 49       		.uleb128 0x49
 10524 01ff 13       		.uleb128 0x13
 10525 0200 34       		.uleb128 0x34
 10526 0201 19       		.uleb128 0x19
 10527 0202 1C       		.uleb128 0x1c
 10528 0203 0E       		.uleb128 0xe
 10529 0204 00       		.byte	0
 10530 0205 00       		.byte	0
 10531 0206 29       		.uleb128 0x29
 10532 0207 34       		.uleb128 0x34
 10533 0208 00       		.byte	0
 10534 0209 03       		.uleb128 0x3
 10535 020a 0E       		.uleb128 0xe
 10536 020b 3A       		.uleb128 0x3a
 10537 020c 0B       		.uleb128 0xb
 10538 020d 3B       		.uleb128 0x3b
 10539 020e 05       		.uleb128 0x5
 10540 020f 49       		.uleb128 0x49
 10541 0210 13       		.uleb128 0x13
 10542 0211 00       		.byte	0
 10543 0212 00       		.byte	0
 10544 0213 2A       		.uleb128 0x2a
 10545 0214 0B       		.uleb128 0xb
 10546 0215 01       		.byte	0x1
 10547 0216 00       		.byte	0
 10548 0217 00       		.byte	0
 10549 0218 2B       		.uleb128 0x2b
 10550 0219 2E       		.uleb128 0x2e
 10551 021a 01       		.byte	0x1
 10552 021b 03       		.uleb128 0x3
 10553 021c 0E       		.uleb128 0xe
 10554 021d 3A       		.uleb128 0x3a
 10555 021e 0B       		.uleb128 0xb
 10556 021f 3B       		.uleb128 0x3b
 10557 0220 05       		.uleb128 0x5
 10558 0221 27       		.uleb128 0x27
 10559 0222 19       		.uleb128 0x19
 10560 0223 8701     		.uleb128 0x87
 10561 0225 19       		.uleb128 0x19
 10562 0226 11       		.uleb128 0x11
 10563 0227 01       		.uleb128 0x1
 10564 0228 12       		.uleb128 0x12
 10565 0229 06       		.uleb128 0x6
 10566 022a 40       		.uleb128 0x40
ARM GAS  C:\Users\euanm\AppData\Local\Temp\ccnlTGs7.s 			page 188


 10567 022b 18       		.uleb128 0x18
 10568 022c 9742     		.uleb128 0x2117
 10569 022e 19       		.uleb128 0x19
 10570 022f 01       		.uleb128 0x1
 10571 0230 13       		.uleb128 0x13
 10572 0231 00       		.byte	0
 10573 0232 00       		.byte	0
 10574 0233 2C       		.uleb128 0x2c
 10575 0234 05       		.uleb128 0x5
 10576 0235 00       		.byte	0
 10577 0236 03       		.uleb128 0x3
 10578 0237 08       		.uleb128 0x8
 10579 0238 3A       		.uleb128 0x3a
 10580 0239 0B       		.uleb128 0xb
 10581 023a 3B       		.uleb128 0x3b
 10582 023b 05       		.uleb128 0x5
 10583 023c 49       		.uleb128 0x49
 10584 023d 13       		.uleb128 0x13
 10585 023e 02       		.uleb128 0x2
 10586 023f 17       		.uleb128 0x17
 10587 0240 00       		.byte	0
 10588 0241 00       		.byte	0
 10589 0242 2D       		.uleb128 0x2d
 10590 0243 1D       		.uleb128 0x1d
 10591 0244 01       		.byte	0x1
 10592 0245 31       		.uleb128 0x31
 10593 0246 13       		.uleb128 0x13
 10594 0247 52       		.uleb128 0x52
 10595 0248 01       		.uleb128 0x1
 10596 0249 55       		.uleb128 0x55
 10597 024a 17       		.uleb128 0x17
 10598 024b 58       		.uleb128 0x58
 10599 024c 0B       		.uleb128 0xb
 10600 024d 59       		.uleb128 0x59
 10601 024e 05       		.uleb128 0x5
 10602 024f 01       		.uleb128 0x1
 10603 0250 13       		.uleb128 0x13
 10604 0251 00       		.byte	0
 10605 0252 00       		.byte	0
 10606 0253 2E       		.uleb128 0x2e
 10607 0254 05       		.uleb128 0x5
 10608 0255 00       		.byte	0
 10609 0256 31       		.uleb128 0x31
 10610 0257 13       		.uleb128 0x13
 10611 0258 02       		.uleb128 0x2
 10612 0259 17       		.uleb128 0x17
 10613 025a 00       		.byte	0
 10614 025b 00       		.byte	0
 10615 025c 2F       		.uleb128 0x2f
 10616 025d 0B       		.uleb128 0xb
 10617 025e 01       		.byte	0x1
 10618 025f 11       		.uleb128 0x11
 10619 0260 01       		.uleb128 0x1
 10620 0261 12       		.uleb128 0x12
 10621 0262 06       		.uleb128 0x6
 10622 0263 01       		.uleb128 0x1
 10623 0264 13       		.uleb128 0x13
ARM GAS  C:\Users\euanm\AppData\Local\Temp\ccnlTGs7.s 			page 189


 10624 0265 00       		.byte	0
 10625 0266 00       		.byte	0
 10626 0267 30       		.uleb128 0x30
 10627 0268 34       		.uleb128 0x34
 10628 0269 00       		.byte	0
 10629 026a 03       		.uleb128 0x3
 10630 026b 08       		.uleb128 0x8
 10631 026c 3A       		.uleb128 0x3a
 10632 026d 0B       		.uleb128 0xb
 10633 026e 3B       		.uleb128 0x3b
 10634 026f 05       		.uleb128 0x5
 10635 0270 49       		.uleb128 0x49
 10636 0271 13       		.uleb128 0x13
 10637 0272 02       		.uleb128 0x2
 10638 0273 17       		.uleb128 0x17
 10639 0274 00       		.byte	0
 10640 0275 00       		.byte	0
 10641 0276 31       		.uleb128 0x31
 10642 0277 0B       		.uleb128 0xb
 10643 0278 01       		.byte	0x1
 10644 0279 11       		.uleb128 0x11
 10645 027a 01       		.uleb128 0x1
 10646 027b 12       		.uleb128 0x12
 10647 027c 06       		.uleb128 0x6
 10648 027d 00       		.byte	0
 10649 027e 00       		.byte	0
 10650 027f 32       		.uleb128 0x32
 10651 0280 34       		.uleb128 0x34
 10652 0281 00       		.byte	0
 10653 0282 03       		.uleb128 0x3
 10654 0283 0E       		.uleb128 0xe
 10655 0284 3A       		.uleb128 0x3a
 10656 0285 0B       		.uleb128 0xb
 10657 0286 3B       		.uleb128 0x3b
 10658 0287 05       		.uleb128 0x5
 10659 0288 49       		.uleb128 0x49
 10660 0289 13       		.uleb128 0x13
 10661 028a 02       		.uleb128 0x2
 10662 028b 18       		.uleb128 0x18
 10663 028c 00       		.byte	0
 10664 028d 00       		.byte	0
 10665 028e 33       		.uleb128 0x33
 10666 028f 34       		.uleb128 0x34
 10667 0290 00       		.byte	0
 10668 0291 03       		.uleb128 0x3
 10669 0292 0E       		.uleb128 0xe
 10670 0293 3A       		.uleb128 0x3a
 10671 0294 0B       		.uleb128 0xb
 10672 0295 3B       		.uleb128 0x3b
 10673 0296 05       		.uleb128 0x5
 10674 0297 49       		.uleb128 0x49
 10675 0298 13       		.uleb128 0x13
 10676 0299 02       		.uleb128 0x2
 10677 029a 17       		.uleb128 0x17
 10678 029b 00       		.byte	0
 10679 029c 00       		.byte	0
 10680 029d 34       		.uleb128 0x34
ARM GAS  C:\Users\euanm\AppData\Local\Temp\ccnlTGs7.s 			page 190


 10681 029e 898201   		.uleb128 0x4109
 10682 02a1 01       		.byte	0x1
 10683 02a2 11       		.uleb128 0x11
 10684 02a3 01       		.uleb128 0x1
 10685 02a4 31       		.uleb128 0x31
 10686 02a5 13       		.uleb128 0x13
 10687 02a6 00       		.byte	0
 10688 02a7 00       		.byte	0
 10689 02a8 35       		.uleb128 0x35
 10690 02a9 8A8201   		.uleb128 0x410a
 10691 02ac 00       		.byte	0
 10692 02ad 02       		.uleb128 0x2
 10693 02ae 18       		.uleb128 0x18
 10694 02af 9142     		.uleb128 0x2111
 10695 02b1 18       		.uleb128 0x18
 10696 02b2 00       		.byte	0
 10697 02b3 00       		.byte	0
 10698 02b4 36       		.uleb128 0x36
 10699 02b5 2E       		.uleb128 0x2e
 10700 02b6 01       		.byte	0x1
 10701 02b7 31       		.uleb128 0x31
 10702 02b8 13       		.uleb128 0x13
 10703 02b9 11       		.uleb128 0x11
 10704 02ba 01       		.uleb128 0x1
 10705 02bb 12       		.uleb128 0x12
 10706 02bc 06       		.uleb128 0x6
 10707 02bd 40       		.uleb128 0x40
 10708 02be 18       		.uleb128 0x18
 10709 02bf 9742     		.uleb128 0x2117
 10710 02c1 19       		.uleb128 0x19
 10711 02c2 01       		.uleb128 0x1
 10712 02c3 13       		.uleb128 0x13
 10713 02c4 00       		.byte	0
 10714 02c5 00       		.byte	0
 10715 02c6 37       		.uleb128 0x37
 10716 02c7 898201   		.uleb128 0x4109
 10717 02ca 01       		.byte	0x1
 10718 02cb 11       		.uleb128 0x11
 10719 02cc 01       		.uleb128 0x1
 10720 02cd 9542     		.uleb128 0x2115
 10721 02cf 19       		.uleb128 0x19
 10722 02d0 31       		.uleb128 0x31
 10723 02d1 13       		.uleb128 0x13
 10724 02d2 01       		.uleb128 0x1
 10725 02d3 13       		.uleb128 0x13
 10726 02d4 00       		.byte	0
 10727 02d5 00       		.byte	0
 10728 02d6 38       		.uleb128 0x38
 10729 02d7 898201   		.uleb128 0x4109
 10730 02da 00       		.byte	0
 10731 02db 11       		.uleb128 0x11
 10732 02dc 01       		.uleb128 0x1
 10733 02dd 9542     		.uleb128 0x2115
 10734 02df 19       		.uleb128 0x19
 10735 02e0 31       		.uleb128 0x31
 10736 02e1 13       		.uleb128 0x13
 10737 02e2 00       		.byte	0
ARM GAS  C:\Users\euanm\AppData\Local\Temp\ccnlTGs7.s 			page 191


 10738 02e3 00       		.byte	0
 10739 02e4 39       		.uleb128 0x39
 10740 02e5 2E       		.uleb128 0x2e
 10741 02e6 01       		.byte	0x1
 10742 02e7 3F       		.uleb128 0x3f
 10743 02e8 19       		.uleb128 0x19
 10744 02e9 03       		.uleb128 0x3
 10745 02ea 0E       		.uleb128 0xe
 10746 02eb 3A       		.uleb128 0x3a
 10747 02ec 0B       		.uleb128 0xb
 10748 02ed 3B       		.uleb128 0x3b
 10749 02ee 0B       		.uleb128 0xb
 10750 02ef 27       		.uleb128 0x27
 10751 02f0 19       		.uleb128 0x19
 10752 02f1 11       		.uleb128 0x11
 10753 02f2 01       		.uleb128 0x1
 10754 02f3 12       		.uleb128 0x12
 10755 02f4 06       		.uleb128 0x6
 10756 02f5 40       		.uleb128 0x40
 10757 02f6 18       		.uleb128 0x18
 10758 02f7 9742     		.uleb128 0x2117
 10759 02f9 19       		.uleb128 0x19
 10760 02fa 01       		.uleb128 0x1
 10761 02fb 13       		.uleb128 0x13
 10762 02fc 00       		.byte	0
 10763 02fd 00       		.byte	0
 10764 02fe 3A       		.uleb128 0x3a
 10765 02ff 05       		.uleb128 0x5
 10766 0300 00       		.byte	0
 10767 0301 03       		.uleb128 0x3
 10768 0302 0E       		.uleb128 0xe
 10769 0303 3A       		.uleb128 0x3a
 10770 0304 0B       		.uleb128 0xb
 10771 0305 3B       		.uleb128 0x3b
 10772 0306 0B       		.uleb128 0xb
 10773 0307 49       		.uleb128 0x49
 10774 0308 13       		.uleb128 0x13
 10775 0309 02       		.uleb128 0x2
 10776 030a 17       		.uleb128 0x17
 10777 030b 00       		.byte	0
 10778 030c 00       		.byte	0
 10779 030d 3B       		.uleb128 0x3b
 10780 030e 898201   		.uleb128 0x4109
 10781 0311 01       		.byte	0x1
 10782 0312 11       		.uleb128 0x11
 10783 0313 01       		.uleb128 0x1
 10784 0314 31       		.uleb128 0x31
 10785 0315 13       		.uleb128 0x13
 10786 0316 01       		.uleb128 0x1
 10787 0317 13       		.uleb128 0x13
 10788 0318 00       		.byte	0
 10789 0319 00       		.byte	0
 10790 031a 3C       		.uleb128 0x3c
 10791 031b 898201   		.uleb128 0x4109
 10792 031e 00       		.byte	0
 10793 031f 11       		.uleb128 0x11
 10794 0320 01       		.uleb128 0x1
ARM GAS  C:\Users\euanm\AppData\Local\Temp\ccnlTGs7.s 			page 192


 10795 0321 31       		.uleb128 0x31
 10796 0322 13       		.uleb128 0x13
 10797 0323 00       		.byte	0
 10798 0324 00       		.byte	0
 10799 0325 3D       		.uleb128 0x3d
 10800 0326 2E       		.uleb128 0x2e
 10801 0327 00       		.byte	0
 10802 0328 3F       		.uleb128 0x3f
 10803 0329 19       		.uleb128 0x19
 10804 032a 03       		.uleb128 0x3
 10805 032b 0E       		.uleb128 0xe
 10806 032c 3A       		.uleb128 0x3a
 10807 032d 0B       		.uleb128 0xb
 10808 032e 3B       		.uleb128 0x3b
 10809 032f 0B       		.uleb128 0xb
 10810 0330 27       		.uleb128 0x27
 10811 0331 19       		.uleb128 0x19
 10812 0332 49       		.uleb128 0x49
 10813 0333 13       		.uleb128 0x13
 10814 0334 11       		.uleb128 0x11
 10815 0335 01       		.uleb128 0x1
 10816 0336 12       		.uleb128 0x12
 10817 0337 06       		.uleb128 0x6
 10818 0338 40       		.uleb128 0x40
 10819 0339 18       		.uleb128 0x18
 10820 033a 9742     		.uleb128 0x2117
 10821 033c 19       		.uleb128 0x19
 10822 033d 00       		.byte	0
 10823 033e 00       		.byte	0
 10824 033f 3E       		.uleb128 0x3e
 10825 0340 2E       		.uleb128 0x2e
 10826 0341 01       		.byte	0x1
 10827 0342 3F       		.uleb128 0x3f
 10828 0343 19       		.uleb128 0x19
 10829 0344 03       		.uleb128 0x3
 10830 0345 0E       		.uleb128 0xe
 10831 0346 3A       		.uleb128 0x3a
 10832 0347 0B       		.uleb128 0xb
 10833 0348 3B       		.uleb128 0x3b
 10834 0349 0B       		.uleb128 0xb
 10835 034a 27       		.uleb128 0x27
 10836 034b 19       		.uleb128 0x19
 10837 034c 49       		.uleb128 0x49
 10838 034d 13       		.uleb128 0x13
 10839 034e 11       		.uleb128 0x11
 10840 034f 01       		.uleb128 0x1
 10841 0350 12       		.uleb128 0x12
 10842 0351 06       		.uleb128 0x6
 10843 0352 40       		.uleb128 0x40
 10844 0353 18       		.uleb128 0x18
 10845 0354 9742     		.uleb128 0x2117
 10846 0356 19       		.uleb128 0x19
 10847 0357 01       		.uleb128 0x1
 10848 0358 13       		.uleb128 0x13
 10849 0359 00       		.byte	0
 10850 035a 00       		.byte	0
 10851 035b 3F       		.uleb128 0x3f
ARM GAS  C:\Users\euanm\AppData\Local\Temp\ccnlTGs7.s 			page 193


 10852 035c 34       		.uleb128 0x34
 10853 035d 00       		.byte	0
 10854 035e 03       		.uleb128 0x3
 10855 035f 08       		.uleb128 0x8
 10856 0360 3A       		.uleb128 0x3a
 10857 0361 0B       		.uleb128 0xb
 10858 0362 3B       		.uleb128 0x3b
 10859 0363 0B       		.uleb128 0xb
 10860 0364 49       		.uleb128 0x49
 10861 0365 13       		.uleb128 0x13
 10862 0366 1C       		.uleb128 0x1c
 10863 0367 0B       		.uleb128 0xb
 10864 0368 00       		.byte	0
 10865 0369 00       		.byte	0
 10866 036a 40       		.uleb128 0x40
 10867 036b 05       		.uleb128 0x5
 10868 036c 00       		.byte	0
 10869 036d 03       		.uleb128 0x3
 10870 036e 0E       		.uleb128 0xe
 10871 036f 3A       		.uleb128 0x3a
 10872 0370 0B       		.uleb128 0xb
 10873 0371 3B       		.uleb128 0x3b
 10874 0372 0B       		.uleb128 0xb
 10875 0373 49       		.uleb128 0x49
 10876 0374 13       		.uleb128 0x13
 10877 0375 02       		.uleb128 0x2
 10878 0376 18       		.uleb128 0x18
 10879 0377 00       		.byte	0
 10880 0378 00       		.byte	0
 10881 0379 41       		.uleb128 0x41
 10882 037a 2E       		.uleb128 0x2e
 10883 037b 00       		.byte	0
 10884 037c 3F       		.uleb128 0x3f
 10885 037d 19       		.uleb128 0x19
 10886 037e 03       		.uleb128 0x3
 10887 037f 0E       		.uleb128 0xe
 10888 0380 3A       		.uleb128 0x3a
 10889 0381 0B       		.uleb128 0xb
 10890 0382 3B       		.uleb128 0x3b
 10891 0383 0B       		.uleb128 0xb
 10892 0384 27       		.uleb128 0x27
 10893 0385 19       		.uleb128 0x19
 10894 0386 11       		.uleb128 0x11
 10895 0387 01       		.uleb128 0x1
 10896 0388 12       		.uleb128 0x12
 10897 0389 06       		.uleb128 0x6
 10898 038a 40       		.uleb128 0x40
 10899 038b 18       		.uleb128 0x18
 10900 038c 9742     		.uleb128 0x2117
 10901 038e 19       		.uleb128 0x19
 10902 038f 00       		.byte	0
 10903 0390 00       		.byte	0
 10904 0391 42       		.uleb128 0x42
 10905 0392 2E       		.uleb128 0x2e
 10906 0393 00       		.byte	0
 10907 0394 3F       		.uleb128 0x3f
 10908 0395 19       		.uleb128 0x19
ARM GAS  C:\Users\euanm\AppData\Local\Temp\ccnlTGs7.s 			page 194


 10909 0396 03       		.uleb128 0x3
 10910 0397 0E       		.uleb128 0xe
 10911 0398 3A       		.uleb128 0x3a
 10912 0399 0B       		.uleb128 0xb
 10913 039a 3B       		.uleb128 0x3b
 10914 039b 05       		.uleb128 0x5
 10915 039c 27       		.uleb128 0x27
 10916 039d 19       		.uleb128 0x19
 10917 039e 11       		.uleb128 0x11
 10918 039f 01       		.uleb128 0x1
 10919 03a0 12       		.uleb128 0x12
 10920 03a1 06       		.uleb128 0x6
 10921 03a2 40       		.uleb128 0x40
 10922 03a3 18       		.uleb128 0x18
 10923 03a4 9742     		.uleb128 0x2117
 10924 03a6 19       		.uleb128 0x19
 10925 03a7 00       		.byte	0
 10926 03a8 00       		.byte	0
 10927 03a9 43       		.uleb128 0x43
 10928 03aa 2E       		.uleb128 0x2e
 10929 03ab 00       		.byte	0
 10930 03ac 3F       		.uleb128 0x3f
 10931 03ad 19       		.uleb128 0x19
 10932 03ae 03       		.uleb128 0x3
 10933 03af 0E       		.uleb128 0xe
 10934 03b0 3A       		.uleb128 0x3a
 10935 03b1 0B       		.uleb128 0xb
 10936 03b2 3B       		.uleb128 0x3b
 10937 03b3 05       		.uleb128 0x5
 10938 03b4 27       		.uleb128 0x27
 10939 03b5 19       		.uleb128 0x19
 10940 03b6 49       		.uleb128 0x49
 10941 03b7 13       		.uleb128 0x13
 10942 03b8 11       		.uleb128 0x11
 10943 03b9 01       		.uleb128 0x1
 10944 03ba 12       		.uleb128 0x12
 10945 03bb 06       		.uleb128 0x6
 10946 03bc 40       		.uleb128 0x40
 10947 03bd 18       		.uleb128 0x18
 10948 03be 9742     		.uleb128 0x2117
 10949 03c0 19       		.uleb128 0x19
 10950 03c1 00       		.byte	0
 10951 03c2 00       		.byte	0
 10952 03c3 44       		.uleb128 0x44
 10953 03c4 2E       		.uleb128 0x2e
 10954 03c5 01       		.byte	0x1
 10955 03c6 3F       		.uleb128 0x3f
 10956 03c7 19       		.uleb128 0x19
 10957 03c8 03       		.uleb128 0x3
 10958 03c9 0E       		.uleb128 0xe
 10959 03ca 3A       		.uleb128 0x3a
 10960 03cb 0B       		.uleb128 0xb
 10961 03cc 3B       		.uleb128 0x3b
 10962 03cd 05       		.uleb128 0x5
 10963 03ce 27       		.uleb128 0x27
 10964 03cf 19       		.uleb128 0x19
 10965 03d0 49       		.uleb128 0x49
ARM GAS  C:\Users\euanm\AppData\Local\Temp\ccnlTGs7.s 			page 195


 10966 03d1 13       		.uleb128 0x13
 10967 03d2 11       		.uleb128 0x11
 10968 03d3 01       		.uleb128 0x1
 10969 03d4 12       		.uleb128 0x12
 10970 03d5 06       		.uleb128 0x6
 10971 03d6 40       		.uleb128 0x40
 10972 03d7 18       		.uleb128 0x18
 10973 03d8 9742     		.uleb128 0x2117
 10974 03da 19       		.uleb128 0x19
 10975 03db 01       		.uleb128 0x1
 10976 03dc 13       		.uleb128 0x13
 10977 03dd 00       		.byte	0
 10978 03de 00       		.byte	0
 10979 03df 45       		.uleb128 0x45
 10980 03e0 05       		.uleb128 0x5
 10981 03e1 00       		.byte	0
 10982 03e2 03       		.uleb128 0x3
 10983 03e3 0E       		.uleb128 0xe
 10984 03e4 3A       		.uleb128 0x3a
 10985 03e5 0B       		.uleb128 0xb
 10986 03e6 3B       		.uleb128 0x3b
 10987 03e7 05       		.uleb128 0x5
 10988 03e8 49       		.uleb128 0x49
 10989 03e9 13       		.uleb128 0x13
 10990 03ea 02       		.uleb128 0x2
 10991 03eb 17       		.uleb128 0x17
 10992 03ec 00       		.byte	0
 10993 03ed 00       		.byte	0
 10994 03ee 46       		.uleb128 0x46
 10995 03ef 34       		.uleb128 0x34
 10996 03f0 00       		.byte	0
 10997 03f1 03       		.uleb128 0x3
 10998 03f2 08       		.uleb128 0x8
 10999 03f3 3A       		.uleb128 0x3a
 11000 03f4 0B       		.uleb128 0xb
 11001 03f5 3B       		.uleb128 0x3b
 11002 03f6 05       		.uleb128 0x5
 11003 03f7 49       		.uleb128 0x49
 11004 03f8 13       		.uleb128 0x13
 11005 03f9 1C       		.uleb128 0x1c
 11006 03fa 0B       		.uleb128 0xb
 11007 03fb 00       		.byte	0
 11008 03fc 00       		.byte	0
 11009 03fd 47       		.uleb128 0x47
 11010 03fe 2E       		.uleb128 0x2e
 11011 03ff 01       		.byte	0x1
 11012 0400 3F       		.uleb128 0x3f
 11013 0401 19       		.uleb128 0x19
 11014 0402 03       		.uleb128 0x3
 11015 0403 0E       		.uleb128 0xe
 11016 0404 3A       		.uleb128 0x3a
 11017 0405 0B       		.uleb128 0xb
 11018 0406 3B       		.uleb128 0x3b
 11019 0407 05       		.uleb128 0x5
 11020 0408 27       		.uleb128 0x27
 11021 0409 19       		.uleb128 0x19
 11022 040a 11       		.uleb128 0x11
ARM GAS  C:\Users\euanm\AppData\Local\Temp\ccnlTGs7.s 			page 196


 11023 040b 01       		.uleb128 0x1
 11024 040c 12       		.uleb128 0x12
 11025 040d 06       		.uleb128 0x6
 11026 040e 40       		.uleb128 0x40
 11027 040f 18       		.uleb128 0x18
 11028 0410 9742     		.uleb128 0x2117
 11029 0412 19       		.uleb128 0x19
 11030 0413 01       		.uleb128 0x1
 11031 0414 13       		.uleb128 0x13
 11032 0415 00       		.byte	0
 11033 0416 00       		.byte	0
 11034 0417 48       		.uleb128 0x48
 11035 0418 05       		.uleb128 0x5
 11036 0419 00       		.byte	0
 11037 041a 03       		.uleb128 0x3
 11038 041b 0E       		.uleb128 0xe
 11039 041c 3A       		.uleb128 0x3a
 11040 041d 0B       		.uleb128 0xb
 11041 041e 3B       		.uleb128 0x3b
 11042 041f 05       		.uleb128 0x5
 11043 0420 49       		.uleb128 0x49
 11044 0421 13       		.uleb128 0x13
 11045 0422 02       		.uleb128 0x2
 11046 0423 18       		.uleb128 0x18
 11047 0424 00       		.byte	0
 11048 0425 00       		.byte	0
 11049 0426 49       		.uleb128 0x49
 11050 0427 34       		.uleb128 0x34
 11051 0428 00       		.byte	0
 11052 0429 03       		.uleb128 0x3
 11053 042a 08       		.uleb128 0x8
 11054 042b 3A       		.uleb128 0x3a
 11055 042c 0B       		.uleb128 0xb
 11056 042d 3B       		.uleb128 0x3b
 11057 042e 05       		.uleb128 0x5
 11058 042f 49       		.uleb128 0x49
 11059 0430 13       		.uleb128 0x13
 11060 0431 1C       		.uleb128 0x1c
 11061 0432 0A       		.uleb128 0xa
 11062 0433 00       		.byte	0
 11063 0434 00       		.byte	0
 11064 0435 4A       		.uleb128 0x4a
 11065 0436 34       		.uleb128 0x34
 11066 0437 00       		.byte	0
 11067 0438 31       		.uleb128 0x31
 11068 0439 13       		.uleb128 0x13
 11069 043a 02       		.uleb128 0x2
 11070 043b 17       		.uleb128 0x17
 11071 043c 00       		.byte	0
 11072 043d 00       		.byte	0
 11073 043e 4B       		.uleb128 0x4b
 11074 043f 34       		.uleb128 0x34
 11075 0440 00       		.byte	0
 11076 0441 31       		.uleb128 0x31
 11077 0442 13       		.uleb128 0x13
 11078 0443 00       		.byte	0
 11079 0444 00       		.byte	0
ARM GAS  C:\Users\euanm\AppData\Local\Temp\ccnlTGs7.s 			page 197


 11080 0445 4C       		.uleb128 0x4c
 11081 0446 34       		.uleb128 0x34
 11082 0447 00       		.byte	0
 11083 0448 03       		.uleb128 0x3
 11084 0449 08       		.uleb128 0x8
 11085 044a 3A       		.uleb128 0x3a
 11086 044b 0B       		.uleb128 0xb
 11087 044c 3B       		.uleb128 0x3b
 11088 044d 05       		.uleb128 0x5
 11089 044e 49       		.uleb128 0x49
 11090 044f 13       		.uleb128 0x13
 11091 0450 02       		.uleb128 0x2
 11092 0451 18       		.uleb128 0x18
 11093 0452 00       		.byte	0
 11094 0453 00       		.byte	0
 11095 0454 4D       		.uleb128 0x4d
 11096 0455 898201   		.uleb128 0x4109
 11097 0458 01       		.byte	0x1
 11098 0459 11       		.uleb128 0x11
 11099 045a 01       		.uleb128 0x1
 11100 045b 9542     		.uleb128 0x2115
 11101 045d 19       		.uleb128 0x19
 11102 045e 31       		.uleb128 0x31
 11103 045f 13       		.uleb128 0x13
 11104 0460 00       		.byte	0
 11105 0461 00       		.byte	0
 11106 0462 4E       		.uleb128 0x4e
 11107 0463 1D       		.uleb128 0x1d
 11108 0464 01       		.byte	0x1
 11109 0465 31       		.uleb128 0x31
 11110 0466 13       		.uleb128 0x13
 11111 0467 52       		.uleb128 0x52
 11112 0468 01       		.uleb128 0x1
 11113 0469 55       		.uleb128 0x55
 11114 046a 17       		.uleb128 0x17
 11115 046b 58       		.uleb128 0x58
 11116 046c 0B       		.uleb128 0xb
 11117 046d 59       		.uleb128 0x59
 11118 046e 05       		.uleb128 0x5
 11119 046f 00       		.byte	0
 11120 0470 00       		.byte	0
 11121 0471 4F       		.uleb128 0x4f
 11122 0472 05       		.uleb128 0x5
 11123 0473 00       		.byte	0
 11124 0474 31       		.uleb128 0x31
 11125 0475 13       		.uleb128 0x13
 11126 0476 1C       		.uleb128 0x1c
 11127 0477 0A       		.uleb128 0xa
 11128 0478 00       		.byte	0
 11129 0479 00       		.byte	0
 11130 047a 50       		.uleb128 0x50
 11131 047b 0B       		.uleb128 0xb
 11132 047c 01       		.byte	0x1
 11133 047d 55       		.uleb128 0x55
 11134 047e 17       		.uleb128 0x17
 11135 047f 01       		.uleb128 0x1
 11136 0480 13       		.uleb128 0x13
ARM GAS  C:\Users\euanm\AppData\Local\Temp\ccnlTGs7.s 			page 198


 11137 0481 00       		.byte	0
 11138 0482 00       		.byte	0
 11139 0483 51       		.uleb128 0x51
 11140 0484 1D       		.uleb128 0x1d
 11141 0485 01       		.byte	0x1
 11142 0486 31       		.uleb128 0x31
 11143 0487 13       		.uleb128 0x13
 11144 0488 11       		.uleb128 0x11
 11145 0489 01       		.uleb128 0x1
 11146 048a 12       		.uleb128 0x12
 11147 048b 06       		.uleb128 0x6
 11148 048c 58       		.uleb128 0x58
 11149 048d 0B       		.uleb128 0xb
 11150 048e 59       		.uleb128 0x59
 11151 048f 05       		.uleb128 0x5
 11152 0490 01       		.uleb128 0x1
 11153 0491 13       		.uleb128 0x13
 11154 0492 00       		.byte	0
 11155 0493 00       		.byte	0
 11156 0494 52       		.uleb128 0x52
 11157 0495 1D       		.uleb128 0x1d
 11158 0496 01       		.byte	0x1
 11159 0497 31       		.uleb128 0x31
 11160 0498 13       		.uleb128 0x13
 11161 0499 11       		.uleb128 0x11
 11162 049a 01       		.uleb128 0x1
 11163 049b 12       		.uleb128 0x12
 11164 049c 06       		.uleb128 0x6
 11165 049d 58       		.uleb128 0x58
 11166 049e 0B       		.uleb128 0xb
 11167 049f 59       		.uleb128 0x59
 11168 04a0 05       		.uleb128 0x5
 11169 04a1 00       		.byte	0
 11170 04a2 00       		.byte	0
 11171 04a3 53       		.uleb128 0x53
 11172 04a4 05       		.uleb128 0x5
 11173 04a5 00       		.byte	0
 11174 04a6 31       		.uleb128 0x31
 11175 04a7 13       		.uleb128 0x13
 11176 04a8 02       		.uleb128 0x2
 11177 04a9 18       		.uleb128 0x18
 11178 04aa 00       		.byte	0
 11179 04ab 00       		.byte	0
 11180 04ac 54       		.uleb128 0x54
 11181 04ad 2E       		.uleb128 0x2e
 11182 04ae 01       		.byte	0x1
 11183 04af 3F       		.uleb128 0x3f
 11184 04b0 19       		.uleb128 0x19
 11185 04b1 03       		.uleb128 0x3
 11186 04b2 0E       		.uleb128 0xe
 11187 04b3 3A       		.uleb128 0x3a
 11188 04b4 0B       		.uleb128 0xb
 11189 04b5 3B       		.uleb128 0x3b
 11190 04b6 05       		.uleb128 0x5
 11191 04b7 27       		.uleb128 0x27
 11192 04b8 19       		.uleb128 0x19
 11193 04b9 11       		.uleb128 0x11
ARM GAS  C:\Users\euanm\AppData\Local\Temp\ccnlTGs7.s 			page 199


 11194 04ba 01       		.uleb128 0x1
 11195 04bb 12       		.uleb128 0x12
 11196 04bc 06       		.uleb128 0x6
 11197 04bd 40       		.uleb128 0x40
 11198 04be 18       		.uleb128 0x18
 11199 04bf 9642     		.uleb128 0x2116
 11200 04c1 19       		.uleb128 0x19
 11201 04c2 01       		.uleb128 0x1
 11202 04c3 13       		.uleb128 0x13
 11203 04c4 00       		.byte	0
 11204 04c5 00       		.byte	0
 11205 04c6 55       		.uleb128 0x55
 11206 04c7 34       		.uleb128 0x34
 11207 04c8 00       		.byte	0
 11208 04c9 03       		.uleb128 0x3
 11209 04ca 0E       		.uleb128 0xe
 11210 04cb 3A       		.uleb128 0x3a
 11211 04cc 0B       		.uleb128 0xb
 11212 04cd 3B       		.uleb128 0x3b
 11213 04ce 0B       		.uleb128 0xb
 11214 04cf 49       		.uleb128 0x49
 11215 04d0 13       		.uleb128 0x13
 11216 04d1 02       		.uleb128 0x2
 11217 04d2 18       		.uleb128 0x18
 11218 04d3 00       		.byte	0
 11219 04d4 00       		.byte	0
 11220 04d5 56       		.uleb128 0x56
 11221 04d6 21       		.uleb128 0x21
 11222 04d7 00       		.byte	0
 11223 04d8 49       		.uleb128 0x49
 11224 04d9 13       		.uleb128 0x13
 11225 04da 2F       		.uleb128 0x2f
 11226 04db 05       		.uleb128 0x5
 11227 04dc 00       		.byte	0
 11228 04dd 00       		.byte	0
 11229 04de 57       		.uleb128 0x57
 11230 04df 34       		.uleb128 0x34
 11231 04e0 00       		.byte	0
 11232 04e1 03       		.uleb128 0x3
 11233 04e2 0E       		.uleb128 0xe
 11234 04e3 3A       		.uleb128 0x3a
 11235 04e4 0B       		.uleb128 0xb
 11236 04e5 3B       		.uleb128 0x3b
 11237 04e6 05       		.uleb128 0x5
 11238 04e7 49       		.uleb128 0x49
 11239 04e8 13       		.uleb128 0x13
 11240 04e9 3F       		.uleb128 0x3f
 11241 04ea 19       		.uleb128 0x19
 11242 04eb 3C       		.uleb128 0x3c
 11243 04ec 19       		.uleb128 0x19
 11244 04ed 00       		.byte	0
 11245 04ee 00       		.byte	0
 11246 04ef 58       		.uleb128 0x58
 11247 04f0 34       		.uleb128 0x34
 11248 04f1 00       		.byte	0
 11249 04f2 03       		.uleb128 0x3
 11250 04f3 08       		.uleb128 0x8
ARM GAS  C:\Users\euanm\AppData\Local\Temp\ccnlTGs7.s 			page 200


 11251 04f4 3A       		.uleb128 0x3a
 11252 04f5 0B       		.uleb128 0xb
 11253 04f6 3B       		.uleb128 0x3b
 11254 04f7 05       		.uleb128 0x5
 11255 04f8 49       		.uleb128 0x49
 11256 04f9 13       		.uleb128 0x13
 11257 04fa 3F       		.uleb128 0x3f
 11258 04fb 19       		.uleb128 0x19
 11259 04fc 3C       		.uleb128 0x3c
 11260 04fd 19       		.uleb128 0x19
 11261 04fe 00       		.byte	0
 11262 04ff 00       		.byte	0
 11263 0500 59       		.uleb128 0x59
 11264 0501 34       		.uleb128 0x34
 11265 0502 00       		.byte	0
 11266 0503 03       		.uleb128 0x3
 11267 0504 0E       		.uleb128 0xe
 11268 0505 3A       		.uleb128 0x3a
 11269 0506 0B       		.uleb128 0xb
 11270 0507 3B       		.uleb128 0x3b
 11271 0508 0B       		.uleb128 0xb
 11272 0509 49       		.uleb128 0x49
 11273 050a 13       		.uleb128 0x13
 11274 050b 3F       		.uleb128 0x3f
 11275 050c 19       		.uleb128 0x19
 11276 050d 02       		.uleb128 0x2
 11277 050e 18       		.uleb128 0x18
 11278 050f 00       		.byte	0
 11279 0510 00       		.byte	0
 11280 0511 5A       		.uleb128 0x5a
 11281 0512 21       		.uleb128 0x21
 11282 0513 00       		.byte	0
 11283 0514 00       		.byte	0
 11284 0515 00       		.byte	0
 11285 0516 5B       		.uleb128 0x5b
 11286 0517 34       		.uleb128 0x34
 11287 0518 00       		.byte	0
 11288 0519 03       		.uleb128 0x3
 11289 051a 0E       		.uleb128 0xe
 11290 051b 3A       		.uleb128 0x3a
 11291 051c 0B       		.uleb128 0xb
 11292 051d 3B       		.uleb128 0x3b
 11293 051e 0B       		.uleb128 0xb
 11294 051f 49       		.uleb128 0x49
 11295 0520 13       		.uleb128 0x13
 11296 0521 3F       		.uleb128 0x3f
 11297 0522 19       		.uleb128 0x19
 11298 0523 3C       		.uleb128 0x3c
 11299 0524 19       		.uleb128 0x19
 11300 0525 00       		.byte	0
 11301 0526 00       		.byte	0
 11302 0527 5C       		.uleb128 0x5c
 11303 0528 2E       		.uleb128 0x2e
 11304 0529 00       		.byte	0
 11305 052a 3F       		.uleb128 0x3f
 11306 052b 19       		.uleb128 0x19
 11307 052c 3C       		.uleb128 0x3c
ARM GAS  C:\Users\euanm\AppData\Local\Temp\ccnlTGs7.s 			page 201


 11308 052d 19       		.uleb128 0x19
 11309 052e 6E       		.uleb128 0x6e
 11310 052f 0E       		.uleb128 0xe
 11311 0530 03       		.uleb128 0x3
 11312 0531 0E       		.uleb128 0xe
 11313 0532 3A       		.uleb128 0x3a
 11314 0533 0B       		.uleb128 0xb
 11315 0534 3B       		.uleb128 0x3b
 11316 0535 0B       		.uleb128 0xb
 11317 0536 00       		.byte	0
 11318 0537 00       		.byte	0
 11319 0538 5D       		.uleb128 0x5d
 11320 0539 2E       		.uleb128 0x2e
 11321 053a 00       		.byte	0
 11322 053b 3F       		.uleb128 0x3f
 11323 053c 19       		.uleb128 0x19
 11324 053d 3C       		.uleb128 0x3c
 11325 053e 19       		.uleb128 0x19
 11326 053f 6E       		.uleb128 0x6e
 11327 0540 0E       		.uleb128 0xe
 11328 0541 03       		.uleb128 0x3
 11329 0542 0E       		.uleb128 0xe
 11330 0543 00       		.byte	0
 11331 0544 00       		.byte	0
 11332 0545 5E       		.uleb128 0x5e
 11333 0546 2E       		.uleb128 0x2e
 11334 0547 00       		.byte	0
 11335 0548 3F       		.uleb128 0x3f
 11336 0549 19       		.uleb128 0x19
 11337 054a 3C       		.uleb128 0x3c
 11338 054b 19       		.uleb128 0x19
 11339 054c 6E       		.uleb128 0x6e
 11340 054d 0E       		.uleb128 0xe
 11341 054e 03       		.uleb128 0x3
 11342 054f 0E       		.uleb128 0xe
 11343 0550 3A       		.uleb128 0x3a
 11344 0551 0B       		.uleb128 0xb
 11345 0552 3B       		.uleb128 0x3b
 11346 0553 05       		.uleb128 0x5
 11347 0554 00       		.byte	0
 11348 0555 00       		.byte	0
 11349 0556 00       		.byte	0
 11350              		.section	.debug_loc,"",%progbits
 11351              	.Ldebug_loc0:
 11352              	.LLST0:
 11353 0000 00000000 		.4byte	.LVL0
 11354 0004 2A000000 		.4byte	.LVL2
 11355 0008 0100     		.2byte	0x1
 11356 000a 50       		.byte	0x50
 11357 000b 2A000000 		.4byte	.LVL2
 11358 000f 30010000 		.4byte	.LFE310
 11359 0013 0400     		.2byte	0x4
 11360 0015 F3       		.byte	0xf3
 11361 0016 01       		.uleb128 0x1
 11362 0017 50       		.byte	0x50
 11363 0018 9F       		.byte	0x9f
 11364 0019 00000000 		.4byte	0
ARM GAS  C:\Users\euanm\AppData\Local\Temp\ccnlTGs7.s 			page 202


 11365 001d 00000000 		.4byte	0
 11366              	.LLST1:
 11367 0021 00000000 		.4byte	.LVL0
 11368 0025 26000000 		.4byte	.LVL1
 11369 0029 0600     		.2byte	0x6
 11370 002b 03       		.byte	0x3
 11371 002c 00000000 		.4byte	.LC0
 11372 0030 9F       		.byte	0x9f
 11373 0031 00000000 		.4byte	0
 11374 0035 00000000 		.4byte	0
 11375              	.LLST2:
 11376 0039 30000000 		.4byte	.LVL3
 11377 003d 3A000000 		.4byte	.LVL4
 11378 0041 0200     		.2byte	0x2
 11379 0043 30       		.byte	0x30
 11380 0044 9F       		.byte	0x9f
 11381 0045 3A000000 		.4byte	.LVL4
 11382 0049 EB000000 		.4byte	.LVL12-1
 11383 004d 0100     		.2byte	0x1
 11384 004f 53       		.byte	0x53
 11385 0050 EB000000 		.4byte	.LVL12-1
 11386 0054 F4000000 		.4byte	.LVL13
 11387 0058 0300     		.2byte	0x3
 11388 005a 91       		.byte	0x91
 11389 005b BC7F     		.sleb128 -68
 11390 005d F4000000 		.4byte	.LVL13
 11391 0061 30010000 		.4byte	.LFE310
 11392 0065 0100     		.2byte	0x1
 11393 0067 53       		.byte	0x53
 11394 0068 00000000 		.4byte	0
 11395 006c 00000000 		.4byte	0
 11396              	.LLST3:
 11397 0070 3A000000 		.4byte	.LVL4
 11398 0074 84000000 		.4byte	.LVL5
 11399 0078 0200     		.2byte	0x2
 11400 007a 31       		.byte	0x31
 11401 007b 9F       		.byte	0x9f
 11402 007c 84000000 		.4byte	.LVL5
 11403 0080 88000000 		.4byte	.LVL6
 11404 0084 0200     		.2byte	0x2
 11405 0086 33       		.byte	0x33
 11406 0087 9F       		.byte	0x9f
 11407 0088 88000000 		.4byte	.LVL6
 11408 008c 90000000 		.4byte	.LVL7
 11409 0090 0200     		.2byte	0x2
 11410 0092 35       		.byte	0x35
 11411 0093 9F       		.byte	0x9f
 11412 0094 90000000 		.4byte	.LVL7
 11413 0098 CE000000 		.4byte	.LVL8
 11414 009c 0200     		.2byte	0x2
 11415 009e 39       		.byte	0x39
 11416 009f 9F       		.byte	0x9f
 11417 00a0 CE000000 		.4byte	.LVL8
 11418 00a4 D2000000 		.4byte	.LVL9
 11419 00a8 0200     		.2byte	0x2
 11420 00aa 3B       		.byte	0x3b
 11421 00ab 9F       		.byte	0x9f
ARM GAS  C:\Users\euanm\AppData\Local\Temp\ccnlTGs7.s 			page 203


 11422 00ac D2000000 		.4byte	.LVL9
 11423 00b0 D6000000 		.4byte	.LVL10
 11424 00b4 0200     		.2byte	0x2
 11425 00b6 3E       		.byte	0x3e
 11426 00b7 9F       		.byte	0x9f
 11427 00b8 D6000000 		.4byte	.LVL10
 11428 00bc DA000000 		.4byte	.LVL11
 11429 00c0 0200     		.2byte	0x2
 11430 00c2 40       		.byte	0x40
 11431 00c3 9F       		.byte	0x9f
 11432 00c4 DA000000 		.4byte	.LVL11
 11433 00c8 30010000 		.4byte	.LFE310
 11434 00cc 0200     		.2byte	0x2
 11435 00ce 41       		.byte	0x41
 11436 00cf 9F       		.byte	0x9f
 11437 00d0 00000000 		.4byte	0
 11438 00d4 00000000 		.4byte	0
 11439              	.LLST4:
 11440 00d8 00000000 		.4byte	.LVL14
 11441 00dc 11000000 		.4byte	.LVL15-1
 11442 00e0 0200     		.2byte	0x2
 11443 00e2 90       		.byte	0x90
 11444 00e3 40       		.uleb128 0x40
 11445 00e4 11000000 		.4byte	.LVL15-1
 11446 00e8 12000000 		.4byte	.LVL15
 11447 00ec 0600     		.2byte	0x6
 11448 00ee F3       		.byte	0xf3
 11449 00ef 03       		.uleb128 0x3
 11450 00f0 F5       		.byte	0xf5
 11451 00f1 40       		.uleb128 0x40
 11452 00f2 25       		.uleb128 0x25
 11453 00f3 9F       		.byte	0x9f
 11454 00f4 12000000 		.4byte	.LVL15
 11455 00f8 17000000 		.4byte	.LVL16-1
 11456 00fc 0200     		.2byte	0x2
 11457 00fe 90       		.byte	0x90
 11458 00ff 40       		.uleb128 0x40
 11459 0100 17000000 		.4byte	.LVL16-1
 11460 0104 1C000000 		.4byte	.LFE312
 11461 0108 0600     		.2byte	0x6
 11462 010a F3       		.byte	0xf3
 11463 010b 03       		.uleb128 0x3
 11464 010c F5       		.byte	0xf5
 11465 010d 40       		.uleb128 0x40
 11466 010e 25       		.uleb128 0x25
 11467 010f 9F       		.byte	0x9f
 11468 0110 00000000 		.4byte	0
 11469 0114 00000000 		.4byte	0
 11470              	.LLST5:
 11471 0118 00000000 		.4byte	.LVL17
 11472 011c 11000000 		.4byte	.LVL18-1
 11473 0120 0200     		.2byte	0x2
 11474 0122 90       		.byte	0x90
 11475 0123 40       		.uleb128 0x40
 11476 0124 11000000 		.4byte	.LVL18-1
 11477 0128 12000000 		.4byte	.LVL18
 11478 012c 0600     		.2byte	0x6
ARM GAS  C:\Users\euanm\AppData\Local\Temp\ccnlTGs7.s 			page 204


 11479 012e F3       		.byte	0xf3
 11480 012f 03       		.uleb128 0x3
 11481 0130 F5       		.byte	0xf5
 11482 0131 40       		.uleb128 0x40
 11483 0132 25       		.uleb128 0x25
 11484 0133 9F       		.byte	0x9f
 11485 0134 12000000 		.4byte	.LVL18
 11486 0138 17000000 		.4byte	.LVL19-1
 11487 013c 0200     		.2byte	0x2
 11488 013e 90       		.byte	0x90
 11489 013f 40       		.uleb128 0x40
 11490 0140 17000000 		.4byte	.LVL19-1
 11491 0144 1C000000 		.4byte	.LFE313
 11492 0148 0600     		.2byte	0x6
 11493 014a F3       		.byte	0xf3
 11494 014b 03       		.uleb128 0x3
 11495 014c F5       		.byte	0xf5
 11496 014d 40       		.uleb128 0x40
 11497 014e 25       		.uleb128 0x25
 11498 014f 9F       		.byte	0x9f
 11499 0150 00000000 		.4byte	0
 11500 0154 00000000 		.4byte	0
 11501              	.LLST6:
 11502 0158 00000000 		.4byte	.LVL20
 11503 015c 14000000 		.4byte	.LVL21
 11504 0160 0100     		.2byte	0x1
 11505 0162 50       		.byte	0x50
 11506 0163 14000000 		.4byte	.LVL21
 11507 0167 17000000 		.4byte	.LVL22-1
 11508 016b 0100     		.2byte	0x1
 11509 016d 51       		.byte	0x51
 11510 016e 17000000 		.4byte	.LVL22-1
 11511 0172 34000000 		.4byte	.LVL24
 11512 0176 0100     		.2byte	0x1
 11513 0178 54       		.byte	0x54
 11514 0179 34000000 		.4byte	.LVL24
 11515 017d 68010000 		.4byte	.LFE256
 11516 0181 0400     		.2byte	0x4
 11517 0183 F3       		.byte	0xf3
 11518 0184 01       		.uleb128 0x1
 11519 0185 50       		.byte	0x50
 11520 0186 9F       		.byte	0x9f
 11521 0187 00000000 		.4byte	0
 11522 018b 00000000 		.4byte	0
 11523              	.LLST7:
 11524 018f 00000000 		.4byte	.LVL35
 11525 0193 0A000000 		.4byte	.LVL36
 11526 0197 0100     		.2byte	0x1
 11527 0199 50       		.byte	0x50
 11528 019a 0A000000 		.4byte	.LVL36
 11529 019e 18000000 		.4byte	.LFE265
 11530 01a2 0400     		.2byte	0x4
 11531 01a4 F3       		.byte	0xf3
 11532 01a5 01       		.uleb128 0x1
 11533 01a6 50       		.byte	0x50
 11534 01a7 9F       		.byte	0x9f
 11535 01a8 00000000 		.4byte	0
ARM GAS  C:\Users\euanm\AppData\Local\Temp\ccnlTGs7.s 			page 205


 11536 01ac 00000000 		.4byte	0
 11537              	.LLST8:
 11538 01b0 12000000 		.4byte	.LVL48
 11539 01b4 26000000 		.4byte	.LVL49
 11540 01b8 0200     		.2byte	0x2
 11541 01ba 90       		.byte	0x90
 11542 01bb 40       		.uleb128 0x40
 11543 01bc 38000000 		.4byte	.LVL51
 11544 01c0 44000000 		.4byte	.LFE280
 11545 01c4 0200     		.2byte	0x2
 11546 01c6 90       		.byte	0x90
 11547 01c7 40       		.uleb128 0x40
 11548 01c8 00000000 		.4byte	0
 11549 01cc 00000000 		.4byte	0
 11550              	.LLST9:
 11551 01d0 00000000 		.4byte	.LVL52
 11552 01d4 22000000 		.4byte	.LVL54
 11553 01d8 0600     		.2byte	0x6
 11554 01da 9E       		.byte	0x9e
 11555 01db 04       		.uleb128 0x4
 11556 01dc 00000000 		.4byte	0
 11557 01e0 22000000 		.4byte	.LVL54
 11558 01e4 24000000 		.4byte	.LVL55
 11559 01e8 0200     		.2byte	0x2
 11560 01ea 90       		.byte	0x90
 11561 01eb 40       		.uleb128 0x40
 11562 01ec 24000000 		.4byte	.LVL55
 11563 01f0 34000000 		.4byte	.LFE283
 11564 01f4 0600     		.2byte	0x6
 11565 01f6 9E       		.byte	0x9e
 11566 01f7 04       		.uleb128 0x4
 11567 01f8 00000000 		.4byte	0
 11568 01fc 00000000 		.4byte	0
 11569 0200 00000000 		.4byte	0
 11570              	.LLST10:
 11571 0204 00000000 		.4byte	.LVL86
 11572 0208 11000000 		.4byte	.LVL87-1
 11573 020c 0100     		.2byte	0x1
 11574 020e 50       		.byte	0x50
 11575 020f 11000000 		.4byte	.LVL87-1
 11576 0213 12000000 		.4byte	.LVL87
 11577 0217 0400     		.2byte	0x4
 11578 0219 F3       		.byte	0xf3
 11579 021a 01       		.uleb128 0x1
 11580 021b 50       		.byte	0x50
 11581 021c 9F       		.byte	0x9f
 11582 021d 12000000 		.4byte	.LVL87
 11583 0221 14000000 		.4byte	.LVL88
 11584 0225 0100     		.2byte	0x1
 11585 0227 50       		.byte	0x50
 11586 0228 14000000 		.4byte	.LVL88
 11587 022c 16000000 		.4byte	.LVL89
 11588 0230 0400     		.2byte	0x4
 11589 0232 F3       		.byte	0xf3
 11590 0233 01       		.uleb128 0x1
 11591 0234 50       		.byte	0x50
 11592 0235 9F       		.byte	0x9f
ARM GAS  C:\Users\euanm\AppData\Local\Temp\ccnlTGs7.s 			page 206


 11593 0236 16000000 		.4byte	.LVL89
 11594 023a 19000000 		.4byte	.LVL90-1
 11595 023e 0100     		.2byte	0x1
 11596 0240 50       		.byte	0x50
 11597 0241 19000000 		.4byte	.LVL90-1
 11598 0245 20000000 		.4byte	.LFE295
 11599 0249 0400     		.2byte	0x4
 11600 024b F3       		.byte	0xf3
 11601 024c 01       		.uleb128 0x1
 11602 024d 50       		.byte	0x50
 11603 024e 9F       		.byte	0x9f
 11604 024f 00000000 		.4byte	0
 11605 0253 00000000 		.4byte	0
 11606              	.LLST11:
 11607 0257 00000000 		.4byte	.LVL91
 11608 025b 11000000 		.4byte	.LVL92-1
 11609 025f 0100     		.2byte	0x1
 11610 0261 50       		.byte	0x50
 11611 0262 11000000 		.4byte	.LVL92-1
 11612 0266 12000000 		.4byte	.LVL92
 11613 026a 0400     		.2byte	0x4
 11614 026c F3       		.byte	0xf3
 11615 026d 01       		.uleb128 0x1
 11616 026e 50       		.byte	0x50
 11617 026f 9F       		.byte	0x9f
 11618 0270 12000000 		.4byte	.LVL92
 11619 0274 14000000 		.4byte	.LVL93
 11620 0278 0100     		.2byte	0x1
 11621 027a 50       		.byte	0x50
 11622 027b 14000000 		.4byte	.LVL93
 11623 027f 16000000 		.4byte	.LVL94
 11624 0283 0400     		.2byte	0x4
 11625 0285 F3       		.byte	0xf3
 11626 0286 01       		.uleb128 0x1
 11627 0287 50       		.byte	0x50
 11628 0288 9F       		.byte	0x9f
 11629 0289 16000000 		.4byte	.LVL94
 11630 028d 19000000 		.4byte	.LVL95-1
 11631 0291 0100     		.2byte	0x1
 11632 0293 50       		.byte	0x50
 11633 0294 19000000 		.4byte	.LVL95-1
 11634 0298 20000000 		.4byte	.LFE296
 11635 029c 0400     		.2byte	0x4
 11636 029e F3       		.byte	0xf3
 11637 029f 01       		.uleb128 0x1
 11638 02a0 50       		.byte	0x50
 11639 02a1 9F       		.byte	0x9f
 11640 02a2 00000000 		.4byte	0
 11641 02a6 00000000 		.4byte	0
 11642              	.LLST12:
 11643 02aa 0C000000 		.4byte	.LVL99
 11644 02ae 14000000 		.4byte	.LVL100
 11645 02b2 0800     		.2byte	0x8
 11646 02b4 F5       		.byte	0xf5
 11647 02b5 40       		.uleb128 0x40
 11648 02b6 25       		.uleb128 0x25
 11649 02b7 F5       		.byte	0xf5
ARM GAS  C:\Users\euanm\AppData\Local\Temp\ccnlTGs7.s 			page 207


 11650 02b8 4F       		.uleb128 0x4f
 11651 02b9 25       		.uleb128 0x25
 11652 02ba 1B       		.byte	0x1b
 11653 02bb 9F       		.byte	0x9f
 11654 02bc 14000000 		.4byte	.LVL100
 11655 02c0 20000000 		.4byte	.LFE298
 11656 02c4 0200     		.2byte	0x2
 11657 02c6 90       		.byte	0x90
 11658 02c7 40       		.uleb128 0x40
 11659 02c8 00000000 		.4byte	0
 11660 02cc 00000000 		.4byte	0
 11661              	.LLST13:
 11662 02d0 0C000000 		.4byte	.LVL101
 11663 02d4 14000000 		.4byte	.LVL102
 11664 02d8 0800     		.2byte	0x8
 11665 02da F5       		.byte	0xf5
 11666 02db 40       		.uleb128 0x40
 11667 02dc 25       		.uleb128 0x25
 11668 02dd F5       		.byte	0xf5
 11669 02de 4F       		.uleb128 0x4f
 11670 02df 25       		.uleb128 0x25
 11671 02e0 1B       		.byte	0x1b
 11672 02e1 9F       		.byte	0x9f
 11673 02e2 14000000 		.4byte	.LVL102
 11674 02e6 20000000 		.4byte	.LFE299
 11675 02ea 0200     		.2byte	0x2
 11676 02ec 90       		.byte	0x90
 11677 02ed 40       		.uleb128 0x40
 11678 02ee 00000000 		.4byte	0
 11679 02f2 00000000 		.4byte	0
 11680              	.LLST14:
 11681 02f6 00000000 		.4byte	.LVL106
 11682 02fa 29000000 		.4byte	.LVL111-1
 11683 02fe 0100     		.2byte	0x1
 11684 0300 50       		.byte	0x50
 11685 0301 29000000 		.4byte	.LVL111-1
 11686 0305 48000000 		.4byte	.LFE303
 11687 0309 0400     		.2byte	0x4
 11688 030b F3       		.byte	0xf3
 11689 030c 01       		.uleb128 0x1
 11690 030d 50       		.byte	0x50
 11691 030e 9F       		.byte	0x9f
 11692 030f 00000000 		.4byte	0
 11693 0313 00000000 		.4byte	0
 11694              	.LLST15:
 11695 0317 00000000 		.4byte	.LVL106
 11696 031b 00000000 		.4byte	.LVL106
 11697 031f 0100     		.2byte	0x1
 11698 0321 51       		.byte	0x51
 11699 0322 00000000 		.4byte	.LVL106
 11700 0326 10000000 		.4byte	.LVL107
 11701 032a 1700     		.2byte	0x17
 11702 032c 71       		.byte	0x71
 11703 032d 00       		.sleb128 0
 11704 032e 12       		.byte	0x12
 11705 032f 0A       		.byte	0xa
 11706 0330 FFFF     		.2byte	0xffff
ARM GAS  C:\Users\euanm\AppData\Local\Temp\ccnlTGs7.s 			page 208


 11707 0332 1A       		.byte	0x1a
 11708 0333 0A       		.byte	0xa
 11709 0334 D007     		.2byte	0x7d0
 11710 0336 16       		.byte	0x16
 11711 0337 14       		.byte	0x14
 11712 0338 0A       		.byte	0xa
 11713 0339 FFFF     		.2byte	0xffff
 11714 033b 1A       		.byte	0x1a
 11715 033c 2D       		.byte	0x2d
 11716 033d 28       		.byte	0x28
 11717 033e 0100     		.2byte	0x1
 11718 0340 16       		.byte	0x16
 11719 0341 13       		.byte	0x13
 11720 0342 9F       		.byte	0x9f
 11721 0343 10000000 		.4byte	.LVL107
 11722 0347 48000000 		.4byte	.LFE303
 11723 034b 1800     		.2byte	0x18
 11724 034d F3       		.byte	0xf3
 11725 034e 01       		.uleb128 0x1
 11726 034f 51       		.byte	0x51
 11727 0350 12       		.byte	0x12
 11728 0351 0A       		.byte	0xa
 11729 0352 FFFF     		.2byte	0xffff
 11730 0354 1A       		.byte	0x1a
 11731 0355 0A       		.byte	0xa
 11732 0356 D007     		.2byte	0x7d0
 11733 0358 16       		.byte	0x16
 11734 0359 14       		.byte	0x14
 11735 035a 0A       		.byte	0xa
 11736 035b FFFF     		.2byte	0xffff
 11737 035d 1A       		.byte	0x1a
 11738 035e 2D       		.byte	0x2d
 11739 035f 28       		.byte	0x28
 11740 0360 0100     		.2byte	0x1
 11741 0362 16       		.byte	0x16
 11742 0363 13       		.byte	0x13
 11743 0364 9F       		.byte	0x9f
 11744 0365 00000000 		.4byte	0
 11745 0369 00000000 		.4byte	0
 11746              	.LLST16:
 11747 036d 00000000 		.4byte	.LVL106
 11748 0371 18000000 		.4byte	.LVL108
 11749 0375 0100     		.2byte	0x1
 11750 0377 52       		.byte	0x52
 11751 0378 18000000 		.4byte	.LVL108
 11752 037c 20000000 		.4byte	.LVL109
 11753 0380 0400     		.2byte	0x4
 11754 0382 F3       		.byte	0xf3
 11755 0383 01       		.uleb128 0x1
 11756 0384 52       		.byte	0x52
 11757 0385 9F       		.byte	0x9f
 11758 0386 20000000 		.4byte	.LVL109
 11759 038a 24000000 		.4byte	.LVL110
 11760 038e 0100     		.2byte	0x1
 11761 0390 52       		.byte	0x52
 11762 0391 24000000 		.4byte	.LVL110
 11763 0395 48000000 		.4byte	.LFE303
ARM GAS  C:\Users\euanm\AppData\Local\Temp\ccnlTGs7.s 			page 209


 11764 0399 0400     		.2byte	0x4
 11765 039b F3       		.byte	0xf3
 11766 039c 01       		.uleb128 0x1
 11767 039d 52       		.byte	0x52
 11768 039e 9F       		.byte	0x9f
 11769 039f 00000000 		.4byte	0
 11770 03a3 00000000 		.4byte	0
 11771              	.LLST17:
 11772 03a7 0E000000 		.4byte	.LVL113
 11773 03ab 24000000 		.4byte	.LVL115
 11774 03af 0100     		.2byte	0x1
 11775 03b1 50       		.byte	0x50
 11776 03b2 30000000 		.4byte	.LVL117
 11777 03b6 40000000 		.4byte	.LFE304
 11778 03ba 0400     		.2byte	0x4
 11779 03bc 0A       		.byte	0xa
 11780 03bd F401     		.2byte	0x1f4
 11781 03bf 9F       		.byte	0x9f
 11782 03c0 00000000 		.4byte	0
 11783 03c4 00000000 		.4byte	0
 11784              	.LLST18:
 11785 03c8 00000000 		.4byte	.LVL118
 11786 03cc 0D000000 		.4byte	.LVL119-1
 11787 03d0 0200     		.2byte	0x2
 11788 03d2 90       		.byte	0x90
 11789 03d3 40       		.uleb128 0x40
 11790 03d4 0D000000 		.4byte	.LVL119-1
 11791 03d8 18000000 		.4byte	.LVL120
 11792 03dc 0200     		.2byte	0x2
 11793 03de 90       		.byte	0x90
 11794 03df 50       		.uleb128 0x50
 11795 03e0 18000000 		.4byte	.LVL120
 11796 03e4 1F000000 		.4byte	.LVL121-1
 11797 03e8 0200     		.2byte	0x2
 11798 03ea 90       		.byte	0x90
 11799 03eb 40       		.uleb128 0x40
 11800 03ec 1F000000 		.4byte	.LVL121-1
 11801 03f0 20000000 		.4byte	.LVL121
 11802 03f4 0600     		.2byte	0x6
 11803 03f6 F3       		.byte	0xf3
 11804 03f7 03       		.uleb128 0x3
 11805 03f8 F5       		.byte	0xf5
 11806 03f9 40       		.uleb128 0x40
 11807 03fa 25       		.uleb128 0x25
 11808 03fb 9F       		.byte	0x9f
 11809 03fc 20000000 		.4byte	.LVL121
 11810 0400 24000000 		.4byte	.LVL122
 11811 0404 0200     		.2byte	0x2
 11812 0406 90       		.byte	0x90
 11813 0407 50       		.uleb128 0x50
 11814 0408 24000000 		.4byte	.LVL122
 11815 040c 26000000 		.4byte	.LFE267
 11816 0410 0600     		.2byte	0x6
 11817 0412 F3       		.byte	0xf3
 11818 0413 03       		.uleb128 0x3
 11819 0414 F5       		.byte	0xf5
 11820 0415 40       		.uleb128 0x40
ARM GAS  C:\Users\euanm\AppData\Local\Temp\ccnlTGs7.s 			page 210


 11821 0416 25       		.uleb128 0x25
 11822 0417 9F       		.byte	0x9f
 11823 0418 00000000 		.4byte	0
 11824 041c 00000000 		.4byte	0
 11825              	.LLST19:
 11826 0420 00000000 		.4byte	.LVL126
 11827 0424 0D000000 		.4byte	.LVL127-1
 11828 0428 0200     		.2byte	0x2
 11829 042a 90       		.byte	0x90
 11830 042b 40       		.uleb128 0x40
 11831 042c 0D000000 		.4byte	.LVL127-1
 11832 0430 26000000 		.4byte	.LVL128
 11833 0434 0200     		.2byte	0x2
 11834 0436 90       		.byte	0x90
 11835 0437 50       		.uleb128 0x50
 11836 0438 26000000 		.4byte	.LVL128
 11837 043c 2D000000 		.4byte	.LVL129-1
 11838 0440 0200     		.2byte	0x2
 11839 0442 90       		.byte	0x90
 11840 0443 40       		.uleb128 0x40
 11841 0444 2D000000 		.4byte	.LVL129-1
 11842 0448 2E000000 		.4byte	.LVL129
 11843 044c 0600     		.2byte	0x6
 11844 044e F3       		.byte	0xf3
 11845 044f 03       		.uleb128 0x3
 11846 0450 F5       		.byte	0xf5
 11847 0451 40       		.uleb128 0x40
 11848 0452 25       		.uleb128 0x25
 11849 0453 9F       		.byte	0x9f
 11850 0454 2E000000 		.4byte	.LVL129
 11851 0458 32000000 		.4byte	.LVL130
 11852 045c 0200     		.2byte	0x2
 11853 045e 90       		.byte	0x90
 11854 045f 50       		.uleb128 0x50
 11855 0460 32000000 		.4byte	.LVL130
 11856 0464 34000000 		.4byte	.LVL131
 11857 0468 0600     		.2byte	0x6
 11858 046a F3       		.byte	0xf3
 11859 046b 03       		.uleb128 0x3
 11860 046c F5       		.byte	0xf5
 11861 046d 40       		.uleb128 0x40
 11862 046e 25       		.uleb128 0x25
 11863 046f 9F       		.byte	0x9f
 11864 0470 34000000 		.4byte	.LVL131
 11865 0474 3C000000 		.4byte	.LVL132
 11866 0478 0200     		.2byte	0x2
 11867 047a 90       		.byte	0x90
 11868 047b 50       		.uleb128 0x50
 11869 047c 3C000000 		.4byte	.LVL132
 11870 0480 43000000 		.4byte	.LVL133-1
 11871 0484 0200     		.2byte	0x2
 11872 0486 90       		.byte	0x90
 11873 0487 40       		.uleb128 0x40
 11874 0488 43000000 		.4byte	.LVL133-1
 11875 048c 48000000 		.4byte	.LFE268
 11876 0490 0600     		.2byte	0x6
 11877 0492 F3       		.byte	0xf3
ARM GAS  C:\Users\euanm\AppData\Local\Temp\ccnlTGs7.s 			page 211


 11878 0493 03       		.uleb128 0x3
 11879 0494 F5       		.byte	0xf5
 11880 0495 40       		.uleb128 0x40
 11881 0496 25       		.uleb128 0x25
 11882 0497 9F       		.byte	0x9f
 11883 0498 00000000 		.4byte	0
 11884 049c 00000000 		.4byte	0
 11885              	.LLST20:
 11886 04a0 00000000 		.4byte	.LVL134
 11887 04a4 0D000000 		.4byte	.LVL135-1
 11888 04a8 0200     		.2byte	0x2
 11889 04aa 90       		.byte	0x90
 11890 04ab 40       		.uleb128 0x40
 11891 04ac 0D000000 		.4byte	.LVL135-1
 11892 04b0 26000000 		.4byte	.LVL136
 11893 04b4 0200     		.2byte	0x2
 11894 04b6 90       		.byte	0x90
 11895 04b7 50       		.uleb128 0x50
 11896 04b8 26000000 		.4byte	.LVL136
 11897 04bc 2D000000 		.4byte	.LVL137-1
 11898 04c0 0200     		.2byte	0x2
 11899 04c2 90       		.byte	0x90
 11900 04c3 40       		.uleb128 0x40
 11901 04c4 2D000000 		.4byte	.LVL137-1
 11902 04c8 2E000000 		.4byte	.LVL137
 11903 04cc 0600     		.2byte	0x6
 11904 04ce F3       		.byte	0xf3
 11905 04cf 03       		.uleb128 0x3
 11906 04d0 F5       		.byte	0xf5
 11907 04d1 40       		.uleb128 0x40
 11908 04d2 25       		.uleb128 0x25
 11909 04d3 9F       		.byte	0x9f
 11910 04d4 2E000000 		.4byte	.LVL137
 11911 04d8 32000000 		.4byte	.LVL138
 11912 04dc 0200     		.2byte	0x2
 11913 04de 90       		.byte	0x90
 11914 04df 50       		.uleb128 0x50
 11915 04e0 32000000 		.4byte	.LVL138
 11916 04e4 34000000 		.4byte	.LVL139
 11917 04e8 0600     		.2byte	0x6
 11918 04ea F3       		.byte	0xf3
 11919 04eb 03       		.uleb128 0x3
 11920 04ec F5       		.byte	0xf5
 11921 04ed 40       		.uleb128 0x40
 11922 04ee 25       		.uleb128 0x25
 11923 04ef 9F       		.byte	0x9f
 11924 04f0 34000000 		.4byte	.LVL139
 11925 04f4 3C000000 		.4byte	.LVL140
 11926 04f8 0200     		.2byte	0x2
 11927 04fa 90       		.byte	0x90
 11928 04fb 50       		.uleb128 0x50
 11929 04fc 3C000000 		.4byte	.LVL140
 11930 0500 43000000 		.4byte	.LVL141-1
 11931 0504 0200     		.2byte	0x2
 11932 0506 90       		.byte	0x90
 11933 0507 40       		.uleb128 0x40
 11934 0508 43000000 		.4byte	.LVL141-1
ARM GAS  C:\Users\euanm\AppData\Local\Temp\ccnlTGs7.s 			page 212


 11935 050c 48000000 		.4byte	.LFE269
 11936 0510 0600     		.2byte	0x6
 11937 0512 F3       		.byte	0xf3
 11938 0513 03       		.uleb128 0x3
 11939 0514 F5       		.byte	0xf5
 11940 0515 40       		.uleb128 0x40
 11941 0516 25       		.uleb128 0x25
 11942 0517 9F       		.byte	0x9f
 11943 0518 00000000 		.4byte	0
 11944 051c 00000000 		.4byte	0
 11945              	.LLST21:
 11946 0520 00000000 		.4byte	.LVL142
 11947 0524 0F000000 		.4byte	.LVL143-1
 11948 0528 0200     		.2byte	0x2
 11949 052a 90       		.byte	0x90
 11950 052b 40       		.uleb128 0x40
 11951 052c 0F000000 		.4byte	.LVL143-1
 11952 0530 28000000 		.4byte	.LVL144
 11953 0534 0200     		.2byte	0x2
 11954 0536 90       		.byte	0x90
 11955 0537 50       		.uleb128 0x50
 11956 0538 28000000 		.4byte	.LVL144
 11957 053c 31000000 		.4byte	.LVL145-1
 11958 0540 0200     		.2byte	0x2
 11959 0542 90       		.byte	0x90
 11960 0543 40       		.uleb128 0x40
 11961 0544 31000000 		.4byte	.LVL145-1
 11962 0548 32000000 		.4byte	.LVL145
 11963 054c 0600     		.2byte	0x6
 11964 054e F3       		.byte	0xf3
 11965 054f 03       		.uleb128 0x3
 11966 0550 F5       		.byte	0xf5
 11967 0551 40       		.uleb128 0x40
 11968 0552 25       		.uleb128 0x25
 11969 0553 9F       		.byte	0x9f
 11970 0554 32000000 		.4byte	.LVL145
 11971 0558 36000000 		.4byte	.LVL146
 11972 055c 0200     		.2byte	0x2
 11973 055e 90       		.byte	0x90
 11974 055f 50       		.uleb128 0x50
 11975 0560 36000000 		.4byte	.LVL146
 11976 0564 38000000 		.4byte	.LVL147
 11977 0568 0600     		.2byte	0x6
 11978 056a F3       		.byte	0xf3
 11979 056b 03       		.uleb128 0x3
 11980 056c F5       		.byte	0xf5
 11981 056d 40       		.uleb128 0x40
 11982 056e 25       		.uleb128 0x25
 11983 056f 9F       		.byte	0x9f
 11984 0570 38000000 		.4byte	.LVL147
 11985 0574 40000000 		.4byte	.LVL148
 11986 0578 0200     		.2byte	0x2
 11987 057a 90       		.byte	0x90
 11988 057b 50       		.uleb128 0x50
 11989 057c 40000000 		.4byte	.LVL148
 11990 0580 49000000 		.4byte	.LVL149-1
 11991 0584 0200     		.2byte	0x2
ARM GAS  C:\Users\euanm\AppData\Local\Temp\ccnlTGs7.s 			page 213


 11992 0586 90       		.byte	0x90
 11993 0587 40       		.uleb128 0x40
 11994 0588 49000000 		.4byte	.LVL149-1
 11995 058c 50000000 		.4byte	.LFE270
 11996 0590 0600     		.2byte	0x6
 11997 0592 F3       		.byte	0xf3
 11998 0593 03       		.uleb128 0x3
 11999 0594 F5       		.byte	0xf5
 12000 0595 40       		.uleb128 0x40
 12001 0596 25       		.uleb128 0x25
 12002 0597 9F       		.byte	0x9f
 12003 0598 00000000 		.4byte	0
 12004 059c 00000000 		.4byte	0
 12005              	.LLST22:
 12006 05a0 00000000 		.4byte	.LVL142
 12007 05a4 0F000000 		.4byte	.LVL143-1
 12008 05a8 0100     		.2byte	0x1
 12009 05aa 50       		.byte	0x50
 12010 05ab 0F000000 		.4byte	.LVL143-1
 12011 05af 50000000 		.4byte	.LFE270
 12012 05b3 0400     		.2byte	0x4
 12013 05b5 F3       		.byte	0xf3
 12014 05b6 01       		.uleb128 0x1
 12015 05b7 50       		.byte	0x50
 12016 05b8 9F       		.byte	0x9f
 12017 05b9 00000000 		.4byte	0
 12018 05bd 00000000 		.4byte	0
 12019              	.LLST23:
 12020 05c1 00000000 		.4byte	.LVL150
 12021 05c5 0D000000 		.4byte	.LVL151-1
 12022 05c9 0200     		.2byte	0x2
 12023 05cb 90       		.byte	0x90
 12024 05cc 40       		.uleb128 0x40
 12025 05cd 0D000000 		.4byte	.LVL151-1
 12026 05d1 2C000000 		.4byte	.LVL152
 12027 05d5 0200     		.2byte	0x2
 12028 05d7 90       		.byte	0x90
 12029 05d8 50       		.uleb128 0x50
 12030 05d9 2C000000 		.4byte	.LVL152
 12031 05dd 33000000 		.4byte	.LVL153-1
 12032 05e1 0200     		.2byte	0x2
 12033 05e3 90       		.byte	0x90
 12034 05e4 40       		.uleb128 0x40
 12035 05e5 33000000 		.4byte	.LVL153-1
 12036 05e9 34000000 		.4byte	.LVL153
 12037 05ed 0600     		.2byte	0x6
 12038 05ef F3       		.byte	0xf3
 12039 05f0 03       		.uleb128 0x3
 12040 05f1 F5       		.byte	0xf5
 12041 05f2 40       		.uleb128 0x40
 12042 05f3 25       		.uleb128 0x25
 12043 05f4 9F       		.byte	0x9f
 12044 05f5 34000000 		.4byte	.LVL153
 12045 05f9 38000000 		.4byte	.LVL154
 12046 05fd 0200     		.2byte	0x2
 12047 05ff 90       		.byte	0x90
 12048 0600 50       		.uleb128 0x50
ARM GAS  C:\Users\euanm\AppData\Local\Temp\ccnlTGs7.s 			page 214


 12049 0601 38000000 		.4byte	.LVL154
 12050 0605 3A000000 		.4byte	.LVL155
 12051 0609 0600     		.2byte	0x6
 12052 060b F3       		.byte	0xf3
 12053 060c 03       		.uleb128 0x3
 12054 060d F5       		.byte	0xf5
 12055 060e 40       		.uleb128 0x40
 12056 060f 25       		.uleb128 0x25
 12057 0610 9F       		.byte	0x9f
 12058 0611 3A000000 		.4byte	.LVL155
 12059 0615 42000000 		.4byte	.LVL156
 12060 0619 0200     		.2byte	0x2
 12061 061b 90       		.byte	0x90
 12062 061c 50       		.uleb128 0x50
 12063 061d 42000000 		.4byte	.LVL156
 12064 0621 49000000 		.4byte	.LVL157-1
 12065 0625 0500     		.2byte	0x5
 12066 0627 03       		.byte	0x3
 12067 0628 00000000 		.4byte	m_position_set
 12068 062c 49000000 		.4byte	.LVL157-1
 12069 0630 54000000 		.4byte	.LFE273
 12070 0634 0600     		.2byte	0x6
 12071 0636 F3       		.byte	0xf3
 12072 0637 03       		.uleb128 0x3
 12073 0638 F5       		.byte	0xf5
 12074 0639 40       		.uleb128 0x40
 12075 063a 25       		.uleb128 0x25
 12076 063b 9F       		.byte	0x9f
 12077 063c 00000000 		.4byte	0
 12078 0640 00000000 		.4byte	0
 12079              	.LLST24:
 12080 0644 00000000 		.4byte	.LVL158
 12081 0648 0D000000 		.4byte	.LVL159-1
 12082 064c 0200     		.2byte	0x2
 12083 064e 90       		.byte	0x90
 12084 064f 40       		.uleb128 0x40
 12085 0650 0D000000 		.4byte	.LVL159-1
 12086 0654 18000000 		.4byte	.LVL160
 12087 0658 0200     		.2byte	0x2
 12088 065a 90       		.byte	0x90
 12089 065b 50       		.uleb128 0x50
 12090 065c 18000000 		.4byte	.LVL160
 12091 0660 1F000000 		.4byte	.LVL161-1
 12092 0664 0200     		.2byte	0x2
 12093 0666 90       		.byte	0x90
 12094 0667 40       		.uleb128 0x40
 12095 0668 1F000000 		.4byte	.LVL161-1
 12096 066c 20000000 		.4byte	.LVL161
 12097 0670 0600     		.2byte	0x6
 12098 0672 F3       		.byte	0xf3
 12099 0673 03       		.uleb128 0x3
 12100 0674 F5       		.byte	0xf5
 12101 0675 40       		.uleb128 0x40
 12102 0676 25       		.uleb128 0x25
 12103 0677 9F       		.byte	0x9f
 12104 0678 20000000 		.4byte	.LVL161
 12105 067c 24000000 		.4byte	.LVL162
ARM GAS  C:\Users\euanm\AppData\Local\Temp\ccnlTGs7.s 			page 215


 12106 0680 0200     		.2byte	0x2
 12107 0682 90       		.byte	0x90
 12108 0683 50       		.uleb128 0x50
 12109 0684 24000000 		.4byte	.LVL162
 12110 0688 26000000 		.4byte	.LFE274
 12111 068c 0600     		.2byte	0x6
 12112 068e F3       		.byte	0xf3
 12113 068f 03       		.uleb128 0x3
 12114 0690 F5       		.byte	0xf5
 12115 0691 40       		.uleb128 0x40
 12116 0692 25       		.uleb128 0x25
 12117 0693 9F       		.byte	0x9f
 12118 0694 00000000 		.4byte	0
 12119 0698 00000000 		.4byte	0
 12120              	.LLST25:
 12121 069c 00000000 		.4byte	.LVL166
 12122 06a0 0D000000 		.4byte	.LVL167-1
 12123 06a4 0200     		.2byte	0x2
 12124 06a6 90       		.byte	0x90
 12125 06a7 40       		.uleb128 0x40
 12126 06a8 0D000000 		.4byte	.LVL167-1
 12127 06ac 26000000 		.4byte	.LVL168
 12128 06b0 0200     		.2byte	0x2
 12129 06b2 90       		.byte	0x90
 12130 06b3 50       		.uleb128 0x50
 12131 06b4 26000000 		.4byte	.LVL168
 12132 06b8 2D000000 		.4byte	.LVL169-1
 12133 06bc 0200     		.2byte	0x2
 12134 06be 90       		.byte	0x90
 12135 06bf 40       		.uleb128 0x40
 12136 06c0 2D000000 		.4byte	.LVL169-1
 12137 06c4 2E000000 		.4byte	.LVL169
 12138 06c8 0600     		.2byte	0x6
 12139 06ca F3       		.byte	0xf3
 12140 06cb 03       		.uleb128 0x3
 12141 06cc F5       		.byte	0xf5
 12142 06cd 40       		.uleb128 0x40
 12143 06ce 25       		.uleb128 0x25
 12144 06cf 9F       		.byte	0x9f
 12145 06d0 2E000000 		.4byte	.LVL169
 12146 06d4 32000000 		.4byte	.LVL170
 12147 06d8 0200     		.2byte	0x2
 12148 06da 90       		.byte	0x90
 12149 06db 50       		.uleb128 0x50
 12150 06dc 32000000 		.4byte	.LVL170
 12151 06e0 34000000 		.4byte	.LVL171
 12152 06e4 0600     		.2byte	0x6
 12153 06e6 F3       		.byte	0xf3
 12154 06e7 03       		.uleb128 0x3
 12155 06e8 F5       		.byte	0xf5
 12156 06e9 40       		.uleb128 0x40
 12157 06ea 25       		.uleb128 0x25
 12158 06eb 9F       		.byte	0x9f
 12159 06ec 34000000 		.4byte	.LVL171
 12160 06f0 3C000000 		.4byte	.LVL172
 12161 06f4 0200     		.2byte	0x2
 12162 06f6 90       		.byte	0x90
ARM GAS  C:\Users\euanm\AppData\Local\Temp\ccnlTGs7.s 			page 216


 12163 06f7 50       		.uleb128 0x50
 12164 06f8 3C000000 		.4byte	.LVL172
 12165 06fc 43000000 		.4byte	.LVL173-1
 12166 0700 0200     		.2byte	0x2
 12167 0702 90       		.byte	0x90
 12168 0703 40       		.uleb128 0x40
 12169 0704 43000000 		.4byte	.LVL173-1
 12170 0708 48000000 		.4byte	.LFE275
 12171 070c 0600     		.2byte	0x6
 12172 070e F3       		.byte	0xf3
 12173 070f 03       		.uleb128 0x3
 12174 0710 F5       		.byte	0xf5
 12175 0711 40       		.uleb128 0x40
 12176 0712 25       		.uleb128 0x25
 12177 0713 9F       		.byte	0x9f
 12178 0714 00000000 		.4byte	0
 12179 0718 00000000 		.4byte	0
 12180              	.LLST26:
 12181 071c 00000000 		.4byte	.LVL174
 12182 0720 0F000000 		.4byte	.LVL175-1
 12183 0724 0200     		.2byte	0x2
 12184 0726 90       		.byte	0x90
 12185 0727 40       		.uleb128 0x40
 12186 0728 0F000000 		.4byte	.LVL175-1
 12187 072c 66000000 		.4byte	.LVL179
 12188 0730 0200     		.2byte	0x2
 12189 0732 90       		.byte	0x90
 12190 0733 50       		.uleb128 0x50
 12191 0734 66000000 		.4byte	.LVL179
 12192 0738 84000000 		.4byte	.LVL181
 12193 073c 0600     		.2byte	0x6
 12194 073e F3       		.byte	0xf3
 12195 073f 03       		.uleb128 0x3
 12196 0740 F5       		.byte	0xf5
 12197 0741 40       		.uleb128 0x40
 12198 0742 25       		.uleb128 0x25
 12199 0743 9F       		.byte	0x9f
 12200 0744 84000000 		.4byte	.LVL181
 12201 0748 94000000 		.4byte	.LVL182
 12202 074c 0200     		.2byte	0x2
 12203 074e 90       		.byte	0x90
 12204 074f 50       		.uleb128 0x50
 12205 0750 94000000 		.4byte	.LVL182
 12206 0754 C4000000 		.4byte	.LVL186
 12207 0758 0600     		.2byte	0x6
 12208 075a F3       		.byte	0xf3
 12209 075b 03       		.uleb128 0x3
 12210 075c F5       		.byte	0xf5
 12211 075d 40       		.uleb128 0x40
 12212 075e 25       		.uleb128 0x25
 12213 075f 9F       		.byte	0x9f
 12214 0760 C4000000 		.4byte	.LVL186
 12215 0764 1E010000 		.4byte	.LVL189
 12216 0768 0200     		.2byte	0x2
 12217 076a 90       		.byte	0x90
 12218 076b 50       		.uleb128 0x50
 12219 076c 1E010000 		.4byte	.LVL189
ARM GAS  C:\Users\euanm\AppData\Local\Temp\ccnlTGs7.s 			page 217


 12220 0770 30010000 		.4byte	.LVL191
 12221 0774 0600     		.2byte	0x6
 12222 0776 F3       		.byte	0xf3
 12223 0777 03       		.uleb128 0x3
 12224 0778 F5       		.byte	0xf5
 12225 0779 40       		.uleb128 0x40
 12226 077a 25       		.uleb128 0x25
 12227 077b 9F       		.byte	0x9f
 12228 077c 30010000 		.4byte	.LVL191
 12229 0780 44010000 		.4byte	.LVL193
 12230 0784 0200     		.2byte	0x2
 12231 0786 90       		.byte	0x90
 12232 0787 50       		.uleb128 0x50
 12233 0788 44010000 		.4byte	.LVL193
 12234 078c 70010000 		.4byte	.LFE276
 12235 0790 0600     		.2byte	0x6
 12236 0792 F3       		.byte	0xf3
 12237 0793 03       		.uleb128 0x3
 12238 0794 F5       		.byte	0xf5
 12239 0795 40       		.uleb128 0x40
 12240 0796 25       		.uleb128 0x25
 12241 0797 9F       		.byte	0x9f
 12242 0798 00000000 		.4byte	0
 12243 079c 00000000 		.4byte	0
 12244              	.LLST27:
 12245 07a0 00000000 		.4byte	.LVL174
 12246 07a4 0F000000 		.4byte	.LVL175-1
 12247 07a8 0100     		.2byte	0x1
 12248 07aa 50       		.byte	0x50
 12249 07ab 0F000000 		.4byte	.LVL175-1
 12250 07af 70010000 		.4byte	.LFE276
 12251 07b3 0400     		.2byte	0x4
 12252 07b5 F3       		.byte	0xf3
 12253 07b6 01       		.uleb128 0x1
 12254 07b7 50       		.byte	0x50
 12255 07b8 9F       		.byte	0x9f
 12256 07b9 00000000 		.4byte	0
 12257 07bd 00000000 		.4byte	0
 12258              	.LLST28:
 12259 07c1 12000000 		.4byte	.LVL176
 12260 07c5 64000000 		.4byte	.LVL178
 12261 07c9 0600     		.2byte	0x6
 12262 07cb 9E       		.byte	0x9e
 12263 07cc 04       		.uleb128 0x4
 12264 07cd 00000000 		.4byte	0
 12265 07d1 64000000 		.4byte	.LVL178
 12266 07d5 7D000000 		.4byte	.LVL180-1
 12267 07d9 0200     		.2byte	0x2
 12268 07db 90       		.byte	0x90
 12269 07dc 40       		.uleb128 0x40
 12270 07dd 84000000 		.4byte	.LVL181
 12271 07e1 A4000000 		.4byte	.LVL184
 12272 07e5 0600     		.2byte	0x6
 12273 07e7 9E       		.byte	0x9e
 12274 07e8 04       		.uleb128 0x4
 12275 07e9 00000000 		.4byte	0
 12276 07ed A4000000 		.4byte	.LVL184
ARM GAS  C:\Users\euanm\AppData\Local\Temp\ccnlTGs7.s 			page 218


 12277 07f1 AF000000 		.4byte	.LVL185-1
 12278 07f5 0200     		.2byte	0x2
 12279 07f7 90       		.byte	0x90
 12280 07f8 40       		.uleb128 0x40
 12281 07f9 B0000000 		.4byte	.LVL185
 12282 07fd C3000000 		.4byte	.LVL186-1
 12283 0801 0200     		.2byte	0x2
 12284 0803 90       		.byte	0x90
 12285 0804 40       		.uleb128 0x40
 12286 0805 C4000000 		.4byte	.LVL186
 12287 0809 1E010000 		.4byte	.LVL189
 12288 080d 0600     		.2byte	0x6
 12289 080f 9E       		.byte	0x9e
 12290 0810 04       		.uleb128 0x4
 12291 0811 00000000 		.4byte	0
 12292 0815 1E010000 		.4byte	.LVL189
 12293 0819 2D010000 		.4byte	.LVL190-1
 12294 081d 0200     		.2byte	0x2
 12295 081f 90       		.byte	0x90
 12296 0820 40       		.uleb128 0x40
 12297 0821 2E010000 		.4byte	.LVL190
 12298 0825 30010000 		.4byte	.LVL191
 12299 0829 0200     		.2byte	0x2
 12300 082b 90       		.byte	0x90
 12301 082c 40       		.uleb128 0x40
 12302 082d 30010000 		.4byte	.LVL191
 12303 0831 58010000 		.4byte	.LVL195
 12304 0835 0600     		.2byte	0x6
 12305 0837 9E       		.byte	0x9e
 12306 0838 04       		.uleb128 0x4
 12307 0839 00000000 		.4byte	0
 12308 083d 58010000 		.4byte	.LVL195
 12309 0841 70010000 		.4byte	.LFE276
 12310 0845 0200     		.2byte	0x2
 12311 0847 90       		.byte	0x90
 12312 0848 40       		.uleb128 0x40
 12313 0849 00000000 		.4byte	0
 12314 084d 00000000 		.4byte	0
 12315              	.LLST29:
 12316 0851 00000000 		.4byte	.LVL196
 12317 0855 0D000000 		.4byte	.LVL197-1
 12318 0859 0200     		.2byte	0x2
 12319 085b 90       		.byte	0x90
 12320 085c 40       		.uleb128 0x40
 12321 085d 0D000000 		.4byte	.LVL197-1
 12322 0861 2E000000 		.4byte	.LVL199
 12323 0865 0200     		.2byte	0x2
 12324 0867 90       		.byte	0x90
 12325 0868 50       		.uleb128 0x50
 12326 0869 2E000000 		.4byte	.LVL199
 12327 086d 36000000 		.4byte	.LVL200
 12328 0871 0600     		.2byte	0x6
 12329 0873 F3       		.byte	0xf3
 12330 0874 03       		.uleb128 0x3
 12331 0875 F5       		.byte	0xf5
 12332 0876 40       		.uleb128 0x40
 12333 0877 25       		.uleb128 0x25
ARM GAS  C:\Users\euanm\AppData\Local\Temp\ccnlTGs7.s 			page 219


 12334 0878 9F       		.byte	0x9f
 12335 0879 36000000 		.4byte	.LVL200
 12336 087d 3A000000 		.4byte	.LVL201
 12337 0881 0200     		.2byte	0x2
 12338 0883 90       		.byte	0x90
 12339 0884 50       		.uleb128 0x50
 12340 0885 3A000000 		.4byte	.LVL201
 12341 0889 3C000000 		.4byte	.LVL202
 12342 088d 0600     		.2byte	0x6
 12343 088f F3       		.byte	0xf3
 12344 0890 03       		.uleb128 0x3
 12345 0891 F5       		.byte	0xf5
 12346 0892 40       		.uleb128 0x40
 12347 0893 25       		.uleb128 0x25
 12348 0894 9F       		.byte	0x9f
 12349 0895 3C000000 		.4byte	.LVL202
 12350 0899 40000000 		.4byte	.LVL203
 12351 089d 0200     		.2byte	0x2
 12352 089f 90       		.byte	0x90
 12353 08a0 50       		.uleb128 0x50
 12354 08a1 40000000 		.4byte	.LVL203
 12355 08a5 4C000000 		.4byte	.LFE277
 12356 08a9 0600     		.2byte	0x6
 12357 08ab F3       		.byte	0xf3
 12358 08ac 03       		.uleb128 0x3
 12359 08ad F5       		.byte	0xf5
 12360 08ae 40       		.uleb128 0x40
 12361 08af 25       		.uleb128 0x25
 12362 08b0 9F       		.byte	0x9f
 12363 08b1 00000000 		.4byte	0
 12364 08b5 00000000 		.4byte	0
 12365              	.LLST30:
 12366 08b9 24000000 		.4byte	.LVL198
 12367 08bd 35000000 		.4byte	.LVL200-1
 12368 08c1 0200     		.2byte	0x2
 12369 08c3 90       		.byte	0x90
 12370 08c4 40       		.uleb128 0x40
 12371 08c5 3C000000 		.4byte	.LVL202
 12372 08c9 47000000 		.4byte	.LVL204-1
 12373 08cd 0200     		.2byte	0x2
 12374 08cf 90       		.byte	0x90
 12375 08d0 40       		.uleb128 0x40
 12376 08d1 00000000 		.4byte	0
 12377 08d5 00000000 		.4byte	0
 12378              	.LLST31:
 12379 08d9 00000000 		.4byte	.LVL205
 12380 08dd 09000000 		.4byte	.LVL206-1
 12381 08e1 0100     		.2byte	0x1
 12382 08e3 50       		.byte	0x50
 12383 08e4 09000000 		.4byte	.LVL206-1
 12384 08e8 60010000 		.4byte	.LFE305
 12385 08ec 0400     		.2byte	0x4
 12386 08ee F3       		.byte	0xf3
 12387 08ef 01       		.uleb128 0x1
 12388 08f0 50       		.byte	0x50
 12389 08f1 9F       		.byte	0x9f
 12390 08f2 00000000 		.4byte	0
ARM GAS  C:\Users\euanm\AppData\Local\Temp\ccnlTGs7.s 			page 220


 12391 08f6 00000000 		.4byte	0
 12392              	.LLST32:
 12393 08fa 32000000 		.4byte	.LVL208
 12394 08fe 38000000 		.4byte	.LVL209
 12395 0902 0300     		.2byte	0x3
 12396 0904 08       		.byte	0x8
 12397 0905 20       		.byte	0x20
 12398 0906 9F       		.byte	0x9f
 12399 0907 00000000 		.4byte	0
 12400 090b 00000000 		.4byte	0
 12401              	.LLST33:
 12402 090f 48000000 		.4byte	.LVL210
 12403 0913 4C000000 		.4byte	.LVL211
 12404 0917 0200     		.2byte	0x2
 12405 0919 30       		.byte	0x30
 12406 091a 9F       		.byte	0x9f
 12407 091b 00000000 		.4byte	0
 12408 091f 00000000 		.4byte	0
 12409              	.LLST34:
 12410 0923 66000000 		.4byte	.LVL225
 12411 0927 80000000 		.4byte	.LVL227
 12412 092b 0200     		.2byte	0x2
 12413 092d 90       		.byte	0x90
 12414 092e 40       		.uleb128 0x40
 12415 092f AC000000 		.4byte	.LVL229
 12416 0933 EF000000 		.4byte	.LVL233-1
 12417 0937 0200     		.2byte	0x2
 12418 0939 90       		.byte	0x90
 12419 093a 40       		.uleb128 0x40
 12420 093b 90010000 		.4byte	.LVL239
 12421 093f 9B010000 		.4byte	.LVL240-1
 12422 0943 0200     		.2byte	0x2
 12423 0945 90       		.byte	0x90
 12424 0946 40       		.uleb128 0x40
 12425 0947 00000000 		.4byte	0
 12426 094b 00000000 		.4byte	0
 12427              	.LLST35:
 12428 094f 76000000 		.4byte	.LVL226
 12429 0953 A2000000 		.4byte	.LVL228
 12430 0957 0200     		.2byte	0x2
 12431 0959 90       		.byte	0x90
 12432 095a 50       		.uleb128 0x50
 12433 095b AC000000 		.4byte	.LVL229
 12434 095f 78010000 		.4byte	.LVL236
 12435 0963 0200     		.2byte	0x2
 12436 0965 90       		.byte	0x90
 12437 0966 50       		.uleb128 0x50
 12438 0967 82010000 		.4byte	.LVL237
 12439 096b 86010000 		.4byte	.LVL238
 12440 096f 0200     		.2byte	0x2
 12441 0971 90       		.byte	0x90
 12442 0972 50       		.uleb128 0x50
 12443 0973 90010000 		.4byte	.LVL239
 12444 0977 C8010000 		.4byte	.LFE314
 12445 097b 0200     		.2byte	0x2
 12446 097d 90       		.byte	0x90
 12447 097e 50       		.uleb128 0x50
ARM GAS  C:\Users\euanm\AppData\Local\Temp\ccnlTGs7.s 			page 221


 12448 097f 00000000 		.4byte	0
 12449 0983 00000000 		.4byte	0
 12450              	.LLST36:
 12451 0987 CC000000 		.4byte	.LVL230
 12452 098b DE000000 		.4byte	.LVL231
 12453 098f 0200     		.2byte	0x2
 12454 0991 90       		.byte	0x90
 12455 0992 43       		.uleb128 0x43
 12456 0993 EC000000 		.4byte	.LVL232
 12457 0997 EF000000 		.4byte	.LVL233-1
 12458 099b 0200     		.2byte	0x2
 12459 099d 90       		.byte	0x90
 12460 099e 43       		.uleb128 0x43
 12461 099f F0000000 		.4byte	.LVL233
 12462 09a3 56010000 		.4byte	.LVL234
 12463 09a7 0200     		.2byte	0x2
 12464 09a9 90       		.byte	0x90
 12465 09aa 40       		.uleb128 0x40
 12466 09ab 00000000 		.4byte	0
 12467 09af 00000000 		.4byte	0
 12468              	.LLST37:
 12469 09b3 00000000 		.4byte	.LVL241
 12470 09b7 15000000 		.4byte	.LVL242-1
 12471 09bb 0100     		.2byte	0x1
 12472 09bd 50       		.byte	0x50
 12473 09be 15000000 		.4byte	.LVL242-1
 12474 09c2 5C000000 		.4byte	.LVL245
 12475 09c6 0100     		.2byte	0x1
 12476 09c8 54       		.byte	0x54
 12477 09c9 5C000000 		.4byte	.LVL245
 12478 09cd 60000000 		.4byte	.LVL246
 12479 09d1 0400     		.2byte	0x4
 12480 09d3 F3       		.byte	0xf3
 12481 09d4 01       		.uleb128 0x1
 12482 09d5 50       		.byte	0x50
 12483 09d6 9F       		.byte	0x9f
 12484 09d7 60000000 		.4byte	.LVL246
 12485 09db 68000000 		.4byte	.LVL248
 12486 09df 0100     		.2byte	0x1
 12487 09e1 54       		.byte	0x54
 12488 09e2 68000000 		.4byte	.LVL248
 12489 09e6 6C000000 		.4byte	.LVL249
 12490 09ea 0400     		.2byte	0x4
 12491 09ec F3       		.byte	0xf3
 12492 09ed 01       		.uleb128 0x1
 12493 09ee 50       		.byte	0x50
 12494 09ef 9F       		.byte	0x9f
 12495 09f0 6C000000 		.4byte	.LVL249
 12496 09f4 D0000000 		.4byte	.LFE258
 12497 09f8 0100     		.2byte	0x1
 12498 09fa 54       		.byte	0x54
 12499 09fb 00000000 		.4byte	0
 12500 09ff 00000000 		.4byte	0
 12501              	.LLST38:
 12502 0a03 00000000 		.4byte	.LVL259
 12503 0a07 14000000 		.4byte	.LVL260
 12504 0a0b 0100     		.2byte	0x1
ARM GAS  C:\Users\euanm\AppData\Local\Temp\ccnlTGs7.s 			page 222


 12505 0a0d 50       		.byte	0x50
 12506 0a0e 14000000 		.4byte	.LVL260
 12507 0a12 60000000 		.4byte	.LFE309
 12508 0a16 0400     		.2byte	0x4
 12509 0a18 F3       		.byte	0xf3
 12510 0a19 01       		.uleb128 0x1
 12511 0a1a 50       		.byte	0x50
 12512 0a1b 9F       		.byte	0x9f
 12513 0a1c 00000000 		.4byte	0
 12514 0a20 00000000 		.4byte	0
 12515              	.LLST39:
 12516 0a24 32000000 		.4byte	.LVL265
 12517 0a28 5E010000 		.4byte	.LVL281
 12518 0a2c 0200     		.2byte	0x2
 12519 0a2e 90       		.byte	0x90
 12520 0a2f 50       		.uleb128 0x50
 12521 0a30 62010000 		.4byte	.LVL282
 12522 0a34 E0020000 		.4byte	.LVL299
 12523 0a38 0200     		.2byte	0x2
 12524 0a3a 90       		.byte	0x90
 12525 0a3b 50       		.uleb128 0x50
 12526 0a3c E4020000 		.4byte	.LVL300
 12527 0a40 88040000 		.4byte	.LFE306
 12528 0a44 0200     		.2byte	0x2
 12529 0a46 90       		.byte	0x90
 12530 0a47 50       		.uleb128 0x50
 12531 0a48 00000000 		.4byte	0
 12532 0a4c 00000000 		.4byte	0
 12533              	.LLST40:
 12534 0a50 7A000000 		.4byte	.LVL269
 12535 0a54 7D000000 		.4byte	.LVL270-1
 12536 0a58 0200     		.2byte	0x2
 12537 0a5a 90       		.byte	0x90
 12538 0a5b 40       		.uleb128 0x40
 12539 0a5c 7D000000 		.4byte	.LVL270-1
 12540 0a60 F6000000 		.4byte	.LVL278
 12541 0a64 0200     		.2byte	0x2
 12542 0a66 90       		.byte	0x90
 12543 0a67 51       		.uleb128 0x51
 12544 0a68 62010000 		.4byte	.LVL282
 12545 0a6c 78010000 		.4byte	.LVL286
 12546 0a70 0200     		.2byte	0x2
 12547 0a72 90       		.byte	0x90
 12548 0a73 51       		.uleb128 0x51
 12549 0a74 E4020000 		.4byte	.LVL300
 12550 0a78 84030000 		.4byte	.LVL304
 12551 0a7c 0200     		.2byte	0x2
 12552 0a7e 90       		.byte	0x90
 12553 0a7f 51       		.uleb128 0x51
 12554 0a80 00000000 		.4byte	0
 12555 0a84 00000000 		.4byte	0
 12556              	.LLST41:
 12557 0a88 A2000000 		.4byte	.LVL271
 12558 0a8c C1000000 		.4byte	.LVL272-1
 12559 0a90 0200     		.2byte	0x2
 12560 0a92 90       		.byte	0x90
 12561 0a93 40       		.uleb128 0x40
ARM GAS  C:\Users\euanm\AppData\Local\Temp\ccnlTGs7.s 			page 223


 12562 0a94 C1000000 		.4byte	.LVL272-1
 12563 0a98 5E010000 		.4byte	.LVL281
 12564 0a9c 0200     		.2byte	0x2
 12565 0a9e 90       		.byte	0x90
 12566 0a9f 52       		.uleb128 0x52
 12567 0aa0 62010000 		.4byte	.LVL282
 12568 0aa4 78010000 		.4byte	.LVL286
 12569 0aa8 0200     		.2byte	0x2
 12570 0aaa 90       		.byte	0x90
 12571 0aab 52       		.uleb128 0x52
 12572 0aac A2010000 		.4byte	.LVL289
 12573 0ab0 FA010000 		.4byte	.LVL292
 12574 0ab4 0200     		.2byte	0x2
 12575 0ab6 90       		.byte	0x90
 12576 0ab7 52       		.uleb128 0x52
 12577 0ab8 02020000 		.4byte	.LVL293
 12578 0abc E0020000 		.4byte	.LVL299
 12579 0ac0 0200     		.2byte	0x2
 12580 0ac2 90       		.byte	0x90
 12581 0ac3 52       		.uleb128 0x52
 12582 0ac4 E4020000 		.4byte	.LVL300
 12583 0ac8 88040000 		.4byte	.LFE306
 12584 0acc 0200     		.2byte	0x2
 12585 0ace 90       		.byte	0x90
 12586 0acf 52       		.uleb128 0x52
 12587 0ad0 00000000 		.4byte	0
 12588 0ad4 00000000 		.4byte	0
 12589              	.LLST42:
 12590 0ad8 CA000000 		.4byte	.LVL273
 12591 0adc D2000000 		.4byte	.LVL274
 12592 0ae0 0200     		.2byte	0x2
 12593 0ae2 90       		.byte	0x90
 12594 0ae3 40       		.uleb128 0x40
 12595 0ae4 D2000000 		.4byte	.LVL274
 12596 0ae8 EE000000 		.4byte	.LVL276
 12597 0aec 0200     		.2byte	0x2
 12598 0aee 90       		.byte	0x90
 12599 0aef 53       		.uleb128 0x53
 12600 0af0 62010000 		.4byte	.LVL282
 12601 0af4 66010000 		.4byte	.LVL283
 12602 0af8 0200     		.2byte	0x2
 12603 0afa 90       		.byte	0x90
 12604 0afb 53       		.uleb128 0x53
 12605 0afc E4020000 		.4byte	.LVL300
 12606 0b00 E7020000 		.4byte	.LVL301-1
 12607 0b04 0200     		.2byte	0x2
 12608 0b06 90       		.byte	0x90
 12609 0b07 40       		.uleb128 0x40
 12610 0b08 E7020000 		.4byte	.LVL301-1
 12611 0b0c EC020000 		.4byte	.LVL302
 12612 0b10 0200     		.2byte	0x2
 12613 0b12 90       		.byte	0x90
 12614 0b13 53       		.uleb128 0x53
 12615 0b14 EC020000 		.4byte	.LVL302
 12616 0b18 EF020000 		.4byte	.LVL303-1
 12617 0b1c 0200     		.2byte	0x2
 12618 0b1e 90       		.byte	0x90
ARM GAS  C:\Users\euanm\AppData\Local\Temp\ccnlTGs7.s 			page 224


 12619 0b1f 40       		.uleb128 0x40
 12620 0b20 EF020000 		.4byte	.LVL303-1
 12621 0b24 84030000 		.4byte	.LVL304
 12622 0b28 0200     		.2byte	0x2
 12623 0b2a 90       		.byte	0x90
 12624 0b2b 53       		.uleb128 0x53
 12625 0b2c 00000000 		.4byte	0
 12626 0b30 00000000 		.4byte	0
 12627              	.LLST43:
 12628 0b34 CA000000 		.4byte	.LVL273
 12629 0b38 D2000000 		.4byte	.LVL274
 12630 0b3c 0200     		.2byte	0x2
 12631 0b3e 90       		.byte	0x90
 12632 0b3f 51       		.uleb128 0x51
 12633 0b40 D2000000 		.4byte	.LVL274
 12634 0b44 E4000000 		.4byte	.LVL275
 12635 0b48 0200     		.2byte	0x2
 12636 0b4a 90       		.byte	0x90
 12637 0b4b 40       		.uleb128 0x40
 12638 0b4c 62010000 		.4byte	.LVL282
 12639 0b50 70010000 		.4byte	.LVL284
 12640 0b54 0200     		.2byte	0x2
 12641 0b56 90       		.byte	0x90
 12642 0b57 40       		.uleb128 0x40
 12643 0b58 E4020000 		.4byte	.LVL300
 12644 0b5c F0020000 		.4byte	.LVL303
 12645 0b60 0200     		.2byte	0x2
 12646 0b62 90       		.byte	0x90
 12647 0b63 51       		.uleb128 0x51
 12648 0b64 F0020000 		.4byte	.LVL303
 12649 0b68 84030000 		.4byte	.LVL304
 12650 0b6c 0200     		.2byte	0x2
 12651 0b6e 90       		.byte	0x90
 12652 0b6f 40       		.uleb128 0x40
 12653 0b70 00000000 		.4byte	0
 12654 0b74 00000000 		.4byte	0
 12655              	.LLST44:
 12656 0b78 06010000 		.4byte	.LVL279
 12657 0b7c 42010000 		.4byte	.LVL280
 12658 0b80 0200     		.2byte	0x2
 12659 0b82 90       		.byte	0x90
 12660 0b83 40       		.uleb128 0x40
 12661 0b84 42010000 		.4byte	.LVL280
 12662 0b88 62010000 		.4byte	.LVL282
 12663 0b8c 0200     		.2byte	0x2
 12664 0b8e 90       		.byte	0x90
 12665 0b8f 53       		.uleb128 0x53
 12666 0b90 A2010000 		.4byte	.LVL289
 12667 0b94 DB010000 		.4byte	.LVL290-1
 12668 0b98 0200     		.2byte	0x2
 12669 0b9a 90       		.byte	0x90
 12670 0b9b 40       		.uleb128 0x40
 12671 0b9c DB010000 		.4byte	.LVL290-1
 12672 0ba0 FA010000 		.4byte	.LVL292
 12673 0ba4 0200     		.2byte	0x2
 12674 0ba6 90       		.byte	0x90
 12675 0ba7 53       		.uleb128 0x53
ARM GAS  C:\Users\euanm\AppData\Local\Temp\ccnlTGs7.s 			page 225


 12676 0ba8 02020000 		.4byte	.LVL293
 12677 0bac E4020000 		.4byte	.LVL300
 12678 0bb0 0200     		.2byte	0x2
 12679 0bb2 90       		.byte	0x90
 12680 0bb3 53       		.uleb128 0x53
 12681 0bb4 84030000 		.4byte	.LVL304
 12682 0bb8 A2030000 		.4byte	.LVL305
 12683 0bbc 0200     		.2byte	0x2
 12684 0bbe 90       		.byte	0x90
 12685 0bbf 40       		.uleb128 0x40
 12686 0bc0 A2030000 		.4byte	.LVL305
 12687 0bc4 88040000 		.4byte	.LFE306
 12688 0bc8 0200     		.2byte	0x2
 12689 0bca 90       		.byte	0x90
 12690 0bcb 53       		.uleb128 0x53
 12691 0bcc 00000000 		.4byte	0
 12692 0bd0 00000000 		.4byte	0
 12693              	.LLST45:
 12694 0bd4 AC030000 		.4byte	.LVL306
 12695 0bd8 B0030000 		.4byte	.LVL307
 12696 0bdc 0300     		.2byte	0x3
 12697 0bde 08       		.byte	0x8
 12698 0bdf 20       		.byte	0x20
 12699 0be0 9F       		.byte	0x9f
 12700 0be1 00000000 		.4byte	0
 12701 0be5 00000000 		.4byte	0
 12702              	.LLST46:
 12703 0be9 B8030000 		.4byte	.LVL308
 12704 0bed BC030000 		.4byte	.LVL309
 12705 0bf1 0200     		.2byte	0x2
 12706 0bf3 30       		.byte	0x30
 12707 0bf4 9F       		.byte	0x9f
 12708 0bf5 00000000 		.4byte	0
 12709 0bf9 00000000 		.4byte	0
 12710              		.section	.debug_aranges,"",%progbits
 12711 0000 DC010000 		.4byte	0x1dc
 12712 0004 0200     		.2byte	0x2
 12713 0006 00000000 		.4byte	.Ldebug_info0
 12714 000a 04       		.byte	0x4
 12715 000b 00       		.byte	0
 12716 000c 0000     		.2byte	0
 12717 000e 0000     		.2byte	0
 12718 0010 00000000 		.4byte	.LFB310
 12719 0014 30010000 		.4byte	.LFE310-.LFB310
 12720 0018 00000000 		.4byte	.LFB312
 12721 001c 1C000000 		.4byte	.LFE312-.LFB312
 12722 0020 00000000 		.4byte	.LFB313
 12723 0024 1C000000 		.4byte	.LFE313-.LFB313
 12724 0028 00000000 		.4byte	.LFB256
 12725 002c 68010000 		.4byte	.LFE256-.LFB256
 12726 0030 00000000 		.4byte	.LFB257
 12727 0034 08000000 		.4byte	.LFE257-.LFB257
 12728 0038 00000000 		.4byte	.LFB259
 12729 003c 20000000 		.4byte	.LFE259-.LFB259
 12730 0040 00000000 		.4byte	.LFB260
 12731 0044 0C000000 		.4byte	.LFE260-.LFB260
 12732 0048 00000000 		.4byte	.LFB261
ARM GAS  C:\Users\euanm\AppData\Local\Temp\ccnlTGs7.s 			page 226


 12733 004c 0C000000 		.4byte	.LFE261-.LFB261
 12734 0050 00000000 		.4byte	.LFB262
 12735 0054 0C000000 		.4byte	.LFE262-.LFB262
 12736 0058 00000000 		.4byte	.LFB263
 12737 005c 0C000000 		.4byte	.LFE263-.LFB263
 12738 0060 00000000 		.4byte	.LFB264
 12739 0064 0C000000 		.4byte	.LFE264-.LFB264
 12740 0068 00000000 		.4byte	.LFB265
 12741 006c 18000000 		.4byte	.LFE265-.LFB265
 12742 0070 00000000 		.4byte	.LFB266
 12743 0074 20000000 		.4byte	.LFE266-.LFB266
 12744 0078 00000000 		.4byte	.LFB271
 12745 007c 0C000000 		.4byte	.LFE271-.LFB271
 12746 0080 00000000 		.4byte	.LFB272
 12747 0084 0C000000 		.4byte	.LFE272-.LFB272
 12748 0088 00000000 		.4byte	.LFB281
 12749 008c 24000000 		.4byte	.LFE281-.LFB281
 12750 0090 00000000 		.4byte	.LFB282
 12751 0094 24000000 		.4byte	.LFE282-.LFB282
 12752 0098 00000000 		.4byte	.LFB280
 12753 009c 44000000 		.4byte	.LFE280-.LFB280
 12754 00a0 00000000 		.4byte	.LFB283
 12755 00a4 34000000 		.4byte	.LFE283-.LFB283
 12756 00a8 00000000 		.4byte	.LFB284
 12757 00ac 24000000 		.4byte	.LFE284-.LFB284
 12758 00b0 00000000 		.4byte	.LFB285
 12759 00b4 20000000 		.4byte	.LFE285-.LFB285
 12760 00b8 00000000 		.4byte	.LFB286
 12761 00bc 20000000 		.4byte	.LFE286-.LFB286
 12762 00c0 00000000 		.4byte	.LFB287
 12763 00c4 24000000 		.4byte	.LFE287-.LFB287
 12764 00c8 00000000 		.4byte	.LFB288
 12765 00cc 20000000 		.4byte	.LFE288-.LFB288
 12766 00d0 00000000 		.4byte	.LFB289
 12767 00d4 24000000 		.4byte	.LFE289-.LFB289
 12768 00d8 00000000 		.4byte	.LFB290
 12769 00dc 24000000 		.4byte	.LFE290-.LFB290
 12770 00e0 00000000 		.4byte	.LFB291
 12771 00e4 24000000 		.4byte	.LFE291-.LFB291
 12772 00e8 00000000 		.4byte	.LFB292
 12773 00ec 24000000 		.4byte	.LFE292-.LFB292
 12774 00f0 00000000 		.4byte	.LFB293
 12775 00f4 24000000 		.4byte	.LFE293-.LFB293
 12776 00f8 00000000 		.4byte	.LFB294
 12777 00fc 24000000 		.4byte	.LFE294-.LFB294
 12778 0100 00000000 		.4byte	.LFB295
 12779 0104 20000000 		.4byte	.LFE295-.LFB295
 12780 0108 00000000 		.4byte	.LFB296
 12781 010c 20000000 		.4byte	.LFE296-.LFB296
 12782 0110 00000000 		.4byte	.LFB297
 12783 0114 24000000 		.4byte	.LFE297-.LFB297
 12784 0118 00000000 		.4byte	.LFB298
 12785 011c 20000000 		.4byte	.LFE298-.LFB298
 12786 0120 00000000 		.4byte	.LFB299
 12787 0124 20000000 		.4byte	.LFE299-.LFB299
 12788 0128 00000000 		.4byte	.LFB300
 12789 012c 0C000000 		.4byte	.LFE300-.LFB300
ARM GAS  C:\Users\euanm\AppData\Local\Temp\ccnlTGs7.s 			page 227


 12790 0130 00000000 		.4byte	.LFB301
 12791 0134 24000000 		.4byte	.LFE301-.LFB301
 12792 0138 00000000 		.4byte	.LFB302
 12793 013c 0C000000 		.4byte	.LFE302-.LFB302
 12794 0140 00000000 		.4byte	.LFB303
 12795 0144 48000000 		.4byte	.LFE303-.LFB303
 12796 0148 00000000 		.4byte	.LFB304
 12797 014c 40000000 		.4byte	.LFE304-.LFB304
 12798 0150 00000000 		.4byte	.LFB267
 12799 0154 26000000 		.4byte	.LFE267-.LFB267
 12800 0158 00000000 		.4byte	.LFB278
 12801 015c 1C000000 		.4byte	.LFE278-.LFB278
 12802 0160 00000000 		.4byte	.LFB268
 12803 0164 48000000 		.4byte	.LFE268-.LFB268
 12804 0168 00000000 		.4byte	.LFB269
 12805 016c 48000000 		.4byte	.LFE269-.LFB269
 12806 0170 00000000 		.4byte	.LFB270
 12807 0174 50000000 		.4byte	.LFE270-.LFB270
 12808 0178 00000000 		.4byte	.LFB273
 12809 017c 54000000 		.4byte	.LFE273-.LFB273
 12810 0180 00000000 		.4byte	.LFB274
 12811 0184 26000000 		.4byte	.LFE274-.LFB274
 12812 0188 00000000 		.4byte	.LFB279
 12813 018c 1C000000 		.4byte	.LFE279-.LFB279
 12814 0190 00000000 		.4byte	.LFB275
 12815 0194 48000000 		.4byte	.LFE275-.LFB275
 12816 0198 00000000 		.4byte	.LFB276
 12817 019c 70010000 		.4byte	.LFE276-.LFB276
 12818 01a0 00000000 		.4byte	.LFB277
 12819 01a4 4C000000 		.4byte	.LFE277-.LFB277
 12820 01a8 00000000 		.4byte	.LFB305
 12821 01ac 60010000 		.4byte	.LFE305-.LFB305
 12822 01b0 00000000 		.4byte	.LFB314
 12823 01b4 C8010000 		.4byte	.LFE314-.LFB314
 12824 01b8 00000000 		.4byte	.LFB258
 12825 01bc D0000000 		.4byte	.LFE258-.LFB258
 12826 01c0 00000000 		.4byte	.LFB309
 12827 01c4 60000000 		.4byte	.LFE309-.LFB309
 12828 01c8 00000000 		.4byte	.LFB306
 12829 01cc 88040000 		.4byte	.LFE306-.LFB306
 12830 01d0 00000000 		.4byte	.LFB307
 12831 01d4 1C000000 		.4byte	.LFE307-.LFB307
 12832 01d8 00000000 		.4byte	0
 12833 01dc 00000000 		.4byte	0
 12834              		.section	.debug_ranges,"",%progbits
 12835              	.Ldebug_ranges0:
 12836 0000 04000000 		.4byte	.LBB69
 12837 0004 06000000 		.4byte	.LBE69
 12838 0008 08000000 		.4byte	.LBB72
 12839 000c 26000000 		.4byte	.LBE72
 12840 0010 00000000 		.4byte	0
 12841 0014 00000000 		.4byte	0
 12842 0018 02000000 		.4byte	.LBB79
 12843 001c 0E000000 		.4byte	.LBE79
 12844 0020 12000000 		.4byte	.LBB82
 12845 0024 1C000000 		.4byte	.LBE82
 12846 0028 00000000 		.4byte	0
ARM GAS  C:\Users\euanm\AppData\Local\Temp\ccnlTGs7.s 			page 228


 12847 002c 00000000 		.4byte	0
 12848 0030 02000000 		.4byte	.LBB83
 12849 0034 0E000000 		.4byte	.LBE83
 12850 0038 12000000 		.4byte	.LBB86
 12851 003c 1C000000 		.4byte	.LBE86
 12852 0040 00000000 		.4byte	0
 12853 0044 00000000 		.4byte	0
 12854 0048 32000000 		.4byte	.LBB87
 12855 004c 0A010000 		.4byte	.LBE87
 12856 0050 14010000 		.4byte	.LBB97
 12857 0054 60010000 		.4byte	.LBE97
 12858 0058 00000000 		.4byte	0
 12859 005c 00000000 		.4byte	0
 12860 0060 00000000 		.4byte	.LBB99
 12861 0064 08000000 		.4byte	.LBE99
 12862 0068 10000000 		.4byte	.LBB102
 12863 006c 14000000 		.4byte	.LBE102
 12864 0070 00000000 		.4byte	0
 12865 0074 00000000 		.4byte	0
 12866 0078 08010000 		.4byte	.LBB103
 12867 007c 3A010000 		.4byte	.LBE103
 12868 0080 A2010000 		.4byte	.LBB104
 12869 0084 CA010000 		.4byte	.LBE104
 12870 0088 CC010000 		.4byte	.LBB105
 12871 008c D0010000 		.4byte	.LBE105
 12872 0090 D2010000 		.4byte	.LBB106
 12873 0094 D4010000 		.4byte	.LBE106
 12874 0098 84030000 		.4byte	.LBB107
 12875 009c A2030000 		.4byte	.LBE107
 12876 00a0 00000000 		.4byte	0
 12877 00a4 00000000 		.4byte	0
 12878 00a8 A8030000 		.4byte	.LBB108
 12879 00ac AA030000 		.4byte	.LBE108
 12880 00b0 AC030000 		.4byte	.LBB117
 12881 00b4 B0030000 		.4byte	.LBE117
 12882 00b8 00000000 		.4byte	0
 12883 00bc 00000000 		.4byte	0
 12884 00c0 00000000 		.4byte	.LFB310
 12885 00c4 30010000 		.4byte	.LFE310
 12886 00c8 00000000 		.4byte	.LFB312
 12887 00cc 1C000000 		.4byte	.LFE312
 12888 00d0 00000000 		.4byte	.LFB313
 12889 00d4 1C000000 		.4byte	.LFE313
 12890 00d8 00000000 		.4byte	.LFB256
 12891 00dc 68010000 		.4byte	.LFE256
 12892 00e0 00000000 		.4byte	.LFB257
 12893 00e4 08000000 		.4byte	.LFE257
 12894 00e8 00000000 		.4byte	.LFB259
 12895 00ec 20000000 		.4byte	.LFE259
 12896 00f0 00000000 		.4byte	.LFB260
 12897 00f4 0C000000 		.4byte	.LFE260
 12898 00f8 00000000 		.4byte	.LFB261
 12899 00fc 0C000000 		.4byte	.LFE261
 12900 0100 00000000 		.4byte	.LFB262
 12901 0104 0C000000 		.4byte	.LFE262
 12902 0108 00000000 		.4byte	.LFB263
 12903 010c 0C000000 		.4byte	.LFE263
ARM GAS  C:\Users\euanm\AppData\Local\Temp\ccnlTGs7.s 			page 229


 12904 0110 00000000 		.4byte	.LFB264
 12905 0114 0C000000 		.4byte	.LFE264
 12906 0118 00000000 		.4byte	.LFB265
 12907 011c 18000000 		.4byte	.LFE265
 12908 0120 00000000 		.4byte	.LFB266
 12909 0124 20000000 		.4byte	.LFE266
 12910 0128 00000000 		.4byte	.LFB271
 12911 012c 0C000000 		.4byte	.LFE271
 12912 0130 00000000 		.4byte	.LFB272
 12913 0134 0C000000 		.4byte	.LFE272
 12914 0138 00000000 		.4byte	.LFB281
 12915 013c 24000000 		.4byte	.LFE281
 12916 0140 00000000 		.4byte	.LFB282
 12917 0144 24000000 		.4byte	.LFE282
 12918 0148 00000000 		.4byte	.LFB280
 12919 014c 44000000 		.4byte	.LFE280
 12920 0150 00000000 		.4byte	.LFB283
 12921 0154 34000000 		.4byte	.LFE283
 12922 0158 00000000 		.4byte	.LFB284
 12923 015c 24000000 		.4byte	.LFE284
 12924 0160 00000000 		.4byte	.LFB285
 12925 0164 20000000 		.4byte	.LFE285
 12926 0168 00000000 		.4byte	.LFB286
 12927 016c 20000000 		.4byte	.LFE286
 12928 0170 00000000 		.4byte	.LFB287
 12929 0174 24000000 		.4byte	.LFE287
 12930 0178 00000000 		.4byte	.LFB288
 12931 017c 20000000 		.4byte	.LFE288
 12932 0180 00000000 		.4byte	.LFB289
 12933 0184 24000000 		.4byte	.LFE289
 12934 0188 00000000 		.4byte	.LFB290
 12935 018c 24000000 		.4byte	.LFE290
 12936 0190 00000000 		.4byte	.LFB291
 12937 0194 24000000 		.4byte	.LFE291
 12938 0198 00000000 		.4byte	.LFB292
 12939 019c 24000000 		.4byte	.LFE292
 12940 01a0 00000000 		.4byte	.LFB293
 12941 01a4 24000000 		.4byte	.LFE293
 12942 01a8 00000000 		.4byte	.LFB294
 12943 01ac 24000000 		.4byte	.LFE294
 12944 01b0 00000000 		.4byte	.LFB295
 12945 01b4 20000000 		.4byte	.LFE295
 12946 01b8 00000000 		.4byte	.LFB296
 12947 01bc 20000000 		.4byte	.LFE296
 12948 01c0 00000000 		.4byte	.LFB297
 12949 01c4 24000000 		.4byte	.LFE297
 12950 01c8 00000000 		.4byte	.LFB298
 12951 01cc 20000000 		.4byte	.LFE298
 12952 01d0 00000000 		.4byte	.LFB299
 12953 01d4 20000000 		.4byte	.LFE299
 12954 01d8 00000000 		.4byte	.LFB300
 12955 01dc 0C000000 		.4byte	.LFE300
 12956 01e0 00000000 		.4byte	.LFB301
 12957 01e4 24000000 		.4byte	.LFE301
 12958 01e8 00000000 		.4byte	.LFB302
 12959 01ec 0C000000 		.4byte	.LFE302
 12960 01f0 00000000 		.4byte	.LFB303
ARM GAS  C:\Users\euanm\AppData\Local\Temp\ccnlTGs7.s 			page 230


 12961 01f4 48000000 		.4byte	.LFE303
 12962 01f8 00000000 		.4byte	.LFB304
 12963 01fc 40000000 		.4byte	.LFE304
 12964 0200 00000000 		.4byte	.LFB267
 12965 0204 26000000 		.4byte	.LFE267
 12966 0208 00000000 		.4byte	.LFB278
 12967 020c 1C000000 		.4byte	.LFE278
 12968 0210 00000000 		.4byte	.LFB268
 12969 0214 48000000 		.4byte	.LFE268
 12970 0218 00000000 		.4byte	.LFB269
 12971 021c 48000000 		.4byte	.LFE269
 12972 0220 00000000 		.4byte	.LFB270
 12973 0224 50000000 		.4byte	.LFE270
 12974 0228 00000000 		.4byte	.LFB273
 12975 022c 54000000 		.4byte	.LFE273
 12976 0230 00000000 		.4byte	.LFB274
 12977 0234 26000000 		.4byte	.LFE274
 12978 0238 00000000 		.4byte	.LFB279
 12979 023c 1C000000 		.4byte	.LFE279
 12980 0240 00000000 		.4byte	.LFB275
 12981 0244 48000000 		.4byte	.LFE275
 12982 0248 00000000 		.4byte	.LFB276
 12983 024c 70010000 		.4byte	.LFE276
 12984 0250 00000000 		.4byte	.LFB277
 12985 0254 4C000000 		.4byte	.LFE277
 12986 0258 00000000 		.4byte	.LFB305
 12987 025c 60010000 		.4byte	.LFE305
 12988 0260 00000000 		.4byte	.LFB314
 12989 0264 C8010000 		.4byte	.LFE314
 12990 0268 00000000 		.4byte	.LFB258
 12991 026c D0000000 		.4byte	.LFE258
 12992 0270 00000000 		.4byte	.LFB309
 12993 0274 60000000 		.4byte	.LFE309
 12994 0278 00000000 		.4byte	.LFB306
 12995 027c 88040000 		.4byte	.LFE306
 12996 0280 00000000 		.4byte	.LFB307
 12997 0284 1C000000 		.4byte	.LFE307
 12998 0288 00000000 		.4byte	0
 12999 028c 00000000 		.4byte	0
 13000              		.section	.debug_line,"",%progbits
 13001              	.Ldebug_line0:
 13002 0000 420C0000 		.section	.debug_str,"MS",%progbits,1
 13002      0200CE03 
 13002      00000201 
 13002      FB0E0D00 
 13002      01010101 
 13003              	.LASF105:
 13004 0000 706F7274 		.ascii	"port_intctx\000"
 13004      5F696E74 
 13004      63747800 
 13005              	.LASF178:
 13006 000c 6C5F6D61 		.ascii	"l_max_erpm_fbrake\000"
 13006      785F6572 
 13006      706D5F66 
 13006      6272616B 
 13006      6500
 13007              	.LASF173:
ARM GAS  C:\Users\euanm\AppData\Local\Temp\ccnlTGs7.s 			page 231


 13008 001e 6C5F6162 		.ascii	"l_abs_current_max\000"
 13008      735F6375 
 13008      7272656E 
 13008      745F6D61 
 13008      7800
 13009              	.LASF385:
 13010 0030 6D5F706F 		.ascii	"m_position_set\000"
 13010      73697469 
 13010      6F6E5F73 
 13010      657400
 13011              	.LASF286:
 13012 003f 5F5F6675 		.ascii	"__func__\000"
 13012      6E635F5F 
 13012      00
 13013              	.LASF440:
 13014 0048 6D637077 		.ascii	"mcpwm_get_tot_current_filtered\000"
 13014      6D5F6765 
 13014      745F746F 
 13014      745F6375 
 13014      7272656E 
 13015              	.LASF31:
 13016 0067 6D73675F 		.ascii	"msg_t\000"
 13016      7400
 13017              	.LASF83:
 13018 006d 63685F73 		.ascii	"ch_system_t\000"
 13018      79737465 
 13018      6D5F7400 
 13019              	.LASF3:
 13020 0079 5F5F7569 		.ascii	"__uint8_t\000"
 13020      6E74385F 
 13020      7400
 13021              	.LASF112:
 13022 0083 77747365 		.ascii	"wtsemp\000"
 13022      6D7000
 13023              	.LASF247:
 13024 008a 5F426F6F 		.ascii	"_Bool\000"
 13024      6C00
 13025              	.LASF435:
 13026 0090 6D637077 		.ascii	"mcpwm_foc_get_rpm\000"
 13026      6D5F666F 
 13026      635F6765 
 13026      745F7270 
 13026      6D00
 13027              	.LASF306:
 13028 00a2 6D635F69 		.ascii	"mc_interface_dccal_done\000"
 13028      6E746572 
 13028      66616365 
 13028      5F646363 
 13028      616C5F64 
 13029              	.LASF365:
 13030 00ba 6162735F 		.ascii	"abs_current_filtered\000"
 13030      63757272 
 13030      656E745F 
 13030      66696C74 
 13030      65726564 
 13031              	.LASF79:
 13032 00cf 76745F73 		.ascii	"vt_systime\000"
ARM GAS  C:\Users\euanm\AppData\Local\Temp\ccnlTGs7.s 			page 232


 13032      79737469 
 13032      6D6500
 13033              	.LASF121:
 13034 00da 6D5F6E65 		.ascii	"m_next\000"
 13034      787400
 13035              	.LASF184:
 13036 00e1 6C5F736C 		.ascii	"l_slow_abs_current\000"
 13036      6F775F61 
 13036      62735F63 
 13036      75727265 
 13036      6E7400
 13037              	.LASF172:
 13038 00f4 6C5F696E 		.ascii	"l_in_current_min\000"
 13038      5F637572 
 13038      72656E74 
 13038      5F6D696E 
 13038      00
 13039              	.LASF99:
 13040 0105 42445452 		.ascii	"BDTR\000"
 13040      00
 13041              	.LASF20:
 13042 010a 75696E74 		.ascii	"uint16_t\000"
 13042      31365F74 
 13042      00
 13043              	.LASF451:
 13044 0113 6D637077 		.ascii	"mcpwm_foc_get_tachometer_abs_value\000"
 13044      6D5F666F 
 13044      635F6765 
 13044      745F7461 
 13044      63686F6D 
 13045              	.LASF460:
 13046 0136 6D637077 		.ascii	"mcpwm_set_duty_noramp\000"
 13046      6D5F7365 
 13046      745F6475 
 13046      74795F6E 
 13046      6F72616D 
 13047              	.LASF457:
 13048 014c 6D637077 		.ascii	"mcpwm_get_comm_step\000"
 13048      6D5F6765 
 13048      745F636F 
 13048      6D6D5F73 
 13048      74657000 
 13049              	.LASF237:
 13050 0160 63635F73 		.ascii	"cc_startup_boost_duty\000"
 13050      74617274 
 13050      75705F62 
 13050      6F6F7374 
 13050      5F647574 
 13051              	.LASF464:
 13052 0176 6D637077 		.ascii	"mcpwm_set_pid_speed_with_cruise_status\000"
 13052      6D5F7365 
 13052      745F7069 
 13052      645F7370 
 13052      6565645F 
 13053              	.LASF60:
 13054 019d 63685F74 		.ascii	"ch_threads_queue\000"
 13054      68726561 
ARM GAS  C:\Users\euanm\AppData\Local\Temp\ccnlTGs7.s 			page 233


 13054      64735F71 
 13054      75657565 
 13054      00
 13055              	.LASF176:
 13056 01ae 6C5F6D69 		.ascii	"l_min_erpm\000"
 13056      6E5F6572 
 13056      706D00
 13057              	.LASF315:
 13058 01b9 61637475 		.ascii	"actual_duty\000"
 13058      616C5F64 
 13058      75747900 
 13059              	.LASF40:
 13060 01c5 705F6E65 		.ascii	"p_newer\000"
 13060      77657200 
 13061              	.LASF302:
 13062 01cd 6D635F69 		.ascii	"mc_interface_unlock\000"
 13062      6E746572 
 13062      66616365 
 13062      5F756E6C 
 13062      6F636B00 
 13063              	.LASF421:
 13064 01e1 6D637077 		.ascii	"mcpwm_foc_init\000"
 13064      6D5F666F 
 13064      635F696E 
 13064      697400
 13065              	.LASF209:
 13066 01f0 666F635F 		.ascii	"foc_encoder_offset\000"
 13066      656E636F 
 13066      6465725F 
 13066      6F666673 
 13066      657400
 13067              	.LASF324:
 13068 0203 6D635F69 		.ascii	"mc_interface_get_tot_current_directional\000"
 13068      6E746572 
 13068      66616365 
 13068      5F676574 
 13068      5F746F74 
 13069              	.LASF446:
 13070 022c 6D637077 		.ascii	"mcpwm_get_tot_current_in\000"
 13070      6D5F6765 
 13070      745F746F 
 13070      745F6375 
 13070      7272656E 
 13071              	.LASF125:
 13072 0245 4D435F53 		.ascii	"MC_STATE_DETECTING\000"
 13072      54415445 
 13072      5F444554 
 13072      45435449 
 13072      4E4700
 13073              	.LASF362:
 13074 0258 77726F6E 		.ascii	"wrong_voltage_iterations\000"
 13074      675F766F 
 13074      6C746167 
 13074      655F6974 
 13074      65726174 
 13075              	.LASF187:
 13076 0271 6C5F7465 		.ascii	"l_temp_fet_end\000"
ARM GAS  C:\Users\euanm\AppData\Local\Temp\ccnlTGs7.s 			page 234


 13076      6D705F66 
 13076      65745F65 
 13076      6E6400
 13077              	.LASF243:
 13078 0280 6D5F6475 		.ascii	"m_duty_ramp_step_rpm_lim\000"
 13078      74795F72 
 13078      616D705F 
 13078      73746570 
 13078      5F72706D 
 13079              	.LASF264:
 13080 0299 4F545950 		.ascii	"OTYPER\000"
 13080      455200
 13081              	.LASF285:
 13082 02a0 63685379 		.ascii	"chSysUnlock\000"
 13082      73556E6C 
 13082      6F636B00 
 13083              	.LASF429:
 13084 02ac 6D637077 		.ascii	"mcpwm_foc_get_duty_cycle_set\000"
 13084      6D5F666F 
 13084      635F6765 
 13084      745F6475 
 13084      74795F63 
 13085              	.LASF359:
 13086 02c9 74696D65 		.ascii	"timer_thread\000"
 13086      725F7468 
 13086      72656164 
 13086      00
 13087              	.LASF35:
 13088 02d6 74687265 		.ascii	"thread_t\000"
 13088      61645F74 
 13088      00
 13089              	.LASF78:
 13090 02df 63685F76 		.ascii	"ch_virtual_timers_list\000"
 13090      69727475 
 13090      616C5F74 
 13090      696D6572 
 13090      735F6C69 
 13091              	.LASF21:
 13092 02f6 696E7433 		.ascii	"int32_t\000"
 13092      325F7400 
 13093              	.LASF34:
 13094 02fe 73797374 		.ascii	"systime_t\000"
 13094      696D655F 
 13094      7400
 13095              	.LASF400:
 13096 0308 6D5F7361 		.ascii	"m_sample_at_start\000"
 13096      6D706C65 
 13096      5F61745F 
 13096      73746172 
 13096      7400
 13097              	.LASF158:
 13098 031a 4641554C 		.ascii	"FAULT_CODE_OVER_TEMP_FET\000"
 13098      545F434F 
 13098      44455F4F 
 13098      5645525F 
 13098      54454D50 
 13099              	.LASF366:
ARM GAS  C:\Users\euanm\AppData\Local\Temp\ccnlTGs7.s 			page 235


 13100 0333 665F7361 		.ascii	"f_samp\000"
 13100      6D7000
 13101              	.LASF127:
 13102 033a 4D435F53 		.ascii	"MC_STATE_FULL_BRAKE\000"
 13102      54415445 
 13102      5F46554C 
 13102      4C5F4252 
 13102      414B4500 
 13103              	.LASF136:
 13104 034e 50574D5F 		.ascii	"PWM_MODE_BIPOLAR\000"
 13104      4D4F4445 
 13104      5F424950 
 13104      4F4C4152 
 13104      00
 13105              	.LASF137:
 13106 035f 6D635F70 		.ascii	"mc_pwm_mode\000"
 13106      776D5F6D 
 13106      6F646500 
 13107              	.LASF455:
 13108 036b 6D637077 		.ascii	"mcpwm_foc_get_pid_pos_now\000"
 13108      6D5F666F 
 13108      635F6765 
 13108      745F7069 
 13108      645F706F 
 13109              	.LASF404:
 13110 0385 74696D65 		.ascii	"timer_thread_wa\000"
 13110      725F7468 
 13110      72656164 
 13110      5F776100 
 13111              	.LASF487:
 13112 0395 63684576 		.ascii	"chEvtSignalI\000"
 13112      74536967 
 13112      6E616C49 
 13112      00
 13113              	.LASF86:
 13114 03a2 76746C69 		.ascii	"vtlist\000"
 13114      737400
 13115              	.LASF48:
 13116 03a9 705F7761 		.ascii	"p_waiting\000"
 13116      6974696E 
 13116      6700
 13117              	.LASF296:
 13118 03b3 696E6465 		.ascii	"index\000"
 13118      7800
 13119              	.LASF85:
 13120 03b9 726C6973 		.ascii	"rlist\000"
 13120      7400
 13121              	.LASF56:
 13122 03bf 74687265 		.ascii	"threads_list_t\000"
 13122      6164735F 
 13122      6C697374 
 13122      5F7400
 13123              	.LASF197:
 13124 03ce 736C5F6D 		.ascii	"sl_min_erpm_cycle_int_limit\000"
 13124      696E5F65 
 13124      72706D5F 
 13124      6379636C 
ARM GAS  C:\Users\euanm\AppData\Local\Temp\ccnlTGs7.s 			page 236


 13124      655F696E 
 13125              	.LASF492:
 13126 03ea 633A5C75 		.ascii	"c:\\users\\euanm\\Downloads\\A450S\000"
 13126      73657273 
 13126      5C657561 
 13126      6E6D5C44 
 13126      6F776E6C 
 13127              	.LASF206:
 13128 0409 666F635F 		.ascii	"foc_current_ki\000"
 13128      63757272 
 13128      656E745F 
 13128      6B6900
 13129              	.LASF205:
 13130 0418 666F635F 		.ascii	"foc_current_kp\000"
 13130      63757272 
 13130      656E745F 
 13130      6B7000
 13131              	.LASF393:
 13132 0427 6D5F7374 		.ascii	"m_status_samples\000"
 13132      61747573 
 13132      5F73616D 
 13132      706C6573 
 13132      00
 13133              	.LASF495:
 13134 0438 6D656D63 		.ascii	"memcpy\000"
 13134      707900
 13135              	.LASF287:
 13136 043f 63685379 		.ascii	"chSysLock\000"
 13136      734C6F63 
 13136      6B00
 13137              	.LASF355:
 13138 0449 63757272 		.ascii	"current_samp\000"
 13138      656E745F 
 13138      73616D70 
 13138      00
 13139              	.LASF354:
 13140 0456 76616C5F 		.ascii	"val_samp\000"
 13140      73616D70 
 13140      00
 13141              	.LASF478:
 13142 045f 6D637077 		.ascii	"mcpwm_foc_set_configuration\000"
 13142      6D5F666F 
 13142      635F7365 
 13142      745F636F 
 13142      6E666967 
 13143              	.LASF30:
 13144 047b 74707269 		.ascii	"tprio_t\000"
 13144      6F5F7400 
 13145              	.LASF450:
 13146 0483 6D637077 		.ascii	"mcpwm_get_tachometer_value\000"
 13146      6D5F6765 
 13146      745F7461 
 13146      63686F6D 
 13146      65746572 
 13147              	.LASF444:
 13148 049e 6D637077 		.ascii	"mcpwm_get_tot_current_directional_filtered\000"
 13148      6D5F6765 
ARM GAS  C:\Users\euanm\AppData\Local\Temp\ccnlTGs7.s 			page 237


 13148      745F746F 
 13148      745F6375 
 13148      7272656E 
 13149              	.LASF327:
 13150 04c9 6D635F69 		.ascii	"mc_interface_get_tot_current_in_filtered\000"
 13150      6E746572 
 13150      66616365 
 13150      5F676574 
 13150      5F746F74 
 13151              	.LASF294:
 13152 04f2 6D617863 		.ascii	"maxc\000"
 13152      00
 13153              	.LASF94:
 13154 04f7 43434552 		.ascii	"CCER\000"
 13154      00
 13155              	.LASF146:
 13156 04fc 464F435F 		.ascii	"FOC_SENSOR_MODE_ENCODER\000"
 13156      53454E53 
 13156      4F525F4D 
 13156      4F44455F 
 13156      454E434F 
 13157              	.LASF372:
 13158 0514 6D5F6661 		.ascii	"m_fault_now\000"
 13158      756C745F 
 13158      6E6F7700 
 13159              	.LASF423:
 13160 0520 6D637077 		.ascii	"mcpwm_init\000"
 13160      6D5F696E 
 13160      697400
 13161              	.LASF5:
 13162 052b 5F5F696E 		.ascii	"__int16_t\000"
 13162      7431365F 
 13162      7400
 13163              	.LASF7:
 13164 0535 5F5F7569 		.ascii	"__uint16_t\000"
 13164      6E743136 
 13164      5F7400
 13165              	.LASF50:
 13166 0540 705F6D73 		.ascii	"p_msg\000"
 13166      6700
 13167              	.LASF241:
 13168 0546 6D5F6661 		.ascii	"m_fault_stop_time_ms\000"
 13168      756C745F 
 13168      73746F70 
 13168      5F74696D 
 13168      655F6D73 
 13169              	.LASF343:
 13170 055b 6D635F69 		.ascii	"mc_interface_set_pid_speed\000"
 13170      6E746572 
 13170      66616365 
 13170      5F736574 
 13170      5F706964 
 13171              	.LASF376:
 13172 0576 6D5F6C6F 		.ascii	"m_lock_override_once\000"
 13172      636B5F6F 
 13172      76657272 
 13172      6964655F 
ARM GAS  C:\Users\euanm\AppData\Local\Temp\ccnlTGs7.s 			page 238


 13172      6F6E6365 
 13173              	.LASF292:
 13174 058b 74656D70 		.ascii	"temp\000"
 13174      00
 13175              	.LASF363:
 13176 0590 63757272 		.ascii	"current_in\000"
 13176      656E745F 
 13176      696E00
 13177              	.LASF230:
 13178 059b 735F7069 		.ascii	"s_pid_kd\000"
 13178      645F6B64 
 13178      00
 13179              	.LASF428:
 13180 05a4 6D637077 		.ascii	"mcpwm_get_state\000"
 13180      6D5F6765 
 13180      745F7374 
 13180      61746500 
 13181              	.LASF383:
 13182 05b4 6D5F7761 		.ascii	"m_watt_seconds\000"
 13182      74745F73 
 13182      65636F6E 
 13182      647300
 13183              	.LASF432:
 13184 05c3 6D637077 		.ascii	"mcpwm_get_duty_cycle_now\000"
 13184      6D5F6765 
 13184      745F6475 
 13184      74795F63 
 13184      79636C65 
 13185              	.LASF384:
 13186 05dc 6D5F7761 		.ascii	"m_watt_seconds_charged\000"
 13186      74745F73 
 13186      65636F6E 
 13186      64735F63 
 13186      68617267 
 13187              	.LASF212:
 13188 05f3 666F635F 		.ascii	"foc_motor_l\000"
 13188      6D6F746F 
 13188      725F6C00 
 13189              	.LASF131:
 13190 05ff 43525549 		.ascii	"CRUISE_CONTROL_BRAKING_ENABLED\000"
 13190      53455F43 
 13190      4F4E5452 
 13190      4F4C5F42 
 13190      52414B49 
 13191              	.LASF213:
 13192 061e 666F635F 		.ascii	"foc_motor_r\000"
 13192      6D6F746F 
 13192      725F7200 
 13193              	.LASF103:
 13194 062a 73746B61 		.ascii	"stkalign_t\000"
 13194      6C69676E 
 13194      5F7400
 13195              	.LASF73:
 13196 0635 76745F70 		.ascii	"vt_prev\000"
 13196      72657600 
 13197              	.LASF420:
 13198 063d 63685468 		.ascii	"chThdCreateStatic\000"
ARM GAS  C:\Users\euanm\AppData\Local\Temp\ccnlTGs7.s 			page 239


 13198      64437265 
 13198      61746553 
 13198      74617469 
 13198      6300
 13199              	.LASF4:
 13200 064f 756E7369 		.ascii	"unsigned char\000"
 13200      676E6564 
 13200      20636861 
 13200      7200
 13201              	.LASF484:
 13202 065d 6C656470 		.ascii	"ledpwm_update_pwm\000"
 13202      776D5F75 
 13202      70646174 
 13202      655F7077 
 13202      6D00
 13203              	.LASF231:
 13204 066f 735F7069 		.ascii	"s_pid_min_erpm\000"
 13204      645F6D69 
 13204      6E5F6572 
 13204      706D00
 13205              	.LASF117:
 13206 067e 735F636E 		.ascii	"s_cnt\000"
 13206      7400
 13207              	.LASF61:
 13208 0684 72656164 		.ascii	"ready_list_t\000"
 13208      795F6C69 
 13208      73745F74 
 13208      00
 13209              	.LASF57:
 13210 0691 63685F74 		.ascii	"ch_thread\000"
 13210      68726561 
 13210      6400
 13211              	.LASF0:
 13212 069b 666C6F61 		.ascii	"float\000"
 13212      7400
 13213              	.LASF207:
 13214 06a1 666F635F 		.ascii	"foc_f_sw\000"
 13214      665F7377 
 13214      00
 13215              	.LASF441:
 13216 06aa 6D637077 		.ascii	"mcpwm_foc_get_tot_current_directional\000"
 13216      6D5F666F 
 13216      635F6765 
 13216      745F746F 
 13216      745F6375 
 13217              	.LASF326:
 13218 06d0 6D635F69 		.ascii	"mc_interface_get_tot_current_in\000"
 13218      6E746572 
 13218      66616365 
 13218      5F676574 
 13218      5F746F74 
 13219              	.LASF80:
 13220 06f0 73797374 		.ascii	"system_debug_t\000"
 13220      656D5F64 
 13220      65627567 
 13220      5F7400
 13221              	.LASF186:
ARM GAS  C:\Users\euanm\AppData\Local\Temp\ccnlTGs7.s 			page 240


 13222 06ff 6C5F7465 		.ascii	"l_temp_fet_start\000"
 13222      6D705F66 
 13222      65745F73 
 13222      74617274 
 13222      00
 13223              	.LASF91:
 13224 0710 44494552 		.ascii	"DIER\000"
 13224      00
 13225              	.LASF39:
 13226 0715 705F6374 		.ascii	"p_ctx\000"
 13226      7800
 13227              	.LASF76:
 13228 071b 76745F70 		.ascii	"vt_par\000"
 13228      617200
 13229              	.LASF299:
 13230 0722 6D635F69 		.ascii	"mc_interface_set_pwm_callback\000"
 13230      6E746572 
 13230      66616365 
 13230      5F736574 
 13230      5F70776D 
 13231              	.LASF68:
 13232 0740 725F6375 		.ascii	"r_current\000"
 13232      7272656E 
 13232      7400
 13233              	.LASF166:
 13234 074a 636F6D6D 		.ascii	"comm_mode\000"
 13234      5F6D6F64 
 13234      6500
 13235              	.LASF373:
 13236 0754 6D5F6967 		.ascii	"m_ignore_iterations\000"
 13236      6E6F7265 
 13236      5F697465 
 13236      72617469 
 13236      6F6E7300 
 13237              	.LASF419:
 13238 0768 6D637077 		.ascii	"mcpwm_set_current\000"
 13238      6D5F7365 
 13238      745F6375 
 13238      7272656E 
 13238      7400
 13239              	.LASF185:
 13240 077a 6C5F7270 		.ascii	"l_rpm_lim_neg_torque\000"
 13240      6D5F6C69 
 13240      6D5F6E65 
 13240      675F746F 
 13240      72717565 
 13241              	.LASF157:
 13242 078f 4641554C 		.ascii	"FAULT_CODE_ABS_OVER_CURRENT\000"
 13242      545F434F 
 13242      44455F41 
 13242      42535F4F 
 13242      5645525F 
 13243              	.LASF215:
 13244 07ab 666F635F 		.ascii	"foc_observer_gain\000"
 13244      6F627365 
 13244      72766572 
 13244      5F676169 
ARM GAS  C:\Users\euanm\AppData\Local\Temp\ccnlTGs7.s 			page 241


 13244      6E00
 13245              	.LASF397:
 13246 07bd 6D5F7361 		.ascii	"m_sample_int\000"
 13246      6D706C65 
 13246      5F696E74 
 13246      00
 13247              	.LASF23:
 13248 07ca 75696E74 		.ascii	"uint64_t\000"
 13248      36345F74 
 13248      00
 13249              	.LASF307:
 13250 07d3 6D635F69 		.ascii	"mc_interface_fault_to_string\000"
 13250      6E746572 
 13250      66616365 
 13250      5F666175 
 13250      6C745F74 
 13251              	.LASF331:
 13252 07f0 6D635F69 		.ascii	"mc_interface_read_reset_avg_motor_current\000"
 13252      6E746572 
 13252      66616365 
 13252      5F726561 
 13252      645F7265 
 13253              	.LASF118:
 13254 081a 63685F6D 		.ascii	"ch_mutex\000"
 13254      75746578 
 13254      00
 13255              	.LASF310:
 13256 0823 6D635F69 		.ascii	"mc_interface_set_cruise_control_status\000"
 13256      6E746572 
 13256      66616365 
 13256      5F736574 
 13256      5F637275 
 13257              	.LASF349:
 13258 084a 6D635F69 		.ascii	"mc_interface_set_servo\000"
 13258      6E746572 
 13258      66616365 
 13258      5F736574 
 13258      5F736572 
 13259              	.LASF280:
 13260 0861 76616C75 		.ascii	"value\000"
 13260      6500
 13261              	.LASF142:
 13262 0867 53454E53 		.ascii	"SENSOR_MODE_SENSORED\000"
 13262      4F525F4D 
 13262      4F44455F 
 13262      53454E53 
 13262      4F524544 
 13263              	.LASF389:
 13264 087c 6D5F7068 		.ascii	"m_ph1_samples\000"
 13264      315F7361 
 13264      6D706C65 
 13264      7300
 13265              	.LASF390:
 13266 088a 6D5F7068 		.ascii	"m_ph2_samples\000"
 13266      325F7361 
 13266      6D706C65 
 13266      7300
ARM GAS  C:\Users\euanm\AppData\Local\Temp\ccnlTGs7.s 			page 242


 13267              	.LASF474:
 13268 0898 6D637077 		.ascii	"mcpwm_foc_get_abs_motor_current_filtered\000"
 13268      6D5F666F 
 13268      635F6765 
 13268      745F6162 
 13268      735F6D6F 
 13269              	.LASF256:
 13270 08c1 74696D5F 		.ascii	"tim_val_samp\000"
 13270      76616C5F 
 13270      73616D70 
 13270      00
 13271              	.LASF70:
 13272 08ce 76697274 		.ascii	"virtual_timer_t\000"
 13272      75616C5F 
 13272      74696D65 
 13272      725F7400 
 13273              	.LASF65:
 13274 08de 725F6374 		.ascii	"r_ctx\000"
 13274      7800
 13275              	.LASF72:
 13276 08e4 76745F6E 		.ascii	"vt_next\000"
 13276      65787400 
 13277              	.LASF341:
 13278 08ec 6D635F69 		.ascii	"mc_interface_brake_now\000"
 13278      6E746572 
 13278      66616365 
 13278      5F627261 
 13278      6B655F6E 
 13279              	.LASF309:
 13280 0903 6D635F69 		.ascii	"mc_interface_get_cruise_control_status\000"
 13280      6E746572 
 13280      66616365 
 13280      5F676574 
 13280      5F637275 
 13281              	.LASF25:
 13282 092a 7274636E 		.ascii	"rtcnt_t\000"
 13282      745F7400 
 13283              	.LASF143:
 13284 0932 53454E53 		.ascii	"SENSOR_MODE_HYBRID\000"
 13284      4F525F4D 
 13284      4F44455F 
 13284      48594252 
 13284      494400
 13285              	.LASF192:
 13286 0945 6C6F5F63 		.ascii	"lo_current_max\000"
 13286      75727265 
 13286      6E745F6D 
 13286      617800
 13287              	.LASF210:
 13288 0954 666F635F 		.ascii	"foc_encoder_inverted\000"
 13288      656E636F 
 13288      6465725F 
 13288      696E7665 
 13288      72746564 
 13289              	.LASF238:
 13290 0969 63635F6D 		.ascii	"cc_min_current\000"
 13290      696E5F63 
ARM GAS  C:\Users\euanm\AppData\Local\Temp\ccnlTGs7.s 			page 243


 13290      75727265 
 13290      6E7400
 13291              	.LASF162:
 13292 0978 53454E53 		.ascii	"SENSOR_PORT_MODE_ABI\000"
 13292      4F525F50 
 13292      4F52545F 
 13292      4D4F4445 
 13292      5F414249 
 13293              	.LASF491:
 13294 098d 6D635F69 		.ascii	"mc_interface.c\000"
 13294      6E746572 
 13294      66616365 
 13294      2E6300
 13295              	.LASF262:
 13296 099c 636C6561 		.ascii	"clear\000"
 13296      7200
 13297              	.LASF356:
 13298 09a2 66646174 		.ascii	"fdata\000"
 13298      6100
 13299              	.LASF391:
 13300 09a8 6D5F7068 		.ascii	"m_ph3_samples\000"
 13300      335F7361 
 13300      6D706C65 
 13300      7300
 13301              	.LASF24:
 13302 09b6 73697A65 		.ascii	"size_t\000"
 13302      5F7400
 13303              	.LASF443:
 13304 09bd 6D637077 		.ascii	"mcpwm_foc_get_tot_current_directional_filtered\000"
 13304      6D5F666F 
 13304      635F6765 
 13304      745F746F 
 13304      745F6375 
 13305              	.LASF163:
 13306 09ec 53454E53 		.ascii	"SENSOR_PORT_MODE_AS5047_SPI\000"
 13306      4F525F50 
 13306      4F52545F 
 13306      4D4F4445 
 13306      5F415335 
 13307              	.LASF18:
 13308 0a08 75696E74 		.ascii	"uint8_t\000"
 13308      385F7400 
 13309              	.LASF322:
 13310 0a10 6D635F69 		.ascii	"mc_interface_get_tot_current\000"
 13310      6E746572 
 13310      66616365 
 13310      5F676574 
 13310      5F746F74 
 13311              	.LASF67:
 13312 0a2d 725F6F6C 		.ascii	"r_older\000"
 13312      64657200 
 13313              	.LASF37:
 13314 0a35 705F7072 		.ascii	"p_prev\000"
 13314      657600
 13315              	.LASF181:
 13316 0a3c 6C5F6D61 		.ascii	"l_max_vin\000"
 13316      785F7669 
ARM GAS  C:\Users\euanm\AppData\Local\Temp\ccnlTGs7.s 			page 244


 13316      6E00
 13317              	.LASF109:
 13318 0a46 65786974 		.ascii	"exitcode\000"
 13318      636F6465 
 13318      00
 13319              	.LASF447:
 13320 0a4f 6D637077 		.ascii	"mcpwm_foc_get_tot_current_in_filtered\000"
 13320      6D5F666F 
 13320      635F6765 
 13320      745F746F 
 13320      745F6375 
 13321              	.LASF332:
 13322 0a75 6D635F69 		.ascii	"mc_interface_read_reset_avg_input_current\000"
 13322      6E746572 
 13322      66616365 
 13322      5F726561 
 13322      645F7265 
 13323              	.LASF316:
 13324 0a9f 6D635F69 		.ascii	"mc_interface_get_rpm\000"
 13324      6E746572 
 13324      66616365 
 13324      5F676574 
 13324      5F72706D 
 13325              	.LASF265:
 13326 0ab4 4F535045 		.ascii	"OSPEEDR\000"
 13326      45445200 
 13327              	.LASF182:
 13328 0abc 6C5F6261 		.ascii	"l_battery_cut_start\000"
 13328      74746572 
 13328      795F6375 
 13328      745F7374 
 13328      61727400 
 13329              	.LASF461:
 13330 0ad0 6D637077 		.ascii	"mcpwm_foc_set_pid_speed\000"
 13330      6D5F666F 
 13330      635F7365 
 13330      745F7069 
 13330      645F7370 
 13331              	.LASF183:
 13332 0ae8 6C5F6261 		.ascii	"l_battery_cut_end\000"
 13332      74746572 
 13332      795F6375 
 13332      745F656E 
 13332      6400
 13333              	.LASF413:
 13334 0afa 6D637077 		.ascii	"mcpwm_vzero\000"
 13334      6D5F767A 
 13334      65726F00 
 13335              	.LASF180:
 13336 0b06 6C5F6D69 		.ascii	"l_min_vin\000"
 13336      6E5F7669 
 13336      6E00
 13337              	.LASF436:
 13338 0b10 6D637077 		.ascii	"mcpwm_get_rpm\000"
 13338      6D5F6765 
 13338      745F7270 
 13338      6D00
ARM GAS  C:\Users\euanm\AppData\Local\Temp\ccnlTGs7.s 			page 245


 13339              	.LASF439:
 13340 0b1e 6D637077 		.ascii	"mcpwm_foc_get_tot_current_filtered\000"
 13340      6D5F666F 
 13340      635F6765 
 13340      745F746F 
 13340      745F6375 
 13341              	.LASF226:
 13342 0b41 666F635F 		.ascii	"foc_hall_table\000"
 13342      68616C6C 
 13342      5F746162 
 13342      6C6500
 13343              	.LASF313:
 13344 0b50 6D635F69 		.ascii	"mc_interface_get_duty_cycle_now\000"
 13344      6E746572 
 13344      66616365 
 13344      5F676574 
 13344      5F647574 
 13345              	.LASF151:
 13346 0b70 4D4F544F 		.ascii	"MOTOR_TYPE_FOC\000"
 13346      525F5459 
 13346      50455F46 
 13346      4F4300
 13347              	.LASF196:
 13348 0b7f 736C5F6D 		.ascii	"sl_min_erpm\000"
 13348      696E5F65 
 13348      72706D00 
 13349              	.LASF95:
 13350 0b8b 43435231 		.ascii	"CCR1\000"
 13350      00
 13351              	.LASF96:
 13352 0b90 43435232 		.ascii	"CCR2\000"
 13352      00
 13353              	.LASF97:
 13354 0b95 43435233 		.ascii	"CCR3\000"
 13354      00
 13355              	.LASF98:
 13356 0b9a 43435234 		.ascii	"CCR4\000"
 13356      00
 13357              	.LASF482:
 13358 0b9f 6D637077 		.ascii	"mcpwm_deinit\000"
 13358      6D5F6465 
 13358      696E6974 
 13358      00
 13359              	.LASF246:
 13360 0bac 6D5F7365 		.ascii	"m_sensor_port_mode\000"
 13360      6E736F72 
 13360      5F706F72 
 13360      745F6D6F 
 13360      646500
 13361              	.LASF154:
 13362 0bbf 4641554C 		.ascii	"FAULT_CODE_OVER_VOLTAGE\000"
 13362      545F434F 
 13362      44455F4F 
 13362      5645525F 
 13362      564F4C54 
 13363              	.LASF244:
 13364 0bd7 6D5F6375 		.ascii	"m_current_backoff_gain\000"
ARM GAS  C:\Users\euanm\AppData\Local\Temp\ccnlTGs7.s 			page 246


 13364      7272656E 
 13364      745F6261 
 13364      636B6F66 
 13364      665F6761 
 13365              	.LASF483:
 13366 0bee 63685468 		.ascii	"chThdSleep\000"
 13366      64536C65 
 13366      657000
 13367              	.LASF271:
 13368 0bf9 73746D33 		.ascii	"stm32_gpio_t\000"
 13368      325F6770 
 13368      696F5F74 
 13368      00
 13369              	.LASF108:
 13370 0c06 7264796D 		.ascii	"rdymsg\000"
 13370      736700
 13371              	.LASF130:
 13372 0c0d 43525549 		.ascii	"CRUISE_CONTROL_BRAKING_DISABLED\000"
 13372      53455F43 
 13372      4F4E5452 
 13372      4F4C5F42 
 13372      52414B49 
 13373              	.LASF396:
 13374 0c2d 6D5F7361 		.ascii	"m_sample_len\000"
 13374      6D706C65 
 13374      5F6C656E 
 13374      00
 13375              	.LASF191:
 13376 0c3a 6C5F6D61 		.ascii	"l_max_duty\000"
 13376      785F6475 
 13376      747900
 13377              	.LASF38:
 13378 0c45 705F7072 		.ascii	"p_prio\000"
 13378      696F00
 13379              	.LASF305:
 13380 0c4c 6D635F69 		.ascii	"mc_interface_get_fault\000"
 13380      6E746572 
 13380      66616365 
 13380      5F676574 
 13380      5F666175 
 13381              	.LASF14:
 13382 0c63 5F5F7569 		.ascii	"__uint64_t\000"
 13382      6E743634 
 13382      5F7400
 13383              	.LASF468:
 13384 0c6e 6D637077 		.ascii	"mcpwm_set_brake_current\000"
 13384      6D5F7365 
 13384      745F6272 
 13384      616B655F 
 13384      63757272 
 13385              	.LASF227:
 13386 0c86 666F635F 		.ascii	"foc_sl_erpm\000"
 13386      736C5F65 
 13386      72706D00 
 13387              	.LASF301:
 13388 0c92 6D635F69 		.ascii	"mc_interface_lock\000"
 13388      6E746572 
ARM GAS  C:\Users\euanm\AppData\Local\Temp\ccnlTGs7.s 			page 247


 13388      66616365 
 13388      5F6C6F63 
 13388      6B00
 13389              	.LASF129:
 13390 0ca4 43525549 		.ascii	"CRUISE_CONTROL_MOTOR_SETTINGS\000"
 13390      53455F43 
 13390      4F4E5452 
 13390      4F4C5F4D 
 13390      4F544F52 
 13391              	.LASF434:
 13392 0cc2 6D637077 		.ascii	"mcpwm_get_switching_frequency_now\000"
 13392      6D5F6765 
 13392      745F7377 
 13392      69746368 
 13392      696E675F 
 13393              	.LASF466:
 13394 0ce4 6D637077 		.ascii	"mcpwm_set_pid_pos\000"
 13394      6D5F7365 
 13394      745F7069 
 13394      645F706F 
 13394      7300
 13395              	.LASF402:
 13396 0cf6 6D5F6C61 		.ascii	"m_last_adc_duration_sample\000"
 13396      73745F61 
 13396      64635F64 
 13396      75726174 
 13396      696F6E5F 
 13397              	.LASF188:
 13398 0d11 6C5F7465 		.ascii	"l_temp_motor_start\000"
 13398      6D705F6D 
 13398      6F746F72 
 13398      5F737461 
 13398      727400
 13399              	.LASF200:
 13400 0d24 736C5F70 		.ascii	"sl_phase_advance_at_br\000"
 13400      68617365 
 13400      5F616476 
 13400      616E6365 
 13400      5F61745F 
 13401              	.LASF36:
 13402 0d3b 705F6E65 		.ascii	"p_next\000"
 13402      787400
 13403              	.LASF239:
 13404 0d42 63635F67 		.ascii	"cc_gain\000"
 13404      61696E00 
 13405              	.LASF409:
 13406 0d4a 4144435F 		.ascii	"ADC_curr_norm_value\000"
 13406      63757272 
 13406      5F6E6F72 
 13406      6D5F7661 
 13406      6C756500 
 13407              	.LASF28:
 13408 0d5e 74726566 		.ascii	"trefs_t\000"
 13408      735F7400 
 13409              	.LASF54:
 13410 0d66 705F6D70 		.ascii	"p_mpool\000"
 13410      6F6F6C00 
ARM GAS  C:\Users\euanm\AppData\Local\Temp\ccnlTGs7.s 			page 248


 13411              	.LASF473:
 13412 0d6e 6D637077 		.ascii	"mcpwm_foc_get_abs_motor_current\000"
 13412      6D5F666F 
 13412      635F6765 
 13412      745F6162 
 13412      735F6D6F 
 13413              	.LASF165:
 13414 0d8e 70776D5F 		.ascii	"pwm_mode\000"
 13414      6D6F6465 
 13414      00
 13415              	.LASF282:
 13416 0d97 64757479 		.ascii	"dutyCycle\000"
 13416      4379636C 
 13416      6500
 13417              	.LASF427:
 13418 0da1 6D637077 		.ascii	"mcpwm_foc_get_state\000"
 13418      6D5F666F 
 13418      635F6765 
 13418      745F7374 
 13418      61746500 
 13419              	.LASF167:
 13420 0db5 6D6F746F 		.ascii	"motor_type\000"
 13420      725F7479 
 13420      706500
 13421              	.LASF193:
 13422 0dc0 6C6F5F63 		.ascii	"lo_current_min\000"
 13422      75727265 
 13422      6E745F6D 
 13422      696E00
 13423              	.LASF198:
 13424 0dcf 736C5F6D 		.ascii	"sl_max_fullbreak_current_dir_change\000"
 13424      61785F66 
 13424      756C6C62 
 13424      7265616B 
 13424      5F637572 
 13425              	.LASF479:
 13426 0df3 6D637077 		.ascii	"mcpwm_set_configuration\000"
 13426      6D5F7365 
 13426      745F636F 
 13426      6E666967 
 13426      75726174 
 13427              	.LASF26:
 13428 0e0b 746D6F64 		.ascii	"tmode_t\000"
 13428      655F7400 
 13429              	.LASF494:
 13430 0e13 6D635F69 		.ascii	"mc_interface_get_sampling_frequency_now\000"
 13430      6E746572 
 13430      66616365 
 13430      5F676574 
 13430      5F73616D 
 13431              	.LASF223:
 13432 0e3b 666F635F 		.ascii	"foc_sl_d_current_duty\000"
 13432      736C5F64 
 13432      5F637572 
 13432      72656E74 
 13432      5F647574 
 13433              	.LASF371:
ARM GAS  C:\Users\euanm\AppData\Local\Temp\ccnlTGs7.s 			page 249


 13434 0e51 6D5F636F 		.ascii	"m_conf_original\000"
 13434      6E665F6F 
 13434      72696769 
 13434      6E616C00 
 13435              	.LASF267:
 13436 0e61 42535252 		.ascii	"BSRR\000"
 13436      00
 13437              	.LASF101:
 13438 0e66 54494D5F 		.ascii	"TIM_TypeDef\000"
 13438      54797065 
 13438      44656600 
 13439              	.LASF203:
 13440 0e72 68616C6C 		.ascii	"hall_table\000"
 13440      5F746162 
 13440      6C6500
 13441              	.LASF334:
 13442 0e7d 6D635F69 		.ascii	"mc_interface_get_pid_pos_now\000"
 13442      6E746572 
 13442      66616365 
 13442      5F676574 
 13442      5F706964 
 13443              	.LASF380:
 13444 0e9a 6D5F696E 		.ascii	"m_input_current_iterations\000"
 13444      7075745F 
 13444      63757272 
 13444      656E745F 
 13444      69746572 
 13445              	.LASF335:
 13446 0eb5 6D635F69 		.ascii	"mc_interface_get_last_sample_adc_isr_duration\000"
 13446      6E746572 
 13446      66616365 
 13446      5F676574 
 13446      5F6C6173 
 13447              	.LASF174:
 13448 0ee3 7573655F 		.ascii	"use_max_watt_limit\000"
 13448      6D61785F 
 13448      77617474 
 13448      5F6C696D 
 13448      697400
 13449              	.LASF150:
 13450 0ef6 4D4F544F 		.ascii	"MOTOR_TYPE_DC\000"
 13450      525F5459 
 13450      50455F44 
 13450      4300
 13451              	.LASF475:
 13452 0f04 6D637077 		.ascii	"mcpwm_foc_stop_pwm\000"
 13452      6D5F666F 
 13452      635F7374 
 13452      6F705F70 
 13452      776D00
 13453              	.LASF126:
 13454 0f17 4D435F53 		.ascii	"MC_STATE_RUNNING\000"
 13454      54415445 
 13454      5F52554E 
 13454      4E494E47 
 13454      00
 13455              	.LASF330:
ARM GAS  C:\Users\euanm\AppData\Local\Temp\ccnlTGs7.s 			page 250


 13456 0f28 6D635F69 		.ascii	"mc_interface_get_last_inj_adc_isr_duration\000"
 13456      6E746572 
 13456      66616365 
 13456      5F676574 
 13456      5F6C6173 
 13457              	.LASF214:
 13458 0f53 666F635F 		.ascii	"foc_motor_flux_linkage\000"
 13458      6D6F746F 
 13458      725F666C 
 13458      75785F6C 
 13458      696E6B61 
 13459              	.LASF277:
 13460 0f6a 706F7274 		.ascii	"port_unlock_from_isr\000"
 13460      5F756E6C 
 13460      6F636B5F 
 13460      66726F6D 
 13460      5F697372 
 13461              	.LASF199:
 13462 0f7f 736C5F63 		.ascii	"sl_cycle_int_limit\000"
 13462      79636C65 
 13462      5F696E74 
 13462      5F6C696D 
 13462      697400
 13463              	.LASF17:
 13464 0f92 696E7438 		.ascii	"int8_t\000"
 13464      5F7400
 13465              	.LASF82:
 13466 0f99 70616E69 		.ascii	"panic_msg\000"
 13466      635F6D73 
 13466      6700
 13467              	.LASF382:
 13468 0fa3 6D5F616D 		.ascii	"m_amp_seconds_charged\000"
 13468      705F7365 
 13468      636F6E64 
 13468      735F6368 
 13468      61726765 
 13469              	.LASF66:
 13470 0fb9 725F6E65 		.ascii	"r_newer\000"
 13470      77657200 
 13471              	.LASF276:
 13472 0fc1 706F7274 		.ascii	"port_lock_from_isr\000"
 13472      5F6C6F63 
 13472      6B5F6672 
 13472      6F6D5F69 
 13472      737200
 13473              	.LASF403:
 13474 0fd4 70776E5F 		.ascii	"pwn_done_func\000"
 13474      646F6E65 
 13474      5F66756E 
 13474      6300
 13475              	.LASF29:
 13476 0fe2 74736C69 		.ascii	"tslices_t\000"
 13476      6365735F 
 13476      7400
 13477              	.LASF381:
 13478 0fec 6D5F616D 		.ascii	"m_amp_seconds\000"
 13478      705F7365 
ARM GAS  C:\Users\euanm\AppData\Local\Temp\ccnlTGs7.s 			page 251


 13478      636F6E64 
 13478      7300
 13479              	.LASF318:
 13480 0ffa 72657365 		.ascii	"reset\000"
 13480      7400
 13481              	.LASF255:
 13482 1000 6379636C 		.ascii	"cycles_running\000"
 13482      65735F72 
 13482      756E6E69 
 13482      6E6700
 13483              	.LASF344:
 13484 100f 6D635F69 		.ascii	"mc_interface_set_pid_speed_with_cruise_status\000"
 13484      6E746572 
 13484      66616365 
 13484      5F736574 
 13484      5F706964 
 13485              	.LASF459:
 13486 103d 6D637077 		.ascii	"mcpwm_foc_set_duty_noramp\000"
 13486      6D5F666F 
 13486      635F7365 
 13486      745F6475 
 13486      74795F6E 
 13487              	.LASF74:
 13488 1057 76745F64 		.ascii	"vt_delta\000"
 13488      656C7461 
 13488      00
 13489              	.LASF89:
 13490 1060 73697A65 		.ascii	"sizetype\000"
 13490      74797065 
 13490      00
 13491              	.LASF325:
 13492 1069 6D635F69 		.ascii	"mc_interface_get_tot_current_directional_filtered\000"
 13492      6E746572 
 13492      66616365 
 13492      5F676574 
 13492      5F746F74 
 13493              	.LASF132:
 13494 109b 43525549 		.ascii	"CRUISE_CONTROL_INACTIVE\000"
 13494      53455F43 
 13494      4F4E5452 
 13494      4F4C5F49 
 13494      4E414354 
 13495              	.LASF19:
 13496 10b3 696E7431 		.ascii	"int16_t\000"
 13496      365F7400 
 13497              	.LASF8:
 13498 10bb 73686F72 		.ascii	"short unsigned int\000"
 13498      7420756E 
 13498      7369676E 
 13498      65642069 
 13498      6E7400
 13499              	.LASF293:
 13500 10ce 765F696E 		.ascii	"v_in\000"
 13500      00
 13501              	.LASF1:
 13502 10d3 7369676E 		.ascii	"signed char\000"
 13502      65642063 
ARM GAS  C:\Users\euanm\AppData\Local\Temp\ccnlTGs7.s 			page 252


 13502      68617200 
 13503              	.LASF438:
 13504 10df 6D637077 		.ascii	"mcpwm_get_tot_current\000"
 13504      6D5F6765 
 13504      745F746F 
 13504      745F6375 
 13504      7272656E 
 13505              	.LASF46:
 13506 10f5 705F7072 		.ascii	"p_preempt\000"
 13506      65656D70 
 13506      7400
 13507              	.LASF177:
 13508 10ff 6C5F6D61 		.ascii	"l_max_erpm\000"
 13508      785F6572 
 13508      706D00
 13509              	.LASF47:
 13510 110a 705F7469 		.ascii	"p_time\000"
 13510      6D6500
 13511              	.LASF430:
 13512 1111 6D637077 		.ascii	"mcpwm_get_duty_cycle_set\000"
 13512      6D5F6765 
 13512      745F6475 
 13512      74795F63 
 13512      79636C65 
 13513              	.LASF250:
 13514 112a 63757272 		.ascii	"current\000"
 13514      656E7400 
 13515              	.LASF418:
 13516 1132 6D637077 		.ascii	"mcpwm_foc_set_current\000"
 13516      6D5F666F 
 13516      635F7365 
 13516      745F6375 
 13516      7272656E 
 13517              	.LASF370:
 13518 1148 6D5F636F 		.ascii	"m_conf\000"
 13518      6E6600
 13519              	.LASF311:
 13520 114f 73746174 		.ascii	"status\000"
 13520      757300
 13521              	.LASF453:
 13522 1156 6D637077 		.ascii	"mcpwm_foc_get_last_inj_adc_isr_duration\000"
 13522      6D5F666F 
 13522      635F6765 
 13522      745F6C61 
 13522      73745F69 
 13523              	.LASF374:
 13524 117e 6D5F6379 		.ascii	"m_cycles_running\000"
 13524      636C6573 
 13524      5F72756E 
 13524      6E696E67 
 13524      00
 13525              	.LASF159:
 13526 118f 4641554C 		.ascii	"FAULT_CODE_OVER_TEMP_MOTOR\000"
 13526      545F434F 
 13526      44455F4F 
 13526      5645525F 
 13526      54454D50 
ARM GAS  C:\Users\euanm\AppData\Local\Temp\ccnlTGs7.s 			page 253


 13527              	.LASF290:
 13528 11aa 75706461 		.ascii	"update_override_limits\000"
 13528      74655F6F 
 13528      76657272 
 13528      6964655F 
 13528      6C696D69 
 13529              	.LASF49:
 13530 11c1 705F6D73 		.ascii	"p_msgqueue\000"
 13530      67717565 
 13530      756500
 13531              	.LASF219:
 13532 11cc 666F635F 		.ascii	"foc_duty_dowmramp_ki\000"
 13532      64757479 
 13532      5F646F77 
 13532      6D72616D 
 13532      705F6B69 
 13533              	.LASF120:
 13534 11e1 6D5F6F77 		.ascii	"m_owner\000"
 13534      6E657200 
 13535              	.LASF218:
 13536 11e9 666F635F 		.ascii	"foc_duty_dowmramp_kp\000"
 13536      64757479 
 13536      5F646F77 
 13536      6D72616D 
 13536      705F6B70 
 13537              	.LASF339:
 13538 11fe 6D635F69 		.ascii	"mc_interface_try_input\000"
 13538      6E746572 
 13538      66616365 
 13538      5F747279 
 13538      5F696E70 
 13539              	.LASF100:
 13540 1215 444D4152 		.ascii	"DMAR\000"
 13540      00
 13541              	.LASF351:
 13542 121a 7573655F 		.ascii	"use_min_current\000"
 13542      6D696E5F 
 13542      63757272 
 13542      656E7400 
 13543              	.LASF337:
 13544 122a 61745F73 		.ascii	"at_start\000"
 13544      74617274 
 13544      00
 13545              	.LASF84:
 13546 1233 63685F73 		.ascii	"ch_system\000"
 13546      79737465 
 13546      6D00
 13547              	.LASF169:
 13548 123d 6C5F6375 		.ascii	"l_current_max\000"
 13548      7272656E 
 13548      745F6D61 
 13548      7800
 13549              	.LASF115:
 13550 124b 63685F73 		.ascii	"ch_semaphore\000"
 13550      656D6170 
 13550      686F7265 
 13550      00
ARM GAS  C:\Users\euanm\AppData\Local\Temp\ccnlTGs7.s 			page 254


 13551              	.LASF275:
 13552 1258 706F7274 		.ascii	"port_unlock\000"
 13552      5F756E6C 
 13552      6F636B00 
 13553              	.LASF59:
 13554 1264 74687265 		.ascii	"threads_queue_t\000"
 13554      6164735F 
 13554      71756575 
 13554      655F7400 
 13555              	.LASF161:
 13556 1274 53454E53 		.ascii	"SENSOR_PORT_MODE_HALL\000"
 13556      4F525F50 
 13556      4F52545F 
 13556      4D4F4445 
 13556      5F48414C 
 13557              	.LASF408:
 13558 128a 4144435F 		.ascii	"ADC_Value\000"
 13558      56616C75 
 13558      6500
 13559              	.LASF145:
 13560 1294 464F435F 		.ascii	"FOC_SENSOR_MODE_SENSORLESS\000"
 13560      53454E53 
 13560      4F525F4D 
 13560      4F44455F 
 13560      53454E53 
 13561              	.LASF45:
 13562 12af 705F7265 		.ascii	"p_refs\000"
 13562      667300
 13563              	.LASF416:
 13564 12b6 6D637077 		.ascii	"mcpwm_foc_set_duty\000"
 13564      6D5F666F 
 13564      635F7365 
 13564      745F6475 
 13564      747900
 13565              	.LASF284:
 13566 12c9 6D635F69 		.ascii	"mc_interface_set_current\000"
 13566      6E746572 
 13566      66616365 
 13566      5F736574 
 13566      5F637572 
 13567              	.LASF144:
 13568 12e2 6D635F73 		.ascii	"mc_sensor_mode\000"
 13568      656E736F 
 13568      725F6D6F 
 13568      646500
 13569              	.LASF10:
 13570 12f1 6C6F6E67 		.ascii	"long int\000"
 13570      20696E74 
 13570      00
 13571              	.LASF87:
 13572 12fa 6D61696E 		.ascii	"mainthread\000"
 13572      74687265 
 13572      616400
 13573              	.LASF119:
 13574 1305 6D5F7175 		.ascii	"m_queue\000"
 13574      65756500 
 13575              	.LASF138:
ARM GAS  C:\Users\euanm\AppData\Local\Temp\ccnlTGs7.s 			page 255


 13576 130d 434F4D4D 		.ascii	"COMM_MODE_INTEGRATE\000"
 13576      5F4D4F44 
 13576      455F494E 
 13576      54454752 
 13576      41544500 
 13577              	.LASF410:
 13578 1321 6D637077 		.ascii	"mcpwm_detect_currents\000"
 13578      6D5F6465 
 13578      74656374 
 13578      5F637572 
 13578      72656E74 
 13579              	.LASF405:
 13580 1337 73616D70 		.ascii	"sample_send_thread_wa\000"
 13580      6C655F73 
 13580      656E645F 
 13580      74687265 
 13580      61645F77 
 13581              	.LASF291:
 13582 134d 636F6E66 		.ascii	"conf\000"
 13582      00
 13583              	.LASF111:
 13584 1352 77747472 		.ascii	"wttrp\000"
 13584      7000
 13585              	.LASF104:
 13586 1358 636F6E74 		.ascii	"context\000"
 13586      65787400 
 13587              	.LASF336:
 13588 1360 6D635F69 		.ascii	"mc_interface_sample_print_data\000"
 13588      6E746572 
 13588      66616365 
 13588      5F73616D 
 13588      706C655F 
 13589              	.LASF462:
 13590 137f 6D637077 		.ascii	"mcpwm_set_pid_speed\000"
 13590      6D5F7365 
 13590      745F7069 
 13590      645F7370 
 13590      65656400 
 13591              	.LASF411:
 13592 1393 6D637077 		.ascii	"mcpwm_detect_voltages\000"
 13592      6D5F6465 
 13592      74656374 
 13592      5F766F6C 
 13592      74616765 
 13593              	.LASF323:
 13594 13a9 6D635F69 		.ascii	"mc_interface_get_tot_current_filtered\000"
 13594      6E746572 
 13594      66616365 
 13594      5F676574 
 13594      5F746F74 
 13595              	.LASF268:
 13596 13cf 4C434B52 		.ascii	"LCKR\000"
 13596      00
 13597              	.LASF211:
 13598 13d4 666F635F 		.ascii	"foc_encoder_ratio\000"
 13598      656E636F 
 13598      6465725F 
ARM GAS  C:\Users\euanm\AppData\Local\Temp\ccnlTGs7.s 			page 256


 13598      72617469 
 13598      6F00
 13599              	.LASF22:
 13600 13e6 75696E74 		.ascii	"uint32_t\000"
 13600      33325F74 
 13600      00
 13601              	.LASF470:
 13602 13ef 7574696C 		.ascii	"utils_highest_of_2\000"
 13602      735F6869 
 13602      67686573 
 13602      745F6F66 
 13602      5F3200
 13603              	.LASF469:
 13604 1402 7574696C 		.ascii	"utils_smallest_of_2\000"
 13604      735F736D 
 13604      616C6C65 
 13604      73745F6F 
 13604      665F3200 
 13605              	.LASF360:
 13606 1416 6D635F69 		.ascii	"mc_interface_mc_timer_isr\000"
 13606      6E746572 
 13606      66616365 
 13606      5F6D635F 
 13606      74696D65 
 13607              	.LASF445:
 13608 1430 6D637077 		.ascii	"mcpwm_foc_get_tot_current_in\000"
 13608      6D5F666F 
 13608      635F6765 
 13608      745F746F 
 13608      745F6375 
 13609              	.LASF274:
 13610 144d 706F7274 		.ascii	"port_lock\000"
 13610      5F6C6F63 
 13610      6B00
 13611              	.LASF273:
 13612 1457 6C6F6E67 		.ascii	"long double\000"
 13612      20646F75 
 13612      626C6500 
 13613              	.LASF102:
 13614 1463 72656761 		.ascii	"regarm_t\000"
 13614      726D5F74 
 13614      00
 13615              	.LASF32:
 13616 146c 6576656E 		.ascii	"eventmask_t\000"
 13616      746D6173 
 13616      6B5F7400 
 13617              	.LASF442:
 13618 1478 6D637077 		.ascii	"mcpwm_get_tot_current_directional\000"
 13618      6D5F6765 
 13618      745F746F 
 13618      745F6375 
 13618      7272656E 
 13619              	.LASF12:
 13620 149a 6C6F6E67 		.ascii	"long unsigned int\000"
 13620      20756E73 
 13620      69676E65 
 13620      6420696E 
ARM GAS  C:\Users\euanm\AppData\Local\Temp\ccnlTGs7.s 			page 257


 13620      7400
 13621              	.LASF240:
 13622 14ac 63635F72 		.ascii	"cc_ramp_step_max\000"
 13622      616D705F 
 13622      73746570 
 13622      5F6D6178 
 13622      00
 13623              	.LASF320:
 13624 14bd 6D635F69 		.ascii	"mc_interface_get_watt_hours\000"
 13624      6E746572 
 13624      66616365 
 13624      5F676574 
 13624      5F776174 
 13625              	.LASF235:
 13626 14d9 705F7069 		.ascii	"p_pid_kd\000"
 13626      645F6B64 
 13626      00
 13627              	.LASF234:
 13628 14e2 705F7069 		.ascii	"p_pid_ki\000"
 13628      645F6B69 
 13628      00
 13629              	.LASF233:
 13630 14eb 705F7069 		.ascii	"p_pid_kp\000"
 13630      645F6B70 
 13630      00
 13631              	.LASF328:
 13632 14f4 6D635F69 		.ascii	"mc_interface_get_tachometer_value\000"
 13632      6E746572 
 13632      66616365 
 13632      5F676574 
 13632      5F746163 
 13633              	.LASF259:
 13634 1516 636F6D6D 		.ascii	"comm_step\000"
 13634      5F737465 
 13634      7000
 13635              	.LASF135:
 13636 1520 50574D5F 		.ascii	"PWM_MODE_SYNCHRONOUS\000"
 13636      4D4F4445 
 13636      5F53594E 
 13636      4348524F 
 13636      4E4F5553 
 13637              	.LASF425:
 13638 1535 6D637077 		.ascii	"mcpwm_foc_is_dccal_done\000"
 13638      6D5F666F 
 13638      635F6973 
 13638      5F646363 
 13638      616C5F64 
 13639              	.LASF122:
 13640 154d 63686172 		.ascii	"char\000"
 13640      00
 13641              	.LASF63:
 13642 1552 725F7175 		.ascii	"r_queue\000"
 13642      65756500 
 13643              	.LASF452:
 13644 155a 6D637077 		.ascii	"mcpwm_get_tachometer_abs_value\000"
 13644      6D5F6765 
 13644      745F7461 
ARM GAS  C:\Users\euanm\AppData\Local\Temp\ccnlTGs7.s 			page 258


 13644      63686F6D 
 13644      65746572 
 13645              	.LASF202:
 13646 1579 736C5F62 		.ascii	"sl_bemf_coupling_k\000"
 13646      656D665F 
 13646      636F7570 
 13646      6C696E67 
 13646      5F6B00
 13647              	.LASF288:
 13648 158c 63685379 		.ascii	"chSysUnlockFromISR\000"
 13648      73556E6C 
 13648      6F636B46 
 13648      726F6D49 
 13648      535200
 13649              	.LASF367:
 13650 159f 63757272 		.ascii	"curr_diff_sum\000"
 13650      5F646966 
 13650      665F7375 
 13650      6D00
 13651              	.LASF485:
 13652 15ad 6D637077 		.ascii	"mcpwm_read_hall_phase\000"
 13652      6D5F7265 
 13652      61645F68 
 13652      616C6C5F 
 13652      70686173 
 13653              	.LASF472:
 13654 15c3 7465726D 		.ascii	"terminal_add_fault_data\000"
 13654      696E616C 
 13654      5F616464 
 13654      5F666175 
 13654      6C745F64 
 13655              	.LASF369:
 13656 15db 6D635F69 		.ascii	"mc_interface_adc_inj_int_handler\000"
 13656      6E746572 
 13656      66616365 
 13656      5F616463 
 13656      5F696E6A 
 13657              	.LASF377:
 13658 15fc 6D5F6D6F 		.ascii	"m_motor_current_sum\000"
 13658      746F725F 
 13658      63757272 
 13658      656E745F 
 13658      73756D00 
 13659              	.LASF128:
 13660 1610 6D635F73 		.ascii	"mc_state\000"
 13660      74617465 
 13660      00
 13661              	.LASF493:
 13662 1619 63685468 		.ascii	"chThdGetSelfX\000"
 13662      64476574 
 13662      53656C66 
 13662      5800
 13663              	.LASF480:
 13664 1627 6D637077 		.ascii	"mcpwm_foc_deinit\000"
 13664      6D5F666F 
 13664      635F6465 
 13664      696E6974 
ARM GAS  C:\Users\euanm\AppData\Local\Temp\ccnlTGs7.s 			page 259


 13664      00
 13665              	.LASF249:
 13666 1638 6661756C 		.ascii	"fault\000"
 13666      7400
 13667              	.LASF297:
 13668 163e 636F6E66 		.ascii	"configuration\000"
 13668      69677572 
 13668      6174696F 
 13668      6E00
 13669              	.LASF379:
 13670 164c 6D5F6D6F 		.ascii	"m_motor_current_iterations\000"
 13670      746F725F 
 13670      63757272 
 13670      656E745F 
 13670      69746572 
 13671              	.LASF319:
 13672 1667 6D635F69 		.ascii	"mc_interface_get_amp_hours_charged\000"
 13672      6E746572 
 13672      66616365 
 13672      5F676574 
 13672      5F616D70 
 13673              	.LASF465:
 13674 168a 6D637077 		.ascii	"mcpwm_foc_set_pid_pos\000"
 13674      6D5F666F 
 13674      635F7365 
 13674      745F7069 
 13674      645F706F 
 13675              	.LASF449:
 13676 16a0 6D637077 		.ascii	"mcpwm_foc_get_tachometer_value\000"
 13676      6D5F666F 
 13676      635F6765 
 13676      745F7461 
 13676      63686F6D 
 13677              	.LASF170:
 13678 16bf 6C5F6375 		.ascii	"l_current_min\000"
 13678      7272656E 
 13678      745F6D69 
 13678      6E00
 13679              	.LASF312:
 13680 16cd 6D635F69 		.ascii	"mc_interface_get_duty_cycle_set\000"
 13680      6E746572 
 13680      66616365 
 13680      5F676574 
 13680      5F647574 
 13681              	.LASF295:
 13682 16ed 62756666 		.ascii	"buffer\000"
 13682      657200
 13683              	.LASF254:
 13684 16f4 74616368 		.ascii	"tacho\000"
 13684      6F00
 13685              	.LASF155:
 13686 16fa 4641554C 		.ascii	"FAULT_CODE_UNDER_VOLTAGE\000"
 13686      545F434F 
 13686      44455F55 
 13686      4E444552 
 13686      5F564F4C 
 13687              	.LASF422:
ARM GAS  C:\Users\euanm\AppData\Local\Temp\ccnlTGs7.s 			page 260


 13688 1713 656E636F 		.ascii	"encoder_init_as5047p_spi\000"
 13688      6465725F 
 13688      696E6974 
 13688      5F617335 
 13688      30343770 
 13689              	.LASF456:
 13690 172c 656E636F 		.ascii	"encoder_read_deg\000"
 13690      6465725F 
 13690      72656164 
 13690      5F646567 
 13690      00
 13691              	.LASF458:
 13692 173d 6D637077 		.ascii	"mcpwm_stop_pwm\000"
 13692      6D5F7374 
 13692      6F705F70 
 13692      776D00
 13693              	.LASF33:
 13694 174c 636E745F 		.ascii	"cnt_t\000"
 13694      7400
 13695              	.LASF253:
 13696 1752 64757479 		.ascii	"duty\000"
 13696      00
 13697              	.LASF153:
 13698 1757 4641554C 		.ascii	"FAULT_CODE_NONE\000"
 13698      545F434F 
 13698      44455F4E 
 13698      4F4E4500 
 13699              	.LASF229:
 13700 1767 735F7069 		.ascii	"s_pid_ki\000"
 13700      645F6B69 
 13700      00
 13701              	.LASF204:
 13702 1770 68616C6C 		.ascii	"hall_sl_erpm\000"
 13702      5F736C5F 
 13702      6572706D 
 13702      00
 13703              	.LASF228:
 13704 177d 735F7069 		.ascii	"s_pid_kp\000"
 13704      645F6B70 
 13704      00
 13705              	.LASF270:
 13706 1786 41465248 		.ascii	"AFRH\000"
 13706      00
 13707              	.LASF352:
 13708 178b 6D635F69 		.ascii	"mc_interface_set_brake_servo\000"
 13708      6E746572 
 13708      66616365 
 13708      5F736574 
 13708      5F627261 
 13709              	.LASF269:
 13710 17a8 4146524C 		.ascii	"AFRL\000"
 13710      00
 13711              	.LASF329:
 13712 17ad 6D635F69 		.ascii	"mc_interface_get_tachometer_abs_value\000"
 13712      6E746572 
 13712      66616365 
 13712      5F676574 
ARM GAS  C:\Users\euanm\AppData\Local\Temp\ccnlTGs7.s 			page 261


 13712      5F746163 
 13713              	.LASF220:
 13714 17d3 666F635F 		.ascii	"foc_openloop_rpm\000"
 13714      6F70656E 
 13714      6C6F6F70 
 13714      5F72706D 
 13714      00
 13715              	.LASF224:
 13716 17e4 666F635F 		.ascii	"foc_sl_d_current_factor\000"
 13716      736C5F64 
 13716      5F637572 
 13716      72656E74 
 13716      5F666163 
 13717              	.LASF217:
 13718 17fc 666F635F 		.ascii	"foc_pll_ki\000"
 13718      706C6C5F 
 13718      6B6900
 13719              	.LASF386:
 13720 1807 63727569 		.ascii	"cruise_control_status\000"
 13720      73655F63 
 13720      6F6E7472 
 13720      6F6C5F73 
 13720      74617475 
 13721              	.LASF216:
 13722 181d 666F635F 		.ascii	"foc_pll_kp\000"
 13722      706C6C5F 
 13722      6B7000
 13723              	.LASF364:
 13724 1828 6162735F 		.ascii	"abs_current\000"
 13724      63757272 
 13724      656E7400 
 13725              	.LASF347:
 13726 1834 6D635F69 		.ascii	"mc_interface_release_motor\000"
 13726      6E746572 
 13726      66616365 
 13726      5F72656C 
 13726      65617365 
 13727              	.LASF69:
 13728 184f 76746675 		.ascii	"vtfunc_t\000"
 13728      6E635F74 
 13728      00
 13729              	.LASF110:
 13730 1858 77746F62 		.ascii	"wtobjp\000"
 13730      6A7000
 13731              	.LASF53:
 13732 185f 705F7265 		.ascii	"p_realprio\000"
 13732      616C7072 
 13732      696F00
 13733              	.LASF113:
 13734 186a 77746D74 		.ascii	"wtmtxp\000"
 13734      787000
 13735              	.LASF152:
 13736 1871 6D635F6D 		.ascii	"mc_motor_type\000"
 13736      6F746F72 
 13736      5F747970 
 13736      6500
 13737              	.LASF272:
ARM GAS  C:\Users\euanm\AppData\Local\Temp\ccnlTGs7.s 			page 262


 13738 187f 646F7562 		.ascii	"double\000"
 13738      6C6500
 13739              	.LASF481:
 13740 1886 656E636F 		.ascii	"encoder_set_counts\000"
 13740      6465725F 
 13740      7365745F 
 13740      636F756E 
 13740      747300
 13741              	.LASF346:
 13742 1899 6D635F69 		.ascii	"mc_interface_set_pid_pos\000"
 13742      6E746572 
 13742      66616365 
 13742      5F736574 
 13742      5F706964 
 13743              	.LASF189:
 13744 18b2 6C5F7465 		.ascii	"l_temp_motor_end\000"
 13744      6D705F6D 
 13744      6F746F72 
 13744      5F656E64 
 13744      00
 13745              	.LASF399:
 13746 18c3 6D5F7361 		.ascii	"m_sample_now\000"
 13746      6D706C65 
 13746      5F6E6F77 
 13746      00
 13747              	.LASF168:
 13748 18d0 73656E73 		.ascii	"sensor_mode\000"
 13748      6F725F6D 
 13748      6F646500 
 13749              	.LASF141:
 13750 18dc 53454E53 		.ascii	"SENSOR_MODE_SENSORLESS\000"
 13750      4F525F4D 
 13750      4F44455F 
 13750      53454E53 
 13750      4F524C45 
 13751              	.LASF62:
 13752 18f3 63685F72 		.ascii	"ch_ready_list\000"
 13752      65616479 
 13752      5F6C6973 
 13752      7400
 13753              	.LASF490:
 13754 1901 474E5520 		.ascii	"GNU C99 5.4.1 20160919 (release) [ARM/embedded-5-br"
 13754      43393920 
 13754      352E342E 
 13754      31203230 
 13754      31363039 
 13755 1934 616E6368 		.ascii	"anch revision 240496] -mcpu=cortex-m4 -mfloat-abi=h"
 13755      20726576 
 13755      6973696F 
 13755      6E203234 
 13755      30343936 
 13756 1967 61726420 		.ascii	"ard -mfpu=fpv4-sp-d16 -mno-thumb-interwork -mthumb "
 13756      2D6D6670 
 13756      753D6670 
 13756      76342D73 
 13756      702D6431 
 13757 199a 2D676764 		.ascii	"-ggdb -O2 -std=gnu99 -fomit-frame-pointer -falign-f"
ARM GAS  C:\Users\euanm\AppData\Local\Temp\ccnlTGs7.s 			page 263


 13757      62202D4F 
 13757      32202D73 
 13757      74643D67 
 13757      6E753939 
 13758 19cd 756E6374 		.ascii	"unctions=16 -ffunction-sections -fdata-sections -fn"
 13758      696F6E73 
 13758      3D313620 
 13758      2D666675 
 13758      6E637469 
 13759 1a00 6F2D636F 		.ascii	"o-common -fsingle-precision-constant\000"
 13759      6D6D6F6E 
 13759      202D6673 
 13759      696E676C 
 13759      652D7072 
 13760              	.LASF431:
 13761 1a25 6D637077 		.ascii	"mcpwm_foc_get_duty_cycle_now\000"
 13761      6D5F666F 
 13761      635F6765 
 13761      745F6475 
 13761      74795F63 
 13762              	.LASF266:
 13763 1a42 50555044 		.ascii	"PUPDR\000"
 13763      5200
 13764              	.LASF9:
 13765 1a48 5F5F696E 		.ascii	"__int32_t\000"
 13765      7433325F 
 13765      7400
 13766              	.LASF11:
 13767 1a52 5F5F7569 		.ascii	"__uint32_t\000"
 13767      6E743332 
 13767      5F7400
 13768              	.LASF81:
 13769 1a5d 63685F73 		.ascii	"ch_system_debug\000"
 13769      79737465 
 13769      6D5F6465 
 13769      62756700 
 13770              	.LASF350:
 13771 1a6d 73657276 		.ascii	"servo_val\000"
 13771      6F5F7661 
 13771      6C00
 13772              	.LASF258:
 13773 1a77 74696D5F 		.ascii	"tim_top\000"
 13773      746F7000 
 13774              	.LASF378:
 13775 1a7f 6D5F696E 		.ascii	"m_input_current_sum\000"
 13775      7075745F 
 13775      63757272 
 13775      656E745F 
 13775      73756D00 
 13776              	.LASF471:
 13777 1a93 6C6F6766 		.ascii	"logf\000"
 13777      00
 13778              	.LASF232:
 13779 1a98 735F7069 		.ascii	"s_pid_breaking_enabled\000"
 13779      645F6272 
 13779      65616B69 
 13779      6E675F65 
ARM GAS  C:\Users\euanm\AppData\Local\Temp\ccnlTGs7.s 			page 264


 13779      6E61626C 
 13780              	.LASF489:
 13781 1aaf 6D637077 		.ascii	"mcpwm_adc_inj_int_handler\000"
 13781      6D5F6164 
 13781      635F696E 
 13781      6A5F696E 
 13781      745F6861 
 13782              	.LASF123:
 13783 1ac9 6D757465 		.ascii	"mutex_t\000"
 13783      785F7400 
 13784              	.LASF333:
 13785 1ad1 6D635F69 		.ascii	"mc_interface_get_pid_pos_set\000"
 13785      6E746572 
 13785      66616365 
 13785      5F676574 
 13785      5F706964 
 13786              	.LASF51:
 13787 1aee 705F6570 		.ascii	"p_epending\000"
 13787      656E6469 
 13787      6E6700
 13788              	.LASF358:
 13789 1af9 73616D70 		.ascii	"sample_send_thread\000"
 13789      6C655F73 
 13789      656E645F 
 13789      74687265 
 13789      616400
 13790              	.LASF263:
 13791 1b0c 4D4F4445 		.ascii	"MODER\000"
 13791      5200
 13792              	.LASF221:
 13793 1b12 666F635F 		.ascii	"foc_sl_openloop_hyst\000"
 13793      736C5F6F 
 13793      70656E6C 
 13793      6F6F705F 
 13793      68797374 
 13794              	.LASF437:
 13795 1b27 6D637077 		.ascii	"mcpwm_foc_get_tot_current\000"
 13795      6D5F666F 
 13795      635F6765 
 13795      745F746F 
 13795      745F6375 
 13796              	.LASF252:
 13797 1b41 766F6C74 		.ascii	"voltage\000"
 13797      61676500 
 13798              	.LASF194:
 13799 1b49 6C6F5F69 		.ascii	"lo_in_current_max\000"
 13799      6E5F6375 
 13799      7272656E 
 13799      745F6D61 
 13799      7800
 13800              	.LASF64:
 13801 1b5b 725F7072 		.ascii	"r_prio\000"
 13801      696F00
 13802              	.LASF225:
 13803 1b62 666F635F 		.ascii	"foc_sensor_mode\000"
 13803      73656E73 
 13803      6F725F6D 
ARM GAS  C:\Users\euanm\AppData\Local\Temp\ccnlTGs7.s 			page 265


 13803      6F646500 
 13804              	.LASF407:
 13805 1b72 49544D5F 		.ascii	"ITM_RxBuffer\000"
 13805      52784275 
 13805      66666572 
 13805      00
 13806              	.LASF156:
 13807 1b7f 4641554C 		.ascii	"FAULT_CODE_DRV8302\000"
 13807      545F434F 
 13807      44455F44 
 13807      52563833 
 13807      303200
 13808              	.LASF147:
 13809 1b92 464F435F 		.ascii	"FOC_SENSOR_MODE_HALL\000"
 13809      53454E53 
 13809      4F525F4D 
 13809      4F44455F 
 13809      48414C4C 
 13810              	.LASF15:
 13811 1ba7 6C6F6E67 		.ascii	"long long unsigned int\000"
 13811      206C6F6E 
 13811      6720756E 
 13811      7369676E 
 13811      65642069 
 13812              	.LASF106:
 13813 1bbe 6F666673 		.ascii	"offset\000"
 13813      657400
 13814              	.LASF387:
 13815 1bc5 6D5F6375 		.ascii	"m_curr0_samples\000"
 13815      7272305F 
 13815      73616D70 
 13815      6C657300 
 13816              	.LASF208:
 13817 1bd5 666F635F 		.ascii	"foc_dt_us\000"
 13817      64745F75 
 13817      7300
 13818              	.LASF388:
 13819 1bdf 6D5F6375 		.ascii	"m_curr1_samples\000"
 13819      7272315F 
 13819      73616D70 
 13819      6C657300 
 13820              	.LASF279:
 13821 1bef 63685265 		.ascii	"chRegSetThreadName\000"
 13821      67536574 
 13821      54687265 
 13821      61644E61 
 13821      6D6500
 13822              	.LASF88:
 13823 1c02 69646C65 		.ascii	"idle_thread_wa\000"
 13823      5F746872 
 13823      6561645F 
 13823      776100
 13824              	.LASF75:
 13825 1c11 76745F66 		.ascii	"vt_func\000"
 13825      756E6300 
 13826              	.LASF90:
 13827 1c19 534D4352 		.ascii	"SMCR\000"
ARM GAS  C:\Users\euanm\AppData\Local\Temp\ccnlTGs7.s 			page 266


 13827      00
 13828              	.LASF348:
 13829 1c1e 6D635F69 		.ascii	"mc_interface_set_brake_current\000"
 13829      6E746572 
 13829      66616365 
 13829      5F736574 
 13829      5F627261 
 13830              	.LASF260:
 13831 1c3d 74656D70 		.ascii	"temperature\000"
 13831      65726174 
 13831      75726500 
 13832              	.LASF308:
 13833 1c49 6D635F69 		.ascii	"mc_interface_get_state\000"
 13833      6E746572 
 13833      66616365 
 13833      5F676574 
 13833      5F737461 
 13834              	.LASF71:
 13835 1c60 63685F76 		.ascii	"ch_virtual_timer\000"
 13835      69727475 
 13835      616C5F74 
 13835      696D6572 
 13835      00
 13836              	.LASF44:
 13837 1c71 705F666C 		.ascii	"p_flags\000"
 13837      61677300 
 13838              	.LASF114:
 13839 1c79 65776D61 		.ascii	"ewmask\000"
 13839      736B00
 13840              	.LASF304:
 13841 1c80 6D635F69 		.ascii	"mc_interface_get_configuration\000"
 13841      6E746572 
 13841      66616365 
 13841      5F676574 
 13841      5F636F6E 
 13842              	.LASF477:
 13843 1c9f 656E636F 		.ascii	"encoder_deinit\000"
 13843      6465725F 
 13843      6465696E 
 13843      697400
 13844              	.LASF488:
 13845 1cae 6D637077 		.ascii	"mcpwm_foc_adc_inj_int_handler\000"
 13845      6D5F666F 
 13845      635F6164 
 13845      635F696E 
 13845      6A5F696E 
 13846              	.LASF52:
 13847 1ccc 705F6D74 		.ascii	"p_mtxlist\000"
 13847      786C6973 
 13847      7400
 13848              	.LASF201:
 13849 1cd6 736C5F63 		.ascii	"sl_cycle_int_rpm_br\000"
 13849      79636C65 
 13849      5F696E74 
 13849      5F72706D 
 13849      5F627200 
 13850              	.LASF433:
ARM GAS  C:\Users\euanm\AppData\Local\Temp\ccnlTGs7.s 			page 267


 13851 1cea 6D637077 		.ascii	"mcpwm_foc_get_switching_frequency_now\000"
 13851      6D5F666F 
 13851      635F6765 
 13851      745F7377 
 13851      69746368 
 13852              	.LASF27:
 13853 1d10 74737461 		.ascii	"tstate_t\000"
 13853      74655F74 
 13853      00
 13854              	.LASF398:
 13855 1d19 6D5F7361 		.ascii	"m_sample_ready\000"
 13855      6D706C65 
 13855      5F726561 
 13855      647900
 13856              	.LASF424:
 13857 1d28 656E636F 		.ascii	"encoder_init_abi\000"
 13857      6465725F 
 13857      696E6974 
 13857      5F616269 
 13857      00
 13858              	.LASF140:
 13859 1d39 6D635F63 		.ascii	"mc_comm_mode\000"
 13859      6F6D6D5F 
 13859      6D6F6465 
 13859      00
 13860              	.LASF257:
 13861 1d46 74696D5F 		.ascii	"tim_current_samp\000"
 13861      63757272 
 13861      656E745F 
 13861      73616D70 
 13861      00
 13862              	.LASF42:
 13863 1d57 705F6E61 		.ascii	"p_name\000"
 13863      6D6500
 13864              	.LASF251:
 13865 1d5e 63757272 		.ascii	"current_filtered\000"
 13865      656E745F 
 13865      66696C74 
 13865      65726564 
 13865      00
 13866              	.LASF342:
 13867 1d6f 6D635F69 		.ascii	"mc_interface_set_duty_noramp\000"
 13867      6E746572 
 13867      66616365 
 13867      5F736574 
 13867      5F647574 
 13868              	.LASF414:
 13869 1d8c 636F6D6D 		.ascii	"commands_send_samples\000"
 13869      616E6473 
 13869      5F73656E 
 13869      645F7361 
 13869      6D706C65 
 13870              	.LASF281:
 13871 1da2 6E616D65 		.ascii	"name\000"
 13871      00
 13872              	.LASF77:
 13873 1da7 76697274 		.ascii	"virtual_timers_list_t\000"
ARM GAS  C:\Users\euanm\AppData\Local\Temp\ccnlTGs7.s 			page 268


 13873      75616C5F 
 13873      74696D65 
 13873      72735F6C 
 13873      6973745F 
 13874              	.LASF134:
 13875 1dbd 50574D5F 		.ascii	"PWM_MODE_NONSYNCHRONOUS_HISW\000"
 13875      4D4F4445 
 13875      5F4E4F4E 
 13875      53594E43 
 13875      48524F4E 
 13876              	.LASF361:
 13877 1dda 696E7075 		.ascii	"input_voltage\000"
 13877      745F766F 
 13877      6C746167 
 13877      6500
 13878              	.LASF357:
 13879 1de8 6D635F69 		.ascii	"mc_interface_set_configuration\000"
 13879      6E746572 
 13879      66616365 
 13879      5F736574 
 13879      5F636F6E 
 13880              	.LASF317:
 13881 1e07 6D635F69 		.ascii	"mc_interface_get_amp_hours\000"
 13881      6E746572 
 13881      66616365 
 13881      5F676574 
 13881      5F616D70 
 13882              	.LASF116:
 13883 1e22 735F7175 		.ascii	"s_queue\000"
 13883      65756500 
 13884              	.LASF340:
 13885 1e2a 72657476 		.ascii	"retval\000"
 13885      616C00
 13886              	.LASF345:
 13887 1e31 63727569 		.ascii	"cruise_status\000"
 13887      73655F73 
 13887      74617475 
 13887      7300
 13888              	.LASF160:
 13889 1e3f 6D635F66 		.ascii	"mc_fault_code\000"
 13889      61756C74 
 13889      5F636F64 
 13889      6500
 13890              	.LASF242:
 13891 1e4d 6D5F6475 		.ascii	"m_duty_ramp_step\000"
 13891      74795F72 
 13891      616D705F 
 13891      73746570 
 13891      00
 13892              	.LASF248:
 13893 1e5e 6D635F63 		.ascii	"mc_configuration\000"
 13893      6F6E6669 
 13893      67757261 
 13893      74696F6E 
 13893      00
 13894              	.LASF314:
 13895 1e6f 6D635F69 		.ascii	"mc_interface_get_duty_cycle_for_watt_calculation\000"
ARM GAS  C:\Users\euanm\AppData\Local\Temp\ccnlTGs7.s 			page 269


 13895      6E746572 
 13895      66616365 
 13895      5F676574 
 13895      5F647574 
 13896              	.LASF13:
 13897 1ea0 6C6F6E67 		.ascii	"long long int\000"
 13897      206C6F6E 
 13897      6720696E 
 13897      7400
 13898              	.LASF368:
 13899 1eae 63757272 		.ascii	"curr_diff_samples\000"
 13899      5F646966 
 13899      665F7361 
 13899      6D706C65 
 13899      7300
 13900              	.LASF289:
 13901 1ec0 63685379 		.ascii	"chSysLockFromISR\000"
 13901      734C6F63 
 13901      6B46726F 
 13901      6D495352 
 13901      00
 13902              	.LASF179:
 13903 1ed1 6C5F6D61 		.ascii	"l_max_erpm_fbrake_cc\000"
 13903      785F6572 
 13903      706D5F66 
 13903      6272616B 
 13903      655F6363 
 13904              	.LASF426:
 13905 1ee6 6D637077 		.ascii	"mcpwm_is_dccal_done\000"
 13905      6D5F6973 
 13905      5F646363 
 13905      616C5F64 
 13905      6F6E6500 
 13906              	.LASF476:
 13907 1efa 7574696C 		.ascii	"utils_map\000"
 13907      735F6D61 
 13907      7000
 13908              	.LASF283:
 13909 1f04 6D635F69 		.ascii	"mc_interface_set_duty\000"
 13909      6E746572 
 13909      66616365 
 13909      5F736574 
 13909      5F647574 
 13910              	.LASF124:
 13911 1f1a 4D435F53 		.ascii	"MC_STATE_OFF\000"
 13911      54415445 
 13911      5F4F4646 
 13911      00
 13912              	.LASF278:
 13913 1f27 5F5F7365 		.ascii	"__set_BASEPRI\000"
 13913      745F4241 
 13913      53455052 
 13913      4900
 13914              	.LASF467:
 13915 1f35 6D637077 		.ascii	"mcpwm_foc_set_brake_current\000"
 13915      6D5F666F 
 13915      635F7365 
ARM GAS  C:\Users\euanm\AppData\Local\Temp\ccnlTGs7.s 			page 270


 13915      745F6272 
 13915      616B655F 
 13916              	.LASF171:
 13917 1f51 6C5F696E 		.ascii	"l_in_current_max\000"
 13917      5F637572 
 13917      72656E74 
 13917      5F6D6178 
 13917      00
 13918              	.LASF395:
 13919 1f62 6D5F665F 		.ascii	"m_f_sw_samples\000"
 13919      73775F73 
 13919      616D706C 
 13919      657300
 13920              	.LASF41:
 13921 1f71 705F6F6C 		.ascii	"p_older\000"
 13921      64657200 
 13922              	.LASF448:
 13923 1f79 6D637077 		.ascii	"mcpwm_get_tot_current_in_filtered\000"
 13923      6D5F6765 
 13923      745F746F 
 13923      745F6375 
 13923      7272656E 
 13924              	.LASF55:
 13925 1f9b 74687265 		.ascii	"thread_reference_t\000"
 13925      61645F72 
 13925      65666572 
 13925      656E6365 
 13925      5F7400
 13926              	.LASF236:
 13927 1fae 705F7069 		.ascii	"p_pid_ang_div\000"
 13927      645F616E 
 13927      675F6469 
 13927      7600
 13928              	.LASF222:
 13929 1fbc 666F635F 		.ascii	"foc_sl_openloop_time\000"
 13929      736C5F6F 
 13929      70656E6C 
 13929      6F6F705F 
 13929      74696D65 
 13930              	.LASF107:
 13931 1fd1 746D5F63 		.ascii	"tm_calibration_t\000"
 13931      616C6962 
 13931      72617469 
 13931      6F6E5F74 
 13931      00
 13932              	.LASF353:
 13933 1fe2 6D635F69 		.ascii	"mc_interface_fault_stop\000"
 13933      6E746572 
 13933      66616365 
 13933      5F666175 
 13933      6C745F73 
 13934              	.LASF2:
 13935 1ffa 5F5F696E 		.ascii	"__int8_t\000"
 13935      74385F74 
 13935      00
 13936              	.LASF195:
 13937 2003 6C6F5F69 		.ascii	"lo_in_current_min\000"
ARM GAS  C:\Users\euanm\AppData\Local\Temp\ccnlTGs7.s 			page 271


 13937      6E5F6375 
 13937      7272656E 
 13937      745F6D69 
 13937      6E00
 13938              	.LASF463:
 13939 2015 6D637077 		.ascii	"mcpwm_foc_set_pid_speed_with_cruise_status\000"
 13939      6D5F666F 
 13939      635F7365 
 13939      745F7069 
 13939      645F7370 
 13940              	.LASF321:
 13941 2040 6D635F69 		.ascii	"mc_interface_get_watt_hours_charged\000"
 13941      6E746572 
 13941      66616365 
 13941      5F676574 
 13941      5F776174 
 13942              	.LASF401:
 13943 2064 6D5F7374 		.ascii	"m_start_comm\000"
 13943      6172745F 
 13943      636F6D6D 
 13943      00
 13944              	.LASF190:
 13945 2071 6C5F6D69 		.ascii	"l_min_duty\000"
 13945      6E5F6475 
 13945      747900
 13946              	.LASF164:
 13947 207c 73656E73 		.ascii	"sensor_port_mode\000"
 13947      6F725F70 
 13947      6F72745F 
 13947      6D6F6465 
 13947      00
 13948              	.LASF92:
 13949 208d 43434D52 		.ascii	"CCMR1\000"
 13949      3100
 13950              	.LASF93:
 13951 2093 43434D52 		.ascii	"CCMR2\000"
 13951      3200
 13952              	.LASF148:
 13953 2099 6D635F66 		.ascii	"mc_foc_sensor_mode\000"
 13953      6F635F73 
 13953      656E736F 
 13953      725F6D6F 
 13953      646500
 13954              	.LASF16:
 13955 20ac 756E7369 		.ascii	"unsigned int\000"
 13955      676E6564 
 13955      20696E74 
 13955      00
 13956              	.LASF415:
 13957 20b9 63684576 		.ascii	"chEvtWaitAny\000"
 13957      74576169 
 13957      74416E79 
 13957      00
 13958              	.LASF300:
 13959 20c6 705F6675 		.ascii	"p_func\000"
 13959      6E6300
 13960              	.LASF133:
ARM GAS  C:\Users\euanm\AppData\Local\Temp\ccnlTGs7.s 			page 272


 13961 20cd 70706D5F 		.ascii	"ppm_cruise\000"
 13961      63727569 
 13961      736500
 13962              	.LASF486:
 13963 20d8 6D637077 		.ascii	"mcpwm_get_last_adc_isr_duration\000"
 13963      6D5F6765 
 13963      745F6C61 
 13963      73745F61 
 13963      64635F69 
 13964              	.LASF6:
 13965 20f8 73686F72 		.ascii	"short int\000"
 13965      7420696E 
 13965      7400
 13966              	.LASF412:
 13967 2102 6D637077 		.ascii	"mcpwm_detect_currents_diff\000"
 13967      6D5F6465 
 13967      74656374 
 13967      5F637572 
 13967      72656E74 
 13968              	.LASF338:
 13969 211d 64656369 		.ascii	"decimation\000"
 13969      6D617469 
 13969      6F6E00
 13970              	.LASF417:
 13971 2128 6D637077 		.ascii	"mcpwm_set_duty\000"
 13971      6D5F7365 
 13971      745F6475 
 13971      747900
 13972              	.LASF375:
 13973 2137 6D5F6C6F 		.ascii	"m_lock_enabled\000"
 13973      636B5F65 
 13973      6E61626C 
 13973      656400
 13974              	.LASF261:
 13975 2146 6661756C 		.ascii	"fault_data\000"
 13975      745F6461 
 13975      746100
 13976              	.LASF394:
 13977 2151 6D5F6375 		.ascii	"m_curr_fir_samples\000"
 13977      72725F66 
 13977      69725F73 
 13977      616D706C 
 13977      657300
 13978              	.LASF149:
 13979 2164 4D4F544F 		.ascii	"MOTOR_TYPE_BLDC\000"
 13979      525F5459 
 13979      50455F42 
 13979      4C444300 
 13980              	.LASF298:
 13981 2174 6D635F69 		.ascii	"mc_interface_init\000"
 13981      6E746572 
 13981      66616365 
 13981      5F696E69 
 13981      7400
 13982              	.LASF303:
 13983 2186 6D635F69 		.ascii	"mc_interface_lock_override_once\000"
 13983      6E746572 
ARM GAS  C:\Users\euanm\AppData\Local\Temp\ccnlTGs7.s 			page 273


 13983      66616365 
 13983      5F6C6F63 
 13983      6B5F6F76 
 13984              	.LASF392:
 13985 21a6 6D5F767A 		.ascii	"m_vzero_samples\000"
 13985      65726F5F 
 13985      73616D70 
 13985      6C657300 
 13986              	.LASF454:
 13987 21b6 6D637077 		.ascii	"mcpwm_get_last_inj_adc_isr_duration\000"
 13987      6D5F6765 
 13987      745F6C61 
 13987      73745F69 
 13987      6E6A5F61 
 13988              	.LASF175:
 13989 21da 77617474 		.ascii	"watts_max\000"
 13989      735F6D61 
 13989      7800
 13990              	.LASF43:
 13991 21e4 705F7374 		.ascii	"p_state\000"
 13991      61746500 
 13992              	.LASF406:
 13993 21ec 73616D70 		.ascii	"sample_send_tp\000"
 13993      6C655F73 
 13993      656E645F 
 13993      747000
 13994              	.LASF58:
 13995 21fb 63685F74 		.ascii	"ch_threads_list\000"
 13995      68726561 
 13995      64735F6C 
 13995      69737400 
 13996              	.LASF139:
 13997 220b 434F4D4D 		.ascii	"COMM_MODE_DELAY\000"
 13997      5F4D4F44 
 13997      455F4445 
 13997      4C415900 
 13998              	.LASF245:
 13999 221b 6D5F656E 		.ascii	"m_encoder_counts\000"
 13999      636F6465 
 13999      725F636F 
 13999      756E7473 
 13999      00
 14000              		.ident	"GCC: (GNU Tools for ARM Embedded Processors) 5.4.1 20160919 (release) [ARM/embedded-5-bran
ARM GAS  C:\Users\euanm\AppData\Local\Temp\ccnlTGs7.s 			page 274


DEFINED SYMBOLS
                            *ABS*:00000000 mc_interface.c
C:\Users\euanm\AppData\Local\Temp\ccnlTGs7.s:22     .text.sample_send_thread:00000000 $t
C:\Users\euanm\AppData\Local\Temp\ccnlTGs7.s:27     .text.sample_send_thread:00000000 sample_send_thread
C:\Users\euanm\AppData\Local\Temp\ccnlTGs7.s:204    .text.sample_send_thread:000000fc $d
C:\Users\euanm\AppData\Local\Temp\ccnlTGs7.s:222    .text.mc_interface_set_duty.part.1:00000000 $t
C:\Users\euanm\AppData\Local\Temp\ccnlTGs7.s:227    .text.mc_interface_set_duty.part.1:00000000 mc_interface_set_duty.part.1
C:\Users\euanm\AppData\Local\Temp\ccnlTGs7.s:255    .text.mc_interface_set_duty.part.1:00000018 $d
C:\Users\euanm\AppData\Local\Temp\ccnlTGs7.s:260    .text.mc_interface_set_current.part.2:00000000 $t
C:\Users\euanm\AppData\Local\Temp\ccnlTGs7.s:265    .text.mc_interface_set_current.part.2:00000000 mc_interface_set_current.part.2
C:\Users\euanm\AppData\Local\Temp\ccnlTGs7.s:293    .text.mc_interface_set_current.part.2:00000018 $d
C:\Users\euanm\AppData\Local\Temp\ccnlTGs7.s:298    .text.mc_interface_init:00000000 $t
C:\Users\euanm\AppData\Local\Temp\ccnlTGs7.s:304    .text.mc_interface_init:00000000 mc_interface_init
C:\Users\euanm\AppData\Local\Temp\ccnlTGs7.s:533    .text.mc_interface_init:000000f8 $d
C:\Users\euanm\AppData\Local\Temp\ccnlTGs7.s:3633   .text.timer_thread:00000000 timer_thread
C:\Users\euanm\AppData\Local\Temp\ccnlTGs7.s:565    .text.mc_interface_get_configuration:00000000 $t
C:\Users\euanm\AppData\Local\Temp\ccnlTGs7.s:571    .text.mc_interface_get_configuration:00000000 mc_interface_get_configuration
C:\Users\euanm\AppData\Local\Temp\ccnlTGs7.s:584    .text.mc_interface_get_configuration:00000004 $d
C:\Users\euanm\AppData\Local\Temp\ccnlTGs7.s:589    .text.mc_interface_dccal_done:00000000 $t
C:\Users\euanm\AppData\Local\Temp\ccnlTGs7.s:595    .text.mc_interface_dccal_done:00000000 mc_interface_dccal_done
C:\Users\euanm\AppData\Local\Temp\ccnlTGs7.s:625    .text.mc_interface_dccal_done:0000001c $d
C:\Users\euanm\AppData\Local\Temp\ccnlTGs7.s:630    .text.mc_interface_set_pwm_callback:00000000 $t
C:\Users\euanm\AppData\Local\Temp\ccnlTGs7.s:636    .text.mc_interface_set_pwm_callback:00000000 mc_interface_set_pwm_callback
C:\Users\euanm\AppData\Local\Temp\ccnlTGs7.s:651    .text.mc_interface_set_pwm_callback:00000008 $d
C:\Users\euanm\AppData\Local\Temp\ccnlTGs7.s:656    .text.mc_interface_lock:00000000 $t
C:\Users\euanm\AppData\Local\Temp\ccnlTGs7.s:662    .text.mc_interface_lock:00000000 mc_interface_lock
C:\Users\euanm\AppData\Local\Temp\ccnlTGs7.s:677    .text.mc_interface_lock:00000008 $d
C:\Users\euanm\AppData\Local\Temp\ccnlTGs7.s:682    .text.mc_interface_unlock:00000000 $t
C:\Users\euanm\AppData\Local\Temp\ccnlTGs7.s:688    .text.mc_interface_unlock:00000000 mc_interface_unlock
C:\Users\euanm\AppData\Local\Temp\ccnlTGs7.s:703    .text.mc_interface_unlock:00000008 $d
C:\Users\euanm\AppData\Local\Temp\ccnlTGs7.s:708    .text.mc_interface_lock_override_once:00000000 $t
C:\Users\euanm\AppData\Local\Temp\ccnlTGs7.s:714    .text.mc_interface_lock_override_once:00000000 mc_interface_lock_override_once
C:\Users\euanm\AppData\Local\Temp\ccnlTGs7.s:729    .text.mc_interface_lock_override_once:00000008 $d
C:\Users\euanm\AppData\Local\Temp\ccnlTGs7.s:734    .text.mc_interface_get_fault:00000000 $t
C:\Users\euanm\AppData\Local\Temp\ccnlTGs7.s:740    .text.mc_interface_get_fault:00000000 mc_interface_get_fault
C:\Users\euanm\AppData\Local\Temp\ccnlTGs7.s:755    .text.mc_interface_get_fault:00000008 $d
C:\Users\euanm\AppData\Local\Temp\ccnlTGs7.s:760    .text.mc_interface_fault_to_string:00000000 $t
C:\Users\euanm\AppData\Local\Temp\ccnlTGs7.s:766    .text.mc_interface_fault_to_string:00000000 mc_interface_fault_to_string
C:\Users\euanm\AppData\Local\Temp\ccnlTGs7.s:786    .text.mc_interface_fault_to_string:00000010 $d
C:\Users\euanm\AppData\Local\Temp\ccnlTGs7.s:792    .text.mc_interface_get_state:00000000 $t
C:\Users\euanm\AppData\Local\Temp\ccnlTGs7.s:798    .text.mc_interface_get_state:00000000 mc_interface_get_state
C:\Users\euanm\AppData\Local\Temp\ccnlTGs7.s:828    .text.mc_interface_get_state:0000001c $d
C:\Users\euanm\AppData\Local\Temp\ccnlTGs7.s:833    .text.mc_interface_get_cruise_control_status:00000000 $t
C:\Users\euanm\AppData\Local\Temp\ccnlTGs7.s:839    .text.mc_interface_get_cruise_control_status:00000000 mc_interface_get_cruise_control_status
C:\Users\euanm\AppData\Local\Temp\ccnlTGs7.s:854    .text.mc_interface_get_cruise_control_status:00000008 $d
C:\Users\euanm\AppData\Local\Temp\ccnlTGs7.s:859    .text.mc_interface_set_cruise_control_status:00000000 $t
C:\Users\euanm\AppData\Local\Temp\ccnlTGs7.s:865    .text.mc_interface_set_cruise_control_status:00000000 mc_interface_set_cruise_control_status
C:\Users\euanm\AppData\Local\Temp\ccnlTGs7.s:880    .text.mc_interface_set_cruise_control_status:00000008 $d
C:\Users\euanm\AppData\Local\Temp\ccnlTGs7.s:885    .text.mc_interface_get_duty_cycle_set:00000000 $t
C:\Users\euanm\AppData\Local\Temp\ccnlTGs7.s:891    .text.mc_interface_get_duty_cycle_set:00000000 mc_interface_get_duty_cycle_set
C:\Users\euanm\AppData\Local\Temp\ccnlTGs7.s:921    .text.mc_interface_get_duty_cycle_set:0000001c $d
C:\Users\euanm\AppData\Local\Temp\ccnlTGs7.s:927    .text.mc_interface_get_duty_cycle_now:00000000 $t
C:\Users\euanm\AppData\Local\Temp\ccnlTGs7.s:933    .text.mc_interface_get_duty_cycle_now:00000000 mc_interface_get_duty_cycle_now
C:\Users\euanm\AppData\Local\Temp\ccnlTGs7.s:963    .text.mc_interface_get_duty_cycle_now:0000001c $d
C:\Users\euanm\AppData\Local\Temp\ccnlTGs7.s:969    .text.mc_interface_get_duty_cycle_for_watt_calculation:00000000 $t
C:\Users\euanm\AppData\Local\Temp\ccnlTGs7.s:975    .text.mc_interface_get_duty_cycle_for_watt_calculation:00000000 mc_interface_get_duty_cycle_for_watt_calculation
C:\Users\euanm\AppData\Local\Temp\ccnlTGs7.s:1019   .text.mc_interface_get_duty_cycle_for_watt_calculation:0000003c $d
ARM GAS  C:\Users\euanm\AppData\Local\Temp\ccnlTGs7.s 			page 275


C:\Users\euanm\AppData\Local\Temp\ccnlTGs7.s:1025   .text.mc_interface_get_sampling_frequency_now:00000000 $t
C:\Users\euanm\AppData\Local\Temp\ccnlTGs7.s:1031   .text.mc_interface_get_sampling_frequency_now:00000000 mc_interface_get_sampling_frequency_now
C:\Users\euanm\AppData\Local\Temp\ccnlTGs7.s:1078   .text.mc_interface_get_sampling_frequency_now:0000002c $d
C:\Users\euanm\AppData\Local\Temp\ccnlTGs7.s:1084   .text.mc_interface_get_rpm:00000000 $t
C:\Users\euanm\AppData\Local\Temp\ccnlTGs7.s:1090   .text.mc_interface_get_rpm:00000000 mc_interface_get_rpm
C:\Users\euanm\AppData\Local\Temp\ccnlTGs7.s:1120   .text.mc_interface_get_rpm:0000001c $d
C:\Users\euanm\AppData\Local\Temp\ccnlTGs7.s:1126   .text.mc_interface_get_amp_hours:00000000 $t
C:\Users\euanm\AppData\Local\Temp\ccnlTGs7.s:1132   .text.mc_interface_get_amp_hours:00000000 mc_interface_get_amp_hours
C:\Users\euanm\AppData\Local\Temp\ccnlTGs7.s:1157   .text.mc_interface_get_amp_hours:00000018 $d
C:\Users\euanm\AppData\Local\Temp\ccnlTGs7.s:1163   .text.mc_interface_get_amp_hours_charged:00000000 $t
C:\Users\euanm\AppData\Local\Temp\ccnlTGs7.s:1169   .text.mc_interface_get_amp_hours_charged:00000000 mc_interface_get_amp_hours_charged
C:\Users\euanm\AppData\Local\Temp\ccnlTGs7.s:1194   .text.mc_interface_get_amp_hours_charged:00000018 $d
C:\Users\euanm\AppData\Local\Temp\ccnlTGs7.s:1200   .text.mc_interface_get_watt_hours:00000000 $t
C:\Users\euanm\AppData\Local\Temp\ccnlTGs7.s:1206   .text.mc_interface_get_watt_hours:00000000 mc_interface_get_watt_hours
C:\Users\euanm\AppData\Local\Temp\ccnlTGs7.s:1232   .text.mc_interface_get_watt_hours:00000018 $d
C:\Users\euanm\AppData\Local\Temp\ccnlTGs7.s:1239   .text.mc_interface_get_watt_hours_charged:00000000 $t
C:\Users\euanm\AppData\Local\Temp\ccnlTGs7.s:1245   .text.mc_interface_get_watt_hours_charged:00000000 mc_interface_get_watt_hours_charged
C:\Users\euanm\AppData\Local\Temp\ccnlTGs7.s:1270   .text.mc_interface_get_watt_hours_charged:00000018 $d
C:\Users\euanm\AppData\Local\Temp\ccnlTGs7.s:1276   .text.mc_interface_get_tot_current:00000000 $t
C:\Users\euanm\AppData\Local\Temp\ccnlTGs7.s:1282   .text.mc_interface_get_tot_current:00000000 mc_interface_get_tot_current
C:\Users\euanm\AppData\Local\Temp\ccnlTGs7.s:1312   .text.mc_interface_get_tot_current:0000001c $d
C:\Users\euanm\AppData\Local\Temp\ccnlTGs7.s:1318   .text.mc_interface_get_tot_current_filtered:00000000 $t
C:\Users\euanm\AppData\Local\Temp\ccnlTGs7.s:1324   .text.mc_interface_get_tot_current_filtered:00000000 mc_interface_get_tot_current_filtered
C:\Users\euanm\AppData\Local\Temp\ccnlTGs7.s:1354   .text.mc_interface_get_tot_current_filtered:0000001c $d
C:\Users\euanm\AppData\Local\Temp\ccnlTGs7.s:1360   .text.mc_interface_get_tot_current_directional:00000000 $t
C:\Users\euanm\AppData\Local\Temp\ccnlTGs7.s:1366   .text.mc_interface_get_tot_current_directional:00000000 mc_interface_get_tot_current_directional
C:\Users\euanm\AppData\Local\Temp\ccnlTGs7.s:1396   .text.mc_interface_get_tot_current_directional:0000001c $d
C:\Users\euanm\AppData\Local\Temp\ccnlTGs7.s:1402   .text.mc_interface_get_tot_current_directional_filtered:00000000 $t
C:\Users\euanm\AppData\Local\Temp\ccnlTGs7.s:1408   .text.mc_interface_get_tot_current_directional_filtered:00000000 mc_interface_get_tot_current_directional_filtered
C:\Users\euanm\AppData\Local\Temp\ccnlTGs7.s:1438   .text.mc_interface_get_tot_current_directional_filtered:0000001c $d
C:\Users\euanm\AppData\Local\Temp\ccnlTGs7.s:1444   .text.mc_interface_get_tot_current_in:00000000 $t
C:\Users\euanm\AppData\Local\Temp\ccnlTGs7.s:1450   .text.mc_interface_get_tot_current_in:00000000 mc_interface_get_tot_current_in
C:\Users\euanm\AppData\Local\Temp\ccnlTGs7.s:1480   .text.mc_interface_get_tot_current_in:0000001c $d
C:\Users\euanm\AppData\Local\Temp\ccnlTGs7.s:1486   .text.mc_interface_get_tot_current_in_filtered:00000000 $t
C:\Users\euanm\AppData\Local\Temp\ccnlTGs7.s:1492   .text.mc_interface_get_tot_current_in_filtered:00000000 mc_interface_get_tot_current_in_filtered
C:\Users\euanm\AppData\Local\Temp\ccnlTGs7.s:1522   .text.mc_interface_get_tot_current_in_filtered:0000001c $d
C:\Users\euanm\AppData\Local\Temp\ccnlTGs7.s:1528   .text.mc_interface_get_tachometer_value:00000000 $t
C:\Users\euanm\AppData\Local\Temp\ccnlTGs7.s:1534   .text.mc_interface_get_tachometer_value:00000000 mc_interface_get_tachometer_value
C:\Users\euanm\AppData\Local\Temp\ccnlTGs7.s:1566   .text.mc_interface_get_tachometer_value:0000001c $d
C:\Users\euanm\AppData\Local\Temp\ccnlTGs7.s:1571   .text.mc_interface_get_tachometer_abs_value:00000000 $t
C:\Users\euanm\AppData\Local\Temp\ccnlTGs7.s:1577   .text.mc_interface_get_tachometer_abs_value:00000000 mc_interface_get_tachometer_abs_value
C:\Users\euanm\AppData\Local\Temp\ccnlTGs7.s:1609   .text.mc_interface_get_tachometer_abs_value:0000001c $d
C:\Users\euanm\AppData\Local\Temp\ccnlTGs7.s:1614   .text.mc_interface_get_last_inj_adc_isr_duration:00000000 $t
C:\Users\euanm\AppData\Local\Temp\ccnlTGs7.s:1620   .text.mc_interface_get_last_inj_adc_isr_duration:00000000 mc_interface_get_last_inj_adc_isr_duration
C:\Users\euanm\AppData\Local\Temp\ccnlTGs7.s:1650   .text.mc_interface_get_last_inj_adc_isr_duration:0000001c $d
C:\Users\euanm\AppData\Local\Temp\ccnlTGs7.s:1656   .text.mc_interface_read_reset_avg_motor_current:00000000 $t
C:\Users\euanm\AppData\Local\Temp\ccnlTGs7.s:1662   .text.mc_interface_read_reset_avg_motor_current:00000000 mc_interface_read_reset_avg_motor_current
C:\Users\euanm\AppData\Local\Temp\ccnlTGs7.s:1688   .text.mc_interface_read_reset_avg_motor_current:00000018 $d
C:\Users\euanm\AppData\Local\Temp\ccnlTGs7.s:1694   .text.mc_interface_read_reset_avg_input_current:00000000 $t
C:\Users\euanm\AppData\Local\Temp\ccnlTGs7.s:1700   .text.mc_interface_read_reset_avg_input_current:00000000 mc_interface_read_reset_avg_input_current
C:\Users\euanm\AppData\Local\Temp\ccnlTGs7.s:1726   .text.mc_interface_read_reset_avg_input_current:00000018 $d
C:\Users\euanm\AppData\Local\Temp\ccnlTGs7.s:1732   .text.mc_interface_get_pid_pos_set:00000000 $t
C:\Users\euanm\AppData\Local\Temp\ccnlTGs7.s:1738   .text.mc_interface_get_pid_pos_set:00000000 mc_interface_get_pid_pos_set
C:\Users\euanm\AppData\Local\Temp\ccnlTGs7.s:1753   .text.mc_interface_get_pid_pos_set:00000008 $d
C:\Users\euanm\AppData\Local\Temp\ccnlTGs7.s:1758   .text.mc_interface_get_pid_pos_now:00000000 $t
C:\Users\euanm\AppData\Local\Temp\ccnlTGs7.s:1764   .text.mc_interface_get_pid_pos_now:00000000 mc_interface_get_pid_pos_now
C:\Users\euanm\AppData\Local\Temp\ccnlTGs7.s:1794   .text.mc_interface_get_pid_pos_now:0000001c $d
ARM GAS  C:\Users\euanm\AppData\Local\Temp\ccnlTGs7.s 			page 276


C:\Users\euanm\AppData\Local\Temp\ccnlTGs7.s:1800   .text.mc_interface_get_last_sample_adc_isr_duration:00000000 $t
C:\Users\euanm\AppData\Local\Temp\ccnlTGs7.s:1806   .text.mc_interface_get_last_sample_adc_isr_duration:00000000 mc_interface_get_last_sample_adc_isr_duration
C:\Users\euanm\AppData\Local\Temp\ccnlTGs7.s:1821   .text.mc_interface_get_last_sample_adc_isr_duration:00000008 $d
C:\Users\euanm\AppData\Local\Temp\ccnlTGs7.s:1826   .text.mc_interface_sample_print_data:00000000 $t
C:\Users\euanm\AppData\Local\Temp\ccnlTGs7.s:1832   .text.mc_interface_sample_print_data:00000000 mc_interface_sample_print_data
C:\Users\euanm\AppData\Local\Temp\ccnlTGs7.s:1882   .text.mc_interface_sample_print_data:00000030 $d
C:\Users\euanm\AppData\Local\Temp\ccnlTGs7.s:1892   .text.mc_interface_try_input:00000000 $t
C:\Users\euanm\AppData\Local\Temp\ccnlTGs7.s:1898   .text.mc_interface_try_input:00000000 mc_interface_try_input
C:\Users\euanm\AppData\Local\Temp\ccnlTGs7.s:1951   .text.mc_interface_try_input:00000034 $d
C:\Users\euanm\AppData\Local\Temp\ccnlTGs7.s:1958   .text.mc_interface_set_duty:00000000 $t
C:\Users\euanm\AppData\Local\Temp\ccnlTGs7.s:1964   .text.mc_interface_set_duty:00000000 mc_interface_set_duty
C:\Users\euanm\AppData\Local\Temp\ccnlTGs7.s:2011   .text.mc_interface_brake_now:00000000 $t
C:\Users\euanm\AppData\Local\Temp\ccnlTGs7.s:2017   .text.mc_interface_brake_now:00000000 mc_interface_brake_now
C:\Users\euanm\AppData\Local\Temp\ccnlTGs7.s:2051   .text.mc_interface_brake_now:00000018 $d
C:\Users\euanm\AppData\Local\Temp\ccnlTGs7.s:2058   .text.mc_interface_set_duty_noramp:00000000 $t
C:\Users\euanm\AppData\Local\Temp\ccnlTGs7.s:2064   .text.mc_interface_set_duty_noramp:00000000 mc_interface_set_duty_noramp
C:\Users\euanm\AppData\Local\Temp\ccnlTGs7.s:2140   .text.mc_interface_set_duty_noramp:00000044 $d
C:\Users\euanm\AppData\Local\Temp\ccnlTGs7.s:2145   .text.mc_interface_set_pid_speed:00000000 $t
C:\Users\euanm\AppData\Local\Temp\ccnlTGs7.s:2151   .text.mc_interface_set_pid_speed:00000000 mc_interface_set_pid_speed
C:\Users\euanm\AppData\Local\Temp\ccnlTGs7.s:2227   .text.mc_interface_set_pid_speed:00000044 $d
C:\Users\euanm\AppData\Local\Temp\ccnlTGs7.s:2232   .text.mc_interface_set_pid_speed_with_cruise_status:00000000 $t
C:\Users\euanm\AppData\Local\Temp\ccnlTGs7.s:2238   .text.mc_interface_set_pid_speed_with_cruise_status:00000000 mc_interface_set_pid_speed_with_cruise_status
C:\Users\euanm\AppData\Local\Temp\ccnlTGs7.s:2321   .text.mc_interface_set_pid_speed_with_cruise_status:0000004c $d
C:\Users\euanm\AppData\Local\Temp\ccnlTGs7.s:2326   .text.mc_interface_set_pid_pos:00000000 $t
C:\Users\euanm\AppData\Local\Temp\ccnlTGs7.s:2332   .text.mc_interface_set_pid_pos:00000000 mc_interface_set_pid_pos
C:\Users\euanm\AppData\Local\Temp\ccnlTGs7.s:2413   .text.mc_interface_set_pid_pos:0000004c $d
C:\Users\euanm\AppData\Local\Temp\ccnlTGs7.s:2419   .text.mc_interface_set_current:00000000 $t
C:\Users\euanm\AppData\Local\Temp\ccnlTGs7.s:2425   .text.mc_interface_set_current:00000000 mc_interface_set_current
C:\Users\euanm\AppData\Local\Temp\ccnlTGs7.s:2472   .text.mc_interface_release_motor:00000000 $t
C:\Users\euanm\AppData\Local\Temp\ccnlTGs7.s:2478   .text.mc_interface_release_motor:00000000 mc_interface_release_motor
C:\Users\euanm\AppData\Local\Temp\ccnlTGs7.s:2512   .text.mc_interface_release_motor:00000018 $d
C:\Users\euanm\AppData\Local\Temp\ccnlTGs7.s:2519   .text.mc_interface_set_brake_current:00000000 $t
C:\Users\euanm\AppData\Local\Temp\ccnlTGs7.s:2525   .text.mc_interface_set_brake_current:00000000 mc_interface_set_brake_current
C:\Users\euanm\AppData\Local\Temp\ccnlTGs7.s:2601   .text.mc_interface_set_brake_current:00000044 $d
C:\Users\euanm\AppData\Local\Temp\ccnlTGs7.s:2606   .text.mc_interface_set_servo:00000000 $t
C:\Users\euanm\AppData\Local\Temp\ccnlTGs7.s:2612   .text.mc_interface_set_servo:00000000 mc_interface_set_servo
C:\Users\euanm\AppData\Local\Temp\ccnlTGs7.s:2836   .text.mc_interface_set_servo:0000015c $d
C:\Users\euanm\AppData\Local\Temp\ccnlTGs7.s:2845   .text.mc_interface_set_brake_servo:00000000 $t
C:\Users\euanm\AppData\Local\Temp\ccnlTGs7.s:2851   .text.mc_interface_set_brake_servo:00000000 mc_interface_set_brake_servo
C:\Users\euanm\AppData\Local\Temp\ccnlTGs7.s:2931   .text.mc_interface_set_brake_servo:00000048 $d
C:\Users\euanm\AppData\Local\Temp\ccnlTGs7.s:2936   .text.mc_interface_fault_stop:00000000 $t
C:\Users\euanm\AppData\Local\Temp\ccnlTGs7.s:2942   .text.mc_interface_fault_stop:00000000 mc_interface_fault_stop
C:\Users\euanm\AppData\Local\Temp\ccnlTGs7.s:3176   .text.mc_interface_fault_stop:00000128 $d
C:\Users\euanm\AppData\Local\Temp\ccnlTGs7.s:3195   .text.update_override_limits.constprop.3:00000000 $t
C:\Users\euanm\AppData\Local\Temp\ccnlTGs7.s:3200   .text.update_override_limits.constprop.3:00000000 update_override_limits.constprop.3
C:\Users\euanm\AppData\Local\Temp\ccnlTGs7.s:3438   .text.update_override_limits.constprop.3:000001a0 $d
C:\Users\euanm\AppData\Local\Temp\ccnlTGs7.s:3452   .text.mc_interface_set_configuration:00000000 $t
C:\Users\euanm\AppData\Local\Temp\ccnlTGs7.s:3458   .text.mc_interface_set_configuration:00000000 mc_interface_set_configuration
C:\Users\euanm\AppData\Local\Temp\ccnlTGs7.s:3623   .text.mc_interface_set_configuration:000000cc $d
C:\Users\euanm\AppData\Local\Temp\ccnlTGs7.s:3628   .text.timer_thread:00000000 $t
C:\Users\euanm\AppData\Local\Temp\ccnlTGs7.s:3715   .text.timer_thread:0000004c $d
C:\Users\euanm\AppData\Local\Temp\ccnlTGs7.s:3724   .text.mc_interface_mc_timer_isr:00000000 $t
C:\Users\euanm\AppData\Local\Temp\ccnlTGs7.s:3730   .text.mc_interface_mc_timer_isr:00000000 mc_interface_mc_timer_isr
C:\Users\euanm\AppData\Local\Temp\ccnlTGs7.s:4227   .text.mc_interface_mc_timer_isr:000002f4 $d
C:\Users\euanm\AppData\Local\Temp\ccnlTGs7.s:4267   .text.mc_interface_mc_timer_isr:00000384 $t
C:\Users\euanm\AppData\Local\Temp\ccnlTGs7.s:4410   .text.mc_interface_mc_timer_isr:00000458 $d
C:\Users\euanm\AppData\Local\Temp\ccnlTGs7.s:4426   .text.mc_interface_adc_inj_int_handler:00000000 $t
ARM GAS  C:\Users\euanm\AppData\Local\Temp\ccnlTGs7.s 			page 277


C:\Users\euanm\AppData\Local\Temp\ccnlTGs7.s:4432   .text.mc_interface_adc_inj_int_handler:00000000 mc_interface_adc_inj_int_handler
C:\Users\euanm\AppData\Local\Temp\ccnlTGs7.s:4459   .text.mc_interface_adc_inj_int_handler:00000018 $d
C:\Users\euanm\AppData\Local\Temp\ccnlTGs7.s:4518   .bss.ADC_curr_norm_value:00000000 ADC_curr_norm_value
C:\Users\euanm\AppData\Local\Temp\ccnlTGs7.s:4545   .bss.ADC_Value:00000000 ADC_Value
C:\Users\euanm\AppData\Local\Temp\ccnlTGs7.s:4466   .bss.m_ignore_iterations:00000000 $d
C:\Users\euanm\AppData\Local\Temp\ccnlTGs7.s:4470   .bss.m_ignore_iterations:00000000 m_ignore_iterations
C:\Users\euanm\AppData\Local\Temp\ccnlTGs7.s:4473   .bss.m_f_sw_samples:00000000 $d
C:\Users\euanm\AppData\Local\Temp\ccnlTGs7.s:4477   .bss.m_f_sw_samples:00000000 m_f_sw_samples
C:\Users\euanm\AppData\Local\Temp\ccnlTGs7.s:4480   .bss.a.10703:00000000 $d
C:\Users\euanm\AppData\Local\Temp\ccnlTGs7.s:4484   .bss.a.10703:00000000 a.10703
C:\Users\euanm\AppData\Local\Temp\ccnlTGs7.s:4487   .bss.m_sample_int:00000000 $d
C:\Users\euanm\AppData\Local\Temp\ccnlTGs7.s:4491   .bss.m_sample_int:00000000 m_sample_int
C:\Users\euanm\AppData\Local\Temp\ccnlTGs7.s:4497   .bss.cruise_control_status:00000000 cruise_control_status
C:\Users\euanm\AppData\Local\Temp\ccnlTGs7.s:4498   .bss.cruise_control_status:00000000 $d
C:\Users\euanm\AppData\Local\Temp\ccnlTGs7.s:4500   .bss.m_conf_original:00000000 $d
C:\Users\euanm\AppData\Local\Temp\ccnlTGs7.s:4504   .bss.m_conf_original:00000000 m_conf_original
C:\Users\euanm\AppData\Local\Temp\ccnlTGs7.s:4507   .bss.m_watt_seconds_charged:00000000 $d
C:\Users\euanm\AppData\Local\Temp\ccnlTGs7.s:4511   .bss.m_watt_seconds_charged:00000000 m_watt_seconds_charged
C:\Users\euanm\AppData\Local\Temp\ccnlTGs7.s:4514   .bss.ADC_curr_norm_value:00000000 $d
C:\Users\euanm\AppData\Local\Temp\ccnlTGs7.s:4521   .bss.m_position_set:00000000 $d
C:\Users\euanm\AppData\Local\Temp\ccnlTGs7.s:4525   .bss.m_position_set:00000000 m_position_set
C:\Users\euanm\AppData\Local\Temp\ccnlTGs7.s:4531   .bss.m_lock_override_once:00000000 m_lock_override_once
C:\Users\euanm\AppData\Local\Temp\ccnlTGs7.s:4532   .bss.m_lock_override_once:00000000 $d
C:\Users\euanm\AppData\Local\Temp\ccnlTGs7.s:4534   .bss.m_ph1_samples:00000000 $d
C:\Users\euanm\AppData\Local\Temp\ccnlTGs7.s:4538   .bss.m_ph1_samples:00000000 m_ph1_samples
C:\Users\euanm\AppData\Local\Temp\ccnlTGs7.s:4541   .bss.ADC_Value:00000000 $d
C:\Users\euanm\AppData\Local\Temp\ccnlTGs7.s:4548   .bss.m_motor_current_iterations:00000000 $d
C:\Users\euanm\AppData\Local\Temp\ccnlTGs7.s:4552   .bss.m_motor_current_iterations:00000000 m_motor_current_iterations
C:\Users\euanm\AppData\Local\Temp\ccnlTGs7.s:4555   .bss.m_last_adc_duration_sample:00000000 $d
C:\Users\euanm\AppData\Local\Temp\ccnlTGs7.s:4559   .bss.m_last_adc_duration_sample:00000000 m_last_adc_duration_sample
C:\Users\euanm\AppData\Local\Temp\ccnlTGs7.s:4562   .bss.m_amp_seconds_charged:00000000 $d
C:\Users\euanm\AppData\Local\Temp\ccnlTGs7.s:4566   .bss.m_amp_seconds_charged:00000000 m_amp_seconds_charged
C:\Users\euanm\AppData\Local\Temp\ccnlTGs7.s:4569   .bss.pwn_done_func:00000000 $d
C:\Users\euanm\AppData\Local\Temp\ccnlTGs7.s:4573   .bss.pwn_done_func:00000000 pwn_done_func
C:\Users\euanm\AppData\Local\Temp\ccnlTGs7.s:4576   .bss.m_input_current_sum:00000000 $d
C:\Users\euanm\AppData\Local\Temp\ccnlTGs7.s:4580   .bss.m_input_current_sum:00000000 m_input_current_sum
C:\Users\euanm\AppData\Local\Temp\ccnlTGs7.s:4583   .bss.m_vzero_samples:00000000 $d
C:\Users\euanm\AppData\Local\Temp\ccnlTGs7.s:4587   .bss.m_vzero_samples:00000000 m_vzero_samples
C:\Users\euanm\AppData\Local\Temp\ccnlTGs7.s:4590   .bss.m_sample_len:00000000 $d
C:\Users\euanm\AppData\Local\Temp\ccnlTGs7.s:4594   .bss.m_sample_len:00000000 m_sample_len
C:\Users\euanm\AppData\Local\Temp\ccnlTGs7.s:4597   .bss.m_conf:00000000 $d
C:\Users\euanm\AppData\Local\Temp\ccnlTGs7.s:4601   .bss.m_conf:00000000 m_conf
C:\Users\euanm\AppData\Local\Temp\ccnlTGs7.s:4607   .bss.m_fault_now:00000000 m_fault_now
C:\Users\euanm\AppData\Local\Temp\ccnlTGs7.s:4608   .bss.m_fault_now:00000000 $d
C:\Users\euanm\AppData\Local\Temp\ccnlTGs7.s:4610   .bss.m_curr0_samples:00000000 $d
C:\Users\euanm\AppData\Local\Temp\ccnlTGs7.s:4614   .bss.m_curr0_samples:00000000 m_curr0_samples
C:\Users\euanm\AppData\Local\Temp\ccnlTGs7.s:4617   .bss.sample_send_tp:00000000 $d
C:\Users\euanm\AppData\Local\Temp\ccnlTGs7.s:4621   .bss.sample_send_tp:00000000 sample_send_tp
C:\Users\euanm\AppData\Local\Temp\ccnlTGs7.s:4624   .rodata.str1.4:00000000 $d
C:\Users\euanm\AppData\Local\Temp\ccnlTGs7.s:4652   .bss.m_cycles_running:00000000 $d
C:\Users\euanm\AppData\Local\Temp\ccnlTGs7.s:4656   .bss.m_cycles_running:00000000 m_cycles_running
C:\Users\euanm\AppData\Local\Temp\ccnlTGs7.s:4659   .bss.m_sample_ready:00000000 $d
C:\Users\euanm\AppData\Local\Temp\ccnlTGs7.s:4663   .bss.m_sample_ready:00000000 m_sample_ready
C:\Users\euanm\AppData\Local\Temp\ccnlTGs7.s:4666   .bss.m_ph2_samples:00000000 $d
C:\Users\euanm\AppData\Local\Temp\ccnlTGs7.s:4670   .bss.m_ph2_samples:00000000 m_ph2_samples
C:\Users\euanm\AppData\Local\Temp\ccnlTGs7.s:4673   .bss.m_motor_current_sum:00000000 $d
C:\Users\euanm\AppData\Local\Temp\ccnlTGs7.s:4677   .bss.m_motor_current_sum:00000000 m_motor_current_sum
ARM GAS  C:\Users\euanm\AppData\Local\Temp\ccnlTGs7.s 			page 278


C:\Users\euanm\AppData\Local\Temp\ccnlTGs7.s:4680   .bss.m_input_current_iterations:00000000 $d
C:\Users\euanm\AppData\Local\Temp\ccnlTGs7.s:4684   .bss.m_input_current_iterations:00000000 m_input_current_iterations
C:\Users\euanm\AppData\Local\Temp\ccnlTGs7.s:4687   .bss.m_amp_seconds:00000000 $d
C:\Users\euanm\AppData\Local\Temp\ccnlTGs7.s:4691   .bss.m_amp_seconds:00000000 m_amp_seconds
C:\Users\euanm\AppData\Local\Temp\ccnlTGs7.s:4694   .bss.sample_send_thread_wa:00000000 $d
C:\Users\euanm\AppData\Local\Temp\ccnlTGs7.s:4698   .bss.sample_send_thread_wa:00000000 sample_send_thread_wa
C:\Users\euanm\AppData\Local\Temp\ccnlTGs7.s:4701   .bss.m_curr_fir_samples:00000000 $d
C:\Users\euanm\AppData\Local\Temp\ccnlTGs7.s:4705   .bss.m_curr_fir_samples:00000000 m_curr_fir_samples
C:\Users\euanm\AppData\Local\Temp\ccnlTGs7.s:4708   .bss.m_sample_now:00000000 $d
C:\Users\euanm\AppData\Local\Temp\ccnlTGs7.s:4712   .bss.m_sample_now:00000000 m_sample_now
C:\Users\euanm\AppData\Local\Temp\ccnlTGs7.s:4715   .bss.curr_diff_samples.10702:00000000 $d
C:\Users\euanm\AppData\Local\Temp\ccnlTGs7.s:4719   .bss.curr_diff_samples.10702:00000000 curr_diff_samples.10702
C:\Users\euanm\AppData\Local\Temp\ccnlTGs7.s:4722   .bss.m_status_samples:00000000 $d
C:\Users\euanm\AppData\Local\Temp\ccnlTGs7.s:4726   .bss.m_status_samples:00000000 m_status_samples
C:\Users\euanm\AppData\Local\Temp\ccnlTGs7.s:4732   .bss.m_lock_enabled:00000000 m_lock_enabled
C:\Users\euanm\AppData\Local\Temp\ccnlTGs7.s:4733   .bss.m_lock_enabled:00000000 $d
C:\Users\euanm\AppData\Local\Temp\ccnlTGs7.s:4735   .bss.m_start_comm:00000000 $d
C:\Users\euanm\AppData\Local\Temp\ccnlTGs7.s:4739   .bss.m_start_comm:00000000 m_start_comm
C:\Users\euanm\AppData\Local\Temp\ccnlTGs7.s:4742   .bss.m_watt_seconds:00000000 $d
C:\Users\euanm\AppData\Local\Temp\ccnlTGs7.s:4746   .bss.m_watt_seconds:00000000 m_watt_seconds
C:\Users\euanm\AppData\Local\Temp\ccnlTGs7.s:4749   .bss.m_curr1_samples:00000000 $d
C:\Users\euanm\AppData\Local\Temp\ccnlTGs7.s:4753   .bss.m_curr1_samples:00000000 m_curr1_samples
C:\Users\euanm\AppData\Local\Temp\ccnlTGs7.s:4756   .bss.m_sample_at_start:00000000 $d
C:\Users\euanm\AppData\Local\Temp\ccnlTGs7.s:4760   .bss.m_sample_at_start:00000000 m_sample_at_start
C:\Users\euanm\AppData\Local\Temp\ccnlTGs7.s:4763   .bss.wrong_voltage_iterations.10695:00000000 $d
C:\Users\euanm\AppData\Local\Temp\ccnlTGs7.s:4767   .bss.wrong_voltage_iterations.10695:00000000 wrong_voltage_iterations.10695
C:\Users\euanm\AppData\Local\Temp\ccnlTGs7.s:4770   .rodata.CSWTCH.124:00000000 $d
C:\Users\euanm\AppData\Local\Temp\ccnlTGs7.s:4774   .rodata.CSWTCH.124:00000000 CSWTCH.124
C:\Users\euanm\AppData\Local\Temp\ccnlTGs7.s:4783   .bss.curr_diff_sum.10701:00000000 $d
C:\Users\euanm\AppData\Local\Temp\ccnlTGs7.s:4787   .bss.curr_diff_sum.10701:00000000 curr_diff_sum.10701
C:\Users\euanm\AppData\Local\Temp\ccnlTGs7.s:4790   .bss.timer_thread_wa:00000000 $d
C:\Users\euanm\AppData\Local\Temp\ccnlTGs7.s:4794   .bss.timer_thread_wa:00000000 timer_thread_wa
C:\Users\euanm\AppData\Local\Temp\ccnlTGs7.s:4797   .bss.m_ph3_samples:00000000 $d
C:\Users\euanm\AppData\Local\Temp\ccnlTGs7.s:4801   .bss.m_ph3_samples:00000000 m_ph3_samples
                     .debug_frame:00000010 $d

UNDEFINED SYMBOLS
chEvtWaitAny
commands_send_samples
ch
mcpwm_foc_set_duty
mcpwm_set_duty
mcpwm_foc_set_current
mcpwm_set_current
memcpy
chThdCreateStatic
mcpwm_foc_init
encoder_init_as5047p_spi
mcpwm_init
encoder_init_abi
mcpwm_foc_is_dccal_done
mcpwm_is_dccal_done
mcpwm_foc_get_state
mcpwm_get_state
mcpwm_foc_get_duty_cycle_set
mcpwm_get_duty_cycle_set
mcpwm_foc_get_duty_cycle_now
ARM GAS  C:\Users\euanm\AppData\Local\Temp\ccnlTGs7.s 			page 279


mcpwm_get_duty_cycle_now
mcpwm_foc_get_switching_frequency_now
mcpwm_get_switching_frequency_now
mcpwm_foc_get_rpm
mcpwm_get_rpm
mcpwm_foc_get_tot_current
mcpwm_get_tot_current
mcpwm_foc_get_tot_current_filtered
mcpwm_get_tot_current_filtered
mcpwm_foc_get_tot_current_directional
mcpwm_get_tot_current_directional
mcpwm_foc_get_tot_current_directional_filtered
mcpwm_get_tot_current_directional_filtered
mcpwm_foc_get_tot_current_in
mcpwm_get_tot_current_in
mcpwm_foc_get_tot_current_in_filtered
mcpwm_get_tot_current_in_filtered
mcpwm_foc_get_tachometer_value
mcpwm_get_tachometer_value
mcpwm_foc_get_tachometer_abs_value
mcpwm_get_tachometer_abs_value
mcpwm_foc_get_last_inj_adc_isr_duration
mcpwm_get_last_inj_adc_isr_duration
mcpwm_foc_get_pid_pos_now
encoder_read_deg
mcpwm_get_comm_step
mcpwm_stop_pwm
mcpwm_foc_set_duty_noramp
mcpwm_set_duty_noramp
mcpwm_foc_set_pid_speed
mcpwm_set_pid_speed
mcpwm_foc_set_pid_speed_with_cruise_status
mcpwm_set_pid_speed_with_cruise_status
mcpwm_foc_set_pid_pos
mcpwm_set_pid_pos
mcpwm_foc_set_brake_current
mcpwm_set_brake_current
utils_smallest_of_2
utils_highest_of_2
mcpwm_foc_stop_pwm
logf
terminal_add_fault_data
mcpwm_foc_get_abs_motor_current
mcpwm_foc_get_abs_motor_current_filtered
utils_map
encoder_deinit
mcpwm_foc_set_configuration
mcpwm_set_configuration
mcpwm_foc_deinit
encoder_set_counts
mcpwm_deinit
chThdSleep
ledpwm_update_pwm
mcpwm_read_hall_phase
mcpwm_get_last_adc_isr_duration
mcpwm_vzero
chEvtSignalI
ARM GAS  C:\Users\euanm\AppData\Local\Temp\ccnlTGs7.s 			page 280


mcpwm_detect_currents
mcpwm_detect_currents_diff
mcpwm_detect_voltages
mcpwm_foc_adc_inj_int_handler
mcpwm_adc_inj_int_handler
