ARM GAS  C:\Users\euanm\AppData\Local\Temp\ccwBC4sF.s 			page 1


   1              		.syntax unified
   2              		.cpu cortex-m4
   3              		.eabi_attribute 27, 1
   4              		.eabi_attribute 28, 1
   5              		.fpu fpv4-sp-d16
   6              		.eabi_attribute 20, 1
   7              		.eabi_attribute 21, 1
   8              		.eabi_attribute 23, 3
   9              		.eabi_attribute 24, 1
  10              		.eabi_attribute 25, 1
  11              		.eabi_attribute 26, 1
  12              		.eabi_attribute 30, 2
  13              		.eabi_attribute 34, 1
  14              		.eabi_attribute 18, 4
  15              		.thumb
  16              		.syntax unified
  17              		.file	"mcpwm_foc.c"
  18              		.text
  19              	.Ltext0:
  20              		.cfi_sections	.debug_frame
  21              		.section	.text.correct_encoder,"ax",%progbits
  22              		.align	2
  23              		.p2align 4,,15
  24              		.thumb
  25              		.thumb_func
  26              		.type	correct_encoder, %function
  27              	correct_encoder:
  28              	.LFB309:
  29              		.file 1 "mcpwm_foc.c"
  30              		.loc 1 2227 0
  31              		.cfi_startproc
  32              		@ args = 0, pretend = 0, frame = 0
  33              		@ frame_needed = 0, uses_anonymous_args = 0
  34              		@ link register save eliminated.
  35              	.LVL0:
  36              		.loc 1 2228 0
  37 0000 DFED146A 		vldr.32	s13, .L13
  38              		.loc 1 2232 0
  39 0004 144B     		ldr	r3, .L13+4
  40              		.loc 1 2233 0
  41 0006 154A     		ldr	r2, .L13+8
  42              		.loc 1 2232 0
  43 0008 1B68     		ldr	r3, [r3]
  44 000a 9FED157A 		vldr.32	s14, .L13+12
  45 000e D3ED3C7A 		vldr.32	s15, [r3, #240]
  46              		.loc 1 2233 0
  47 0012 1178     		ldrb	r1, [r2]	@ zero_extendqisi2
  48              		.loc 1 2228 0
  49 0014 81EE261A 		vdiv.f32	s2, s2, s13
  50              	.LVL1:
  51              		.loc 1 2232 0
  52 0018 67EE877A 		vmul.f32	s15, s15, s14
  53              		.loc 1 2228 0
  54 001c B0EEC11A 		vabs.f32	s2, s2
  55              	.LVL2:
  56              		.loc 1 2234 0
  57 0020 93ED3C7A 		vldr.32	s14, [r3, #240]
ARM GAS  C:\Users\euanm\AppData\Local\Temp\ccwBC4sF.s 			page 2


  58              		.loc 1 2233 0
  59 0024 49B1     		cbz	r1, .L2
  60              		.loc 1 2234 0
  61 0026 77EE877A 		vadd.f32	s15, s15, s14
  62              	.LVL3:
  63 002a B4EEE71A 		vcmpe.f32	s2, s15
  64 002e F1EE10FA 		vmrs	APSR_nzcv, FPSCR
  65 0032 0CDC     		bgt	.L12
  66              	.L3:
  67              		.loc 1 2243 0
  68 0034 B0EE600A 		vmov.f32	s0, s1
  69              	.LVL4:
  70              	.L10:
  71              		.loc 1 2244 0
  72 0038 7047     		bx	lr
  73              	.LVL5:
  74              	.L2:
  75              		.loc 1 2238 0
  76 003a 77EE677A 		vsub.f32	s15, s14, s15
  77              	.LVL6:
  78 003e B4EEE71A 		vcmpe.f32	s2, s15
  79 0042 F1EE10FA 		vmrs	APSR_nzcv, FPSCR
  80 0046 F7D5     		bpl	.L10
  81              		.loc 1 2239 0
  82 0048 0123     		movs	r3, #1
  83 004a 1370     		strb	r3, [r2]
  84 004c F2E7     		b	.L3
  85              	.L12:
  86              		.loc 1 2235 0
  87 004e 0023     		movs	r3, #0
  88 0050 1370     		strb	r3, [r2]
  89 0052 7047     		bx	lr
  90              	.L14:
  91              		.align	2
  92              	.L13:
  93 0054 5077D63D 		.word	1037465424
  94 0058 00000000 		.word	.LANCHOR0
  95 005c 00000000 		.word	.LANCHOR1
  96 0060 CDCC4C3D 		.word	1028443341
  97              		.cfi_endproc
  98              	.LFE309:
  99              		.size	correct_encoder, .-correct_encoder
 100              		.section	.text.stop_pwm_hw,"ax",%progbits
 101              		.align	2
 102              		.p2align 4,,15
 103              		.thumb
 104              		.thumb_func
 105              		.type	stop_pwm_hw, %function
 106              	stop_pwm_hw:
 107              	.LFB306:
 108              		.loc 1 2187 0
 109              		.cfi_startproc
 110              		@ args = 0, pretend = 0, frame = 0
 111              		@ frame_needed = 0, uses_anonymous_args = 0
 112 0000 10B5     		push	{r4, lr}
 113              		.cfi_def_cfa_offset 8
 114              		.cfi_offset 4, -8
ARM GAS  C:\Users\euanm\AppData\Local\Temp\ccwBC4sF.s 			page 3


 115              		.cfi_offset 14, -4
 116              		.loc 1 2188 0
 117 0002 1B4C     		ldr	r4, .L17
 118 0004 4022     		movs	r2, #64
 119 0006 2046     		mov	r0, r4
 120 0008 0021     		movs	r1, #0
 121 000a FFF7FEFF 		bl	TIM_SelectOCxM
 122              	.LVL7:
 123              		.loc 1 2189 0
 124 000e 2046     		mov	r0, r4
 125 0010 0122     		movs	r2, #1
 126 0012 0021     		movs	r1, #0
 127 0014 FFF7FEFF 		bl	TIM_CCxCmd
 128              	.LVL8:
 129              		.loc 1 2190 0
 130 0018 0022     		movs	r2, #0
 131 001a 1146     		mov	r1, r2
 132 001c 2046     		mov	r0, r4
 133 001e FFF7FEFF 		bl	TIM_CCxNCmd
 134              	.LVL9:
 135              		.loc 1 2192 0
 136 0022 2046     		mov	r0, r4
 137 0024 4022     		movs	r2, #64
 138 0026 0421     		movs	r1, #4
 139 0028 FFF7FEFF 		bl	TIM_SelectOCxM
 140              	.LVL10:
 141              		.loc 1 2193 0
 142 002c 2046     		mov	r0, r4
 143 002e 0122     		movs	r2, #1
 144 0030 0421     		movs	r1, #4
 145 0032 FFF7FEFF 		bl	TIM_CCxCmd
 146              	.LVL11:
 147              		.loc 1 2194 0
 148 0036 2046     		mov	r0, r4
 149 0038 0022     		movs	r2, #0
 150 003a 0421     		movs	r1, #4
 151 003c FFF7FEFF 		bl	TIM_CCxNCmd
 152              	.LVL12:
 153              		.loc 1 2196 0
 154 0040 2046     		mov	r0, r4
 155 0042 4022     		movs	r2, #64
 156 0044 0821     		movs	r1, #8
 157 0046 FFF7FEFF 		bl	TIM_SelectOCxM
 158              	.LVL13:
 159              		.loc 1 2197 0
 160 004a 2046     		mov	r0, r4
 161 004c 0122     		movs	r2, #1
 162 004e 0821     		movs	r1, #8
 163 0050 FFF7FEFF 		bl	TIM_CCxCmd
 164              	.LVL14:
 165              		.loc 1 2198 0
 166 0054 0022     		movs	r2, #0
 167 0056 2046     		mov	r0, r4
 168 0058 0821     		movs	r1, #8
 169 005a FFF7FEFF 		bl	TIM_CCxNCmd
 170              	.LVL15:
 171              		.loc 1 2200 0
ARM GAS  C:\Users\euanm\AppData\Local\Temp\ccwBC4sF.s 			page 4


 172 005e 2046     		mov	r0, r4
 173 0060 2021     		movs	r1, #32
 174 0062 FFF7FEFF 		bl	TIM_GenerateEvent
 175              	.LVL16:
 176              		.loc 1 2202 0
 177 0066 034B     		ldr	r3, .L17+4
 178 0068 0022     		movs	r2, #0
 179 006a 1A70     		strb	r2, [r3]
 180 006c 10BD     		pop	{r4, pc}
 181              	.L18:
 182 006e 00BF     		.align	2
 183              	.L17:
 184 0070 00000140 		.word	1073807360
 185 0074 00000000 		.word	.LANCHOR2
 186              		.cfi_endproc
 187              	.LFE306:
 188              		.size	stop_pwm_hw, .-stop_pwm_hw
 189              		.section	.text.start_pwm_hw,"ax",%progbits
 190              		.align	2
 191              		.p2align 4,,15
 192              		.thumb
 193              		.thumb_func
 194              		.type	start_pwm_hw, %function
 195              	start_pwm_hw:
 196              	.LFB307:
 197              		.loc 1 2205 0
 198              		.cfi_startproc
 199              		@ args = 0, pretend = 0, frame = 0
 200              		@ frame_needed = 0, uses_anonymous_args = 0
 201 0000 10B5     		push	{r4, lr}
 202              		.cfi_def_cfa_offset 8
 203              		.cfi_offset 4, -8
 204              		.cfi_offset 14, -4
 205              		.loc 1 2206 0
 206 0002 1B4C     		ldr	r4, .L21
 207 0004 6022     		movs	r2, #96
 208 0006 2046     		mov	r0, r4
 209 0008 0021     		movs	r1, #0
 210 000a FFF7FEFF 		bl	TIM_SelectOCxM
 211              	.LVL17:
 212              		.loc 1 2207 0
 213 000e 2046     		mov	r0, r4
 214 0010 0122     		movs	r2, #1
 215 0012 0021     		movs	r1, #0
 216 0014 FFF7FEFF 		bl	TIM_CCxCmd
 217              	.LVL18:
 218              		.loc 1 2208 0
 219 0018 2046     		mov	r0, r4
 220 001a 0422     		movs	r2, #4
 221 001c 0021     		movs	r1, #0
 222 001e FFF7FEFF 		bl	TIM_CCxNCmd
 223              	.LVL19:
 224              		.loc 1 2210 0
 225 0022 2046     		mov	r0, r4
 226 0024 6022     		movs	r2, #96
 227 0026 0421     		movs	r1, #4
 228 0028 FFF7FEFF 		bl	TIM_SelectOCxM
ARM GAS  C:\Users\euanm\AppData\Local\Temp\ccwBC4sF.s 			page 5


 229              	.LVL20:
 230              		.loc 1 2211 0
 231 002c 2046     		mov	r0, r4
 232 002e 0122     		movs	r2, #1
 233 0030 0421     		movs	r1, #4
 234 0032 FFF7FEFF 		bl	TIM_CCxCmd
 235              	.LVL21:
 236              		.loc 1 2212 0
 237 0036 0422     		movs	r2, #4
 238 0038 1146     		mov	r1, r2
 239 003a 2046     		mov	r0, r4
 240 003c FFF7FEFF 		bl	TIM_CCxNCmd
 241              	.LVL22:
 242              		.loc 1 2214 0
 243 0040 2046     		mov	r0, r4
 244 0042 6022     		movs	r2, #96
 245 0044 0821     		movs	r1, #8
 246 0046 FFF7FEFF 		bl	TIM_SelectOCxM
 247              	.LVL23:
 248              		.loc 1 2215 0
 249 004a 2046     		mov	r0, r4
 250 004c 0122     		movs	r2, #1
 251 004e 0821     		movs	r1, #8
 252 0050 FFF7FEFF 		bl	TIM_CCxCmd
 253              	.LVL24:
 254              		.loc 1 2216 0
 255 0054 0422     		movs	r2, #4
 256 0056 2046     		mov	r0, r4
 257 0058 0821     		movs	r1, #8
 258 005a FFF7FEFF 		bl	TIM_CCxNCmd
 259              	.LVL25:
 260              		.loc 1 2218 0
 261 005e 2046     		mov	r0, r4
 262 0060 2021     		movs	r1, #32
 263 0062 FFF7FEFF 		bl	TIM_GenerateEvent
 264              	.LVL26:
 265              		.loc 1 2220 0
 266 0066 034B     		ldr	r3, .L21+4
 267 0068 0122     		movs	r2, #1
 268 006a 1A70     		strb	r2, [r3]
 269 006c 10BD     		pop	{r4, pc}
 270              	.L22:
 271 006e 00BF     		.align	2
 272              	.L21:
 273 0070 00000140 		.word	1073807360
 274 0074 00000000 		.word	.LANCHOR2
 275              		.cfi_endproc
 276              	.LFE307:
 277              		.size	start_pwm_hw, .-start_pwm_hw
 278              		.section	.text.correct_hall,"ax",%progbits
 279              		.align	2
 280              		.p2align 4,,15
 281              		.thumb
 282              		.thumb_func
 283              		.type	correct_hall, %function
 284              	correct_hall:
 285              	.LFB310:
ARM GAS  C:\Users\euanm\AppData\Local\Temp\ccwBC4sF.s 			page 6


 286              		.loc 1 2246 0
 287              		.cfi_startproc
 288              		@ args = 0, pretend = 0, frame = 8
 289              		@ frame_needed = 0, uses_anonymous_args = 0
 290              	.LVL27:
 291              		.loc 1 2248 0
 292 0000 9FED6F6A 		vldr.32	s12, .L61
 293              		.loc 1 2252 0
 294 0004 6F4A     		ldr	r2, .L61+4
 295              		.loc 1 2253 0
 296 0006 704B     		ldr	r3, .L61+8
 297              		.loc 1 2252 0
 298 0008 1068     		ldr	r0, [r2]
 299 000a DFED706A 		vldr.32	s13, .L61+12
 300 000e D0ED3C7A 		vldr.32	s15, [r0, #240]
 301              		.loc 1 2253 0
 302 0012 1A78     		ldrb	r2, [r3]	@ zero_extendqisi2
 303              		.loc 1 2248 0
 304 0014 80EE867A 		vdiv.f32	s14, s1, s12
 305              		.loc 1 2246 0
 306 0018 30B5     		push	{r4, r5, lr}
 307              		.cfi_def_cfa_offset 12
 308              		.cfi_offset 4, -12
 309              		.cfi_offset 5, -8
 310              		.cfi_offset 14, -4
 311 001a 2DED028B 		vpush.64	{d8}
 312              		.cfi_def_cfa_offset 20
 313              		.cfi_offset 80, -20
 314              		.cfi_offset 81, -16
 315              		.loc 1 2252 0
 316 001e 67EEA67A 		vmul.f32	s15, s15, s13
 317              		.loc 1 2246 0
 318 0022 83B0     		sub	sp, sp, #12
 319              		.cfi_def_cfa_offset 32
 320              		.loc 1 2246 0
 321 0024 B0EE608A 		vmov.f32	s16, s1
 322              		.loc 1 2248 0
 323 0028 B0EEC77A 		vabs.f32	s14, s14
 324              	.LVL28:
 325              		.loc 1 2254 0
 326 002c D0ED3C6A 		vldr.32	s13, [r0, #240]
 327              		.loc 1 2253 0
 328 0030 82B1     		cbz	r2, .L24
 329              		.loc 1 2254 0
 330 0032 77EEA67A 		vadd.f32	s15, s15, s13
 331              	.LVL29:
 332 0036 B4EEE77A 		vcmpe.f32	s14, s15
 333 003a F1EE10FA 		vmrs	APSR_nzcv, FPSCR
 334 003e 12DD     		ble	.L25
 335              		.loc 1 2255 0
 336 0040 0022     		movs	r2, #0
 337 0042 1A70     		strb	r2, [r3]
 338              	.L27:
 339              		.loc 1 2327 0
 340 0044 624B     		ldr	r3, .L61+16
 341 0046 6FF00102 		mvn	r2, #1
 342 004a 1A60     		str	r2, [r3]
ARM GAS  C:\Users\euanm\AppData\Local\Temp\ccwBC4sF.s 			page 7


 343              	.L47:
 344              		.loc 1 2331 0
 345 004c 03B0     		add	sp, sp, #12
 346              		.cfi_remember_state
 347              		.cfi_def_cfa_offset 20
 348              		@ sp needed
 349 004e BDEC028B 		vldm	sp!, {d8}
 350              		.cfi_restore 80
 351              		.cfi_restore 81
 352              		.cfi_def_cfa_offset 12
 353 0052 30BD     		pop	{r4, r5, pc}
 354              	.LVL30:
 355              	.L24:
 356              		.cfi_restore_state
 357              		.loc 1 2258 0
 358 0054 76EEE77A 		vsub.f32	s15, s13, s15
 359              	.LVL31:
 360 0058 B4EEE77A 		vcmpe.f32	s14, s15
 361 005c F1EE10FA 		vmrs	APSR_nzcv, FPSCR
 362 0060 F0D5     		bpl	.L27
 363              		.loc 1 2259 0
 364 0062 0122     		movs	r2, #1
 365 0064 1A70     		strb	r2, [r3]
 366              	.L25:
 367              	.LBB34:
 368              	.LBB35:
 369              	.LBB36:
 370              		.loc 1 2224 0
 371 0066 5B4B     		ldr	r3, .L61+20
 372 0068 5B49     		ldr	r1, .L61+24
 373 006a 1A69     		ldr	r2, [r3, #16]
 374 006c 1B69     		ldr	r3, [r3, #16]
 375 006e 0969     		ldr	r1, [r1, #16]
 376 0070 9B09     		lsrs	r3, r3, #6
 377 0072 490A     		lsrs	r1, r1, #9
 378 0074 03F00203 		and	r3, r3, #2
 379 0078 01F00401 		and	r1, r1, #4
 380 007c C2F38012 		ubfx	r2, r2, #6, #1
 381 0080 0B43     		orrs	r3, r3, r1
 382 0082 1343     		orrs	r3, r3, r2
 383              	.LBE36:
 384              	.LBE35:
 385              		.loc 1 2264 0
 386 0084 0344     		add	r3, r3, r0
 387 0086 93F8E530 		ldrb	r3, [r3, #229]	@ zero_extendqisi2
 388 008a DBB2     		uxtb	r3, r3
 389              	.LVL32:
 390              		.loc 1 2267 0
 391 008c C82B     		cmp	r3, #200
 392 008e 4EDC     		bgt	.L58
 393              	.LBB37:
 394              		.loc 1 2269 0
 395 0090 07EE903A 		vmov	s15, r3	@ int
 396 0094 9FED515A 		vldr.32	s10, .L61+28
 397 0098 DFED515A 		vldr.32	s11, .L61+32
 398              		.loc 1 2271 0
 399 009c 4C49     		ldr	r1, .L61+16
ARM GAS  C:\Users\euanm\AppData\Local\Temp\ccwBC4sF.s 			page 8


 400              		.loc 1 2269 0
 401 009e DFED516A 		vldr.32	s13, .L61+36
 402              		.loc 1 2271 0
 403 00a2 0A68     		ldr	r2, [r1]
 404              		.loc 1 2269 0
 405 00a4 9FED506A 		vldr.32	s12, .L61+40
 406 00a8 F8EEE74A 		vcvt.f32.s32	s9, s15
 407              		.loc 1 2271 0
 408 00ac 002A     		cmp	r2, #0
 409              		.loc 1 2269 0
 410 00ae C4EE857A 		vdiv.f32	s15, s9, s10
 411 00b2 67EEA57A 		vmul.f32	s15, s15, s11
 412 00b6 67EEA67A 		vmul.f32	s15, s15, s13
 413 00ba C7EE860A 		vdiv.f32	s1, s15, s12
 414              	.LVL33:
 415              		.loc 1 2271 0
 416 00be 46DB     		blt	.L59
 417              		.loc 1 2282 0
 418 00c0 9342     		cmp	r3, r2
 419 00c2 72D0     		beq	.L60
 420              	.LBB38:
 421              		.loc 1 2284 0
 422 00c4 981A     		subs	r0, r3, r2
 423 00c6 0028     		cmp	r0, #0
 424 00c8 B8BF     		it	lt
 425 00ca 4042     		rsblt	r0, r0, #0
 426              	.LVL34:
 427              		.loc 1 2285 0
 428 00cc 6328     		cmp	r0, #99
 429 00ce 5BDC     		bgt	.L31
 430              	.LVL35:
 431 00d0 1A44     		add	r2, r2, r3
 432              	.LVL36:
 433 00d2 02EBD272 		add	r2, r2, r2, lsr #31
 434 00d6 4548     		ldr	r0, .L61+44
 435 00d8 5410     		asrs	r4, r2, #1
 436 00da 80FB0450 		smull	r5, r0, r0, r4
 437 00de D217     		asrs	r2, r2, #31
 438 00e0 C2EBA012 		rsb	r2, r2, r0, asr #6
 439 00e4 C820     		movs	r0, #200
 440 00e6 00FB1242 		mls	r2, r0, r2, r4
 441              	.LVL37:
 442              	.L56:
 443 00ea 07EE902A 		vmov	s15, r2	@ int
 444 00ee F8EEE77A 		vcvt.f32.s32	s15, s15
 445 00f2 C7EE854A 		vdiv.f32	s9, s15, s10
 446 00f6 64EEA55A 		vmul.f32	s11, s9, s11
 447 00fa 65EEA65A 		vmul.f32	s11, s11, s13
 448 00fe C5EE866A 		vdiv.f32	s13, s11, s12
 449              	.L32:
 450              		.loc 1 2291 0
 451 0102 3B4C     		ldr	r4, .L61+48
 452 0104 C4ED006A 		vstr.32	s13, [r4]
 453              	.L30:
 454              	.LBE38:
 455              		.loc 1 2296 0
 456 0108 DFED3A8A 		vldr.32	s17, .L61+52
ARM GAS  C:\Users\euanm\AppData\Local\Temp\ccwBC4sF.s 			page 9


 457              		.loc 1 2294 0
 458 010c 0B60     		str	r3, [r1]
 459              		.loc 1 2296 0
 460 010e B4EEE87A 		vcmpe.f32	s14, s17
 461 0112 F1EE10FA 		vmrs	APSR_nzcv, FPSCR
 462 0116 1ED5     		bpl	.L52
 463              		.loc 1 2298 0
 464 0118 C4ED000A 		vstr.32	s1, [r4]
 465              	.LVL38:
 466              	.L35:
 467              		.loc 1 2311 0
 468 011c 3448     		ldr	r0, .L61+48
 469 011e FFF7FEFF 		bl	utils_norm_angle_rad
 470              	.LVL39:
 471              		.loc 1 2313 0
 472 0122 94ED000A 		vldr.32	s0, [r4]
 473              	.LVL40:
 474              	.LBE37:
 475              	.LBE34:
 476              		.loc 1 2331 0
 477 0126 03B0     		add	sp, sp, #12
 478              		.cfi_remember_state
 479              		.cfi_def_cfa_offset 20
 480              		@ sp needed
 481 0128 BDEC028B 		vldm	sp!, {d8}
 482              		.cfi_restore 80
 483              		.cfi_restore 81
 484              		.cfi_def_cfa_offset 12
 485              	.LVL41:
 486 012c 30BD     		pop	{r4, r5, pc}
 487              	.LVL42:
 488              	.L58:
 489              		.cfi_restore_state
 490              	.LBB43:
 491              		.loc 1 2321 0
 492 012e 324B     		ldr	r3, .L61+56
 493              	.LVL43:
 494              		.loc 1 2316 0
 495 0130 274A     		ldr	r2, .L61+16
 496              		.loc 1 2321 0
 497 0132 1B78     		ldrb	r3, [r3]	@ zero_extendqisi2
 498              		.loc 1 2316 0
 499 0134 4FF0FF31 		mov	r1, #-1
 500 0138 1160     		str	r1, [r2]
 501              		.loc 1 2321 0
 502 013a 002B     		cmp	r3, #0
 503 013c 86D0     		beq	.L47
 504              		.loc 1 2321 0 is_stmt 0 discriminator 1
 505 013e 2F4B     		ldr	r3, .L61+60
 506 0140 1B78     		ldrb	r3, [r3]	@ zero_extendqisi2
 507 0142 022B     		cmp	r3, #2
 508 0144 82D1     		bne	.L47
 509              		.loc 1 2322 0 is_stmt 1
 510 0146 2E4B     		ldr	r3, .L61+64
 511 0148 93ED000A 		vldr.32	s0, [r3]
 512              	.LVL44:
 513 014c 7EE7     		b	.L47
ARM GAS  C:\Users\euanm\AppData\Local\Temp\ccwBC4sF.s 			page 10


 514              	.LVL45:
 515              	.L59:
 516              	.LBB42:
 517              		.loc 1 2280 0
 518 014e 284C     		ldr	r4, .L61+48
 519 0150 C4ED000A 		vstr.32	s1, [r4]
 520 0154 D8E7     		b	.L30
 521              	.L52:
 522              	.LBB39:
 523              		.loc 1 2301 0
 524 0156 94ED000A 		vldr.32	s0, [r4]
 525              	.LVL46:
 526 015a 8DED011A 		vstr.32	s2, [sp, #4]	@ int
 527 015e FFF7FEFF 		bl	utils_angle_difference_rad
 528              	.LVL47:
 529              		.loc 1 2302 0
 530 0162 DFED287A 		vldr.32	s15, .L61+68
 531              		.loc 1 2301 0
 532 0166 224D     		ldr	r5, .L61+48
 533              		.loc 1 2302 0
 534 0168 B0EEC07A 		vabs.f32	s14, s0
 535 016c B4EEE77A 		vcmpe.f32	s14, s15
 536 0170 F1EE10FA 		vmrs	APSR_nzcv, FPSCR
 537 0174 1BD5     		bpl	.L53
 538              		.loc 1 2304 0
 539 0176 D5ED007A 		vldr.32	s15, [r5]
 540 017a 9DED011A 		vldr.32	s2, [sp, #4]	@ int
 541 017e E8EE017A 		vfma.f32	s15, s16, s2
 542 0182 C5ED007A 		vstr.32	s15, [r5]
 543 0186 C9E7     		b	.L35
 544              	.LVL48:
 545              	.L31:
 546              	.LBE39:
 547              	.LBB40:
 548              		.loc 1 2287 0
 549 0188 6428     		cmp	r0, #100
 550 018a BAD0     		beq	.L32
 551              	.LVL49:
 552 018c 1A44     		add	r2, r2, r3
 553              	.LVL50:
 554 018e 02EBD272 		add	r2, r2, r2, lsr #31
 555 0192 1648     		ldr	r0, .L61+44
 556 0194 5210     		asrs	r2, r2, #1
 557 0196 6432     		adds	r2, r2, #100
 558 0198 80FB0204 		smull	r0, r4, r0, r2
 559 019c D017     		asrs	r0, r2, #31
 560 019e C0EBA410 		rsb	r0, r0, r4, asr #6
 561 01a2 C824     		movs	r4, #200
 562 01a4 04FB1022 		mls	r2, r4, r0, r2
 563 01a8 9FE7     		b	.L56
 564              	.LVL51:
 565              	.L60:
 566 01aa 114C     		ldr	r4, .L61+48
 567 01ac ACE7     		b	.L30
 568              	.LVL52:
 569              	.L53:
 570              	.LBE40:
ARM GAS  C:\Users\euanm\AppData\Local\Temp\ccwBC4sF.s 			page 11


 571              	.LBB41:
 572              		.loc 1 2307 0
 573 01ae 80EE287A 		vdiv.f32	s14, s0, s17
 574 01b2 D5ED007A 		vldr.32	s15, [r5]
 575 01b6 77EEC77A 		vsub.f32	s15, s15, s14
 576 01ba C5ED007A 		vstr.32	s15, [r5]
 577 01be ADE7     		b	.L35
 578              	.L62:
 579              		.align	2
 580              	.L61:
 581 01c0 5077D63D 		.word	1037465424
 582 01c4 00000000 		.word	.LANCHOR0
 583 01c8 00000000 		.word	.LANCHOR3
 584 01cc CDCCCC3D 		.word	1036831949
 585 01d0 00000000 		.word	.LANCHOR4
 586 01d4 00040240 		.word	1073873920
 587 01d8 00080240 		.word	1073874944
 588 01dc 00004843 		.word	1128792064
 589 01e0 0000B443 		.word	1135869952
 590 01e4 DB0F4940 		.word	1078530011
 591 01e8 00003443 		.word	1127481344
 592 01ec 1F85EB51 		.word	1374389535
 593 01f0 00000000 		.word	.LANCHOR5
 594 01f4 0000C842 		.word	1120403456
 595 01f8 00000000 		.word	.LANCHOR6
 596 01fc 00000000 		.word	.LANCHOR7
 597 0200 00000000 		.word	.LANCHOR8
 598 0204 920A063F 		.word	1057360530
 599              	.LBE41:
 600              	.LBE42:
 601              	.LBE43:
 602              		.cfi_endproc
 603              	.LFE310:
 604              		.size	correct_hall, .-correct_hall
 605              		.section	.text.timer_thread,"ax",%progbits
 606              		.align	2
 607              		.p2align 4,,15
 608              		.thumb
 609              		.thumb_func
 610              		.type	timer_thread, %function
 611              	timer_thread:
 612              	.LFB298:
 613              		.loc 1 1710 0
 614              		.cfi_startproc
 615              		@ args = 0, pretend = 0, frame = 32
 616              		@ frame_needed = 0, uses_anonymous_args = 0
 617              	.LVL53:
 618              	.LBB52:
 619              	.LBB53:
 620              		.file 2 "ChibiOS_3.0.2/os/rt/include/chregistry.h"
 621              		.loc 2 135 0
 622 0000 CE4B     		ldr	r3, .L122
 623 0002 CF49     		ldr	r1, .L122+4
 624 0004 9A69     		ldr	r2, [r3, #24]
 625              	.LBE53:
 626              	.LBE52:
 627              	.LBB55:
ARM GAS  C:\Users\euanm\AppData\Local\Temp\ccwBC4sF.s 			page 12


 628              		.loc 1 1716 0
 629 0006 CF4B     		ldr	r3, .L122+8
 630              	.LBE55:
 631              	.LBB68:
 632              	.LBB54:
 633              		.loc 2 135 0
 634 0008 9161     		str	r1, [r2, #24]
 635              	.LBE54:
 636              	.LBE68:
 637              	.LBB69:
 638              		.loc 1 1716 0
 639 000a 1B78     		ldrb	r3, [r3]	@ zero_extendqisi2
 640 000c 002B     		cmp	r3, #0
 641 000e 40F0F181 		bne	.L113
 642              	.LBE69:
 643              		.loc 1 1710 0
 644 0012 2DE9F04F 		push	{r4, r5, r6, r7, r8, r9, r10, fp, lr}
 645              		.cfi_def_cfa_offset 36
 646              		.cfi_offset 4, -36
 647              		.cfi_offset 5, -32
 648              		.cfi_offset 6, -28
 649              		.cfi_offset 7, -24
 650              		.cfi_offset 8, -20
 651              		.cfi_offset 9, -16
 652              		.cfi_offset 10, -12
 653              		.cfi_offset 11, -8
 654              		.cfi_offset 14, -4
 655 0016 2DED0A8B 		vpush.64	{d8, d9, d10, d11, d12}
 656              		.cfi_def_cfa_offset 76
 657              		.cfi_offset 80, -76
 658              		.cfi_offset 81, -72
 659              		.cfi_offset 82, -68
 660              		.cfi_offset 83, -64
 661              		.cfi_offset 84, -60
 662              		.cfi_offset 85, -56
 663              		.cfi_offset 86, -52
 664              		.cfi_offset 87, -48
 665              		.cfi_offset 88, -44
 666              		.cfi_offset 89, -40
 667 001a CB4C     		ldr	r4, .L122+12
 668 001c CB4E     		ldr	r6, .L122+16
 669 001e DFF85C93 		ldr	r9, .L122+64
 670 0022 CB4D     		ldr	r5, .L122+20
 671 0024 DFF88083 		ldr	r8, .L122+108
 672 0028 DFF880A3 		ldr	r10, .L122+112
 673 002c C94F     		ldr	r7, .L122+24
 674 002e DFF83CB3 		ldr	fp, .L122+48
 675              	.LBB70:
 676              		.loc 1 1721 0
 677 0032 9FEDC99A 		vldr.32	s18, .L122+28
 678              		.loc 1 1726 0
 679 0036 DFEDC9AA 		vldr.32	s21, .L122+32
 680 003a 9FEDC9AA 		vldr.32	s20, .L122+36
 681              		.loc 1 1734 0
 682 003e DFEDC98A 		vldr.32	s17, .L122+40
 683              		.loc 1 1754 0
 684 0042 9FEDC9BA 		vldr.32	s22, .L122+44
ARM GAS  C:\Users\euanm\AppData\Local\Temp\ccwBC4sF.s 			page 13


 685              	.LBE70:
 686              		.loc 1 1710 0
 687 0046 89B0     		sub	sp, sp, #36
 688              		.cfi_def_cfa_offset 112
 689 0048 58E0     		b	.L64
 690              	.LVL54:
 691              	.L117:
 692              	.LBB71:
 693              		.loc 1 1749 0
 694 004a 98F80030 		ldrb	r3, [r8]	@ zero_extendqisi2
 695              		.loc 1 1743 0
 696 004e 77EEA87A 		vadd.f32	s15, s15, s17
 697              		.loc 1 1749 0
 698 0052 032B     		cmp	r3, #3
 699              		.loc 1 1743 0
 700 0054 C5ED007A 		vstr.32	s15, [r5]
 701              		.loc 1 1749 0
 702 0058 00F09580 		beq	.L72
 703              	.L118:
 704              		.loc 1 1749 0 is_stmt 0 discriminator 1
 705 005c D4ED037A 		vldr.32	s15, [r4, #12]
 706 0060 F0EEE77A 		vabs.f32	s15, s15
 707 0064 F4EEE87A 		vcmpe.f32	s15, s17
 708 0068 F1EE10FA 		vmrs	APSR_nzcv, FPSCR
 709 006c 00F18B80 		bmi	.L72
 710 0070 95ED007A 		vldr.32	s14, [r5]
 711              	.L73:
 712              		.loc 1 1754 0 is_stmt 1
 713 0074 3368     		ldr	r3, [r6]
 714 0076 D3ED357A 		vldr.32	s15, [r3, #212]
 715 007a F4EEC77A 		vcmpe.f32	s15, s14
 716 007e F1EE10FA 		vmrs	APSR_nzcv, FPSCR
 717 0082 D7ED007A 		vldr.32	s15, [r7]
 718 0086 09D5     		bpl	.L75
 719              		.loc 1 1754 0 is_stmt 0 discriminator 1
 720 0088 F4EECB7A 		vcmpe.f32	s15, s22
 721 008c F1EE10FA 		vmrs	APSR_nzcv, FPSCR
 722 0090 B04A     		ldr	r2, .L122+24
 723              		.loc 1 1755 0 is_stmt 1 discriminator 1
 724 0092 9CBF     		itt	ls
 725 0094 D3ED367A 		vldrls.32	s15, [r3, #216]
 726 0098 C2ED007A 		vstrls.32	s15, [r2]
 727              	.L75:
 728              		.loc 1 1758 0
 729 009c F5EEC07A 		vcmpe.f32	s15, #0
 730 00a0 F1EE10FA 		vmrs	APSR_nzcv, FPSCR
 731 00a4 77DD     		ble	.L109
 732              		.loc 1 1759 0
 733 00a6 DBED007A 		vldr.32	s15, [fp]
 734              		.loc 1 1760 0
 735 00aa B048     		ldr	r0, .L122+48
 736              		.loc 1 1759 0
 737 00ac 38EE278A 		vadd.f32	s16, s16, s15
 738              	.LVL55:
 739 00b0 8BED008A 		vstr.32	s16, [fp]
 740              		.loc 1 1760 0
 741 00b4 FFF7FEFF 		bl	utils_norm_angle_rad
ARM GAS  C:\Users\euanm\AppData\Local\Temp\ccwBC4sF.s 			page 14


 742              	.LVL56:
 743              		.loc 1 1761 0
 744 00b8 0123     		movs	r3, #1
 745 00ba 8AF80030 		strb	r3, [r10]
 746              		.loc 1 1770 0
 747 00be AC4B     		ldr	r3, .L122+52
 748              		.loc 1 1762 0
 749 00c0 D7ED007A 		vldr.32	s15, [r7]
 750              		.loc 1 1770 0
 751 00c4 1B78     		ldrb	r3, [r3]	@ zero_extendqisi2
 752              		.loc 1 1763 0
 753 00c6 85ED009A 		vstr.32	s18, [r5]
 754              		.loc 1 1762 0
 755 00ca 77EEE87A 		vsub.f32	s15, s15, s17
 756              		.loc 1 1770 0
 757 00ce 022B     		cmp	r3, #2
 758              		.loc 1 1762 0
 759 00d0 C7ED007A 		vstr.32	s15, [r7]
 760              		.loc 1 1770 0
 761 00d4 6AD0     		beq	.L115
 762              	.L80:
 763              	.LVL57:
 764              	.LBB56:
 765              	.LBB57:
 766              		.loc 1 2140 0
 767 00d6 98F80030 		ldrb	r3, [r8]	@ zero_extendqisi2
 768 00da 012B     		cmp	r3, #1
 769 00dc 00F0AB80 		beq	.L83
 770              	.L121:
 771              		.loc 1 2141 0
 772 00e0 A44B     		ldr	r3, .L122+56
 773 00e2 83ED009A 		vstr.32	s18, [r3]
 774              		.loc 1 2142 0
 775 00e6 A44B     		ldr	r3, .L122+60
 776 00e8 83ED009A 		vstr.32	s18, [r3]
 777              	.LVL58:
 778              	.L93:
 779              	.LBE57:
 780              	.LBE56:
 781              		.loc 1 1782 0
 782 00ec 0A20     		movs	r0, #10
 783 00ee FFF7FEFF 		bl	chThdSleep
 784              	.LVL59:
 785              		.loc 1 1716 0
 786 00f2 944B     		ldr	r3, .L122+8
 787 00f4 1B78     		ldrb	r3, [r3]	@ zero_extendqisi2
 788 00f6 002B     		cmp	r3, #0
 789 00f8 40F0B580 		bne	.L116
 790              	.LVL60:
 791              	.L64:
 792              		.loc 1 1722 0
 793 00fc 3368     		ldr	r3, [r6]
 794              		.loc 1 1721 0
 795 00fe 94ED010A 		vldr.32	s0, [r4, #4]
 796 0102 DFED951A 		vldr.32	s3, .L122+28
 797 0106 93ED171A 		vldr.32	s2, [r3, #92]
 798 010a 93ED342A 		vldr.32	s4, [r3, #208]
ARM GAS  C:\Users\euanm\AppData\Local\Temp\ccwBC4sF.s 			page 15


 799 010e F0EE610A 		vmov.f32	s1, s3
 800 0112 B0EEC00A 		vabs.f32	s0, s0
 801 0116 FFF7FEFF 		bl	utils_map
 802              	.LVL61:
 803              		.loc 1 1726 0
 804 011a 30EE000A 		vadd.f32	s0, s0, s0
 805              	.LVL62:
 806              		.loc 1 1731 0
 807 011e D4ED037A 		vldr.32	s15, [r4, #12]
 808              		.loc 1 1739 0
 809 0122 9648     		ldr	r0, .L122+64
 810              		.loc 1 1726 0
 811 0124 20EE2A0A 		vmul.f32	s0, s0, s21
 812              		.loc 1 1731 0
 813 0128 F5EEC07A 		vcmpe.f32	s15, #0
 814              		.loc 1 1726 0
 815 012c C0EE0A9A 		vdiv.f32	s19, s0, s20
 816              	.LVL63:
 817              		.loc 1 1731 0
 818 0130 F1EE10FA 		vmrs	APSR_nzcv, FPSCR
 819              		.loc 1 1732 0
 820 0134 CCBF     		ite	gt
 821 0136 29EEA88A 		vmulgt.f32	s16, s19, s17
 822              	.LVL64:
 823              		.loc 1 1734 0
 824 013a 29EEE88A 		vnmulle.f32	s16, s19, s17
 825              	.LVL65:
 826              		.loc 1 1738 0
 827 013e D9ED007A 		vldr.32	s15, [r9]
 828 0142 78EE277A 		vadd.f32	s15, s16, s15
 829 0146 C9ED007A 		vstr.32	s15, [r9]
 830              		.loc 1 1739 0
 831 014a FFF7FEFF 		bl	utils_norm_angle_rad
 832              	.LVL66:
 833              		.loc 1 1742 0
 834 014e 8C4B     		ldr	r3, .L122+68
 835 0150 D3ED007A 		vldr.32	s15, [r3]
 836 0154 F0EEE77A 		vabs.f32	s15, s15
 837 0158 F4EEE79A 		vcmpe.f32	s19, s15
 838 015c F1EE10FA 		vmrs	APSR_nzcv, FPSCR
 839              		.loc 1 1743 0
 840 0160 D5ED007A 		vldr.32	s15, [r5]
 841              		.loc 1 1742 0
 842 0164 3FF771AF 		bgt	.L117
 843              		.loc 1 1744 0
 844 0168 F5EEC07A 		vcmpe.f32	s15, #0
 845 016c F1EE10FA 		vmrs	APSR_nzcv, FPSCR
 846 0170 774B     		ldr	r3, .L122+20
 847              		.loc 1 1745 0
 848 0172 C4BF     		itt	gt
 849 0174 77EEE87A 		vsubgt.f32	s15, s15, s17
 850 0178 C3ED007A 		vstrgt.32	s15, [r3]
 851              		.loc 1 1749 0
 852 017c 98F80030 		ldrb	r3, [r8]	@ zero_extendqisi2
 853 0180 032B     		cmp	r3, #3
 854 0182 7FF46BAF 		bne	.L118
 855              	.L72:
ARM GAS  C:\Users\euanm\AppData\Local\Temp\ccwBC4sF.s 			page 16


 856              		.loc 1 1751 0
 857 0186 0023     		movs	r3, #0
 858 0188 9FED737A 		vldr.32	s14, .L122+28
 859              		.loc 1 1750 0
 860 018c 85ED009A 		vstr.32	s18, [r5]
 861              		.loc 1 1751 0
 862 0190 8AF80030 		strb	r3, [r10]
 863 0194 6EE7     		b	.L73
 864              	.L109:
 865              		.loc 1 1765 0
 866 0196 7B4B     		ldr	r3, .L122+72
 867 0198 1A68     		ldr	r2, [r3]	@ float
 868 019a CBF80020 		str	r2, [fp]	@ float
 869              		.loc 1 1766 0
 870 019e 0023     		movs	r3, #0
 871 01a0 8AF80030 		strb	r3, [r10]
 872              		.loc 1 1770 0
 873 01a4 724B     		ldr	r3, .L122+52
 874 01a6 1B78     		ldrb	r3, [r3]	@ zero_extendqisi2
 875 01a8 022B     		cmp	r3, #2
 876 01aa 94D1     		bne	.L80
 877              	.LVL67:
 878              	.L115:
 879              	.LBB64:
 880              		.loc 1 1771 0
 881 01ac 236D     		ldr	r3, [r4, #80]	@ float
 882 01ae 0393     		str	r3, [sp, #12]	@ float
 883              		.loc 1 1772 0
 884 01b0 636D     		ldr	r3, [r4, #84]	@ float
 885 01b2 0493     		str	r3, [sp, #16]	@ float
 886              		.loc 1 1773 0
 887 01b4 236C     		ldr	r3, [r4, #64]	@ float
 888 01b6 0593     		str	r3, [sp, #20]	@ float
 889              		.loc 1 1774 0
 890 01b8 636C     		ldr	r3, [r4, #68]	@ float
 891 01ba 0693     		str	r3, [sp, #24]	@ float
 892              		.loc 1 1776 0
 893 01bc DDED056A 		vldr.32	s13, [sp, #20]
 894 01c0 9DED057A 		vldr.32	s14, [sp, #20]
 895 01c4 9DED060A 		vldr.32	s0, [sp, #24]
 896 01c8 DDED067A 		vldr.32	s15, [sp, #24]
 897 01cc 20EE270A 		vmul.f32	s0, s0, s15
 898 01d0 A6EE870A 		vfma.f32	s0, s13, s14
 899 01d4 F1EEC07A 		vsqrt.f32	s15, s0
 900 01d8 F4EE677A 		vcmp.f32	s15, s15
 901 01dc F1EE10FA 		vmrs	APSR_nzcv, FPSCR
 902 01e0 40F00C81 		bne	.L119
 903              	.L81:
 904 01e4 684B     		ldr	r3, .L122+76
 905 01e6 93ED010A 		vldr.32	s0, [r3, #4]
 906 01ea 77EE807A 		vadd.f32	s15, s15, s0
 907 01ee C3ED017A 		vstr.32	s15, [r3, #4]
 908              		.loc 1 1777 0
 909 01f2 DDED036A 		vldr.32	s13, [sp, #12]
 910 01f6 9DED037A 		vldr.32	s14, [sp, #12]
 911 01fa 9DED040A 		vldr.32	s0, [sp, #16]
 912 01fe DDED047A 		vldr.32	s15, [sp, #16]
ARM GAS  C:\Users\euanm\AppData\Local\Temp\ccwBC4sF.s 			page 17


 913 0202 20EE270A 		vmul.f32	s0, s0, s15
 914 0206 A6EE870A 		vfma.f32	s0, s13, s14
 915 020a F1EEC07A 		vsqrt.f32	s15, s0
 916 020e F4EE677A 		vcmp.f32	s15, s15
 917 0212 F1EE10FA 		vmrs	APSR_nzcv, FPSCR
 918 0216 40F0F680 		bne	.L120
 919              	.L82:
 920 021a 93ED020A 		vldr.32	s0, [r3, #8]
 921 021e 77EE807A 		vadd.f32	s15, s15, s0
 922 0222 C3ED027A 		vstr.32	s15, [r3, #8]
 923              		.loc 1 1778 0
 924 0226 1A68     		ldr	r2, [r3]
 925 0228 0132     		adds	r2, r2, #1
 926 022a 1A60     		str	r2, [r3]
 927              	.LVL68:
 928              	.LBE64:
 929              	.LBB65:
 930              	.LBB62:
 931              		.loc 1 2140 0
 932 022c 98F80030 		ldrb	r3, [r8]	@ zero_extendqisi2
 933 0230 012B     		cmp	r3, #1
 934 0232 7FF455AF 		bne	.L121
 935              	.L83:
 936              		.loc 1 2147 0
 937 0236 554A     		ldr	r2, .L122+80
 938 0238 3368     		ldr	r3, [r6]
 939 023a D2ED007A 		vldr.32	s15, [r2]
 940 023e 93ED407A 		vldr.32	s14, [r3, #256]
 941 0242 4249     		ldr	r1, .L122+16
 942 0244 F0EEE77A 		vabs.f32	s15, s15
 943 0248 F4EEC77A 		vcmpe.f32	s15, s14
 944 024c F1EE10FA 		vmrs	APSR_nzcv, FPSCR
 945 0250 11D5     		bpl	.L110
 946              		.loc 1 2148 0
 947 0252 484A     		ldr	r2, .L122+56
 948              		.loc 1 2150 0
 949 0254 4E4B     		ldr	r3, .L122+84
 950              		.loc 1 2148 0
 951 0256 82ED009A 		vstr.32	s18, [r2]
 952              		.loc 1 2149 0
 953 025a 474A     		ldr	r2, .L122+60
 954 025c 82ED009A 		vstr.32	s18, [r2]
 955              		.loc 1 2150 0
 956 0260 83ED009A 		vstr.32	s18, [r3]
 957 0264 42E7     		b	.L93
 958              	.LVL69:
 959              	.L116:
 960              	.LBE62:
 961              	.LBE65:
 962              		.loc 1 1717 0
 963 0266 374A     		ldr	r2, .L122+8
 964 0268 0023     		movs	r3, #0
 965 026a 1370     		strb	r3, [r2]
 966              	.LBE71:
 967              		.loc 1 1785 0
 968 026c 09B0     		add	sp, sp, #36
 969              		.cfi_remember_state
ARM GAS  C:\Users\euanm\AppData\Local\Temp\ccwBC4sF.s 			page 18


 970              		.cfi_def_cfa_offset 76
 971              		@ sp needed
 972 026e BDEC0A8B 		vldm	sp!, {d8-d12}
 973              		.cfi_restore 88
 974              		.cfi_restore 89
 975              		.cfi_restore 86
 976              		.cfi_restore 87
 977              		.cfi_restore 84
 978              		.cfi_restore 85
 979              		.cfi_restore 82
 980              		.cfi_restore 83
 981              		.cfi_restore 80
 982              		.cfi_restore 81
 983              		.cfi_def_cfa_offset 36
 984 0272 BDE8F08F 		pop	{r4, r5, r6, r7, r8, r9, r10, fp, pc}
 985              	.LVL70:
 986              	.L110:
 987              		.cfi_restore_state
 988              	.LBB72:
 989              	.LBB66:
 990              	.LBB63:
 991              		.loc 1 2155 0
 992 0276 4748     		ldr	r0, .L122+88
 993              		.loc 1 2158 0
 994 0278 0092     		str	r2, [sp]
 995              		.loc 1 2155 0
 996 027a B0F810E0 		ldrh	lr, [r0, #16]
 997              		.loc 1 2158 0
 998 027e 92ED008A 		vldr.32	s16, [r2]
 999              	.LBB58:
 1000              	.LBB59:
 1001              		.loc 1 653 0
 1002 0282 3F4A     		ldr	r2, .L122+68
 1003              	.LBE59:
 1004              	.LBE58:
 1005              		.loc 1 2155 0
 1006 0284 DFED446A 		vldr.32	s13, .L122+92
 1007              	.LBB61:
 1008              	.LBB60:
 1009              		.loc 1 653 0
 1010 0288 D2ED003A 		vldr.32	s7, [r2]
 1011              	.LBE60:
 1012              	.LBE61:
 1013              		.loc 1 2158 0
 1014 028c 9FED434A 		vldr.32	s8, .L122+96
 1015              		.loc 1 2155 0
 1016 0290 9FED437A 		vldr.32	s14, .L122+100
 1017              		.loc 1 2161 0
 1018 0294 93ED3DCA 		vldr.32	s24, [r3, #244]
 1019              		.loc 1 2162 0
 1020 0298 D3ED3E5A 		vldr.32	s11, [r3, #248]
 1021              		.loc 1 2163 0
 1022 029c D3ED3F4A 		vldr.32	s9, [r3, #252]
 1023              		.loc 1 2162 0
 1024 02a0 344B     		ldr	r3, .L122+56
 1025              		.loc 1 2166 0
 1026 02a2 3448     		ldr	r0, .L122+56
ARM GAS  C:\Users\euanm\AppData\Local\Temp\ccwBC4sF.s 			page 19


 1027              		.loc 1 2162 0
 1028 02a4 93ED005A 		vldr.32	s10, [r3]
 1029              		.loc 1 2163 0
 1030 02a8 334B     		ldr	r3, .L122+60
 1031 02aa 0191     		str	r1, [sp, #4]
 1032              		.loc 1 2155 0
 1033 02ac 1FFA8EFE 		uxth	lr, lr
 1034 02b0 07EE90EA 		vmov	s15, lr	@ int
 1035 02b4 F8EE677A 		vcvt.f32.u32	s15, s15
 1036              		.loc 1 2158 0
 1037 02b8 83EE846A 		vdiv.f32	s12, s7, s8
 1038              		.loc 1 2155 0
 1039 02bc 67EEA67A 		vmul.f32	s15, s15, s13
 1040 02c0 F7EE000A 		vmov.f32	s1, #1.0e+0
 1041 02c4 67EE877A 		vmul.f32	s15, s15, s14
 1042              		.loc 1 2163 0
 1043 02c8 84EEA87A 		vdiv.f32	s14, s9, s17
 1044              		.loc 1 2155 0
 1045 02cc C0EEA7BA 		vdiv.f32	s23, s1, s15
 1046              	.LVL71:
 1047              		.loc 1 2158 0
 1048 02d0 38EE468A 		vsub.f32	s16, s16, s12
 1049              	.LVL72:
 1050              		.loc 1 2162 0
 1051 02d4 65EEA87A 		vmul.f32	s15, s11, s17
 1052              		.loc 1 2163 0
 1053 02d8 D3ED009A 		vldr.32	s19, [r3]
 1054              	.LVL73:
 1055              		.loc 1 2162 0
 1056 02dc 67EE887A 		vmul.f32	s15, s15, s16
 1057              		.loc 1 2163 0
 1058 02e0 78EE699A 		vsub.f32	s19, s16, s19
 1059              		.loc 1 2162 0
 1060 02e4 ABEEA75A 		vfma.f32	s10, s23, s15
 1061 02e8 0346     		mov	r3, r0
 1062              		.loc 1 2166 0
 1063 02ea BFEE000A 		vmov.f32	s0, #-1.0e+0
 1064              		.loc 1 2162 0
 1065 02ee 83ED005A 		vstr.32	s10, [r3]
 1066              		.loc 1 2163 0
 1067 02f2 69EE879A 		vmul.f32	s19, s19, s14
 1068              		.loc 1 2166 0
 1069 02f6 FFF7FEFF 		bl	utils_truncate_number
 1070              	.LVL74:
 1071              		.loc 1 2172 0
 1072 02fa 1E4B     		ldr	r3, .L122+56
 1073              		.loc 1 2169 0
 1074 02fc 1E4A     		ldr	r2, .L122+60
 1075              		.loc 1 2172 0
 1076 02fe D3ED007A 		vldr.32	s15, [r3]
 1077              		.loc 1 2174 0
 1078 0302 284B     		ldr	r3, .L122+104
 1079              		.loc 1 2169 0
 1080 0304 82ED008A 		vstr.32	s16, [r2]
 1081              		.loc 1 2161 0
 1082 0308 28EE0CCA 		vmul.f32	s24, s16, s24
 1083              	.LVL75:
ARM GAS  C:\Users\euanm\AppData\Local\Temp\ccwBC4sF.s 			page 20


 1084              		.loc 1 2174 0
 1085 030c 1878     		ldrb	r0, [r3]	@ zero_extendqisi2
 1086 030e 009A     		ldr	r2, [sp]
 1087              		.loc 1 2172 0
 1088 0310 EBEE8C7A 		vfma.f32	s15, s23, s24
 1089 0314 EBEEA97A 		vfma.f32	s15, s23, s19
 1090 0318 CDED077A 		vstr.32	s15, [sp, #28]
 1091              		.loc 1 2174 0
 1092 031c 0028     		cmp	r0, #0
 1093 031e 49D1     		bne	.L87
 1094 0320 0199     		ldr	r1, [sp, #4]
 1095 0322 0968     		ldr	r1, [r1]
 1096 0324 91F80411 		ldrb	r1, [r1, #260]	@ zero_extendqisi2
 1097 0328 0029     		cmp	r1, #0
 1098 032a 43D0     		beq	.L87
 1099              	.L88:
 1100              		.loc 1 2175 0
 1101 032c F7EE000A 		vmov.f32	s1, #1.0e+0
 1102 0330 BFEE000A 		vmov.f32	s0, #-1.0e+0
 1103 0334 07A8     		add	r0, sp, #28
 1104 0336 FFF7FEFF 		bl	utils_truncate_number
 1105              	.LVL76:
 1106 033a 50E0     		b	.L90
 1107              	.L123:
 1108              		.align	2
 1109              	.L122:
 1110 033c 00000000 		.word	ch
 1111 0340 00000000 		.word	.LC0
 1112 0344 00000000 		.word	.LANCHOR9
 1113 0348 00000000 		.word	.LANCHOR10
 1114 034c 00000000 		.word	.LANCHOR0
 1115 0350 00000000 		.word	.LANCHOR13
 1116 0354 00000000 		.word	.LANCHOR15
 1117 0358 00000000 		.word	0
 1118 035c DB0F4940 		.word	1078530011
 1119 0360 00007042 		.word	1114636288
 1120 0364 6F12833A 		.word	981668463
 1121 0368 17B7D138 		.word	953267991
 1122 036c 00000000 		.word	.LANCHOR8
 1123 0370 00000000 		.word	.LANCHOR7
 1124 0374 00000000 		.word	.LANCHOR18
 1125 0378 00000000 		.word	.LANCHOR19
 1126 037c 00000000 		.word	.LANCHOR11
 1127 0380 00000000 		.word	.LANCHOR12
 1128 0384 00000000 		.word	.LANCHOR16
 1129 0388 00000000 		.word	.LANCHOR17
 1130 038c 00000000 		.word	.LANCHOR20
 1131 0390 00000000 		.word	.LANCHOR21
 1132 0394 00000000 		.word	ADC_Value
 1133 0398 6740533A 		.word	978534503
 1134 039c 5077D63D 		.word	1037465424
 1135 03a0 D145FF41 		.word	1107248593
 1136 03a4 00000000 		.word	.LANCHOR22
 1137 03a8 00000000 		.word	.LANCHOR14
 1138 03ac 00000000 		.word	.LANCHOR6
 1139 03b0 00000000 		.word	0
 1140              	.L87:
ARM GAS  C:\Users\euanm\AppData\Local\Temp\ccwBC4sF.s 			page 21


 1141              		.loc 1 2174 0
 1142 03b4 1B78     		ldrb	r3, [r3]	@ zero_extendqisi2
 1143 03b6 022B     		cmp	r3, #2
 1144 03b8 B8D0     		beq	.L88
 1145              		.loc 1 2177 0
 1146 03ba D2ED007A 		vldr.32	s15, [r2]
 1147 03be F5EEC07A 		vcmpe.f32	s15, #0
 1148 03c2 F1EE10FA 		vmrs	APSR_nzcv, FPSCR
 1149              		.loc 1 2178 0
 1150 03c6 4BBF     		itete	mi
 1151 03c8 5FED070A 		vldrmi.32	s1, .L122+116
 1152              		.loc 1 2180 0
 1153 03cc 1FED080A 		vldrpl.32	s0, .L122+116
 1154              		.loc 1 2178 0
 1155 03d0 BFEE000A 		vmovmi.f32	s0, #-1.0e+0
 1156              		.loc 1 2180 0
 1157 03d4 F7EE000A 		vmovpl.f32	s1, #1.0e+0
 1158 03d8 07A8     		add	r0, sp, #28
 1159 03da FFF7FEFF 		bl	utils_truncate_number
 1160              	.LVL77:
 1161              	.L90:
 1162              		.loc 1 2184 0
 1163 03de 3368     		ldr	r3, [r6]
 1164 03e0 DDED077A 		vldr.32	s15, [sp, #28]
 1165 03e4 93ED177A 		vldr.32	s14, [r3, #92]
 1166 03e8 0A4B     		ldr	r3, .L124
 1167 03ea 67EE277A 		vmul.f32	s15, s14, s15
 1168 03ee C3ED007A 		vstr.32	s15, [r3]
 1169 03f2 7BE6     		b	.L93
 1170              	.LVL78:
 1171              	.L113:
 1172              		.cfi_def_cfa_offset 0
 1173              		.cfi_restore 4
 1174              		.cfi_restore 5
 1175              		.cfi_restore 6
 1176              		.cfi_restore 7
 1177              		.cfi_restore 8
 1178              		.cfi_restore 9
 1179              		.cfi_restore 10
 1180              		.cfi_restore 11
 1181              		.cfi_restore 14
 1182              		.cfi_restore 80
 1183              		.cfi_restore 81
 1184              		.cfi_restore 82
 1185              		.cfi_restore 83
 1186              		.cfi_restore 84
 1187              		.cfi_restore 85
 1188              		.cfi_restore 86
 1189              		.cfi_restore 87
 1190              		.cfi_restore 88
 1191              		.cfi_restore 89
 1192              	.LBE63:
 1193              	.LBE66:
 1194              		.loc 1 1717 0
 1195 03f4 084A     		ldr	r2, .L124+4
 1196 03f6 0023     		movs	r3, #0
 1197 03f8 1370     		strb	r3, [r2]
ARM GAS  C:\Users\euanm\AppData\Local\Temp\ccwBC4sF.s 			page 22


 1198 03fa 7047     		bx	lr
 1199              	.LVL79:
 1200              	.L119:
 1201              		.cfi_def_cfa_offset 112
 1202              		.cfi_offset 4, -36
 1203              		.cfi_offset 5, -32
 1204              		.cfi_offset 6, -28
 1205              		.cfi_offset 7, -24
 1206              		.cfi_offset 8, -20
 1207              		.cfi_offset 9, -16
 1208              		.cfi_offset 10, -12
 1209              		.cfi_offset 11, -8
 1210              		.cfi_offset 14, -4
 1211              		.cfi_offset 80, -76
 1212              		.cfi_offset 81, -72
 1213              		.cfi_offset 82, -68
 1214              		.cfi_offset 83, -64
 1215              		.cfi_offset 84, -60
 1216              		.cfi_offset 85, -56
 1217              		.cfi_offset 86, -52
 1218              		.cfi_offset 87, -48
 1219              		.cfi_offset 88, -44
 1220              		.cfi_offset 89, -40
 1221              	.LBB67:
 1222              		.loc 1 1776 0
 1223 03fc FFF7FEFF 		bl	sqrtf
 1224              	.LVL80:
 1225 0400 F0EE407A 		vmov.f32	s15, s0
 1226 0404 EEE6     		b	.L81
 1227              	.L120:
 1228 0406 0093     		str	r3, [sp]
 1229              		.loc 1 1777 0
 1230 0408 FFF7FEFF 		bl	sqrtf
 1231              	.LVL81:
 1232 040c 009B     		ldr	r3, [sp]
 1233 040e F0EE407A 		vmov.f32	s15, s0
 1234 0412 02E7     		b	.L82
 1235              	.L125:
 1236              		.align	2
 1237              	.L124:
 1238 0414 00000000 		.word	.LANCHOR21
 1239 0418 00000000 		.word	.LANCHOR9
 1240              	.LBE67:
 1241              	.LBE72:
 1242              		.cfi_endproc
 1243              	.LFE298:
 1244              		.size	timer_thread, .-timer_thread
 1245              		.section	.text.mcpwm_foc_init,"ax",%progbits
 1246              		.align	2
 1247              		.p2align 4,,15
 1248              		.global	mcpwm_foc_init
 1249              		.thumb
 1250              		.thumb_func
 1251              		.type	mcpwm_foc_init, %function
 1252              	mcpwm_foc_init:
 1253              	.LFB256:
 1254              		.loc 1 185 0
ARM GAS  C:\Users\euanm\AppData\Local\Temp\ccwBC4sF.s 			page 23


 1255              		.cfi_startproc
 1256              		@ args = 0, pretend = 0, frame = 160
 1257              		@ frame_needed = 0, uses_anonymous_args = 0
 1258              	.LVL82:
 1259 0000 2DE9F04F 		push	{r4, r5, r6, r7, r8, r9, r10, fp, lr}
 1260              		.cfi_def_cfa_offset 36
 1261              		.cfi_offset 4, -36
 1262              		.cfi_offset 5, -32
 1263              		.cfi_offset 6, -28
 1264              		.cfi_offset 7, -24
 1265              		.cfi_offset 8, -20
 1266              		.cfi_offset 9, -16
 1267              		.cfi_offset 10, -12
 1268              		.cfi_offset 11, -8
 1269              		.cfi_offset 14, -4
 1270 0004 ABB0     		sub	sp, sp, #172
 1271              		.cfi_def_cfa_offset 208
 1272              		.loc 1 185 0
 1273 0006 0746     		mov	r7, r0
 1274              		.loc 1 186 0
 1275 0008 FFF7FEFF 		bl	utils_sys_lock_cnt
 1276              	.LVL83:
 1277              		.loc 1 192 0
 1278 000c CF4B     		ldr	r3, .L133
 1279              		.loc 1 196 0
 1280 000e DFF8B8B3 		ldr	fp, .L133+124
 1281              		.loc 1 197 0
 1282 0012 CF48     		ldr	r0, .L133+4
 1283              		.loc 1 192 0
 1284 0014 1F60     		str	r7, [r3]
 1285              		.loc 1 196 0
 1286 0016 0024     		movs	r4, #0
 1287              		.loc 1 197 0
 1288 0018 4FF00503 		mov	r3, #5
 1289              		.loc 1 196 0
 1290 001c 8BF80040 		strb	r4, [fp]
 1291              		.loc 1 197 0
 1292 0020 0370     		strb	r3, [r0]
 1293              		.loc 1 198 0
 1294 0022 CC4B     		ldr	r3, .L133+8
 1295              		.loc 1 200 0
 1296 0024 DFF8A4A3 		ldr	r10, .L133+128
 1297              		.loc 1 198 0
 1298 0028 1C60     		str	r4, [r3]
 1299              		.loc 1 199 0
 1300 002a CB4B     		ldr	r3, .L133+12
 1301              		.loc 1 203 0
 1302 002c DFEDCB7A 		vldr.32	s15, .L133+16
 1303              		.loc 1 199 0
 1304 0030 1C60     		str	r4, [r3]
 1305              		.loc 1 201 0
 1306 0032 CB4B     		ldr	r3, .L133+20
 1307              		.loc 1 200 0
 1308 0034 CAF80040 		str	r4, [r10]
 1309              		.loc 1 202 0
 1310 0038 DFF89493 		ldr	r9, .L133+132
 1311              		.loc 1 201 0
ARM GAS  C:\Users\euanm\AppData\Local\Temp\ccwBC4sF.s 			page 24


 1312 003c 1C70     		strb	r4, [r3]
 1313              		.loc 1 203 0
 1314 003e DFF89483 		ldr	r8, .L133+136
 1315              		.loc 1 204 0
 1316 0042 DFF894C3 		ldr	ip, .L133+140
 1317              		.loc 1 205 0
 1318 0046 DFF894E3 		ldr	lr, .L133+144
 1319              		.loc 1 207 0
 1320 004a C649     		ldr	r1, .L133+24
 1321              		.loc 1 208 0
 1322 004c C64A     		ldr	r2, .L133+28
 1323              		.loc 1 206 0
 1324 004e C74B     		ldr	r3, .L133+32
 1325              		.loc 1 202 0
 1326 0050 89F80040 		strb	r4, [r9]
 1327              		.loc 1 203 0
 1328 0054 C8ED007A 		vstr.32	s15, [r8]
 1329              		.loc 1 204 0
 1330 0058 CCED007A 		vstr.32	s15, [ip]
 1331              		.loc 1 205 0
 1332 005c CEED007A 		vstr.32	s15, [lr]
 1333              		.loc 1 206 0
 1334 0060 C3ED007A 		vstr.32	s15, [r3]
 1335              		.loc 1 207 0
 1336 0064 0C70     		strb	r4, [r1]
 1337              		.loc 1 209 0
 1338 0066 C24B     		ldr	r3, .L133+36
 1339              		.loc 1 208 0
 1340 0068 C2ED007A 		vstr.32	s15, [r2]
 1341              		.loc 1 210 0
 1342 006c C14A     		ldr	r2, .L133+40
 1343              		.loc 1 209 0
 1344 006e C3ED007A 		vstr.32	s15, [r3]
 1345              		.loc 1 210 0
 1346 0072 1470     		strb	r4, [r2]
 1347              		.loc 1 211 0
 1348 0074 C04A     		ldr	r2, .L133+44
 1349              		.loc 1 213 0
 1350 0076 C148     		ldr	r0, .L133+48
 1351              		.loc 1 211 0
 1352 0078 C2ED007A 		vstr.32	s15, [r2]
 1353              		.loc 1 214 0
 1354 007c C04B     		ldr	r3, .L133+52
 1355              		.loc 1 212 0
 1356 007e C14A     		ldr	r2, .L133+56
 1357              		.loc 1 217 0
 1358 0080 DFF85CC3 		ldr	ip, .L133+148
 1359              		.loc 1 212 0
 1360 0084 C2ED007A 		vstr.32	s15, [r2]
 1361              		.loc 1 213 0
 1362 0088 0470     		strb	r4, [r0]
 1363              		.loc 1 214 0
 1364 008a C3ED007A 		vstr.32	s15, [r3]
 1365              		.loc 1 215 0
 1366 008e BE4B     		ldr	r3, .L133+60
 1367              		.loc 1 218 0
 1368 0090 DFF850E3 		ldr	lr, .L133+152
ARM GAS  C:\Users\euanm\AppData\Local\Temp\ccwBC4sF.s 			page 25


 1369              		.loc 1 215 0
 1370 0094 C3ED007A 		vstr.32	s15, [r3]
 1371              		.loc 1 216 0
 1372 0098 DFF84C83 		ldr	r8, .L133+156
 1373              		.loc 1 219 0
 1374 009c BB4F     		ldr	r7, .L133+64
 1375              	.LVL84:
 1376              		.loc 1 220 0
 1377 009e DFF84C93 		ldr	r9, .L133+160
 1378              		.loc 1 221 0
 1379 00a2 BB4B     		ldr	r3, .L133+68
 1380              		.loc 1 216 0
 1381 00a4 C8ED007A 		vstr.32	s15, [r8]
 1382              		.loc 1 223 0
 1383 00a8 DFF844B3 		ldr	fp, .L133+164
 1384              		.loc 1 217 0
 1385 00ac CCED007A 		vstr.32	s15, [ip]
 1386              		.loc 1 218 0
 1387 00b0 CEED007A 		vstr.32	s15, [lr]
 1388              		.loc 1 219 0
 1389 00b4 C7ED007A 		vstr.32	s15, [r7]
 1390              		.loc 1 220 0
 1391 00b8 C9ED007A 		vstr.32	s15, [r9]
 1392              		.loc 1 221 0
 1393 00bc C3ED007A 		vstr.32	s15, [r3]
 1394              		.loc 1 222 0
 1395 00c0 B44B     		ldr	r3, .L133+72
 1396              		.loc 1 224 0
 1397 00c2 B548     		ldr	r0, .L133+76
 1398              		.loc 1 227 0
 1399 00c4 B54D     		ldr	r5, .L133+80
 1400              		.loc 1 222 0
 1401 00c6 C3ED007A 		vstr.32	s15, [r3]
 1402              		.loc 1 224 0
 1403 00ca 5822     		movs	r2, #88
 1404 00cc 2146     		mov	r1, r4
 1405              		.loc 1 223 0
 1406 00ce CBED007A 		vstr.32	s15, [fp]
 1407              		.loc 1 224 0
 1408 00d2 FFF7FEFF 		bl	memset
 1409              	.LVL85:
 1410              		.loc 1 225 0
 1411 00d6 B24B     		ldr	r3, .L133+84
 1412              		.loc 1 228 0
 1413 00d8 B24E     		ldr	r6, .L133+88
 1414              		.loc 1 225 0
 1415 00da 1C60     		str	r4, [r3]
 1416              		.loc 1 227 0
 1417 00dc 2846     		mov	r0, r5
 1418              		.loc 1 225 0
 1419 00de 5C60     		str	r4, [r3, #4]
 1420 00e0 9C60     		str	r4, [r3, #8]
 1421 00e2 DC60     		str	r4, [r3, #12]
 1422 00e4 1C61     		str	r4, [r3, #16]
 1423              		.loc 1 227 0
 1424 00e6 FFF7FEFF 		bl	TIM_DeInit
 1425              	.LVL86:
ARM GAS  C:\Users\euanm\AppData\Local\Temp\ccwBC4sF.s 			page 26


 1426              		.loc 1 228 0
 1427 00ea 3046     		mov	r0, r6
 1428 00ec FFF7FEFF 		bl	TIM_DeInit
 1429              	.LVL87:
 1430              		.loc 1 233 0
 1431 00f0 0121     		movs	r1, #1
 1432 00f2 0846     		mov	r0, r1
 1433              		.loc 1 229 0
 1434 00f4 6C62     		str	r4, [r5, #36]
 1435              		.loc 1 230 0
 1436 00f6 7462     		str	r4, [r6, #36]
 1437              		.loc 1 233 0
 1438 00f8 FFF7FEFF 		bl	RCC_APB2PeriphClockCmd
 1439              	.LVL88:
 1440              		.loc 1 238 0
 1441 00fc 934B     		ldr	r3, .L133
 1442              		.loc 1 236 0
 1443 00fe ADF81440 		strh	r4, [sp, #20]	@ movhi
 1444              		.loc 1 238 0
 1445 0102 1B68     		ldr	r3, [r3]
 1446              		.loc 1 239 0
 1447 0104 ADF81C40 		strh	r4, [sp, #28]	@ movhi
 1448              		.loc 1 238 0
 1449 0108 D3ED277A 		vldr.32	s15, [r3, #156]
 1450 010c FDEEE77A 		vcvt.s32.f32	s15, s15
 1451              		.loc 1 240 0
 1452 0110 0127     		movs	r7, #1
 1453              		.loc 1 238 0
 1454 0112 17EE903A 		vmov	r3, s15	@ int
 1455              		.loc 1 242 0
 1456 0116 2846     		mov	r0, r5
 1457 0118 05A9     		add	r1, sp, #20
 1458              		.loc 1 237 0
 1459 011a 4FF04002 		mov	r2, #64	@ movhi
 1460 011e ADF81620 		strh	r2, [sp, #22]	@ movhi
 1461              		.loc 1 240 0
 1462 0122 8DF81E70 		strb	r7, [sp, #30]
 1463              		.loc 1 238 0
 1464 0126 A04A     		ldr	r2, .L133+92
 1465 0128 92FBF3F3 		sdiv	r3, r2, r3
 1466 012c 0693     		str	r3, [sp, #24]
 1467              		.loc 1 242 0
 1468 012e FFF7FEFF 		bl	TIM_TimeBaseInit
 1469              	.LVL89:
 1470              		.loc 1 248 0
 1471 0132 EA6A     		ldr	r2, [r5, #44]
 1472              		.loc 1 246 0
 1473 0134 ADF84270 		strh	r7, [sp, #66]	@ movhi
 1474              		.loc 1 248 0
 1475 0138 FA40     		lsrs	r2, r2, r7
 1476              		.loc 1 252 0
 1477 013a 4FF40073 		mov	r3, #512
 1478              		.loc 1 247 0
 1479 013e 4FF00408 		mov	r8, #4
 1480              		.loc 1 251 0
 1481 0142 4FF4807B 		mov	fp, #256
 1482              		.loc 1 254 0
ARM GAS  C:\Users\euanm\AppData\Local\Temp\ccwBC4sF.s 			page 27


 1483 0146 2846     		mov	r0, r5
 1484 0148 10A9     		add	r1, sp, #64
 1485              		.loc 1 248 0
 1486 014a 1292     		str	r2, [sp, #72]
 1487              		.loc 1 245 0
 1488 014c 4FF06002 		mov	r2, #96	@ movhi
 1489 0150 ADF84020 		strh	r2, [sp, #64]	@ movhi
 1490              		.loc 1 252 0
 1491 0154 ADF85230 		strh	r3, [sp, #82]	@ movhi
 1492 0158 0393     		str	r3, [sp, #12]
 1493              		.loc 1 249 0
 1494 015a ADF84C40 		strh	r4, [sp, #76]	@ movhi
 1495              		.loc 1 250 0
 1496 015e ADF84E40 		strh	r4, [sp, #78]	@ movhi
 1497              		.loc 1 247 0
 1498 0162 ADF84480 		strh	r8, [sp, #68]	@ movhi
 1499              		.loc 1 251 0
 1500 0166 ADF850B0 		strh	fp, [sp, #80]	@ movhi
 1501              		.loc 1 254 0
 1502 016a FFF7FEFF 		bl	TIM_OC1Init
 1503              	.LVL90:
 1504              		.loc 1 255 0
 1505 016e 10A9     		add	r1, sp, #64
 1506 0170 2846     		mov	r0, r5
 1507 0172 FFF7FEFF 		bl	TIM_OC2Init
 1508              	.LVL91:
 1509              		.loc 1 256 0
 1510 0176 10A9     		add	r1, sp, #64
 1511 0178 2846     		mov	r0, r5
 1512 017a FFF7FEFF 		bl	TIM_OC3Init
 1513              	.LVL92:
 1514              		.loc 1 257 0
 1515 017e 10A9     		add	r1, sp, #64
 1516 0180 2846     		mov	r0, r5
 1517 0182 FFF7FEFF 		bl	TIM_OC4Init
 1518              	.LVL93:
 1519              		.loc 1 259 0
 1520 0186 2846     		mov	r0, r5
 1521 0188 0821     		movs	r1, #8
 1522 018a FFF7FEFF 		bl	TIM_OC1PreloadConfig
 1523              	.LVL94:
 1524              		.loc 1 260 0
 1525 018e 2846     		mov	r0, r5
 1526 0190 0821     		movs	r1, #8
 1527 0192 FFF7FEFF 		bl	TIM_OC2PreloadConfig
 1528              	.LVL95:
 1529              		.loc 1 261 0
 1530 0196 2846     		mov	r0, r5
 1531 0198 0821     		movs	r1, #8
 1532 019a FFF7FEFF 		bl	TIM_OC3PreloadConfig
 1533              	.LVL96:
 1534              		.loc 1 262 0
 1535 019e 2846     		mov	r0, r5
 1536 01a0 0821     		movs	r1, #8
 1537 01a2 FFF7FEFF 		bl	TIM_OC4PreloadConfig
 1538              	.LVL97:
 1539              		.loc 1 265 0
ARM GAS  C:\Users\euanm\AppData\Local\Temp\ccwBC4sF.s 			page 28


 1540 01a6 4FF40063 		mov	r3, #2048	@ movhi
 1541              		.loc 1 268 0
 1542 01aa 3C22     		movs	r2, #60
 1543              		.loc 1 266 0
 1544 01ac 4FF48069 		mov	r9, #1024
 1545              		.loc 1 273 0
 1546 01b0 2846     		mov	r0, r5
 1547 01b2 08A9     		add	r1, sp, #32
 1548              		.loc 1 265 0
 1549 01b4 ADF82030 		strh	r3, [sp, #32]	@ movhi
 1550              		.loc 1 270 0
 1551 01b8 4FF40053 		mov	r3, #8192	@ movhi
 1552              		.loc 1 268 0
 1553 01bc ADF82620 		strh	r2, [sp, #38]	@ movhi
 1554              		.loc 1 270 0
 1555 01c0 ADF82A30 		strh	r3, [sp, #42]	@ movhi
 1556              		.loc 1 267 0
 1557 01c4 ADF82440 		strh	r4, [sp, #36]	@ movhi
 1558              		.loc 1 269 0
 1559 01c8 ADF82840 		strh	r4, [sp, #40]	@ movhi
 1560              		.loc 1 271 0
 1561 01cc ADF82C40 		strh	r4, [sp, #44]	@ movhi
 1562              		.loc 1 266 0
 1563 01d0 ADF82290 		strh	r9, [sp, #34]	@ movhi
 1564              		.loc 1 273 0
 1565 01d4 FFF7FEFF 		bl	TIM_BDTRConfig
 1566              	.LVL98:
 1567              		.loc 1 274 0
 1568 01d8 3946     		mov	r1, r7
 1569 01da 2846     		mov	r0, r5
 1570 01dc FFF7FEFF 		bl	TIM_CCPreloadControl
 1571              	.LVL99:
 1572              		.loc 1 275 0
 1573 01e0 3946     		mov	r1, r7
 1574 01e2 2846     		mov	r0, r5
 1575 01e4 FFF7FEFF 		bl	TIM_ARRPreloadConfig
 1576              	.LVL100:
 1577              		.loc 1 285 0
 1578 01e8 3946     		mov	r1, r7
 1579 01ea 7048     		ldr	r0, .L133+96
 1580 01ec FFF7FEFF 		bl	RCC_AHB1PeriphClockCmd
 1581              	.LVL101:
 1582              		.loc 1 286 0
 1583 01f0 3946     		mov	r1, r7
 1584 01f2 4FF4E060 		mov	r0, #1792
 1585 01f6 FFF7FEFF 		bl	RCC_APB2PeriphClockCmd
 1586              	.LVL102:
 1587              		.loc 1 290 0
 1588 01fa 6D49     		ldr	r1, .L133+100
 1589              		.loc 1 291 0
 1590 01fc 6D4A     		ldr	r2, .L133+104
 1591              		.loc 1 304 0
 1592 01fe 6E48     		ldr	r0, .L133+108
 1593              		.loc 1 290 0
 1594 0200 1D91     		str	r1, [sp, #116]
 1595              		.loc 1 296 0
 1596 0202 4FF40063 		mov	r3, #2048
ARM GAS  C:\Users\euanm\AppData\Local\Temp\ccwBC4sF.s 			page 29


 1597              		.loc 1 299 0
 1598 0206 4FF4003C 		mov	ip, #131072
 1599              		.loc 1 293 0
 1600 020a 4FF00C0E 		mov	lr, #12
 1601              		.loc 1 296 0
 1602 020e 2293     		str	r3, [sp, #136]
 1603              		.loc 1 304 0
 1604 0210 1BA9     		add	r1, sp, #108
 1605              		.loc 1 297 0
 1606 0212 4FF40053 		mov	r3, #8192
 1607              		.loc 1 299 0
 1608 0216 CDF894C0 		str	ip, [sp, #148]
 1609              		.loc 1 297 0
 1610 021a 2393     		str	r3, [sp, #140]
 1611              		.loc 1 293 0
 1612 021c CDF87CE0 		str	lr, [sp, #124]
 1613              		.loc 1 291 0
 1614 0220 1C92     		str	r2, [sp, #112]
 1615              		.loc 1 289 0
 1616 0222 1B94     		str	r4, [sp, #108]
 1617              		.loc 1 292 0
 1618 0224 1E94     		str	r4, [sp, #120]
 1619              		.loc 1 294 0
 1620 0226 2094     		str	r4, [sp, #128]
 1621              		.loc 1 295 0
 1622 0228 CDF88490 		str	r9, [sp, #132]
 1623              		.loc 1 298 0
 1624 022c CDF890B0 		str	fp, [sp, #144]
 1625              		.loc 1 300 0
 1626 0230 2694     		str	r4, [sp, #152]
 1627              		.loc 1 301 0
 1628 0232 2794     		str	r4, [sp, #156]
 1629              		.loc 1 302 0
 1630 0234 2894     		str	r4, [sp, #160]
 1631              		.loc 1 303 0
 1632 0236 2994     		str	r4, [sp, #164]
 1633              		.loc 1 304 0
 1634 0238 FFF7FEFF 		bl	DMA_Init
 1635              	.LVL103:
 1636              		.loc 1 307 0
 1637 023c 3946     		mov	r1, r7
 1638 023e 5E48     		ldr	r0, .L133+108
 1639 0240 FFF7FEFF 		bl	DMA_Cmd
 1640              	.LVL104:
 1641              		.loc 1 312 0
 1642 0244 1621     		movs	r1, #22
 1643              		.loc 1 314 0
 1644 0246 4FF48042 		mov	r2, #16384
 1645              		.loc 1 316 0
 1646 024a 0CA8     		add	r0, sp, #48
 1647              		.loc 1 312 0
 1648 024c 0C91     		str	r1, [sp, #48]
 1649              		.loc 1 314 0
 1650 024e 0E92     		str	r2, [sp, #56]
 1651              		.loc 1 313 0
 1652 0250 0D94     		str	r4, [sp, #52]
 1653              		.loc 1 315 0
ARM GAS  C:\Users\euanm\AppData\Local\Temp\ccwBC4sF.s 			page 30


 1654 0252 0F94     		str	r4, [sp, #60]
 1655              		.loc 1 316 0
 1656 0254 FFF7FEFF 		bl	ADC_CommonInit
 1657              	.LVL105:
 1658              		.loc 1 322 0
 1659 0258 4FF0005E 		mov	lr, #536870912
 1660              		.loc 1 323 0
 1661 025c 4FF05062 		mov	r2, #218103808
 1662              		.loc 1 327 0
 1663 0260 15A9     		add	r1, sp, #84
 1664 0262 5648     		ldr	r0, .L133+112
 1665              		.loc 1 322 0
 1666 0264 CDF85CE0 		str	lr, [sp, #92]
 1667              		.loc 1 323 0
 1668 0268 1892     		str	r2, [sp, #96]
 1669              		.loc 1 319 0
 1670 026a 1594     		str	r4, [sp, #84]
 1671              		.loc 1 320 0
 1672 026c 8DF85870 		strb	r7, [sp, #88]
 1673              		.loc 1 321 0
 1674 0270 8DF85940 		strb	r4, [sp, #89]
 1675              		.loc 1 324 0
 1676 0274 1994     		str	r4, [sp, #100]
 1677              		.loc 1 325 0
 1678 0276 8DF86880 		strb	r8, [sp, #104]
 1679              		.loc 1 327 0
 1680 027a FFF7FEFF 		bl	ADC_Init
 1681              	.LVL106:
 1682              		.loc 1 330 0
 1683 027e 15A9     		add	r1, sp, #84
 1684 0280 4F48     		ldr	r0, .L133+116
 1685              		.loc 1 328 0
 1686 0282 1794     		str	r4, [sp, #92]
 1687              		.loc 1 329 0
 1688 0284 1894     		str	r4, [sp, #96]
 1689              		.loc 1 330 0
 1690 0286 FFF7FEFF 		bl	ADC_Init
 1691              	.LVL107:
 1692              		.loc 1 331 0
 1693 028a 15A9     		add	r1, sp, #84
 1694 028c 4D48     		ldr	r0, .L133+120
 1695 028e FFF7FEFF 		bl	ADC_Init
 1696              	.LVL108:
 1697              		.loc 1 334 0
 1698 0292 3846     		mov	r0, r7
 1699 0294 FFF7FEFF 		bl	ADC_TempSensorVrefintCmd
 1700              	.LVL109:
 1701              		.loc 1 337 0
 1702 0298 3846     		mov	r0, r7
 1703 029a FFF7FEFF 		bl	ADC_MultiModeDMARequestAfterLastTransferCmd
 1704              	.LVL110:
 1705              		.loc 1 340 0
 1706 029e 2146     		mov	r1, r4
 1707 02a0 4648     		ldr	r0, .L133+112
 1708 02a2 FFF7FEFF 		bl	ADC_ExternalTrigInjectedConvConfig
 1709              	.LVL111:
 1710              		.loc 1 341 0
ARM GAS  C:\Users\euanm\AppData\Local\Temp\ccwBC4sF.s 			page 31


 1711 02a6 4FF44021 		mov	r1, #786432
 1712 02aa 4548     		ldr	r0, .L133+116
 1713 02ac FFF7FEFF 		bl	ADC_ExternalTrigInjectedConvConfig
 1714              	.LVL112:
 1715              		.loc 1 342 0
 1716 02b0 4FF40011 		mov	r1, #2097152
 1717 02b4 4148     		ldr	r0, .L133+112
 1718 02b6 FFF7FEFF 		bl	ADC_ExternalTrigInjectedConvEdgeConfig
 1719              	.LVL113:
 1720              		.loc 1 343 0
 1721 02ba 4FF40011 		mov	r1, #2097152
 1722 02be 4048     		ldr	r0, .L133+116
 1723 02c0 FFF7FEFF 		bl	ADC_ExternalTrigInjectedConvEdgeConfig
 1724              	.LVL114:
 1725              		.loc 1 344 0
 1726 02c4 0221     		movs	r1, #2
 1727 02c6 3D48     		ldr	r0, .L133+112
 1728 02c8 FFF7FEFF 		bl	ADC_InjectedSequencerLengthConfig
 1729              	.LVL115:
 1730              		.loc 1 345 0
 1731 02cc 0221     		movs	r1, #2
 1732 02ce 3C48     		ldr	r0, .L133+116
 1733 02d0 FFF7FEFF 		bl	ADC_InjectedSequencerLengthConfig
 1734              	.LVL116:
 1735              		.loc 1 347 0
 1736 02d4 FFF7FEFF 		bl	hw_setup_adc_channels
 1737              	.LVL117:
 1738              		.loc 1 350 0
 1739 02d8 3A46     		mov	r2, r7
 1740 02da 40F20741 		movw	r1, #1031
 1741 02de 3748     		ldr	r0, .L133+112
 1742 02e0 FFF7FEFF 		bl	ADC_ITConfig
 1743              	.LVL118:
 1744              		.loc 1 351 0
 1745 02e4 4146     		mov	r1, r8
 1746 02e6 1220     		movs	r0, #18
 1747 02e8 FFF7FEFF 		bl	nvicEnableVector
 1748              	.LVL119:
 1749              		.loc 1 354 0
 1750 02ec 3946     		mov	r1, r7
 1751 02ee 3348     		ldr	r0, .L133+112
 1752 02f0 FFF7FEFF 		bl	ADC_Cmd
 1753              	.LVL120:
 1754              		.loc 1 357 0
 1755 02f4 3946     		mov	r1, r7
 1756 02f6 3248     		ldr	r0, .L133+116
 1757 02f8 FFF7FEFF 		bl	ADC_Cmd
 1758              	.LVL121:
 1759              		.loc 1 360 0
 1760 02fc 3946     		mov	r1, r7
 1761 02fe 3148     		ldr	r0, .L133+120
 1762 0300 FFF7FEFF 		bl	ADC_Cmd
 1763              	.LVL122:
 1764              		.loc 1 364 0
 1765 0304 3946     		mov	r1, r7
 1766 0306 0220     		movs	r0, #2
 1767 0308 FFF7FEFF 		bl	RCC_APB2PeriphClockCmd
ARM GAS  C:\Users\euanm\AppData\Local\Temp\ccwBC4sF.s 			page 32


 1768              	.LVL123:
 1769              		.loc 1 368 0
 1770 030c 0F4B     		ldr	r3, .L133
 1771              		.loc 1 366 0
 1772 030e ADF81440 		strh	r4, [sp, #20]	@ movhi
 1773              		.loc 1 368 0
 1774 0312 1A68     		ldr	r2, [r3]
 1775              		.loc 1 369 0
 1776 0314 ADF81C40 		strh	r4, [sp, #28]	@ movhi
 1777              		.loc 1 368 0
 1778 0318 D2ED277A 		vldr.32	s15, [r2, #156]
 1779              		.loc 1 370 0
 1780 031c 8DF81E70 		strb	r7, [sp, #30]
 1781              		.loc 1 368 0
 1782 0320 FDEEE77A 		vcvt.s32.f32	s15, s15
 1783              		.loc 1 367 0
 1784 0324 4FF04003 		mov	r3, #64	@ movhi
 1785              		.loc 1 368 0
 1786 0328 17EE902A 		vmov	r2, s15	@ int
 1787              		.loc 1 371 0
 1788 032c 05A9     		add	r1, sp, #20
 1789 032e 3046     		mov	r0, r6
 1790              		.loc 1 367 0
 1791 0330 ADF81630 		strh	r3, [sp, #22]	@ movhi
 1792              		.loc 1 368 0
 1793 0334 1C4B     		ldr	r3, .L133+92
 1794 0336 93FBF2F2 		sdiv	r2, r3, r2
 1795 033a 0692     		str	r2, [sp, #24]
 1796              		.loc 1 371 0
 1797 033c FFF7FEFF 		bl	TIM_TimeBaseInit
 1798              	.LVL124:
 1799              		.loc 1 373 0
 1800 0340 4FF06003 		mov	r3, #96	@ movhi
 1801              		.loc 1 375 0
 1802 0344 4FF4FA72 		mov	r2, #500
 1803 0348 54E0     		b	.L134
 1804              	.L135:
 1805 034a 00BF     		.align	2
 1806              	.L133:
 1807 034c 00000000 		.word	.LANCHOR0
 1808 0350 00000000 		.word	.LANCHOR14
 1809 0354 00000000 		.word	.LANCHOR23
 1810 0358 00000000 		.word	.LANCHOR24
 1811 035c 00000000 		.word	0
 1812 0360 00000000 		.word	.LANCHOR26
 1813 0364 00000000 		.word	.LANCHOR2
 1814 0368 00000000 		.word	.LANCHOR31
 1815 036c 00000000 		.word	.LANCHOR21
 1816 0370 00000000 		.word	.LANCHOR20
 1817 0374 00000000 		.word	.LANCHOR22
 1818 0378 00000000 		.word	.LANCHOR16
 1819 037c 00000000 		.word	.LANCHOR6
 1820 0380 00000000 		.word	.LANCHOR32
 1821 0384 00000000 		.word	.LANCHOR8
 1822 0388 00000000 		.word	.LANCHOR11
 1823 038c 00000000 		.word	.LANCHOR12
 1824 0390 00000000 		.word	.LANCHOR37
ARM GAS  C:\Users\euanm\AppData\Local\Temp\ccwBC4sF.s 			page 33


 1825 0394 00000000 		.word	.LANCHOR38
 1826 0398 00000000 		.word	.LANCHOR10
 1827 039c 00000140 		.word	1073807360
 1828 03a0 00000000 		.word	.LANCHOR17
 1829 03a4 00040140 		.word	1073808384
 1830 03a8 007A030A 		.word	168000000
 1831 03ac 05004000 		.word	4194309
 1832 03b0 00000000 		.word	ADC_Value
 1833 03b4 08230140 		.word	1073816328
 1834 03b8 70640240 		.word	1073898608
 1835 03bc 00200140 		.word	1073815552
 1836 03c0 00210140 		.word	1073815808
 1837 03c4 00220140 		.word	1073816064
 1838 03c8 00000000 		.word	.LANCHOR7
 1839 03cc 00000000 		.word	.LANCHOR25
 1840 03d0 00000000 		.word	.LANCHOR27
 1841 03d4 00000000 		.word	.LANCHOR28
 1842 03d8 00000000 		.word	.LANCHOR29
 1843 03dc 00000000 		.word	.LANCHOR30
 1844 03e0 00000000 		.word	.LANCHOR34
 1845 03e4 00000000 		.word	.LANCHOR35
 1846 03e8 00000000 		.word	.LANCHOR33
 1847 03ec 00000000 		.word	.LANCHOR36
 1848 03f0 00000000 		.word	.LANCHOR39
 1849              	.L134:
 1850              		.loc 1 380 0
 1851 03f4 10A9     		add	r1, sp, #64
 1852 03f6 3046     		mov	r0, r6
 1853              		.loc 1 373 0
 1854 03f8 ADF84030 		strh	r3, [sp, #64]	@ movhi
 1855              		.loc 1 379 0
 1856 03fc 039B     		ldr	r3, [sp, #12]
 1857              		.loc 1 375 0
 1858 03fe 1292     		str	r2, [sp, #72]
 1859              		.loc 1 379 0
 1860 0400 ADF85230 		strh	r3, [sp, #82]	@ movhi
 1861              		.loc 1 374 0
 1862 0404 ADF84270 		strh	r7, [sp, #66]	@ movhi
 1863              		.loc 1 376 0
 1864 0408 ADF84C40 		strh	r4, [sp, #76]	@ movhi
 1865              		.loc 1 377 0
 1866 040c ADF84E40 		strh	r4, [sp, #78]	@ movhi
 1867              		.loc 1 378 0
 1868 0410 ADF850B0 		strh	fp, [sp, #80]	@ movhi
 1869              		.loc 1 380 0
 1870 0414 FFF7FEFF 		bl	TIM_OC1Init
 1871              	.LVL125:
 1872              		.loc 1 381 0
 1873 0418 3046     		mov	r0, r6
 1874 041a 0821     		movs	r1, #8
 1875 041c FFF7FEFF 		bl	TIM_OC1PreloadConfig
 1876              	.LVL126:
 1877              		.loc 1 382 0
 1878 0420 10A9     		add	r1, sp, #64
 1879 0422 3046     		mov	r0, r6
 1880 0424 FFF7FEFF 		bl	TIM_OC2Init
 1881              	.LVL127:
ARM GAS  C:\Users\euanm\AppData\Local\Temp\ccwBC4sF.s 			page 34


 1882              		.loc 1 383 0
 1883 0428 3046     		mov	r0, r6
 1884 042a 0821     		movs	r1, #8
 1885 042c FFF7FEFF 		bl	TIM_OC2PreloadConfig
 1886              	.LVL128:
 1887              		.loc 1 385 0
 1888 0430 3946     		mov	r1, r7
 1889 0432 3046     		mov	r0, r6
 1890 0434 FFF7FEFF 		bl	TIM_ARRPreloadConfig
 1891              	.LVL129:
 1892              		.loc 1 386 0
 1893 0438 3946     		mov	r1, r7
 1894 043a 3046     		mov	r0, r6
 1895 043c FFF7FEFF 		bl	TIM_CCPreloadControl
 1896              	.LVL130:
 1897              		.loc 1 389 0
 1898 0440 3946     		mov	r1, r7
 1899 0442 3046     		mov	r0, r6
 1900 0444 FFF7FEFF 		bl	TIM_CtrlPWMOutputs
 1901              	.LVL131:
 1902              		.loc 1 392 0
 1903 0448 2846     		mov	r0, r5
 1904 044a 2021     		movs	r1, #32
 1905 044c FFF7FEFF 		bl	TIM_SelectOutputTrigger
 1906              	.LVL132:
 1907              		.loc 1 393 0
 1908 0450 2846     		mov	r0, r5
 1909 0452 8021     		movs	r1, #128
 1910 0454 FFF7FEFF 		bl	TIM_SelectMasterSlaveMode
 1911              	.LVL133:
 1912              		.loc 1 394 0
 1913 0458 2146     		mov	r1, r4
 1914 045a 3046     		mov	r0, r6
 1915 045c FFF7FEFF 		bl	TIM_SelectInputTrigger
 1916              	.LVL134:
 1917              		.loc 1 395 0
 1918 0460 4146     		mov	r1, r8
 1919 0462 3046     		mov	r0, r6
 1920 0464 FFF7FEFF 		bl	TIM_SelectSlaveMode
 1921              	.LVL135:
 1922              		.loc 1 398 0
 1923 0468 3946     		mov	r1, r7
 1924 046a 2846     		mov	r0, r5
 1925 046c FFF7FEFF 		bl	TIM_Cmd
 1926              	.LVL136:
 1927              		.loc 1 399 0
 1928 0470 3946     		mov	r1, r7
 1929 0472 3046     		mov	r0, r6
 1930 0474 FFF7FEFF 		bl	TIM_Cmd
 1931              	.LVL137:
 1932              		.loc 1 402 0
 1933 0478 3946     		mov	r1, r7
 1934 047a 2846     		mov	r0, r5
 1935 047c FFF7FEFF 		bl	TIM_CtrlPWMOutputs
 1936              	.LVL138:
 1937              		.loc 1 405 0
 1938 0480 FFF7FEFF 		bl	stop_pwm_hw
ARM GAS  C:\Users\euanm\AppData\Local\Temp\ccwBC4sF.s 			page 35


 1939              	.LVL139:
 1940              		.loc 1 409 0
 1941 0484 2B68     		ldr	r3, [r5]
 1942 0486 43F00203 		orr	r3, r3, #2
 1943 048a 2B60     		str	r3, [r5]
 1944 048c 3368     		ldr	r3, [r6]
 1945 048e 43F00203 		orr	r3, r3, #2
 1946 0492 3360     		str	r3, [r6]
 1947 0494 0523     		movs	r3, #5
 1948 0496 7363     		str	r3, [r6, #52]
 1949 0498 EB6A     		ldr	r3, [r5, #44]
 1950 049a 023B     		subs	r3, r3, #2
 1951 049c 2B64     		str	r3, [r5, #64]
 1952 049e EB6A     		ldr	r3, [r5, #44]
 1953 04a0 023B     		subs	r3, r3, #2
 1954 04a2 B363     		str	r3, [r6, #56]
 1955 04a4 2B68     		ldr	r3, [r5]
 1956 04a6 23F00203 		bic	r3, r3, #2
 1957 04aa 2B60     		str	r3, [r5]
 1958 04ac 3368     		ldr	r3, [r6]
 1959 04ae 23F00203 		bic	r3, r3, #2
 1960 04b2 3360     		str	r3, [r6]
 1961              		.loc 1 411 0
 1962 04b4 FFF7FEFF 		bl	utils_sys_unlock_cnt
 1963              	.LVL140:
 1964              		.loc 1 415 0
 1965 04b8 314B     		ldr	r3, .L136
 1966              		.loc 1 414 0
 1967 04ba 324A     		ldr	r2, .L136+4
 1968              		.loc 1 415 0
 1969 04bc 4FF48051 		mov	r1, #4096
 1970              		.loc 1 414 0
 1971 04c0 A2F81890 		strh	r9, [r2, #24]	@ movhi
 1972              		.loc 1 415 0
 1973 04c4 5983     		strh	r1, [r3, #26]	@ movhi
 1974              	.LBB75:
 1975              	.LBB76:
 1976              		.loc 1 1788 0
 1977 04c6 1983     		strh	r1, [r3, #24]	@ movhi
 1978              	.L127:
 1979              		.loc 1 1789 0
 1980 04c8 1369     		ldr	r3, [r2, #16]
 1981 04ca DB04     		lsls	r3, r3, #19
 1982 04cc FCD5     		bpl	.L127
 1983              		.loc 1 1790 0
 1984 04ce 42F21070 		movw	r0, #10000
 1985 04d2 FFF7FEFF 		bl	chThdSleep
 1986              	.LVL141:
 1987              		.loc 1 1791 0
 1988 04d6 2C4A     		ldr	r2, .L136+8
 1989 04d8 0023     		movs	r3, #0
 1990 04da 1360     		str	r3, [r2]
 1991              		.loc 1 1792 0
 1992 04dc 2B4A     		ldr	r2, .L136+12
 1993 04de 1360     		str	r3, [r2]
 1994              		.loc 1 1793 0
 1995 04e0 CAF80030 		str	r3, [r10]
ARM GAS  C:\Users\euanm\AppData\Local\Temp\ccwBC4sF.s 			page 36


 1996              	.L128:
 1997              		.loc 1 1794 0
 1998 04e4 DAF80030 		ldr	r3, [r10]
 1999 04e8 294A     		ldr	r2, .L136+16
 2000 04ea B3F57A6F 		cmp	r3, #4000
 2001 04ee F9DB     		blt	.L128
 2002              		.loc 1 1795 0
 2003 04f0 284C     		ldr	r4, .L136+20
 2004 04f2 254B     		ldr	r3, .L136+8
 2005              		.loc 1 1796 0
 2006 04f4 2849     		ldr	r1, .L136+24
 2007              		.loc 1 1795 0
 2008 04f6 1B68     		ldr	r3, [r3]
 2009 04f8 1068     		ldr	r0, [r2]
 2010 04fa 93FBF0F3 		sdiv	r3, r3, r0
 2011 04fe 2360     		str	r3, [r4]
 2012              		.loc 1 1796 0
 2013 0500 224B     		ldr	r3, .L136+12
 2014              		.loc 1 1797 0
 2015 0502 1F48     		ldr	r0, .L136
 2016              		.loc 1 1796 0
 2017 0504 1B68     		ldr	r3, [r3]
 2018 0506 1268     		ldr	r2, [r2]
 2019 0508 93FBF2F3 		sdiv	r3, r3, r2
 2020              		.loc 1 1798 0
 2021 050c 0125     		movs	r5, #1
 2022              		.loc 1 1796 0
 2023 050e 0B60     		str	r3, [r1]
 2024              		.loc 1 1797 0
 2025 0510 4FF48054 		mov	r4, #4096
 2026              		.loc 1 1798 0
 2027 0514 214B     		ldr	r3, .L136+28
 2028              		.loc 1 1797 0
 2029 0516 4483     		strh	r4, [r0, #26]	@ movhi
 2030              	.LBE76:
 2031              	.LBE75:
 2032              		.loc 1 419 0
 2033 0518 2946     		mov	r1, r5
 2034 051a 4020     		movs	r0, #64
 2035              		.loc 1 424 0
 2036 051c 0024     		movs	r4, #0
 2037              	.LBB78:
 2038              	.LBB77:
 2039              		.loc 1 1798 0
 2040 051e 1D70     		strb	r5, [r3]
 2041              	.LBE77:
 2042              	.LBE78:
 2043              		.loc 1 419 0
 2044 0520 FFF7FEFF 		bl	RCC_APB1PeriphClockCmd
 2045              	.LVL142:
 2046              		.loc 1 422 0
 2047 0524 4FF0FF32 		mov	r2, #-1
 2048              		.loc 1 423 0
 2049 0528 0723     		movs	r3, #7
 2050              		.loc 1 426 0
 2051 052a 05A9     		add	r1, sp, #20
 2052 052c 1C48     		ldr	r0, .L136+32
ARM GAS  C:\Users\euanm\AppData\Local\Temp\ccwBC4sF.s 			page 37


 2053              		.loc 1 422 0
 2054 052e 0692     		str	r2, [sp, #24]
 2055              		.loc 1 423 0
 2056 0530 ADF81430 		strh	r3, [sp, #20]	@ movhi
 2057              		.loc 1 424 0
 2058 0534 ADF81C40 		strh	r4, [sp, #28]	@ movhi
 2059              		.loc 1 425 0
 2060 0538 ADF81640 		strh	r4, [sp, #22]	@ movhi
 2061              		.loc 1 426 0
 2062 053c FFF7FEFF 		bl	TIM_TimeBaseInit
 2063              	.LVL143:
 2064              		.loc 1 428 0
 2065 0540 2946     		mov	r1, r5
 2066 0542 1748     		ldr	r0, .L136+32
 2067 0544 FFF7FEFF 		bl	TIM_Cmd
 2068              	.LVL144:
 2069              		.loc 1 431 0
 2070 0548 164A     		ldr	r2, .L136+36
 2071              		.loc 1 432 0
 2072 054a 174B     		ldr	r3, .L136+40
 2073 054c 0094     		str	r4, [sp]
 2074 054e 40F69811 		movw	r1, #2456
 2075              		.loc 1 431 0
 2076 0552 1470     		strb	r4, [r2]
 2077              		.loc 1 432 0
 2078 0554 1548     		ldr	r0, .L136+44
 2079 0556 4022     		movs	r2, #64
 2080 0558 FFF7FEFF 		bl	chThdCreateStatic
 2081              	.LVL145:
 2082              		.loc 1 435 0
 2083 055c 2946     		mov	r1, r5
 2084 055e 4FF40060 		mov	r0, #2048
 2085 0562 FFF7FEFF 		bl	RCC_APB1PeriphClockCmd
 2086              	.LVL146:
 2087              		.loc 1 436 0
 2088 0566 2046     		mov	r0, r4
 2089 0568 FFF7FEFF 		bl	WWDG_SetPrescaler
 2090              	.LVL147:
 2091              		.loc 1 437 0
 2092 056c FF20     		movs	r0, #255
 2093 056e FFF7FEFF 		bl	WWDG_SetWindowValue
 2094              	.LVL148:
 2095              		.loc 1 438 0
 2096 0572 6420     		movs	r0, #100
 2097 0574 FFF7FEFF 		bl	WWDG_Enable
 2098              	.LVL149:
 2099              		.loc 1 439 0
 2100 0578 2BB0     		add	sp, sp, #172
 2101              		.cfi_def_cfa_offset 36
 2102              		@ sp needed
 2103 057a BDE8F08F 		pop	{r4, r5, r6, r7, r8, r9, r10, fp, pc}
 2104              	.L137:
 2105 057e 00BF     		.align	2
 2106              	.L136:
 2107 0580 00040240 		.word	1073873920
 2108 0584 00080240 		.word	1073874944
 2109 0588 00000000 		.word	.LANCHOR23
ARM GAS  C:\Users\euanm\AppData\Local\Temp\ccwBC4sF.s 			page 38


 2110 058c 00000000 		.word	.LANCHOR24
 2111 0590 00000000 		.word	.LANCHOR25
 2112 0594 00000000 		.word	.LANCHOR40
 2113 0598 00000000 		.word	.LANCHOR41
 2114 059c 00000000 		.word	.LANCHOR26
 2115 05a0 00180040 		.word	1073747968
 2116 05a4 00000000 		.word	.LANCHOR9
 2117 05a8 00000000 		.word	timer_thread
 2118 05ac 00000000 		.word	.LANCHOR42
 2119              		.cfi_endproc
 2120              	.LFE256:
 2121              		.size	mcpwm_foc_init, .-mcpwm_foc_init
 2122              		.section	.text.mcpwm_foc_deinit,"ax",%progbits
 2123              		.align	2
 2124              		.p2align 4,,15
 2125              		.global	mcpwm_foc_deinit
 2126              		.thumb
 2127              		.thumb_func
 2128              		.type	mcpwm_foc_deinit, %function
 2129              	mcpwm_foc_deinit:
 2130              	.LFB257:
 2131              		.loc 1 441 0
 2132              		.cfi_startproc
 2133              		@ args = 0, pretend = 0, frame = 0
 2134              		@ frame_needed = 0, uses_anonymous_args = 0
 2135 0000 10B5     		push	{r4, lr}
 2136              		.cfi_def_cfa_offset 8
 2137              		.cfi_offset 4, -8
 2138              		.cfi_offset 14, -4
 2139              		.loc 1 444 0
 2140 0002 114C     		ldr	r4, .L144
 2141              		.loc 1 442 0
 2142 0004 FFF7FEFF 		bl	WWDG_DeInit
 2143              	.LVL150:
 2144              		.loc 1 444 0
 2145 0008 0123     		movs	r3, #1
 2146 000a 2370     		strb	r3, [r4]
 2147              		.loc 1 446 0
 2148 000c 2378     		ldrb	r3, [r4]	@ zero_extendqisi2
 2149 000e 2BB1     		cbz	r3, .L140
 2150              	.L141:
 2151              		.loc 1 447 0
 2152 0010 0A20     		movs	r0, #10
 2153 0012 FFF7FEFF 		bl	chThdSleep
 2154              	.LVL151:
 2155              		.loc 1 446 0
 2156 0016 2378     		ldrb	r3, [r4]	@ zero_extendqisi2
 2157 0018 002B     		cmp	r3, #0
 2158 001a F9D1     		bne	.L141
 2159              	.L140:
 2160              		.loc 1 450 0
 2161 001c 0B48     		ldr	r0, .L144+4
 2162 001e FFF7FEFF 		bl	TIM_DeInit
 2163              	.LVL152:
 2164              		.loc 1 451 0
 2165 0022 0B48     		ldr	r0, .L144+8
 2166 0024 FFF7FEFF 		bl	TIM_DeInit
ARM GAS  C:\Users\euanm\AppData\Local\Temp\ccwBC4sF.s 			page 39


 2167              	.LVL153:
 2168              		.loc 1 452 0
 2169 0028 0A48     		ldr	r0, .L144+12
 2170 002a FFF7FEFF 		bl	TIM_DeInit
 2171              	.LVL154:
 2172              		.loc 1 453 0
 2173 002e FFF7FEFF 		bl	ADC_DeInit
 2174              	.LVL155:
 2175              		.loc 1 454 0
 2176 0032 0948     		ldr	r0, .L144+16
 2177 0034 FFF7FEFF 		bl	DMA_DeInit
 2178              	.LVL156:
 2179              		.loc 1 455 0
 2180 0038 1220     		movs	r0, #18
 2181 003a FFF7FEFF 		bl	nvicDisableVector
 2182              	.LVL157:
 2183              		.loc 1 456 0
 2184 003e 0748     		ldr	r0, .L144+20
 2185              		.loc 1 457 0
 2186 0040 BDE81040 		pop	{r4, lr}
 2187              		.cfi_restore 14
 2188              		.cfi_restore 4
 2189              		.cfi_def_cfa_offset 0
 2190              		.loc 1 456 0
 2191 0044 FFF7FEBF 		b	dmaStreamRelease
 2192              	.LVL158:
 2193              	.L145:
 2194              		.align	2
 2195              	.L144:
 2196 0048 00000000 		.word	.LANCHOR9
 2197 004c 00000140 		.word	1073807360
 2198 0050 00040140 		.word	1073808384
 2199 0054 00180040 		.word	1073747968
 2200 0058 70640240 		.word	1073898608
 2201 005c 90000000 		.word	_stm32_dma_streams+144
 2202              		.cfi_endproc
 2203              	.LFE257:
 2204              		.size	mcpwm_foc_deinit, .-mcpwm_foc_deinit
 2205              		.section	.text.mcpwm_foc_set_configuration,"ax",%progbits
 2206              		.align	2
 2207              		.p2align 4,,15
 2208              		.global	mcpwm_foc_set_configuration
 2209              		.thumb
 2210              		.thumb_func
 2211              		.type	mcpwm_foc_set_configuration, %function
 2212              	mcpwm_foc_set_configuration:
 2213              	.LFB258:
 2214              		.loc 1 459 0
 2215              		.cfi_startproc
 2216              		@ args = 0, pretend = 0, frame = 0
 2217              		@ frame_needed = 0, uses_anonymous_args = 0
 2218              	.LVL159:
 2219 0000 38B5     		push	{r3, r4, r5, lr}
 2220              		.cfi_def_cfa_offset 16
 2221              		.cfi_offset 3, -16
 2222              		.cfi_offset 4, -12
 2223              		.cfi_offset 5, -8
ARM GAS  C:\Users\euanm\AppData\Local\Temp\ccwBC4sF.s 			page 40


 2224              		.cfi_offset 14, -4
 2225              		.loc 1 462 0
 2226 0002 1649     		ldr	r1, .L148
 2227              		.loc 1 460 0
 2228 0004 164C     		ldr	r4, .L148+4
 2229              		.loc 1 463 0
 2230 0006 174B     		ldr	r3, .L148+8
 2231              		.loc 1 460 0
 2232 0008 2060     		str	r0, [r4]
 2233              		.loc 1 463 0
 2234 000a 0022     		movs	r2, #0
 2235              		.loc 1 462 0
 2236 000c 0525     		movs	r5, #5
 2237 000e 0D70     		strb	r5, [r1]
 2238              		.loc 1 463 0
 2239 0010 1A70     		strb	r2, [r3]
 2240              		.loc 1 464 0
 2241 0012 FFF7FEFF 		bl	stop_pwm_hw
 2242              	.LVL160:
 2243              		.loc 1 465 0
 2244 0016 2368     		ldr	r3, [r4]
 2245              		.loc 1 466 0
 2246 0018 134A     		ldr	r2, .L148+12
 2247              		.loc 1 465 0
 2248 001a D3ED277A 		vldr.32	s15, [r3, #156]
 2249              		.loc 1 466 0
 2250 001e 1168     		ldr	r1, [r2]
 2251 0020 124B     		ldr	r3, .L148+16
 2252              		.loc 1 465 0
 2253 0022 1348     		ldr	r0, .L148+20
 2254              		.loc 1 466 0
 2255 0024 41F00201 		orr	r1, r1, #2
 2256              		.loc 1 465 0
 2257 0028 FDEEE77A 		vcvt.s32.f32	s15, s15
 2258              		.loc 1 466 0
 2259 002c 1160     		str	r1, [r2]
 2260 002e 1C68     		ldr	r4, [r3]
 2261              		.loc 1 465 0
 2262 0030 17EE901A 		vmov	r1, s15	@ int
 2263              		.loc 1 466 0
 2264 0034 44F00204 		orr	r4, r4, #2
 2265              		.loc 1 465 0
 2266 0038 90FBF1F1 		sdiv	r1, r0, r1
 2267              	.LVL161:
 2268              		.loc 1 466 0
 2269 003c 881E     		subs	r0, r1, #2
 2270 003e 1C60     		str	r4, [r3]
 2271 0040 D162     		str	r1, [r2, #44]
 2272 0042 D962     		str	r1, [r3, #44]
 2273 0044 5D63     		str	r5, [r3, #52]
 2274 0046 1064     		str	r0, [r2, #64]
 2275 0048 9863     		str	r0, [r3, #56]
 2276 004a 1168     		ldr	r1, [r2]
 2277              	.LVL162:
 2278 004c 21F00201 		bic	r1, r1, #2
 2279 0050 1160     		str	r1, [r2]
 2280 0052 1A68     		ldr	r2, [r3]
ARM GAS  C:\Users\euanm\AppData\Local\Temp\ccwBC4sF.s 			page 41


 2281 0054 22F00202 		bic	r2, r2, #2
 2282 0058 1A60     		str	r2, [r3]
 2283 005a 38BD     		pop	{r3, r4, r5, pc}
 2284              	.L149:
 2285              		.align	2
 2286              	.L148:
 2287 005c 00000000 		.word	.LANCHOR14
 2288 0060 00000000 		.word	.LANCHOR0
 2289 0064 00000000 		.word	.LANCHOR7
 2290 0068 00000140 		.word	1073807360
 2291 006c 00040140 		.word	1073808384
 2292 0070 007A030A 		.word	168000000
 2293              		.cfi_endproc
 2294              	.LFE258:
 2295              		.size	mcpwm_foc_set_configuration, .-mcpwm_foc_set_configuration
 2296              		.section	.text.mcpwm_foc_get_state,"ax",%progbits
 2297              		.align	2
 2298              		.p2align 4,,15
 2299              		.global	mcpwm_foc_get_state
 2300              		.thumb
 2301              		.thumb_func
 2302              		.type	mcpwm_foc_get_state, %function
 2303              	mcpwm_foc_get_state:
 2304              	.LFB259:
 2305              		.loc 1 469 0
 2306              		.cfi_startproc
 2307              		@ args = 0, pretend = 0, frame = 0
 2308              		@ frame_needed = 0, uses_anonymous_args = 0
 2309              		@ link register save eliminated.
 2310              		.loc 1 470 0
 2311 0000 014B     		ldr	r3, .L151
 2312 0002 1878     		ldrb	r0, [r3]	@ zero_extendqisi2
 2313              		.loc 1 471 0
 2314 0004 7047     		bx	lr
 2315              	.L152:
 2316 0006 00BF     		.align	2
 2317              	.L151:
 2318 0008 00000000 		.word	.LANCHOR7
 2319              		.cfi_endproc
 2320              	.LFE259:
 2321              		.size	mcpwm_foc_get_state, .-mcpwm_foc_get_state
 2322              		.section	.text.mcpwm_foc_is_dccal_done,"ax",%progbits
 2323              		.align	2
 2324              		.p2align 4,,15
 2325              		.global	mcpwm_foc_is_dccal_done
 2326              		.thumb
 2327              		.thumb_func
 2328              		.type	mcpwm_foc_is_dccal_done, %function
 2329              	mcpwm_foc_is_dccal_done:
 2330              	.LFB260:
 2331              		.loc 1 473 0
 2332              		.cfi_startproc
 2333              		@ args = 0, pretend = 0, frame = 0
 2334              		@ frame_needed = 0, uses_anonymous_args = 0
 2335              		@ link register save eliminated.
 2336              		.loc 1 474 0
 2337 0000 014B     		ldr	r3, .L154
ARM GAS  C:\Users\euanm\AppData\Local\Temp\ccwBC4sF.s 			page 42


 2338 0002 1878     		ldrb	r0, [r3]	@ zero_extendqisi2
 2339              		.loc 1 475 0
 2340 0004 7047     		bx	lr
 2341              	.L155:
 2342 0006 00BF     		.align	2
 2343              	.L154:
 2344 0008 00000000 		.word	.LANCHOR26
 2345              		.cfi_endproc
 2346              	.LFE260:
 2347              		.size	mcpwm_foc_is_dccal_done, .-mcpwm_foc_is_dccal_done
 2348              		.section	.text.mcpwm_foc_set_duty,"ax",%progbits
 2349              		.align	2
 2350              		.p2align 4,,15
 2351              		.global	mcpwm_foc_set_duty
 2352              		.thumb
 2353              		.thumb_func
 2354              		.type	mcpwm_foc_set_duty, %function
 2355              	mcpwm_foc_set_duty:
 2356              	.LFB262:
 2357              		.loc 1 491 0
 2358              		.cfi_startproc
 2359              		@ args = 0, pretend = 0, frame = 0
 2360              		@ frame_needed = 0, uses_anonymous_args = 0
 2361              		@ link register save eliminated.
 2362              	.LVL163:
 2363              		.loc 1 493 0
 2364 0000 064A     		ldr	r2, .L161
 2365              		.loc 1 492 0
 2366 0002 0749     		ldr	r1, .L161+4
 2367              		.loc 1 495 0
 2368 0004 074B     		ldr	r3, .L161+8
 2369              		.loc 1 492 0
 2370 0006 0020     		movs	r0, #0
 2371 0008 0870     		strb	r0, [r1]
 2372              		.loc 1 493 0
 2373 000a 82ED000A 		vstr.32	s0, [r2]
 2374              		.loc 1 495 0
 2375 000e 1A78     		ldrb	r2, [r3]	@ zero_extendqisi2
 2376 0010 022A     		cmp	r2, #2
 2377              		.loc 1 496 0
 2378 0012 1CBF     		itt	ne
 2379 0014 0222     		movne	r2, #2
 2380 0016 1A70     		strbne	r2, [r3]
 2381 0018 7047     		bx	lr
 2382              	.L162:
 2383 001a 00BF     		.align	2
 2384              	.L161:
 2385 001c 00000000 		.word	.LANCHOR29
 2386 0020 00000000 		.word	.LANCHOR14
 2387 0024 00000000 		.word	.LANCHOR7
 2388              		.cfi_endproc
 2389              	.LFE262:
 2390              		.size	mcpwm_foc_set_duty, .-mcpwm_foc_set_duty
 2391              		.section	.text.mcpwm_foc_set_duty_noramp,"ax",%progbits
 2392              		.align	2
 2393              		.p2align 4,,15
 2394              		.global	mcpwm_foc_set_duty_noramp
ARM GAS  C:\Users\euanm\AppData\Local\Temp\ccwBC4sF.s 			page 43


 2395              		.thumb
 2396              		.thumb_func
 2397              		.type	mcpwm_foc_set_duty_noramp, %function
 2398              	mcpwm_foc_set_duty_noramp:
 2399              	.LFB263:
 2400              		.loc 1 510 0
 2401              		.cfi_startproc
 2402              		@ args = 0, pretend = 0, frame = 0
 2403              		@ frame_needed = 0, uses_anonymous_args = 0
 2404              		@ link register save eliminated.
 2405              	.LVL164:
 2406              	.LBB79:
 2407              	.LBB80:
 2408              		.loc 1 493 0
 2409 0000 064A     		ldr	r2, .L168
 2410              		.loc 1 492 0
 2411 0002 0749     		ldr	r1, .L168+4
 2412              		.loc 1 495 0
 2413 0004 074B     		ldr	r3, .L168+8
 2414              		.loc 1 492 0
 2415 0006 0020     		movs	r0, #0
 2416 0008 0870     		strb	r0, [r1]
 2417              		.loc 1 493 0
 2418 000a 82ED000A 		vstr.32	s0, [r2]
 2419              		.loc 1 495 0
 2420 000e 1A78     		ldrb	r2, [r3]	@ zero_extendqisi2
 2421 0010 022A     		cmp	r2, #2
 2422              		.loc 1 496 0
 2423 0012 1CBF     		itt	ne
 2424 0014 0222     		movne	r2, #2
 2425 0016 1A70     		strbne	r2, [r3]
 2426              	.LVL165:
 2427 0018 7047     		bx	lr
 2428              	.L169:
 2429 001a 00BF     		.align	2
 2430              	.L168:
 2431 001c 00000000 		.word	.LANCHOR29
 2432 0020 00000000 		.word	.LANCHOR14
 2433 0024 00000000 		.word	.LANCHOR7
 2434              	.LBE80:
 2435              	.LBE79:
 2436              		.cfi_endproc
 2437              	.LFE263:
 2438              		.size	mcpwm_foc_set_duty_noramp, .-mcpwm_foc_set_duty_noramp
 2439              		.section	.text.mcpwm_foc_set_pid_speed,"ax",%progbits
 2440              		.align	2
 2441              		.p2align 4,,15
 2442              		.global	mcpwm_foc_set_pid_speed
 2443              		.thumb
 2444              		.thumb_func
 2445              		.type	mcpwm_foc_set_pid_speed, %function
 2446              	mcpwm_foc_set_pid_speed:
 2447              	.LFB264:
 2448              		.loc 1 522 0
 2449              		.cfi_startproc
 2450              		@ args = 0, pretend = 0, frame = 0
 2451              		@ frame_needed = 0, uses_anonymous_args = 0
ARM GAS  C:\Users\euanm\AppData\Local\Temp\ccwBC4sF.s 			page 44


 2452              		@ link register save eliminated.
 2453              	.LVL166:
 2454              		.loc 1 524 0
 2455 0000 134B     		ldr	r3, .L183
 2456 0002 1B68     		ldr	r3, [r3]
 2457 0004 D3ED407A 		vldr.32	s15, [r3, #256]
 2458 0008 B0EEC07A 		vabs.f32	s14, s0
 2459 000c B4EEE77A 		vcmpe.f32	s14, s15
 2460 0010 F1EE10FA 		vmrs	APSR_nzcv, FPSCR
 2461              		.loc 1 522 0
 2462 0014 30B4     		push	{r4, r5}
 2463              		.cfi_def_cfa_offset 8
 2464              		.cfi_offset 4, -8
 2465              		.cfi_offset 5, -4
 2466              		.loc 1 524 0
 2467 0016 0DD5     		bpl	.L180
 2468              	.LVL167:
 2469              	.LBB81:
 2470              	.LBB82:
 2471              		.loc 1 493 0
 2472 0018 0E4A     		ldr	r2, .L183+4
 2473              		.loc 1 492 0
 2474 001a 0F48     		ldr	r0, .L183+8
 2475              		.loc 1 495 0
 2476 001c 0F4B     		ldr	r3, .L183+12
 2477              		.loc 1 493 0
 2478 001e 0021     		movs	r1, #0
 2479              		.loc 1 492 0
 2480 0020 0024     		movs	r4, #0
 2481 0022 0470     		strb	r4, [r0]
 2482              		.loc 1 493 0
 2483 0024 1160     		str	r1, [r2]	@ float
 2484              		.loc 1 495 0
 2485 0026 1A78     		ldrb	r2, [r3]	@ zero_extendqisi2
 2486 0028 022A     		cmp	r2, #2
 2487 002a 01D0     		beq	.L170
 2488              	.LVL168:
 2489              	.L182:
 2490              	.LBE82:
 2491              	.LBE81:
 2492              		.loc 1 533 0
 2493 002c 0222     		movs	r2, #2
 2494 002e 1A70     		strb	r2, [r3]
 2495              	.L170:
 2496              		.loc 1 535 0
 2497 0030 30BC     		pop	{r4, r5}
 2498              		.cfi_remember_state
 2499              		.cfi_restore 5
 2500              		.cfi_restore 4
 2501              		.cfi_def_cfa_offset 0
 2502 0032 7047     		bx	lr
 2503              	.L180:
 2504              		.cfi_restore_state
 2505              		.loc 1 530 0
 2506 0034 0A4A     		ldr	r2, .L183+16
 2507              		.loc 1 528 0
 2508 0036 084C     		ldr	r4, .L183+8
ARM GAS  C:\Users\euanm\AppData\Local\Temp\ccwBC4sF.s 			page 45


 2509              		.loc 1 529 0
 2510 0038 0A48     		ldr	r0, .L183+20
 2511              		.loc 1 532 0
 2512 003a 084B     		ldr	r3, .L183+12
 2513              		.loc 1 528 0
 2514 003c 0125     		movs	r5, #1
 2515              		.loc 1 530 0
 2516 003e 0021     		movs	r1, #0
 2517              		.loc 1 528 0
 2518 0040 2570     		strb	r5, [r4]
 2519              		.loc 1 529 0
 2520 0042 80ED000A 		vstr.32	s0, [r0]
 2521              		.loc 1 530 0
 2522 0046 1170     		strb	r1, [r2]
 2523              		.loc 1 532 0
 2524 0048 1A78     		ldrb	r2, [r3]	@ zero_extendqisi2
 2525 004a 022A     		cmp	r2, #2
 2526 004c EED1     		bne	.L182
 2527 004e EFE7     		b	.L170
 2528              	.L184:
 2529              		.align	2
 2530              	.L183:
 2531 0050 00000000 		.word	.LANCHOR0
 2532 0054 00000000 		.word	.LANCHOR29
 2533 0058 00000000 		.word	.LANCHOR14
 2534 005c 00000000 		.word	.LANCHOR7
 2535 0060 00000000 		.word	.LANCHOR22
 2536 0064 00000000 		.word	.LANCHOR20
 2537              		.cfi_endproc
 2538              	.LFE264:
 2539              		.size	mcpwm_foc_set_pid_speed, .-mcpwm_foc_set_pid_speed
 2540              		.section	.text.mcpwm_foc_set_pid_speed_with_cruise_status,"ax",%progbits
 2541              		.align	2
 2542              		.p2align 4,,15
 2543              		.global	mcpwm_foc_set_pid_speed_with_cruise_status
 2544              		.thumb
 2545              		.thumb_func
 2546              		.type	mcpwm_foc_set_pid_speed_with_cruise_status, %function
 2547              	mcpwm_foc_set_pid_speed_with_cruise_status:
 2548              	.LFB265:
 2549              		.loc 1 537 0
 2550              		.cfi_startproc
 2551              		@ args = 0, pretend = 0, frame = 0
 2552              		@ frame_needed = 0, uses_anonymous_args = 0
 2553              		@ link register save eliminated.
 2554              	.LVL169:
 2555              		.loc 1 538 0
 2556 0000 134B     		ldr	r3, .L198
 2557 0002 1B68     		ldr	r3, [r3]
 2558 0004 D3ED407A 		vldr.32	s15, [r3, #256]
 2559 0008 B0EEC07A 		vabs.f32	s14, s0
 2560 000c B4EEE77A 		vcmpe.f32	s14, s15
 2561 0010 F1EE10FA 		vmrs	APSR_nzcv, FPSCR
 2562              		.loc 1 537 0
 2563 0014 30B4     		push	{r4, r5}
 2564              		.cfi_def_cfa_offset 8
 2565              		.cfi_offset 4, -8
ARM GAS  C:\Users\euanm\AppData\Local\Temp\ccwBC4sF.s 			page 46


 2566              		.cfi_offset 5, -4
 2567              		.loc 1 538 0
 2568 0016 0DD5     		bpl	.L195
 2569              	.LVL170:
 2570              	.LBB83:
 2571              	.LBB84:
 2572              		.loc 1 493 0
 2573 0018 0E4A     		ldr	r2, .L198+4
 2574              		.loc 1 492 0
 2575 001a 0F48     		ldr	r0, .L198+8
 2576              	.LVL171:
 2577              		.loc 1 495 0
 2578 001c 0F4B     		ldr	r3, .L198+12
 2579              		.loc 1 493 0
 2580 001e 0021     		movs	r1, #0
 2581              		.loc 1 492 0
 2582 0020 0024     		movs	r4, #0
 2583 0022 0470     		strb	r4, [r0]
 2584              		.loc 1 493 0
 2585 0024 1160     		str	r1, [r2]	@ float
 2586              		.loc 1 495 0
 2587 0026 1A78     		ldrb	r2, [r3]	@ zero_extendqisi2
 2588 0028 022A     		cmp	r2, #2
 2589 002a 01D0     		beq	.L185
 2590              	.LVL172:
 2591              	.L197:
 2592              	.LBE84:
 2593              	.LBE83:
 2594              		.loc 1 547 0
 2595 002c 0222     		movs	r2, #2
 2596 002e 1A70     		strb	r2, [r3]
 2597              	.L185:
 2598              		.loc 1 549 0
 2599 0030 30BC     		pop	{r4, r5}
 2600              		.cfi_remember_state
 2601              		.cfi_restore 5
 2602              		.cfi_restore 4
 2603              		.cfi_def_cfa_offset 0
 2604 0032 7047     		bx	lr
 2605              	.LVL173:
 2606              	.L195:
 2607              		.cfi_restore_state
 2608              		.loc 1 544 0
 2609 0034 0A4A     		ldr	r2, .L198+16
 2610              		.loc 1 542 0
 2611 0036 084C     		ldr	r4, .L198+8
 2612              		.loc 1 543 0
 2613 0038 0A49     		ldr	r1, .L198+20
 2614              		.loc 1 546 0
 2615 003a 084B     		ldr	r3, .L198+12
 2616              		.loc 1 542 0
 2617 003c 0125     		movs	r5, #1
 2618 003e 2570     		strb	r5, [r4]
 2619              		.loc 1 543 0
 2620 0040 81ED000A 		vstr.32	s0, [r1]
 2621              		.loc 1 544 0
 2622 0044 1070     		strb	r0, [r2]
ARM GAS  C:\Users\euanm\AppData\Local\Temp\ccwBC4sF.s 			page 47


 2623              		.loc 1 546 0
 2624 0046 1A78     		ldrb	r2, [r3]	@ zero_extendqisi2
 2625 0048 022A     		cmp	r2, #2
 2626 004a EFD1     		bne	.L197
 2627 004c F0E7     		b	.L185
 2628              	.L199:
 2629 004e 00BF     		.align	2
 2630              	.L198:
 2631 0050 00000000 		.word	.LANCHOR0
 2632 0054 00000000 		.word	.LANCHOR29
 2633 0058 00000000 		.word	.LANCHOR14
 2634 005c 00000000 		.word	.LANCHOR7
 2635 0060 00000000 		.word	.LANCHOR22
 2636 0064 00000000 		.word	.LANCHOR20
 2637              		.cfi_endproc
 2638              	.LFE265:
 2639              		.size	mcpwm_foc_set_pid_speed_with_cruise_status, .-mcpwm_foc_set_pid_speed_with_cruise_status
 2640              		.section	.text.mcpwm_foc_set_pid_pos,"ax",%progbits
 2641              		.align	2
 2642              		.p2align 4,,15
 2643              		.global	mcpwm_foc_set_pid_pos
 2644              		.thumb
 2645              		.thumb_func
 2646              		.type	mcpwm_foc_set_pid_pos, %function
 2647              	mcpwm_foc_set_pid_pos:
 2648              	.LFB266:
 2649              		.loc 1 558 0
 2650              		.cfi_startproc
 2651              		@ args = 0, pretend = 0, frame = 0
 2652              		@ frame_needed = 0, uses_anonymous_args = 0
 2653              		@ link register save eliminated.
 2654              	.LVL174:
 2655              		.loc 1 560 0
 2656 0000 064A     		ldr	r2, .L205
 2657              		.loc 1 559 0
 2658 0002 0749     		ldr	r1, .L205+4
 2659              		.loc 1 562 0
 2660 0004 074B     		ldr	r3, .L205+8
 2661              		.loc 1 559 0
 2662 0006 0420     		movs	r0, #4
 2663 0008 0870     		strb	r0, [r1]
 2664              		.loc 1 560 0
 2665 000a 82ED000A 		vstr.32	s0, [r2]
 2666              		.loc 1 562 0
 2667 000e 1A78     		ldrb	r2, [r3]	@ zero_extendqisi2
 2668 0010 022A     		cmp	r2, #2
 2669              		.loc 1 563 0
 2670 0012 1CBF     		itt	ne
 2671 0014 0222     		movne	r2, #2
 2672 0016 1A70     		strbne	r2, [r3]
 2673 0018 7047     		bx	lr
 2674              	.L206:
 2675 001a 00BF     		.align	2
 2676              	.L205:
 2677 001c 00000000 		.word	.LANCHOR31
 2678 0020 00000000 		.word	.LANCHOR14
 2679 0024 00000000 		.word	.LANCHOR7
ARM GAS  C:\Users\euanm\AppData\Local\Temp\ccwBC4sF.s 			page 48


 2680              		.cfi_endproc
 2681              	.LFE266:
 2682              		.size	mcpwm_foc_set_pid_pos, .-mcpwm_foc_set_pid_pos
 2683              		.section	.text.mcpwm_foc_set_current,"ax",%progbits
 2684              		.align	2
 2685              		.p2align 4,,15
 2686              		.global	mcpwm_foc_set_current
 2687              		.thumb
 2688              		.thumb_func
 2689              		.type	mcpwm_foc_set_current, %function
 2690              	mcpwm_foc_set_current:
 2691              	.LFB267:
 2692              		.loc 1 575 0
 2693              		.cfi_startproc
 2694              		@ args = 0, pretend = 0, frame = 8
 2695              		@ frame_needed = 0, uses_anonymous_args = 0
 2696              	.LVL175:
 2697              		.loc 1 576 0
 2698 0000 164B     		ldr	r3, .L218
 2699              		.loc 1 575 0
 2700 0002 10B5     		push	{r4, lr}
 2701              		.cfi_def_cfa_offset 8
 2702              		.cfi_offset 4, -8
 2703              		.cfi_offset 14, -4
 2704              		.loc 1 576 0
 2705 0004 1B68     		ldr	r3, [r3]
 2706 0006 D3ED477A 		vldr.32	s15, [r3, #284]
 2707 000a B0EEC07A 		vabs.f32	s14, s0
 2708 000e B4EEE77A 		vcmpe.f32	s14, s15
 2709              		.loc 1 575 0
 2710 0012 82B0     		sub	sp, sp, #8
 2711              		.cfi_def_cfa_offset 16
 2712              		.loc 1 576 0
 2713 0014 F1EE10FA 		vmrs	APSR_nzcv, FPSCR
 2714              		.loc 1 575 0
 2715 0018 8DED010A 		vstr.32	s0, [sp, #4]
 2716              		.loc 1 576 0
 2717 001c 13D4     		bmi	.L217
 2718              		.loc 1 583 0
 2719 001e 93ED180A 		vldr.32	s0, [r3, #96]
 2720              	.LVL176:
 2721 0022 D3ED170A 		vldr.32	s1, [r3, #92]
 2722              		.loc 1 585 0
 2723 0026 0E4C     		ldr	r4, .L218+4
 2724              		.loc 1 583 0
 2725 0028 01A8     		add	r0, sp, #4
 2726              	.LVL177:
 2727 002a FFF7FEFF 		bl	utils_truncate_number
 2728              	.LVL178:
 2729              		.loc 1 586 0
 2730 002e 0D49     		ldr	r1, .L218+8
 2731              		.loc 1 588 0
 2732 0030 0D4B     		ldr	r3, .L218+12
 2733              		.loc 1 586 0
 2734 0032 0198     		ldr	r0, [sp, #4]	@ float
 2735              		.loc 1 585 0
 2736 0034 0222     		movs	r2, #2
ARM GAS  C:\Users\euanm\AppData\Local\Temp\ccwBC4sF.s 			page 49


 2737 0036 2270     		strb	r2, [r4]
 2738              		.loc 1 586 0
 2739 0038 0860     		str	r0, [r1]	@ float
 2740              		.loc 1 588 0
 2741 003a 1978     		ldrb	r1, [r3]	@ zero_extendqisi2
 2742 003c 9142     		cmp	r1, r2
 2743              		.loc 1 589 0
 2744 003e 18BF     		it	ne
 2745 0040 1A70     		strbne	r2, [r3]
 2746              		.loc 1 591 0
 2747 0042 02B0     		add	sp, sp, #8
 2748              		.cfi_remember_state
 2749              		.cfi_def_cfa_offset 8
 2750              		@ sp needed
 2751 0044 10BD     		pop	{r4, pc}
 2752              	.LVL179:
 2753              	.L217:
 2754              		.cfi_restore_state
 2755              	.LBB87:
 2756              	.LBB88:
 2757              		.loc 1 577 0
 2758 0046 0649     		ldr	r1, .L218+4
 2759              		.loc 1 578 0
 2760 0048 074B     		ldr	r3, .L218+12
 2761              		.loc 1 577 0
 2762 004a 0520     		movs	r0, #5
 2763              		.loc 1 578 0
 2764 004c 0022     		movs	r2, #0
 2765              		.loc 1 577 0
 2766 004e 0870     		strb	r0, [r1]
 2767              		.loc 1 578 0
 2768 0050 1A70     		strb	r2, [r3]
 2769              		.loc 1 579 0
 2770 0052 FFF7FEFF 		bl	stop_pwm_hw
 2771              	.LVL180:
 2772              	.LBE88:
 2773              	.LBE87:
 2774              		.loc 1 591 0
 2775 0056 02B0     		add	sp, sp, #8
 2776              		.cfi_def_cfa_offset 8
 2777              		@ sp needed
 2778 0058 10BD     		pop	{r4, pc}
 2779              	.LVL181:
 2780              	.L219:
 2781 005a 00BF     		.align	2
 2782              	.L218:
 2783 005c 00000000 		.word	.LANCHOR0
 2784 0060 00000000 		.word	.LANCHOR14
 2785 0064 00000000 		.word	.LANCHOR21
 2786 0068 00000000 		.word	.LANCHOR7
 2787              		.cfi_endproc
 2788              	.LFE267:
 2789              		.size	mcpwm_foc_set_current, .-mcpwm_foc_set_current
 2790              		.section	.text.mcpwm_foc_stop_pwm,"ax",%progbits
 2791              		.align	2
 2792              		.p2align 4,,15
 2793              		.global	mcpwm_foc_stop_pwm
ARM GAS  C:\Users\euanm\AppData\Local\Temp\ccwBC4sF.s 			page 50


 2794              		.thumb
 2795              		.thumb_func
 2796              		.type	mcpwm_foc_stop_pwm, %function
 2797              	mcpwm_foc_stop_pwm:
 2798              	.LFB261:
 2799              		.loc 1 480 0
 2800              		.cfi_startproc
 2801              		@ args = 0, pretend = 0, frame = 0
 2802              		@ frame_needed = 0, uses_anonymous_args = 0
 2803              		@ link register save eliminated.
 2804              		.loc 1 481 0
 2805 0000 9FED010A 		vldr.32	s0, .L221
 2806 0004 FFF7FEBF 		b	mcpwm_foc_set_current
 2807              	.LVL182:
 2808              	.L222:
 2809              		.align	2
 2810              	.L221:
 2811 0008 00000000 		.word	0
 2812              		.cfi_endproc
 2813              	.LFE261:
 2814              		.size	mcpwm_foc_stop_pwm, .-mcpwm_foc_stop_pwm
 2815              		.section	.text.mcpwm_foc_set_brake_current,"ax",%progbits
 2816              		.align	2
 2817              		.p2align 4,,15
 2818              		.global	mcpwm_foc_set_brake_current
 2819              		.thumb
 2820              		.thumb_func
 2821              		.type	mcpwm_foc_set_brake_current, %function
 2822              	mcpwm_foc_set_brake_current:
 2823              	.LFB268:
 2824              		.loc 1 600 0
 2825              		.cfi_startproc
 2826              		@ args = 0, pretend = 0, frame = 8
 2827              		@ frame_needed = 0, uses_anonymous_args = 0
 2828              	.LVL183:
 2829              		.loc 1 601 0
 2830 0000 174B     		ldr	r3, .L234
 2831              		.loc 1 600 0
 2832 0002 10B5     		push	{r4, lr}
 2833              		.cfi_def_cfa_offset 8
 2834              		.cfi_offset 4, -8
 2835              		.cfi_offset 14, -4
 2836              		.loc 1 601 0
 2837 0004 1B68     		ldr	r3, [r3]
 2838 0006 D3ED477A 		vldr.32	s15, [r3, #284]
 2839 000a B0EEC07A 		vabs.f32	s14, s0
 2840 000e B4EEE77A 		vcmpe.f32	s14, s15
 2841              		.loc 1 600 0
 2842 0012 82B0     		sub	sp, sp, #8
 2843              		.cfi_def_cfa_offset 16
 2844              		.loc 1 601 0
 2845 0014 F1EE10FA 		vmrs	APSR_nzcv, FPSCR
 2846              		.loc 1 600 0
 2847 0018 8DED010A 		vstr.32	s0, [sp, #4]
 2848              		.loc 1 601 0
 2849 001c 16D4     		bmi	.L233
 2850              		.loc 1 608 0
ARM GAS  C:\Users\euanm\AppData\Local\Temp\ccwBC4sF.s 			page 51


 2851 001e 93ED180A 		vldr.32	s0, [r3, #96]
 2852              	.LVL184:
 2853 0022 D3ED180A 		vldr.32	s1, [r3, #96]
 2854 0026 01A8     		add	r0, sp, #4
 2855              	.LVL185:
 2856 0028 F0EEE00A 		vabs.f32	s1, s1
 2857 002c FFF7FEFF 		bl	utils_truncate_number
 2858              	.LVL186:
 2859              		.loc 1 610 0
 2860 0030 0C48     		ldr	r0, .L234+4
 2861              		.loc 1 611 0
 2862 0032 0D4A     		ldr	r2, .L234+8
 2863              		.loc 1 613 0
 2864 0034 0D4B     		ldr	r3, .L234+12
 2865              		.loc 1 611 0
 2866 0036 0199     		ldr	r1, [sp, #4]	@ float
 2867              		.loc 1 610 0
 2868 0038 0324     		movs	r4, #3
 2869 003a 0470     		strb	r4, [r0]
 2870              		.loc 1 611 0
 2871 003c 1160     		str	r1, [r2]	@ float
 2872              		.loc 1 613 0
 2873 003e 1A78     		ldrb	r2, [r3]	@ zero_extendqisi2
 2874 0040 022A     		cmp	r2, #2
 2875              		.loc 1 614 0
 2876 0042 1CBF     		itt	ne
 2877 0044 0222     		movne	r2, #2
 2878 0046 1A70     		strbne	r2, [r3]
 2879              		.loc 1 616 0
 2880 0048 02B0     		add	sp, sp, #8
 2881              		.cfi_remember_state
 2882              		.cfi_def_cfa_offset 8
 2883              		@ sp needed
 2884 004a 10BD     		pop	{r4, pc}
 2885              	.LVL187:
 2886              	.L233:
 2887              		.cfi_restore_state
 2888              		.loc 1 602 0
 2889 004c 0549     		ldr	r1, .L234+4
 2890              		.loc 1 603 0
 2891 004e 074B     		ldr	r3, .L234+12
 2892              		.loc 1 602 0
 2893 0050 0520     		movs	r0, #5
 2894              		.loc 1 603 0
 2895 0052 0022     		movs	r2, #0
 2896              		.loc 1 602 0
 2897 0054 0870     		strb	r0, [r1]
 2898              		.loc 1 603 0
 2899 0056 1A70     		strb	r2, [r3]
 2900              		.loc 1 604 0
 2901 0058 FFF7FEFF 		bl	stop_pwm_hw
 2902              	.LVL188:
 2903              		.loc 1 616 0
 2904 005c 02B0     		add	sp, sp, #8
 2905              		.cfi_def_cfa_offset 8
 2906              		@ sp needed
 2907 005e 10BD     		pop	{r4, pc}
ARM GAS  C:\Users\euanm\AppData\Local\Temp\ccwBC4sF.s 			page 52


 2908              	.LVL189:
 2909              	.L235:
 2910              		.align	2
 2911              	.L234:
 2912 0060 00000000 		.word	.LANCHOR0
 2913 0064 00000000 		.word	.LANCHOR14
 2914 0068 00000000 		.word	.LANCHOR21
 2915 006c 00000000 		.word	.LANCHOR7
 2916              		.cfi_endproc
 2917              	.LFE268:
 2918              		.size	mcpwm_foc_set_brake_current, .-mcpwm_foc_set_brake_current
 2919              		.section	.text.mcpwm_foc_get_duty_cycle_set,"ax",%progbits
 2920              		.align	2
 2921              		.p2align 4,,15
 2922              		.global	mcpwm_foc_get_duty_cycle_set
 2923              		.thumb
 2924              		.thumb_func
 2925              		.type	mcpwm_foc_get_duty_cycle_set, %function
 2926              	mcpwm_foc_get_duty_cycle_set:
 2927              	.LFB269:
 2928              		.loc 1 618 0
 2929              		.cfi_startproc
 2930              		@ args = 0, pretend = 0, frame = 0
 2931              		@ frame_needed = 0, uses_anonymous_args = 0
 2932              		@ link register save eliminated.
 2933              		.loc 1 619 0
 2934 0000 014B     		ldr	r3, .L237
 2935 0002 93ED000A 		vldr.32	s0, [r3]
 2936              		.loc 1 620 0
 2937 0006 7047     		bx	lr
 2938              	.L238:
 2939              		.align	2
 2940              	.L237:
 2941 0008 00000000 		.word	.LANCHOR29
 2942              		.cfi_endproc
 2943              	.LFE269:
 2944              		.size	mcpwm_foc_get_duty_cycle_set, .-mcpwm_foc_get_duty_cycle_set
 2945              		.section	.text.mcpwm_foc_get_duty_cycle_now,"ax",%progbits
 2946              		.align	2
 2947              		.p2align 4,,15
 2948              		.global	mcpwm_foc_get_duty_cycle_now
 2949              		.thumb
 2950              		.thumb_func
 2951              		.type	mcpwm_foc_get_duty_cycle_now, %function
 2952              	mcpwm_foc_get_duty_cycle_now:
 2953              	.LFB270:
 2954              		.loc 1 622 0
 2955              		.cfi_startproc
 2956              		@ args = 0, pretend = 0, frame = 0
 2957              		@ frame_needed = 0, uses_anonymous_args = 0
 2958              		@ link register save eliminated.
 2959              		.loc 1 623 0
 2960 0000 014B     		ldr	r3, .L240
 2961 0002 93ED030A 		vldr.32	s0, [r3, #12]
 2962              		.loc 1 624 0
 2963 0006 7047     		bx	lr
 2964              	.L241:
ARM GAS  C:\Users\euanm\AppData\Local\Temp\ccwBC4sF.s 			page 53


 2965              		.align	2
 2966              	.L240:
 2967 0008 00000000 		.word	.LANCHOR10
 2968              		.cfi_endproc
 2969              	.LFE270:
 2970              		.size	mcpwm_foc_get_duty_cycle_now, .-mcpwm_foc_get_duty_cycle_now
 2971              		.section	.text.mcpwm_foc_get_pid_pos_set,"ax",%progbits
 2972              		.align	2
 2973              		.p2align 4,,15
 2974              		.global	mcpwm_foc_get_pid_pos_set
 2975              		.thumb
 2976              		.thumb_func
 2977              		.type	mcpwm_foc_get_pid_pos_set, %function
 2978              	mcpwm_foc_get_pid_pos_set:
 2979              	.LFB271:
 2980              		.loc 1 626 0
 2981              		.cfi_startproc
 2982              		@ args = 0, pretend = 0, frame = 0
 2983              		@ frame_needed = 0, uses_anonymous_args = 0
 2984              		@ link register save eliminated.
 2985              		.loc 1 627 0
 2986 0000 014B     		ldr	r3, .L243
 2987 0002 93ED000A 		vldr.32	s0, [r3]
 2988              		.loc 1 628 0
 2989 0006 7047     		bx	lr
 2990              	.L244:
 2991              		.align	2
 2992              	.L243:
 2993 0008 00000000 		.word	.LANCHOR31
 2994              		.cfi_endproc
 2995              	.LFE271:
 2996              		.size	mcpwm_foc_get_pid_pos_set, .-mcpwm_foc_get_pid_pos_set
 2997              		.section	.text.mcpwm_foc_get_pid_pos_now,"ax",%progbits
 2998              		.align	2
 2999              		.p2align 4,,15
 3000              		.global	mcpwm_foc_get_pid_pos_now
 3001              		.thumb
 3002              		.thumb_func
 3003              		.type	mcpwm_foc_get_pid_pos_now, %function
 3004              	mcpwm_foc_get_pid_pos_now:
 3005              	.LFB272:
 3006              		.loc 1 630 0
 3007              		.cfi_startproc
 3008              		@ args = 0, pretend = 0, frame = 0
 3009              		@ frame_needed = 0, uses_anonymous_args = 0
 3010              		@ link register save eliminated.
 3011              		.loc 1 631 0
 3012 0000 014B     		ldr	r3, .L246
 3013 0002 93ED000A 		vldr.32	s0, [r3]
 3014              		.loc 1 632 0
 3015 0006 7047     		bx	lr
 3016              	.L247:
 3017              		.align	2
 3018              	.L246:
 3019 0008 00000000 		.word	.LANCHOR39
 3020              		.cfi_endproc
 3021              	.LFE272:
ARM GAS  C:\Users\euanm\AppData\Local\Temp\ccwBC4sF.s 			page 54


 3022              		.size	mcpwm_foc_get_pid_pos_now, .-mcpwm_foc_get_pid_pos_now
 3023              		.section	.text.mcpwm_foc_get_switching_frequency_now,"ax",%progbits
 3024              		.align	2
 3025              		.p2align 4,,15
 3026              		.global	mcpwm_foc_get_switching_frequency_now
 3027              		.thumb
 3028              		.thumb_func
 3029              		.type	mcpwm_foc_get_switching_frequency_now, %function
 3030              	mcpwm_foc_get_switching_frequency_now:
 3031              	.LFB273:
 3032              		.loc 1 640 0
 3033              		.cfi_startproc
 3034              		@ args = 0, pretend = 0, frame = 0
 3035              		@ frame_needed = 0, uses_anonymous_args = 0
 3036              		@ link register save eliminated.
 3037              		.loc 1 641 0
 3038 0000 024B     		ldr	r3, .L249
 3039 0002 1B68     		ldr	r3, [r3]
 3040 0004 93ED270A 		vldr.32	s0, [r3, #156]
 3041              		.loc 1 642 0
 3042 0008 7047     		bx	lr
 3043              	.L250:
 3044 000a 00BF     		.align	2
 3045              	.L249:
 3046 000c 00000000 		.word	.LANCHOR0
 3047              		.cfi_endproc
 3048              	.LFE273:
 3049              		.size	mcpwm_foc_get_switching_frequency_now, .-mcpwm_foc_get_switching_frequency_now
 3050              		.section	.text.mcpwm_foc_get_rpm,"ax",%progbits
 3051              		.align	2
 3052              		.p2align 4,,15
 3053              		.global	mcpwm_foc_get_rpm
 3054              		.thumb
 3055              		.thumb_func
 3056              		.type	mcpwm_foc_get_rpm, %function
 3057              	mcpwm_foc_get_rpm:
 3058              	.LFB274:
 3059              		.loc 1 652 0
 3060              		.cfi_startproc
 3061              		@ args = 0, pretend = 0, frame = 0
 3062              		@ frame_needed = 0, uses_anonymous_args = 0
 3063              		@ link register save eliminated.
 3064              		.loc 1 653 0
 3065 0000 034B     		ldr	r3, .L252
 3066 0002 DFED047A 		vldr.32	s15, .L252+4
 3067 0006 93ED000A 		vldr.32	s0, [r3]
 3068              		.loc 1 654 0
 3069 000a 80EE270A 		vdiv.f32	s0, s0, s15
 3070 000e 7047     		bx	lr
 3071              	.L253:
 3072              		.align	2
 3073              	.L252:
 3074 0010 00000000 		.word	.LANCHOR12
 3075 0014 5077D63D 		.word	1037465424
 3076              		.cfi_endproc
 3077              	.LFE274:
 3078              		.size	mcpwm_foc_get_rpm, .-mcpwm_foc_get_rpm
ARM GAS  C:\Users\euanm\AppData\Local\Temp\ccwBC4sF.s 			page 55


 3079              		.section	.text.mcpwm_foc_get_tot_current,"ax",%progbits
 3080              		.align	2
 3081              		.p2align 4,,15
 3082              		.global	mcpwm_foc_get_tot_current
 3083              		.thumb
 3084              		.thumb_func
 3085              		.type	mcpwm_foc_get_tot_current, %function
 3086              	mcpwm_foc_get_tot_current:
 3087              	.LFB275:
 3088              		.loc 1 664 0
 3089              		.cfi_startproc
 3090              		@ args = 0, pretend = 0, frame = 0
 3091              		@ frame_needed = 0, uses_anonymous_args = 0
 3092              		@ link register save eliminated.
 3093              		.loc 1 665 0
 3094 0000 094B     		ldr	r3, .L257
 3095 0002 D3ED157A 		vldr.32	s15, [r3, #84]
 3096 0006 93ED110A 		vldr.32	s0, [r3, #68]
 3097 000a F5EEC07A 		vcmpe.f32	s15, #0
 3098 000e F1EE10FA 		vmrs	APSR_nzcv, FPSCR
 3099 0012 B7EE007A 		vmov.f32	s14, #1.0e+0
 3100 0016 FFEE007A 		vmov.f32	s15, #-1.0e+0
 3101 001a 58BF     		it	pl
 3102 001c F0EE477A 		vmovpl.f32	s15, s14
 3103              		.loc 1 666 0
 3104 0020 27EE800A 		vmul.f32	s0, s15, s0
 3105 0024 7047     		bx	lr
 3106              	.L258:
 3107 0026 00BF     		.align	2
 3108              	.L257:
 3109 0028 00000000 		.word	.LANCHOR10
 3110              		.cfi_endproc
 3111              	.LFE275:
 3112              		.size	mcpwm_foc_get_tot_current, .-mcpwm_foc_get_tot_current
 3113              		.section	.text.mcpwm_foc_get_tot_current_filtered,"ax",%progbits
 3114              		.align	2
 3115              		.p2align 4,,15
 3116              		.global	mcpwm_foc_get_tot_current_filtered
 3117              		.thumb
 3118              		.thumb_func
 3119              		.type	mcpwm_foc_get_tot_current_filtered, %function
 3120              	mcpwm_foc_get_tot_current_filtered:
 3121              	.LFB276:
 3122              		.loc 1 676 0
 3123              		.cfi_startproc
 3124              		@ args = 0, pretend = 0, frame = 0
 3125              		@ frame_needed = 0, uses_anonymous_args = 0
 3126              		@ link register save eliminated.
 3127              		.loc 1 677 0
 3128 0000 094B     		ldr	r3, .L262
 3129 0002 D3ED157A 		vldr.32	s15, [r3, #84]
 3130 0006 93ED130A 		vldr.32	s0, [r3, #76]
 3131 000a F5EEC07A 		vcmpe.f32	s15, #0
 3132 000e F1EE10FA 		vmrs	APSR_nzcv, FPSCR
 3133 0012 B7EE007A 		vmov.f32	s14, #1.0e+0
 3134 0016 FFEE007A 		vmov.f32	s15, #-1.0e+0
 3135 001a 58BF     		it	pl
ARM GAS  C:\Users\euanm\AppData\Local\Temp\ccwBC4sF.s 			page 56


 3136 001c F0EE477A 		vmovpl.f32	s15, s14
 3137              		.loc 1 678 0
 3138 0020 27EE800A 		vmul.f32	s0, s15, s0
 3139 0024 7047     		bx	lr
 3140              	.L263:
 3141 0026 00BF     		.align	2
 3142              	.L262:
 3143 0028 00000000 		.word	.LANCHOR10
 3144              		.cfi_endproc
 3145              	.LFE276:
 3146              		.size	mcpwm_foc_get_tot_current_filtered, .-mcpwm_foc_get_tot_current_filtered
 3147              		.section	.text.mcpwm_foc_get_abs_motor_current,"ax",%progbits
 3148              		.align	2
 3149              		.p2align 4,,15
 3150              		.global	mcpwm_foc_get_abs_motor_current
 3151              		.thumb
 3152              		.thumb_func
 3153              		.type	mcpwm_foc_get_abs_motor_current, %function
 3154              	mcpwm_foc_get_abs_motor_current:
 3155              	.LFB277:
 3156              		.loc 1 687 0
 3157              		.cfi_startproc
 3158              		@ args = 0, pretend = 0, frame = 0
 3159              		@ frame_needed = 0, uses_anonymous_args = 0
 3160              		@ link register save eliminated.
 3161              		.loc 1 688 0
 3162 0000 014B     		ldr	r3, .L265
 3163 0002 93ED070A 		vldr.32	s0, [r3, #28]
 3164              		.loc 1 689 0
 3165 0006 7047     		bx	lr
 3166              	.L266:
 3167              		.align	2
 3168              	.L265:
 3169 0008 00000000 		.word	.LANCHOR10
 3170              		.cfi_endproc
 3171              	.LFE277:
 3172              		.size	mcpwm_foc_get_abs_motor_current, .-mcpwm_foc_get_abs_motor_current
 3173              		.section	.text.mcpwm_foc_get_abs_motor_current_filtered,"ax",%progbits
 3174              		.align	2
 3175              		.p2align 4,,15
 3176              		.global	mcpwm_foc_get_abs_motor_current_filtered
 3177              		.thumb
 3178              		.thumb_func
 3179              		.type	mcpwm_foc_get_abs_motor_current_filtered, %function
 3180              	mcpwm_foc_get_abs_motor_current_filtered:
 3181              	.LFB278:
 3182              		.loc 1 698 0
 3183              		.cfi_startproc
 3184              		@ args = 0, pretend = 0, frame = 0
 3185              		@ frame_needed = 0, uses_anonymous_args = 0
 3186              		@ link register save eliminated.
 3187              		.loc 1 699 0
 3188 0000 014B     		ldr	r3, .L268
 3189 0002 93ED080A 		vldr.32	s0, [r3, #32]
 3190              		.loc 1 700 0
 3191 0006 7047     		bx	lr
 3192              	.L269:
ARM GAS  C:\Users\euanm\AppData\Local\Temp\ccwBC4sF.s 			page 57


 3193              		.align	2
 3194              	.L268:
 3195 0008 00000000 		.word	.LANCHOR10
 3196              		.cfi_endproc
 3197              	.LFE278:
 3198              		.size	mcpwm_foc_get_abs_motor_current_filtered, .-mcpwm_foc_get_abs_motor_current_filtered
 3199              		.section	.text.mcpwm_foc_get_tot_current_directional,"ax",%progbits
 3200              		.align	2
 3201              		.p2align 4,,15
 3202              		.global	mcpwm_foc_get_tot_current_directional
 3203              		.thumb
 3204              		.thumb_func
 3205              		.type	mcpwm_foc_get_tot_current_directional, %function
 3206              	mcpwm_foc_get_tot_current_directional:
 3207              	.LFB279:
 3208              		.loc 1 709 0
 3209              		.cfi_startproc
 3210              		@ args = 0, pretend = 0, frame = 0
 3211              		@ frame_needed = 0, uses_anonymous_args = 0
 3212              		@ link register save eliminated.
 3213              		.loc 1 710 0
 3214 0000 014B     		ldr	r3, .L271
 3215 0002 93ED110A 		vldr.32	s0, [r3, #68]
 3216              		.loc 1 711 0
 3217 0006 7047     		bx	lr
 3218              	.L272:
 3219              		.align	2
 3220              	.L271:
 3221 0008 00000000 		.word	.LANCHOR10
 3222              		.cfi_endproc
 3223              	.LFE279:
 3224              		.size	mcpwm_foc_get_tot_current_directional, .-mcpwm_foc_get_tot_current_directional
 3225              		.section	.text.mcpwm_foc_get_tot_current_directional_filtered,"ax",%progbits
 3226              		.align	2
 3227              		.p2align 4,,15
 3228              		.global	mcpwm_foc_get_tot_current_directional_filtered
 3229              		.thumb
 3230              		.thumb_func
 3231              		.type	mcpwm_foc_get_tot_current_directional_filtered, %function
 3232              	mcpwm_foc_get_tot_current_directional_filtered:
 3233              	.LFB280:
 3234              		.loc 1 720 0
 3235              		.cfi_startproc
 3236              		@ args = 0, pretend = 0, frame = 0
 3237              		@ frame_needed = 0, uses_anonymous_args = 0
 3238              		@ link register save eliminated.
 3239              		.loc 1 721 0
 3240 0000 014B     		ldr	r3, .L274
 3241 0002 93ED130A 		vldr.32	s0, [r3, #76]
 3242              		.loc 1 722 0
 3243 0006 7047     		bx	lr
 3244              	.L275:
 3245              		.align	2
 3246              	.L274:
 3247 0008 00000000 		.word	.LANCHOR10
 3248              		.cfi_endproc
 3249              	.LFE280:
ARM GAS  C:\Users\euanm\AppData\Local\Temp\ccwBC4sF.s 			page 58


 3250              		.size	mcpwm_foc_get_tot_current_directional_filtered, .-mcpwm_foc_get_tot_current_directional_filt
 3251              		.section	.text.mcpwm_foc_get_tot_current_in,"ax",%progbits
 3252              		.align	2
 3253              		.p2align 4,,15
 3254              		.global	mcpwm_foc_get_tot_current_in
 3255              		.thumb
 3256              		.thumb_func
 3257              		.type	mcpwm_foc_get_tot_current_in, %function
 3258              	mcpwm_foc_get_tot_current_in:
 3259              	.LFB281:
 3260              		.loc 1 730 0
 3261              		.cfi_startproc
 3262              		@ args = 0, pretend = 0, frame = 0
 3263              		@ frame_needed = 0, uses_anonymous_args = 0
 3264              		@ link register save eliminated.
 3265              		.loc 1 731 0
 3266 0000 014B     		ldr	r3, .L277
 3267 0002 93ED090A 		vldr.32	s0, [r3, #36]
 3268              		.loc 1 732 0
 3269 0006 7047     		bx	lr
 3270              	.L278:
 3271              		.align	2
 3272              	.L277:
 3273 0008 00000000 		.word	.LANCHOR10
 3274              		.cfi_endproc
 3275              	.LFE281:
 3276              		.size	mcpwm_foc_get_tot_current_in, .-mcpwm_foc_get_tot_current_in
 3277              		.section	.text.mcpwm_foc_get_tot_current_in_filtered,"ax",%progbits
 3278              		.align	2
 3279              		.p2align 4,,15
 3280              		.global	mcpwm_foc_get_tot_current_in_filtered
 3281              		.thumb
 3282              		.thumb_func
 3283              		.type	mcpwm_foc_get_tot_current_in_filtered, %function
 3284              	mcpwm_foc_get_tot_current_in_filtered:
 3285              	.LFB282:
 3286              		.loc 1 740 0
 3287              		.cfi_startproc
 3288              		@ args = 0, pretend = 0, frame = 0
 3289              		@ frame_needed = 0, uses_anonymous_args = 0
 3290              		@ link register save eliminated.
 3291              		.loc 1 741 0
 3292 0000 014B     		ldr	r3, .L280
 3293 0002 93ED0A0A 		vldr.32	s0, [r3, #40]
 3294              		.loc 1 742 0
 3295 0006 7047     		bx	lr
 3296              	.L281:
 3297              		.align	2
 3298              	.L280:
 3299 0008 00000000 		.word	.LANCHOR10
 3300              		.cfi_endproc
 3301              	.LFE282:
 3302              		.size	mcpwm_foc_get_tot_current_in_filtered, .-mcpwm_foc_get_tot_current_in_filtered
 3303              		.section	.text.mcpwm_foc_get_tachometer_value,"ax",%progbits
 3304              		.align	2
 3305              		.p2align 4,,15
 3306              		.global	mcpwm_foc_get_tachometer_value
ARM GAS  C:\Users\euanm\AppData\Local\Temp\ccwBC4sF.s 			page 59


 3307              		.thumb
 3308              		.thumb_func
 3309              		.type	mcpwm_foc_get_tachometer_value, %function
 3310              	mcpwm_foc_get_tachometer_value:
 3311              	.LFB283:
 3312              		.loc 1 755 0
 3313              		.cfi_startproc
 3314              		@ args = 0, pretend = 0, frame = 0
 3315              		@ frame_needed = 0, uses_anonymous_args = 0
 3316              		@ link register save eliminated.
 3317              	.LVL190:
 3318              		.loc 1 756 0
 3319 0000 054B     		ldr	r3, .L287
 3320 0002 D3ED007A 		vldr.32	s15, [r3]
 3321 0006 FDEEE77A 		vcvt.s32.f32	s15, s15
 3322              	.LVL191:
 3323              		.loc 1 758 0
 3324 000a 08B1     		cbz	r0, .L283
 3325              		.loc 1 759 0
 3326 000c 0022     		movs	r2, #0
 3327 000e 1A60     		str	r2, [r3]	@ float
 3328              	.L283:
 3329              		.loc 1 763 0
 3330 0010 17EE900A 		vmov	r0, s15	@ int
 3331              	.LVL192:
 3332 0014 7047     		bx	lr
 3333              	.L288:
 3334 0016 00BF     		.align	2
 3335              	.L287:
 3336 0018 00000000 		.word	.LANCHOR36
 3337              		.cfi_endproc
 3338              	.LFE283:
 3339              		.size	mcpwm_foc_get_tachometer_value, .-mcpwm_foc_get_tachometer_value
 3340              		.section	.text.mcpwm_foc_get_tachometer_abs_value,"ax",%progbits
 3341              		.align	2
 3342              		.p2align 4,,15
 3343              		.global	mcpwm_foc_get_tachometer_abs_value
 3344              		.thumb
 3345              		.thumb_func
 3346              		.type	mcpwm_foc_get_tachometer_abs_value, %function
 3347              	mcpwm_foc_get_tachometer_abs_value:
 3348              	.LFB284:
 3349              		.loc 1 775 0
 3350              		.cfi_startproc
 3351              		@ args = 0, pretend = 0, frame = 0
 3352              		@ frame_needed = 0, uses_anonymous_args = 0
 3353              		@ link register save eliminated.
 3354              	.LVL193:
 3355              		.loc 1 776 0
 3356 0000 054B     		ldr	r3, .L294
 3357 0002 D3ED007A 		vldr.32	s15, [r3]
 3358 0006 FDEEE77A 		vcvt.s32.f32	s15, s15
 3359              	.LVL194:
 3360              		.loc 1 778 0
 3361 000a 08B1     		cbz	r0, .L290
 3362              		.loc 1 779 0
 3363 000c 0022     		movs	r2, #0
ARM GAS  C:\Users\euanm\AppData\Local\Temp\ccwBC4sF.s 			page 60


 3364 000e 1A60     		str	r2, [r3]	@ float
 3365              	.L290:
 3366              		.loc 1 783 0
 3367 0010 17EE900A 		vmov	r0, s15	@ int
 3368              	.LVL195:
 3369 0014 7047     		bx	lr
 3370              	.L295:
 3371 0016 00BF     		.align	2
 3372              	.L294:
 3373 0018 00000000 		.word	.LANCHOR37
 3374              		.cfi_endproc
 3375              	.LFE284:
 3376              		.size	mcpwm_foc_get_tachometer_abs_value, .-mcpwm_foc_get_tachometer_abs_value
 3377              		.section	.text.mcpwm_foc_get_phase,"ax",%progbits
 3378              		.align	2
 3379              		.p2align 4,,15
 3380              		.global	mcpwm_foc_get_phase
 3381              		.thumb
 3382              		.thumb_func
 3383              		.type	mcpwm_foc_get_phase, %function
 3384              	mcpwm_foc_get_phase:
 3385              	.LFB285:
 3386              		.loc 1 791 0
 3387              		.cfi_startproc
 3388              		@ args = 0, pretend = 0, frame = 8
 3389              		@ frame_needed = 0, uses_anonymous_args = 0
 3390 0000 00B5     		push	{lr}
 3391              		.cfi_def_cfa_offset 4
 3392              		.cfi_offset 14, -4
 3393              		.loc 1 792 0
 3394 0002 094B     		ldr	r3, .L298
 3395 0004 9FED097A 		vldr.32	s14, .L298+4
 3396 0008 D3ED047A 		vldr.32	s15, [r3, #16]
 3397              		.loc 1 791 0
 3398 000c 83B0     		sub	sp, sp, #12
 3399              		.cfi_def_cfa_offset 16
 3400              		.loc 1 792 0
 3401 000e 67EE877A 		vmul.f32	s15, s15, s14
 3402 0012 02A8     		add	r0, sp, #8
 3403 0014 60ED017A 		vstmdb.32	r0!, {s15}
 3404              		.loc 1 793 0
 3405 0018 FFF7FEFF 		bl	utils_norm_angle
 3406              	.LVL196:
 3407              		.loc 1 795 0
 3408 001c 9DED010A 		vldr.32	s0, [sp, #4]
 3409 0020 03B0     		add	sp, sp, #12
 3410              		.cfi_def_cfa_offset 4
 3411              		@ sp needed
 3412 0022 5DF804FB 		ldr	pc, [sp], #4
 3413              	.L299:
 3414 0026 00BF     		.align	2
 3415              	.L298:
 3416 0028 00000000 		.word	.LANCHOR10
 3417 002c E02E6542 		.word	1113927392
 3418              		.cfi_endproc
 3419              	.LFE285:
 3420              		.size	mcpwm_foc_get_phase, .-mcpwm_foc_get_phase
ARM GAS  C:\Users\euanm\AppData\Local\Temp\ccwBC4sF.s 			page 61


 3421              		.section	.text.mcpwm_foc_get_phase_observer,"ax",%progbits
 3422              		.align	2
 3423              		.p2align 4,,15
 3424              		.global	mcpwm_foc_get_phase_observer
 3425              		.thumb
 3426              		.thumb_func
 3427              		.type	mcpwm_foc_get_phase_observer, %function
 3428              	mcpwm_foc_get_phase_observer:
 3429              	.LFB286:
 3430              		.loc 1 803 0
 3431              		.cfi_startproc
 3432              		@ args = 0, pretend = 0, frame = 8
 3433              		@ frame_needed = 0, uses_anonymous_args = 0
 3434 0000 00B5     		push	{lr}
 3435              		.cfi_def_cfa_offset 4
 3436              		.cfi_offset 14, -4
 3437              		.loc 1 804 0
 3438 0002 094B     		ldr	r3, .L302
 3439 0004 9FED097A 		vldr.32	s14, .L302+4
 3440 0008 D3ED007A 		vldr.32	s15, [r3]
 3441              		.loc 1 803 0
 3442 000c 83B0     		sub	sp, sp, #12
 3443              		.cfi_def_cfa_offset 16
 3444              		.loc 1 804 0
 3445 000e 67EE877A 		vmul.f32	s15, s15, s14
 3446 0012 02A8     		add	r0, sp, #8
 3447 0014 60ED017A 		vstmdb.32	r0!, {s15}
 3448              		.loc 1 805 0
 3449 0018 FFF7FEFF 		bl	utils_norm_angle
 3450              	.LVL197:
 3451              		.loc 1 807 0
 3452 001c 9DED010A 		vldr.32	s0, [sp, #4]
 3453 0020 03B0     		add	sp, sp, #12
 3454              		.cfi_def_cfa_offset 4
 3455              		@ sp needed
 3456 0022 5DF804FB 		ldr	pc, [sp], #4
 3457              	.L303:
 3458 0026 00BF     		.align	2
 3459              	.L302:
 3460 0028 00000000 		.word	.LANCHOR16
 3461 002c E02E6542 		.word	1113927392
 3462              		.cfi_endproc
 3463              	.LFE286:
 3464              		.size	mcpwm_foc_get_phase_observer, .-mcpwm_foc_get_phase_observer
 3465              		.section	.text.mcpwm_foc_get_phase_encoder,"ax",%progbits
 3466              		.align	2
 3467              		.p2align 4,,15
 3468              		.global	mcpwm_foc_get_phase_encoder
 3469              		.thumb
 3470              		.thumb_func
 3471              		.type	mcpwm_foc_get_phase_encoder, %function
 3472              	mcpwm_foc_get_phase_encoder:
 3473              	.LFB287:
 3474              		.loc 1 815 0
 3475              		.cfi_startproc
 3476              		@ args = 0, pretend = 0, frame = 8
 3477              		@ frame_needed = 0, uses_anonymous_args = 0
ARM GAS  C:\Users\euanm\AppData\Local\Temp\ccwBC4sF.s 			page 62


 3478 0000 00B5     		push	{lr}
 3479              		.cfi_def_cfa_offset 4
 3480              		.cfi_offset 14, -4
 3481              		.loc 1 816 0
 3482 0002 094B     		ldr	r3, .L306
 3483 0004 9FED097A 		vldr.32	s14, .L306+4
 3484 0008 D3ED007A 		vldr.32	s15, [r3]
 3485              		.loc 1 815 0
 3486 000c 83B0     		sub	sp, sp, #12
 3487              		.cfi_def_cfa_offset 16
 3488              		.loc 1 816 0
 3489 000e 67EE877A 		vmul.f32	s15, s15, s14
 3490 0012 02A8     		add	r0, sp, #8
 3491 0014 60ED017A 		vstmdb.32	r0!, {s15}
 3492              		.loc 1 817 0
 3493 0018 FFF7FEFF 		bl	utils_norm_angle
 3494              	.LVL198:
 3495              		.loc 1 819 0
 3496 001c 9DED010A 		vldr.32	s0, [sp, #4]
 3497 0020 03B0     		add	sp, sp, #12
 3498              		.cfi_def_cfa_offset 4
 3499              		@ sp needed
 3500 0022 5DF804FB 		ldr	pc, [sp], #4
 3501              	.L307:
 3502 0026 00BF     		.align	2
 3503              	.L306:
 3504 0028 00000000 		.word	.LANCHOR32
 3505 002c E02E6542 		.word	1113927392
 3506              		.cfi_endproc
 3507              	.LFE287:
 3508              		.size	mcpwm_foc_get_phase_encoder, .-mcpwm_foc_get_phase_encoder
 3509              		.section	.text.mcpwm_foc_get_vd,"ax",%progbits
 3510              		.align	2
 3511              		.p2align 4,,15
 3512              		.global	mcpwm_foc_get_vd
 3513              		.thumb
 3514              		.thumb_func
 3515              		.type	mcpwm_foc_get_vd, %function
 3516              	mcpwm_foc_get_vd:
 3517              	.LFB288:
 3518              		.loc 1 821 0
 3519              		.cfi_startproc
 3520              		@ args = 0, pretend = 0, frame = 0
 3521              		@ frame_needed = 0, uses_anonymous_args = 0
 3522              		@ link register save eliminated.
 3523              		.loc 1 822 0
 3524 0000 014B     		ldr	r3, .L309
 3525 0002 93ED140A 		vldr.32	s0, [r3, #80]
 3526              		.loc 1 823 0
 3527 0006 7047     		bx	lr
 3528              	.L310:
 3529              		.align	2
 3530              	.L309:
 3531 0008 00000000 		.word	.LANCHOR10
 3532              		.cfi_endproc
 3533              	.LFE288:
 3534              		.size	mcpwm_foc_get_vd, .-mcpwm_foc_get_vd
ARM GAS  C:\Users\euanm\AppData\Local\Temp\ccwBC4sF.s 			page 63


 3535              		.section	.text.mcpwm_foc_get_vq,"ax",%progbits
 3536              		.align	2
 3537              		.p2align 4,,15
 3538              		.global	mcpwm_foc_get_vq
 3539              		.thumb
 3540              		.thumb_func
 3541              		.type	mcpwm_foc_get_vq, %function
 3542              	mcpwm_foc_get_vq:
 3543              	.LFB289:
 3544              		.loc 1 825 0
 3545              		.cfi_startproc
 3546              		@ args = 0, pretend = 0, frame = 0
 3547              		@ frame_needed = 0, uses_anonymous_args = 0
 3548              		@ link register save eliminated.
 3549              		.loc 1 826 0
 3550 0000 014B     		ldr	r3, .L312
 3551 0002 93ED150A 		vldr.32	s0, [r3, #84]
 3552              		.loc 1 827 0
 3553 0006 7047     		bx	lr
 3554              	.L313:
 3555              		.align	2
 3556              	.L312:
 3557 0008 00000000 		.word	.LANCHOR10
 3558              		.cfi_endproc
 3559              	.LFE289:
 3560              		.size	mcpwm_foc_get_vq, .-mcpwm_foc_get_vq
 3561              		.global	__aeabi_f2d
 3562              		.section	.text.mcpwm_foc_encoder_detect,"ax",%progbits
 3563              		.align	2
 3564              		.p2align 4,,15
 3565              		.global	mcpwm_foc_encoder_detect
 3566              		.thumb
 3567              		.thumb_func
 3568              		.type	mcpwm_foc_encoder_detect, %function
 3569              	mcpwm_foc_encoder_detect:
 3570              	.LFB290:
 3571              		.loc 1 844 0
 3572              		.cfi_startproc
 3573              		@ args = 0, pretend = 0, frame = 16
 3574              		@ frame_needed = 0, uses_anonymous_args = 0
 3575              	.LVL199:
 3576 0000 2DE9F04F 		push	{r4, r5, r6, r7, r8, r9, r10, fp, lr}
 3577              		.cfi_def_cfa_offset 36
 3578              		.cfi_offset 4, -36
 3579              		.cfi_offset 5, -32
 3580              		.cfi_offset 6, -28
 3581              		.cfi_offset 7, -24
 3582              		.cfi_offset 8, -20
 3583              		.cfi_offset 9, -16
 3584              		.cfi_offset 10, -12
 3585              		.cfi_offset 11, -8
 3586              		.cfi_offset 14, -4
 3587 0004 2DED0E8B 		vpush.64	{d8, d9, d10, d11, d12, d13, d14}
 3588              		.cfi_def_cfa_offset 92
 3589              		.cfi_offset 80, -92
 3590              		.cfi_offset 81, -88
 3591              		.cfi_offset 82, -84
ARM GAS  C:\Users\euanm\AppData\Local\Temp\ccwBC4sF.s 			page 64


 3592              		.cfi_offset 83, -80
 3593              		.cfi_offset 84, -76
 3594              		.cfi_offset 85, -72
 3595              		.cfi_offset 86, -68
 3596              		.cfi_offset 87, -64
 3597              		.cfi_offset 88, -60
 3598              		.cfi_offset 89, -56
 3599              		.cfi_offset 90, -52
 3600              		.cfi_offset 91, -48
 3601              		.cfi_offset 92, -44
 3602              		.cfi_offset 93, -40
 3603 0008 85B0     		sub	sp, sp, #20
 3604              		.cfi_def_cfa_offset 112
 3605              		.loc 1 844 0
 3606 000a B0EE409A 		vmov.f32	s18, s0
 3607 000e 0746     		mov	r7, r0
 3608 0010 8A46     		mov	r10, r1
 3609 0012 0192     		str	r2, [sp, #4]
 3610 0014 9846     		mov	r8, r3
 3611              		.loc 1 845 0
 3612 0016 FFF7FEFF 		bl	mc_interface_lock
 3613              	.LVL200:
 3614              		.loc 1 847 0
 3615 001a E249     		ldr	r1, .L397
 3616              		.loc 1 849 0
 3617 001c 9FEDE28A 		vldr.32	s16, .L397+4
 3618              		.loc 1 850 0
 3619 0020 DFF8BCB3 		ldr	fp, .L397+60
 3620              		.loc 1 859 0
 3621 0024 DFF8BC93 		ldr	r9, .L397+64
 3622              	.LBB89:
 3623              		.loc 1 870 0
 3624 0028 DFEDE08A 		vldr.32	s17, .L397+8
 3625 002c E04C     		ldr	r4, .L397+12
 3626              	.LBE89:
 3627              		.loc 1 847 0
 3628 002e 0122     		movs	r2, #1
 3629 0030 0A70     		strb	r2, [r1]
 3630              		.loc 1 848 0
 3631 0032 E04A     		ldr	r2, .L397+16
 3632 0034 82ED009A 		vstr.32	s18, [r2]
 3633              		.loc 1 849 0
 3634 0038 DF4A     		ldr	r2, .L397+20
 3635 003a 82ED008A 		vstr.32	s16, [r2]
 3636              		.loc 1 851 0
 3637 003e DF4A     		ldr	r2, .L397+24
 3638              		.loc 1 850 0
 3639 0040 0223     		movs	r3, #2
 3640 0042 8BF80030 		strb	r3, [fp]
 3641              		.loc 1 851 0
 3642 0046 1370     		strb	r3, [r2]
 3643              		.loc 1 854 0
 3644 0048 FFF7FEFF 		bl	timeout_get_timeout_msec
 3645              	.LVL201:
 3646 004c 0090     		str	r0, [sp]
 3647              	.LVL202:
 3648              		.loc 1 855 0
ARM GAS  C:\Users\euanm\AppData\Local\Temp\ccwBC4sF.s 			page 65


 3649 004e FFF7FEFF 		bl	timeout_get_brake_current
 3650              	.LVL203:
 3651              		.loc 1 856 0
 3652 0052 DB48     		ldr	r0, .L397+28
 3653              		.loc 1 855 0
 3654 0054 B0EE40AA 		vmov.f32	s20, s0
 3655              	.LVL204:
 3656              		.loc 1 856 0
 3657 0058 B0EE480A 		vmov.f32	s0, s16
 3658              	.LVL205:
 3659 005c FFF7FEFF 		bl	timeout_configure
 3660              	.LVL206:
 3661              		.loc 1 859 0
 3662 0060 D9F80030 		ldr	r3, [r9]
 3663 0064 D3ED29AA 		vldr.32	s21, [r3, #164]
 3664              	.LVL207:
 3665              		.loc 1 860 0
 3666 0068 93F8A820 		ldrb	r2, [r3, #168]	@ zero_extendqisi2
 3667              		.loc 1 861 0
 3668 006c 93ED2BBA 		vldr.32	s22, [r3, #172]
 3669              		.loc 1 863 0
 3670 0070 83ED298A 		vstr.32	s16, [r3, #164]
 3671              		.loc 1 860 0
 3672 0074 09EE902A 		vmov	s19, r2	@ int
 3673              		.loc 1 864 0
 3674 0078 0022     		movs	r2, #0
 3675 007a 83F8A820 		strb	r2, [r3, #168]
 3676              		.loc 1 860 0
 3677 007e F8EE699A 		vcvt.f32.u32	s19, s19
 3678              	.LVL208:
 3679              		.loc 1 865 0
 3680 0082 4FF07E52 		mov	r2, #1065353216
 3681 0086 C3F8AC20 		str	r2, [r3, #172]	@ float
 3682              		.loc 1 869 0
 3683 008a 1F25     		movs	r5, #31
 3684              	.LVL209:
 3685              	.L315:
 3686 008c FFF7FEFF 		bl	encoder_index_found
 3687              	.LVL210:
 3688 0090 70B9     		cbnz	r0, .L319
 3689 0092 9FEDC58A 		vldr.32	s16, .L397+4
 3690 0096 4FF4FA76 		mov	r6, #500
 3691              	.L316:
 3692              	.LVL211:
 3693              	.LBB90:
 3694              		.loc 1 872 0 discriminator 3
 3695 009a 0A20     		movs	r0, #10
 3696              		.loc 1 871 0 discriminator 3
 3697 009c 84ED008A 		vstr.32	s16, [r4]
 3698              		.loc 1 872 0 discriminator 3
 3699 00a0 FFF7FEFF 		bl	chThdSleep
 3700              	.LVL212:
 3701              		.loc 1 870 0 discriminator 3
 3702 00a4 013E     		subs	r6, r6, #1
 3703 00a6 38EE288A 		vadd.f32	s16, s16, s17
 3704              	.LVL213:
 3705 00aa F6D1     		bne	.L316
ARM GAS  C:\Users\euanm\AppData\Local\Temp\ccwBC4sF.s 			page 66


 3706              	.LVL214:
 3707              	.LBE90:
 3708              		.loc 1 876 0
 3709 00ac 013D     		subs	r5, r5, #1
 3710              	.LVL215:
 3711 00ae EDD1     		bne	.L315
 3712              	.LVL216:
 3713              	.L319:
 3714              		.loc 1 882 0
 3715 00b0 002F     		cmp	r7, #0
 3716 00b2 40F07482 		bne	.L388
 3717              	.L318:
 3718              	.LVL217:
 3719              		.loc 1 869 0 discriminator 1
 3720 00b6 9FEDBC8A 		vldr.32	s16, .L397+4
 3721              	.LBB91:
 3722              		.loc 1 887 0 discriminator 1
 3723 00ba DFEDBC8A 		vldr.32	s17, .L397+8
 3724              	.LBE91:
 3725              		.loc 1 869 0 discriminator 1
 3726 00be 4FF4FA75 		mov	r5, #500
 3727              	.LVL218:
 3728              	.L321:
 3729              	.LBB92:
 3730              		.loc 1 889 0 discriminator 3
 3731 00c2 0A20     		movs	r0, #10
 3732              		.loc 1 888 0 discriminator 3
 3733 00c4 84ED008A 		vstr.32	s16, [r4]
 3734              		.loc 1 889 0 discriminator 3
 3735 00c8 FFF7FEFF 		bl	chThdSleep
 3736              	.LVL219:
 3737              		.loc 1 887 0 discriminator 3
 3738 00cc 013D     		subs	r5, r5, #1
 3739 00ce 38EE288A 		vadd.f32	s16, s16, s17
 3740              	.LVL220:
 3741 00d2 F6D1     		bne	.L321
 3742              	.LBE92:
 3743              		.loc 1 892 0
 3744 00d4 002F     		cmp	r7, #0
 3745 00d6 40F05E82 		bne	.L389
 3746              	.L322:
 3747              		.loc 1 902 0
 3748 00da BA4D     		ldr	r5, .L397+32
 3749              		.loc 1 901 0
 3750 00dc DFEDB2BA 		vldr.32	s23, .L397+4
 3751              	.LBB93:
 3752              	.LBB94:
 3753              	.LBB95:
 3754              		.loc 1 907 0
 3755 00e0 DFEDB9CA 		vldr.32	s25, .L397+36
 3756              		.loc 1 908 0
 3757 00e4 9FEDB19A 		vldr.32	s18, .L397+8
 3758              	.LVL221:
 3759              	.LBE95:
 3760              		.loc 1 922 0
 3761 00e8 9FEDB8EA 		vldr.32	s28, .L397+40
 3762 00ec DFEDB8DA 		vldr.32	s27, .L397+44
ARM GAS  C:\Users\euanm\AppData\Local\Temp\ccwBC4sF.s 			page 67


 3763              	.LBE94:
 3764              	.LBE93:
 3765              		.loc 1 897 0
 3766 00f0 42F21070 		movw	r0, #10000
 3767 00f4 FFF7FEFF 		bl	chThdSleep
 3768              	.LVL222:
 3769              		.loc 1 902 0
 3770 00f8 95ED00DA 		vldr.32	s26, [r5]
 3771              	.LVL223:
 3772              		.loc 1 900 0
 3773 00fc B0EE6BCA 		vmov.f32	s24, s23
 3774              	.LBB99:
 3775              		.loc 1 904 0
 3776 0100 0026     		movs	r6, #0
 3777              	.LVL224:
 3778              	.L329:
 3779              	.LBB97:
 3780              		.loc 1 905 0
 3781 0102 D5ED00EA 		vldr.32	s29, [r5]
 3782              	.LVL225:
 3783              		.loc 1 906 0
 3784 0106 94ED008A 		vldr.32	s16, [r4]
 3785              	.LVL226:
 3786              	.LBB96:
 3787              		.loc 1 907 0
 3788 010a 78EE2C8A 		vadd.f32	s17, s16, s25
 3789 010e F4EEC88A 		vcmpe.f32	s17, s16
 3790 0112 F1EE10FA 		vmrs	APSR_nzcv, FPSCR
 3791 0116 0BDD     		ble	.L327
 3792              	.LVL227:
 3793              	.L326:
 3794              		.loc 1 910 0
 3795 0118 0A20     		movs	r0, #10
 3796              		.loc 1 909 0
 3797 011a 84ED008A 		vstr.32	s16, [r4]
 3798              		.loc 1 910 0
 3799 011e FFF7FEFF 		bl	chThdSleep
 3800              	.LVL228:
 3801              		.loc 1 908 0
 3802 0122 38EE098A 		vadd.f32	s16, s16, s18
 3803              	.LVL229:
 3804              		.loc 1 907 0
 3805 0126 F4EEC88A 		vcmpe.f32	s17, s16
 3806 012a F1EE10FA 		vmrs	APSR_nzcv, FPSCR
 3807 012e F3DC     		bgt	.L326
 3808              	.L327:
 3809              	.LBE96:
 3810              		.loc 1 912 0
 3811 0130 9F48     		ldr	r0, .L397+12
 3812 0132 FFF7FEFF 		bl	utils_norm_angle_rad
 3813              	.LVL230:
 3814              		.loc 1 913 0
 3815 0136 40F6B830 		movw	r0, #3000
 3816 013a FFF7FEFF 		bl	chThdSleep
 3817              	.LVL231:
 3818              		.loc 1 914 0
 3819 013e F0EE6E0A 		vmov.f32	s1, s29
ARM GAS  C:\Users\euanm\AppData\Local\Temp\ccwBC4sF.s 			page 68


 3820 0142 95ED000A 		vldr.32	s0, [r5]
 3821 0146 FFF7FEFF 		bl	utils_angle_difference_rad
 3822              	.LVL232:
 3823              		.loc 1 917 0
 3824 014a 03A9     		add	r1, sp, #12
 3825 014c 02A8     		add	r0, sp, #8
 3826              		.loc 1 914 0
 3827 014e B0EE408A 		vmov.f32	s16, s0
 3828              	.LVL233:
 3829              		.loc 1 917 0
 3830 0152 FFF7FEFF 		bl	sincosf
 3831              	.LVL234:
 3832              		.loc 1 918 0
 3833 0156 9DED027A 		vldr.32	s14, [sp, #8]
 3834              		.loc 1 919 0
 3835 015a DDED037A 		vldr.32	s15, [sp, #12]
 3836              		.loc 1 918 0
 3837 015e 3CEE07CA 		vadd.f32	s24, s24, s14
 3838              	.LVL235:
 3839              		.loc 1 919 0
 3840 0162 7BEEA7BA 		vadd.f32	s23, s23, s15
 3841              	.LVL236:
 3842              		.loc 1 921 0
 3843 0166 002F     		cmp	r7, #0
 3844 0168 40F0BA81 		bne	.L390
 3845              	.L325:
 3846              		.loc 1 925 0
 3847 016c 032E     		cmp	r6, #3
 3848 016e 12DD     		ble	.L331
 3849              		.loc 1 925 0 is_stmt 0 discriminator 1
 3850 0170 95ED000A 		vldr.32	s0, [r5]
 3851 0174 F0EE4D0A 		vmov.f32	s1, s26
 3852 0178 FFF7FEFF 		bl	utils_angle_difference_rad
 3853              	.LVL237:
 3854 017c F6EE007A 		vmov.f32	s15, #5.0e-1
 3855 0180 28EE278A 		vmul.f32	s16, s16, s15
 3856              	.LVL238:
 3857 0184 B0EEC00A 		vabs.f32	s0, s0
 3858 0188 B0EEC88A 		vabs.f32	s16, s16
 3859 018c B4EEC80A 		vcmpe.f32	s0, s16
 3860 0190 F1EE10FA 		vmrs	APSR_nzcv, FPSCR
 3861 0194 02D4     		bmi	.L330
 3862              	.L331:
 3863              	.LBE97:
 3864              		.loc 1 904 0 is_stmt 1
 3865 0196 0136     		adds	r6, r6, #1
 3866              	.LVL239:
 3867 0198 142E     		cmp	r6, #20
 3868 019a B2D1     		bne	.L329
 3869              	.L330:
 3870              	.LBE99:
 3871              		.loc 1 930 0
 3872 019c 95ED00DA 		vldr.32	s26, [r5]
 3873              	.LVL240:
 3874              	.LBB100:
 3875              	.LBB101:
 3876              	.LBB102:
ARM GAS  C:\Users\euanm\AppData\Local\Temp\ccwBC4sF.s 			page 69


 3877              		.loc 1 935 0
 3878 01a0 DFED89CA 		vldr.32	s25, .L397+36
 3879              		.loc 1 936 0
 3880 01a4 9FED819A 		vldr.32	s18, .L397+8
 3881              	.LBE102:
 3882              		.loc 1 950 0
 3883 01a8 9FED88EA 		vldr.32	s28, .L397+40
 3884 01ac DFED88DA 		vldr.32	s27, .L397+44
 3885              	.LBE101:
 3886              		.loc 1 932 0
 3887 01b0 0026     		movs	r6, #0
 3888              	.LVL241:
 3889              	.L339:
 3890              	.LBB104:
 3891              		.loc 1 933 0
 3892 01b2 D5ED00EA 		vldr.32	s29, [r5]
 3893              	.LVL242:
 3894              		.loc 1 934 0
 3895 01b6 94ED008A 		vldr.32	s16, [r4]
 3896              	.LVL243:
 3897              	.LBB103:
 3898              		.loc 1 935 0
 3899 01ba 78EE6C8A 		vsub.f32	s17, s16, s25
 3900 01be B4EEE88A 		vcmpe.f32	s16, s17
 3901 01c2 F1EE10FA 		vmrs	APSR_nzcv, FPSCR
 3902 01c6 0BDD     		ble	.L337
 3903              	.LVL244:
 3904              	.L336:
 3905              		.loc 1 938 0
 3906 01c8 0A20     		movs	r0, #10
 3907              		.loc 1 937 0
 3908 01ca 84ED008A 		vstr.32	s16, [r4]
 3909              		.loc 1 938 0
 3910 01ce FFF7FEFF 		bl	chThdSleep
 3911              	.LVL245:
 3912              		.loc 1 936 0
 3913 01d2 38EE498A 		vsub.f32	s16, s16, s18
 3914              	.LVL246:
 3915              		.loc 1 935 0
 3916 01d6 B4EEE88A 		vcmpe.f32	s16, s17
 3917 01da F1EE10FA 		vmrs	APSR_nzcv, FPSCR
 3918 01de F3DC     		bgt	.L336
 3919              	.L337:
 3920              	.LBE103:
 3921              		.loc 1 940 0
 3922 01e0 7348     		ldr	r0, .L397+12
 3923 01e2 FFF7FEFF 		bl	utils_norm_angle_rad
 3924              	.LVL247:
 3925              		.loc 1 941 0
 3926 01e6 40F6B830 		movw	r0, #3000
 3927 01ea FFF7FEFF 		bl	chThdSleep
 3928              	.LVL248:
 3929              		.loc 1 942 0
 3930 01ee D5ED000A 		vldr.32	s1, [r5]
 3931 01f2 B0EE6E0A 		vmov.f32	s0, s29
 3932 01f6 FFF7FEFF 		bl	utils_angle_difference_rad
 3933              	.LVL249:
ARM GAS  C:\Users\euanm\AppData\Local\Temp\ccwBC4sF.s 			page 70


 3934              		.loc 1 945 0
 3935 01fa 03A9     		add	r1, sp, #12
 3936 01fc 02A8     		add	r0, sp, #8
 3937              		.loc 1 942 0
 3938 01fe B0EE408A 		vmov.f32	s16, s0
 3939              	.LVL250:
 3940              		.loc 1 945 0
 3941 0202 FFF7FEFF 		bl	sincosf
 3942              	.LVL251:
 3943              		.loc 1 946 0
 3944 0206 9DED027A 		vldr.32	s14, [sp, #8]
 3945              		.loc 1 947 0
 3946 020a DDED037A 		vldr.32	s15, [sp, #12]
 3947              		.loc 1 946 0
 3948 020e 3CEE07CA 		vadd.f32	s24, s24, s14
 3949              	.LVL252:
 3950              		.loc 1 947 0
 3951 0212 7BEEA7BA 		vadd.f32	s23, s23, s15
 3952              	.LVL253:
 3953              		.loc 1 949 0
 3954 0216 002F     		cmp	r7, #0
 3955 0218 40F07081 		bne	.L391
 3956              	.L335:
 3957              		.loc 1 953 0
 3958 021c 032E     		cmp	r6, #3
 3959 021e 12DD     		ble	.L341
 3960              		.loc 1 953 0 is_stmt 0 discriminator 1
 3961 0220 95ED000A 		vldr.32	s0, [r5]
 3962 0224 F0EE4D0A 		vmov.f32	s1, s26
 3963 0228 FFF7FEFF 		bl	utils_angle_difference_rad
 3964              	.LVL254:
 3965 022c F6EE007A 		vmov.f32	s15, #5.0e-1
 3966 0230 28EE278A 		vmul.f32	s16, s16, s15
 3967              	.LVL255:
 3968 0234 B0EEC00A 		vabs.f32	s0, s0
 3969 0238 B0EEC88A 		vabs.f32	s16, s16
 3970 023c B4EEC80A 		vcmpe.f32	s0, s16
 3971 0240 F1EE10FA 		vmrs	APSR_nzcv, FPSCR
 3972 0244 02D4     		bmi	.L340
 3973              	.L341:
 3974              	.LBE104:
 3975              		.loc 1 932 0 is_stmt 1
 3976 0246 0136     		adds	r6, r6, #1
 3977              	.LVL256:
 3978 0248 142E     		cmp	r6, #20
 3979 024a B2D1     		bne	.L339
 3980              	.L340:
 3981              	.LBE100:
 3982              		.loc 1 958 0
 3983 024c F0EE6B0A 		vmov.f32	s1, s23
 3984 0250 B0EE4C0A 		vmov.f32	s0, s24
 3985 0254 FFF7FEFF 		bl	atan2f
 3986              	.LVL257:
 3987 0258 DFED5C7A 		vldr.32	s15, .L397+40
 3988 025c DFED5C6A 		vldr.32	s13, .L397+44
 3989              		.loc 1 960 0
 3990 0260 9FED5C7A 		vldr.32	s14, .L397+48
ARM GAS  C:\Users\euanm\AppData\Local\Temp\ccwBC4sF.s 			page 71


 3991              		.loc 1 958 0
 3992 0264 20EE270A 		vmul.f32	s0, s0, s15
 3993 0268 C0EE267A 		vdiv.f32	s15, s0, s13
 3994              	.LVL258:
 3995              		.loc 1 959 0
 3996 026c F5EEC07A 		vcmpe.f32	s15, #0
 3997 0270 F1EE10FA 		vmrs	APSR_nzcv, FPSCR
 3998 0274 4CBF     		ite	mi
 3999 0276 0126     		movmi	r6, #1
 4000              	.LVL259:
 4001 0278 0026     		movpl	r6, #0
 4002              		.loc 1 960 0
 4003 027a B0EEE70A 		vabs.f32	s0, s15
 4004 027e 87EE000A 		vdiv.f32	s0, s14, s0
 4005              		.loc 1 959 0
 4006 0282 88F80060 		strb	r6, [r8]
 4007              		.loc 1 960 0
 4008 0286 FFF7FEFF 		bl	roundf
 4009              	.LVL260:
 4010              		.loc 1 963 0
 4011 028a D9F80030 		ldr	r3, [r9]
 4012              		.loc 1 960 0
 4013 028e 019A     		ldr	r2, [sp, #4]
 4014 0290 82ED000A 		vstr.32	s0, [r2]
 4015              		.loc 1 963 0
 4016 0294 83F8A860 		strb	r6, [r3, #168]
 4017              		.loc 1 964 0
 4018 0298 83ED2B0A 		vstr.32	s0, [r3, #172]
 4019              		.loc 1 966 0
 4020 029c 002F     		cmp	r7, #0
 4021 029e 40F04B81 		bne	.L392
 4022              	.LBB106:
 4023              		.loc 1 971 0
 4024 02a2 94ED008A 		vldr.32	s16, [r4]
 4025              	.LVL261:
 4026 02a6 DFED4C7A 		vldr.32	s15, .L397+52
 4027 02aa B4EEE78A 		vcmpe.f32	s16, s15
 4028 02ae F1EE10FA 		vmrs	APSR_nzcv, FPSCR
 4029 02b2 14D5     		bpl	.L349
 4030              	.L344:
 4031              		.loc 1 971 0 is_stmt 0 discriminator 3
 4032 02b4 9FED3D9A 		vldr.32	s18, .L397+8
 4033 02b8 DFED478A 		vldr.32	s17, .L397+52
 4034              	.L347:
 4035              		.loc 1 972 0 is_stmt 1 discriminator 3
 4036 02bc 84ED008A 		vstr.32	s16, [r4]
 4037              		.loc 1 973 0 discriminator 3
 4038 02c0 1420     		movs	r0, #20
 4039 02c2 FFF7FEFF 		bl	chThdSleep
 4040              	.LVL262:
 4041              		.loc 1 971 0 discriminator 3
 4042 02c6 38EE098A 		vadd.f32	s16, s16, s18
 4043              	.LVL263:
 4044 02ca B4EEE88A 		vcmpe.f32	s16, s17
 4045 02ce F1EE10FA 		vmrs	APSR_nzcv, FPSCR
 4046 02d2 F3D4     		bmi	.L347
 4047              	.LBE106:
ARM GAS  C:\Users\euanm\AppData\Local\Temp\ccwBC4sF.s 			page 72


 4048              		.loc 1 976 0
 4049 02d4 002F     		cmp	r7, #0
 4050 02d6 40F03C81 		bne	.L348
 4051 02da D9F80030 		ldr	r3, [r9]
 4052              	.L349:
 4053              		.loc 1 981 0
 4054 02de D3ED2B7A 		vldr.32	s15, [r3, #172]
 4055 02e2 B0EE087A 		vmov.f32	s14, #3.0e+0
 4056 02e6 67EE877A 		vmul.f32	s15, s15, s14
 4057 02ea FDEEE77A 		vcvt.s32.f32	s15, s15
 4058 02ee 17EE906A 		vmov	r6, s15	@ int
 4059              	.LVL264:
 4060              	.LBB107:
 4061              		.loc 1 985 0
 4062 02f2 002E     		cmp	r6, #0
 4063 02f4 40F35781 		ble	.L393
 4064              	.L345:
 4065 02f8 07EE906A 		vmov	s15, r6	@ int
 4066              	.LBE107:
 4067              	.LBB111:
 4068              		.loc 1 932 0
 4069 02fc DFED2A8A 		vldr.32	s17, .L397+4
 4070              	.LBE111:
 4071              	.LBB112:
 4072              	.LBB108:
 4073              		.loc 1 986 0
 4074 0300 9FED33CA 		vldr.32	s24, .L397+44
 4075              		.loc 1 996 0
 4076 0304 DFED31CA 		vldr.32	s25, .L397+40
 4077 0308 B8EEE78A 		vcvt.f32.s32	s16, s15
 4078              	.LVL265:
 4079              	.LBE108:
 4080              	.LBE112:
 4081              	.LBB113:
 4082              		.loc 1 932 0
 4083 030c B0EE689A 		vmov.f32	s18, s17
 4084 0310 F0EE48BA 		vmov.f32	s23, s16
 4085 0314 4FF00008 		mov	r8, #0
 4086              	.LVL266:
 4087 0318 03E0     		b	.L352
 4088              	.LVL267:
 4089              	.L350:
 4090              	.LBE113:
 4091              	.LBB114:
 4092              		.loc 1 985 0 discriminator 2
 4093 031a B045     		cmp	r8, r6
 4094 031c 3CD0     		beq	.L351
 4095              	.LVL268:
 4096              	.L394:
 4097 031e D9F80030 		ldr	r3, [r9]
 4098              	.LVL269:
 4099              	.L352:
 4100              	.LBB109:
 4101              		.loc 1 986 0
 4102 0322 93ED2B7A 		vldr.32	s14, [r3, #172]
 4103 0326 07EE908A 		vmov	s15, r8	@ int
 4104 032a F8EEE77A 		vcvt.f32.s32	s15, s15
ARM GAS  C:\Users\euanm\AppData\Local\Temp\ccwBC4sF.s 			page 73


 4105              		.loc 1 987 0
 4106 032e 41F28830 		movw	r0, #5000
 4107              		.loc 1 986 0
 4108 0332 77EEA77A 		vadd.f32	s15, s15, s15
 4109              	.LBE109:
 4110              		.loc 1 985 0
 4111 0336 08F10108 		add	r8, r8, #1
 4112              	.LVL270:
 4113              	.LBB110:
 4114              		.loc 1 986 0
 4115 033a 67EE8C7A 		vmul.f32	s15, s15, s24
 4116 033e 67EE877A 		vmul.f32	s15, s15, s14
 4117 0342 87EE887A 		vdiv.f32	s14, s15, s16
 4118 0346 84ED007A 		vstr.32	s14, [r4]
 4119              		.loc 1 987 0
 4120 034a FFF7FEFF 		bl	chThdSleep
 4121              	.LVL271:
 4122              		.loc 1 989 0
 4123 034e 95ED000A 		vldr.32	s0, [r5]
 4124 0352 D4ED000A 		vldr.32	s1, [r4]
 4125 0356 FFF7FEFF 		bl	utils_angle_difference_rad
 4126              	.LVL272:
 4127              		.loc 1 991 0
 4128 035a 03A9     		add	r1, sp, #12
 4129 035c 02A8     		add	r0, sp, #8
 4130              		.loc 1 989 0
 4131 035e B0EE40DA 		vmov.f32	s26, s0
 4132              	.LVL273:
 4133              		.loc 1 991 0
 4134 0362 FFF7FEFF 		bl	sincosf
 4135              	.LVL274:
 4136              		.loc 1 992 0
 4137 0366 9DED027A 		vldr.32	s14, [sp, #8]
 4138              		.loc 1 993 0
 4139 036a DDED037A 		vldr.32	s15, [sp, #12]
 4140              		.loc 1 992 0
 4141 036e 39EE079A 		vadd.f32	s18, s18, s14
 4142              	.LVL275:
 4143              		.loc 1 993 0
 4144 0372 78EEA78A 		vadd.f32	s17, s17, s15
 4145              	.LVL276:
 4146              		.loc 1 995 0
 4147 0376 002F     		cmp	r7, #0
 4148 0378 CFD0     		beq	.L350
 4149              		.loc 1 996 0
 4150 037a 2DEE2CDA 		vmul.f32	s26, s26, s25
 4151              	.LVL277:
 4152 037e CDEE0C7A 		vdiv.f32	s15, s26, s24
 4153 0382 17EE900A 		vmov	r0, s15
 4154 0386 FFF7FEFF 		bl	__aeabi_f2d
 4155              	.LVL278:
 4156 038a 0246     		mov	r2, r0
 4157 038c 0B46     		mov	r3, r1
 4158 038e 1348     		ldr	r0, .L397+56
 4159 0390 FFF7FEFF 		bl	commands_printf
 4160              	.LVL279:
 4161              	.LBE110:
ARM GAS  C:\Users\euanm\AppData\Local\Temp\ccwBC4sF.s 			page 74


 4162              		.loc 1 985 0
 4163 0394 B045     		cmp	r8, r6
 4164 0396 C2D1     		bne	.L394
 4165              	.L351:
 4166              	.LBE114:
 4167              	.LBB115:
 4168              	.LBB116:
 4169              		.loc 1 1001 0
 4170 0398 9FED0DCA 		vldr.32	s24, .L397+44
 4171              		.loc 1 1011 0
 4172 039c DFED0BCA 		vldr.32	s25, .L397+40
 4173 03a0 28E0     		b	.L354
 4174              	.L398:
 4175 03a2 00BF     		.align	2
 4176              	.L397:
 4177 03a4 00000000 		.word	.LANCHOR27
 4178 03a8 00000000 		.word	0
 4179 03ac 2EE34D3C 		.word	1011737390
 4180 03b0 00000000 		.word	.LANCHOR28
 4181 03b4 00000000 		.word	.LANCHOR30
 4182 03b8 00000000 		.word	.LANCHOR21
 4183 03bc 00000000 		.word	.LANCHOR7
 4184 03c0 C0270900 		.word	600000
 4185 03c4 00000000 		.word	.LANCHOR32
 4186 03c8 920A0640 		.word	1074137746
 4187 03cc 00003443 		.word	1127481344
 4188 03d0 DB0F4940 		.word	1078530011
 4189 03d4 0000F042 		.word	1123024896
 4190 03d8 DB0FC940 		.word	1086918619
 4191 03dc 30000000 		.word	.LC3
 4192 03e0 00000000 		.word	.LANCHOR14
 4193 03e4 00000000 		.word	.LANCHOR0
 4194              	.LVL280:
 4195              	.L353:
 4196              	.LBE116:
 4197              		.loc 1 1000 0 discriminator 2
 4198 03e8 013E     		subs	r6, r6, #1
 4199              	.LVL281:
 4200 03ea 3AD0     		beq	.L346
 4201              	.LVL282:
 4202              	.L395:
 4203 03ec 07EE906A 		vmov	s15, r6	@ int
 4204 03f0 B8EEE78A 		vcvt.f32.s32	s16, s15
 4205              	.LVL283:
 4206              	.L354:
 4207              	.LBB117:
 4208              		.loc 1 1001 0
 4209 03f4 D9F80030 		ldr	r3, [r9]
 4210 03f8 38EE088A 		vadd.f32	s16, s16, s16
 4211 03fc D3ED2B7A 		vldr.32	s15, [r3, #172]
 4212 0400 28EE0C8A 		vmul.f32	s16, s16, s24
 4213              		.loc 1 1002 0
 4214 0404 41F28830 		movw	r0, #5000
 4215              		.loc 1 1001 0
 4216 0408 28EE278A 		vmul.f32	s16, s16, s15
 4217 040c C8EE2B7A 		vdiv.f32	s15, s16, s23
 4218 0410 C4ED007A 		vstr.32	s15, [r4]
ARM GAS  C:\Users\euanm\AppData\Local\Temp\ccwBC4sF.s 			page 75


 4219              		.loc 1 1002 0
 4220 0414 FFF7FEFF 		bl	chThdSleep
 4221              	.LVL284:
 4222              		.loc 1 1004 0
 4223 0418 95ED000A 		vldr.32	s0, [r5]
 4224 041c D4ED000A 		vldr.32	s1, [r4]
 4225 0420 FFF7FEFF 		bl	utils_angle_difference_rad
 4226              	.LVL285:
 4227              		.loc 1 1006 0
 4228 0424 03A9     		add	r1, sp, #12
 4229 0426 02A8     		add	r0, sp, #8
 4230              		.loc 1 1004 0
 4231 0428 B0EE408A 		vmov.f32	s16, s0
 4232              	.LVL286:
 4233              		.loc 1 1006 0
 4234 042c FFF7FEFF 		bl	sincosf
 4235              	.LVL287:
 4236              		.loc 1 1007 0
 4237 0430 9DED027A 		vldr.32	s14, [sp, #8]
 4238              		.loc 1 1008 0
 4239 0434 DDED037A 		vldr.32	s15, [sp, #12]
 4240              		.loc 1 1007 0
 4241 0438 39EE079A 		vadd.f32	s18, s18, s14
 4242              	.LVL288:
 4243              		.loc 1 1008 0
 4244 043c 78EEA78A 		vadd.f32	s17, s17, s15
 4245              	.LVL289:
 4246              		.loc 1 1010 0
 4247 0440 002F     		cmp	r7, #0
 4248 0442 D1D0     		beq	.L353
 4249              		.loc 1 1011 0
 4250 0444 28EE2C8A 		vmul.f32	s16, s16, s25
 4251              	.LVL290:
 4252 0448 C8EE0C7A 		vdiv.f32	s15, s16, s24
 4253 044c 17EE900A 		vmov	r0, s15
 4254 0450 FFF7FEFF 		bl	__aeabi_f2d
 4255              	.LVL291:
 4256 0454 0246     		mov	r2, r0
 4257 0456 0B46     		mov	r3, r1
 4258 0458 5548     		ldr	r0, .L399
 4259 045a FFF7FEFF 		bl	commands_printf
 4260              	.LVL292:
 4261              	.LBE117:
 4262              		.loc 1 1000 0
 4263 045e 013E     		subs	r6, r6, #1
 4264              	.LVL293:
 4265 0460 C4D1     		bne	.L395
 4266              	.LVL294:
 4267              	.L346:
 4268              	.LBE115:
 4269              		.loc 1 1015 0
 4270 0462 F0EE680A 		vmov.f32	s1, s17
 4271 0466 B0EE490A 		vmov.f32	s0, s18
 4272 046a FFF7FEFF 		bl	atan2f
 4273              	.LVL295:
 4274 046e DFED517A 		vldr.32	s15, .L399+4
 4275 0472 DFED516A 		vldr.32	s13, .L399+8
ARM GAS  C:\Users\euanm\AppData\Local\Temp\ccwBC4sF.s 			page 76


 4276 0476 20EE270A 		vmul.f32	s0, s0, s15
 4277 047a 80EE267A 		vdiv.f32	s14, s0, s13
 4278 047e 8AED007A 		vstr.32	s14, [r10]
 4279              		.loc 1 1017 0
 4280 0482 002F     		cmp	r7, #0
 4281 0484 48D1     		bne	.L396
 4282              	.L355:
 4283              		.loc 1 1021 0
 4284 0486 5046     		mov	r0, r10
 4285 0488 FFF7FEFF 		bl	utils_norm_angle
 4286              	.LVL296:
 4287              	.L356:
 4288              		.loc 1 1028 0
 4289 048c 4B48     		ldr	r0, .L399+12
 4290              		.loc 1 1027 0
 4291 048e 4C49     		ldr	r1, .L399+16
 4292 0490 0022     		movs	r2, #0
 4293 0492 0A60     		str	r2, [r1]	@ float
 4294              		.loc 1 1028 0
 4295 0494 0260     		str	r2, [r0]	@ float
 4296              		.loc 1 1029 0
 4297 0496 4B4A     		ldr	r2, .L399+20
 4298 0498 0023     		movs	r3, #0
 4299 049a 1370     		strb	r3, [r2]
 4300              		.loc 1 1031 0
 4301 049c 4A4A     		ldr	r2, .L399+24
 4302              		.loc 1 1030 0
 4303 049e 0521     		movs	r1, #5
 4304 04a0 8BF80010 		strb	r1, [fp]
 4305              		.loc 1 1031 0
 4306 04a4 1370     		strb	r3, [r2]
 4307              		.loc 1 1032 0
 4308 04a6 FFF7FEFF 		bl	stop_pwm_hw
 4309              	.LVL297:
 4310              		.loc 1 1035 0
 4311 04aa F5EE409A 		vcmp.f32	s19, #0
 4312 04ae D9F80030 		ldr	r3, [r9]
 4313              		.loc 1 1040 0
 4314 04b2 0098     		ldr	r0, [sp]
 4315              		.loc 1 1035 0
 4316 04b4 F1EE10FA 		vmrs	APSR_nzcv, FPSCR
 4317 04b8 14BF     		ite	ne
 4318 04ba 0122     		movne	r2, #1
 4319 04bc 0022     		moveq	r2, #0
 4320 04be 83F8A820 		strb	r2, [r3, #168]
 4321              		.loc 1 1040 0
 4322 04c2 B0EE4A0A 		vmov.f32	s0, s20
 4323              		.loc 1 1036 0
 4324 04c6 C3ED29AA 		vstr.32	s21, [r3, #164]
 4325              		.loc 1 1037 0
 4326 04ca 83ED2BBA 		vstr.32	s22, [r3, #172]
 4327              		.loc 1 1040 0
 4328 04ce FFF7FEFF 		bl	timeout_configure
 4329              	.LVL298:
 4330              		.loc 1 1043 0
 4331 04d2 05B0     		add	sp, sp, #20
 4332              		.cfi_remember_state
ARM GAS  C:\Users\euanm\AppData\Local\Temp\ccwBC4sF.s 			page 77


 4333              		.cfi_def_cfa_offset 92
 4334              	.LVL299:
 4335              		@ sp needed
 4336 04d4 BDEC0E8B 		vldm	sp!, {d8-d14}
 4337              		.cfi_restore 92
 4338              		.cfi_restore 93
 4339              		.cfi_restore 90
 4340              		.cfi_restore 91
 4341              		.cfi_restore 88
 4342              		.cfi_restore 89
 4343              		.cfi_restore 86
 4344              		.cfi_restore 87
 4345              		.cfi_restore 84
 4346              		.cfi_restore 85
 4347              		.cfi_restore 82
 4348              		.cfi_restore 83
 4349              		.cfi_restore 80
 4350              		.cfi_restore 81
 4351              		.cfi_def_cfa_offset 36
 4352              	.LVL300:
 4353 04d8 BDE8F04F 		pop	{r4, r5, r6, r7, r8, r9, r10, fp, lr}
 4354              		.cfi_restore 14
 4355              		.cfi_restore 11
 4356              		.cfi_restore 10
 4357              		.cfi_restore 9
 4358              		.cfi_restore 8
 4359              		.cfi_restore 7
 4360              		.cfi_restore 6
 4361              		.cfi_restore 5
 4362              		.cfi_restore 4
 4363              		.cfi_def_cfa_offset 0
 4364              	.LVL301:
 4365              		.loc 1 1042 0
 4366 04dc FFF7FEBF 		b	mc_interface_unlock
 4367              	.LVL302:
 4368              	.L390:
 4369              		.cfi_restore_state
 4370              	.LBB118:
 4371              	.LBB98:
 4372              		.loc 1 922 0
 4373 04e0 68EE0E7A 		vmul.f32	s15, s16, s28
 4374 04e4 87EEAD7A 		vdiv.f32	s14, s15, s27
 4375 04e8 17EE100A 		vmov	r0, s14
 4376 04ec FFF7FEFF 		bl	__aeabi_f2d
 4377              	.LVL303:
 4378 04f0 0246     		mov	r2, r0
 4379 04f2 0B46     		mov	r3, r1
 4380 04f4 2E48     		ldr	r0, .L399
 4381 04f6 FFF7FEFF 		bl	commands_printf
 4382              	.LVL304:
 4383 04fa 37E6     		b	.L325
 4384              	.LVL305:
 4385              	.L391:
 4386              	.LBE98:
 4387              	.LBE118:
 4388              	.LBB119:
 4389              	.LBB105:
ARM GAS  C:\Users\euanm\AppData\Local\Temp\ccwBC4sF.s 			page 78


 4390              		.loc 1 950 0
 4391 04fc 68EE0E7A 		vmul.f32	s15, s16, s28
 4392 0500 87EEAD7A 		vdiv.f32	s14, s15, s27
 4393 0504 17EE100A 		vmov	r0, s14
 4394 0508 FFF7FEFF 		bl	__aeabi_f2d
 4395              	.LVL306:
 4396 050c 0246     		mov	r2, r0
 4397 050e 0B46     		mov	r3, r1
 4398 0510 2748     		ldr	r0, .L399
 4399 0512 FFF7FEFF 		bl	commands_printf
 4400              	.LVL307:
 4401 0516 81E6     		b	.L335
 4402              	.LVL308:
 4403              	.L396:
 4404              	.LBE105:
 4405              	.LBE119:
 4406              		.loc 1 1018 0
 4407 0518 17EE100A 		vmov	r0, s14
 4408 051c FFF7FEFF 		bl	__aeabi_f2d
 4409              	.LVL309:
 4410 0520 0246     		mov	r2, r0
 4411 0522 0B46     		mov	r3, r1
 4412 0524 2948     		ldr	r0, .L399+28
 4413 0526 FFF7FEFF 		bl	commands_printf
 4414              	.LVL310:
 4415              		.loc 1 1021 0
 4416 052a 5046     		mov	r0, r10
 4417 052c FFF7FEFF 		bl	utils_norm_angle
 4418              	.LVL311:
 4419              		.loc 1 1024 0
 4420 0530 2748     		ldr	r0, .L399+32
 4421 0532 FFF7FEFF 		bl	commands_printf
 4422              	.LVL312:
 4423 0536 A9E7     		b	.L356
 4424              	.LVL313:
 4425              	.L392:
 4426              		.loc 1 967 0
 4427 0538 2648     		ldr	r0, .L399+36
 4428 053a FFF7FEFF 		bl	commands_printf
 4429              	.LVL314:
 4430              	.LBB120:
 4431              		.loc 1 971 0
 4432 053e 94ED008A 		vldr.32	s16, [r4]
 4433              	.LVL315:
 4434 0542 DFED257A 		vldr.32	s15, .L399+40
 4435 0546 B4EEE78A 		vcmpe.f32	s16, s15
 4436 054a F1EE10FA 		vmrs	APSR_nzcv, FPSCR
 4437 054e 3FF5B1AE 		bmi	.L344
 4438              	.L348:
 4439              	.LBE120:
 4440              		.loc 1 977 0
 4441 0552 2248     		ldr	r0, .L399+44
 4442 0554 FFF7FEFF 		bl	commands_printf
 4443              	.LVL316:
 4444              		.loc 1 978 0
 4445 0558 FFF7FEFF 		bl	encoder_read_deg
 4446              	.LVL317:
ARM GAS  C:\Users\euanm\AppData\Local\Temp\ccwBC4sF.s 			page 79


 4447 055c 10EE100A 		vmov	r0, s0
 4448 0560 FFF7FEFF 		bl	__aeabi_f2d
 4449              	.LVL318:
 4450 0564 0246     		mov	r2, r0
 4451 0566 0B46     		mov	r3, r1
 4452 0568 1D48     		ldr	r0, .L399+48
 4453 056a FFF7FEFF 		bl	commands_printf
 4454              	.LVL319:
 4455 056e D9F80030 		ldr	r3, [r9]
 4456              		.loc 1 981 0
 4457 0572 D3ED2B7A 		vldr.32	s15, [r3, #172]
 4458 0576 B0EE087A 		vmov.f32	s14, #3.0e+0
 4459 057a 67EE877A 		vmul.f32	s15, s15, s14
 4460 057e FDEEE77A 		vcvt.s32.f32	s15, s15
 4461 0582 17EE906A 		vmov	r6, s15	@ int
 4462              	.LVL320:
 4463              	.LBB121:
 4464              		.loc 1 985 0
 4465 0586 002E     		cmp	r6, #0
 4466 0588 3FF7B6AE 		bgt	.L345
 4467              	.LBE121:
 4468              		.loc 1 983 0
 4469 058c DFED158A 		vldr.32	s17, .L399+52
 4470              		.loc 1 982 0
 4471 0590 B0EE689A 		vmov.f32	s18, s17
 4472 0594 65E7     		b	.L346
 4473              	.LVL321:
 4474              	.L389:
 4475              		.loc 1 893 0
 4476 0596 1148     		ldr	r0, .L399+44
 4477 0598 FFF7FEFF 		bl	commands_printf
 4478              	.LVL322:
 4479 059c 9DE5     		b	.L322
 4480              	.LVL323:
 4481              	.L388:
 4482              		.loc 1 883 0
 4483 059e 1248     		ldr	r0, .L399+56
 4484 05a0 FFF7FEFF 		bl	commands_printf
 4485              	.LVL324:
 4486 05a4 87E5     		b	.L318
 4487              	.LVL325:
 4488              	.L393:
 4489              		.loc 1 1015 0
 4490 05a6 0023     		movs	r3, #0
 4491 05a8 CAF80030 		str	r3, [r10]	@ float
 4492 05ac 6BE7     		b	.L355
 4493              	.L400:
 4494 05ae 00BF     		.align	2
 4495              	.L399:
 4496 05b0 30000000 		.word	.LC3
 4497 05b4 00003443 		.word	1127481344
 4498 05b8 DB0F4940 		.word	1078530011
 4499 05bc 00000000 		.word	.LANCHOR21
 4500 05c0 00000000 		.word	.LANCHOR30
 4501 05c4 00000000 		.word	.LANCHOR27
 4502 05c8 00000000 		.word	.LANCHOR7
 4503 05cc 64000000 		.word	.LC6
ARM GAS  C:\Users\euanm\AppData\Local\Temp\ccwBC4sF.s 			page 80


 4504 05d0 70000000 		.word	.LC7
 4505 05d4 38000000 		.word	.LC4
 4506 05d8 DB0FC940 		.word	1086918619
 4507 05dc 1C000000 		.word	.LC2
 4508 05e0 58000000 		.word	.LC5
 4509 05e4 00000000 		.word	0
 4510 05e8 10000000 		.word	.LC1
 4511              		.cfi_endproc
 4512              	.LFE290:
 4513              		.size	mcpwm_foc_encoder_detect, .-mcpwm_foc_encoder_detect
 4514              		.section	.text.mcpwm_foc_measure_resistance,"ax",%progbits
 4515              		.align	2
 4516              		.p2align 4,,15
 4517              		.global	mcpwm_foc_measure_resistance
 4518              		.thumb
 4519              		.thumb_func
 4520              		.type	mcpwm_foc_measure_resistance, %function
 4521              	mcpwm_foc_measure_resistance:
 4522              	.LFB291:
 4523              		.loc 1 1058 0
 4524              		.cfi_startproc
 4525              		@ args = 0, pretend = 0, frame = 8
 4526              		@ frame_needed = 0, uses_anonymous_args = 0
 4527              	.LVL326:
 4528 0000 2DE9F04F 		push	{r4, r5, r6, r7, r8, r9, r10, fp, lr}
 4529              		.cfi_def_cfa_offset 36
 4530              		.cfi_offset 4, -36
 4531              		.cfi_offset 5, -32
 4532              		.cfi_offset 6, -28
 4533              		.cfi_offset 7, -24
 4534              		.cfi_offset 8, -20
 4535              		.cfi_offset 9, -16
 4536              		.cfi_offset 10, -12
 4537              		.cfi_offset 11, -8
 4538              		.cfi_offset 14, -4
 4539 0004 2DED048B 		vpush.64	{d8, d9}
 4540              		.cfi_def_cfa_offset 52
 4541              		.cfi_offset 80, -52
 4542              		.cfi_offset 81, -48
 4543              		.cfi_offset 82, -44
 4544              		.cfi_offset 83, -40
 4545 0008 83B0     		sub	sp, sp, #12
 4546              		.cfi_def_cfa_offset 64
 4547              		.loc 1 1058 0
 4548 000a F0EE408A 		vmov.f32	s17, s0
 4549              		.loc 1 1062 0
 4550 000e 9FED378A 		vldr.32	s16, .L408
 4551              		.loc 1 1061 0
 4552 0012 DFF8F090 		ldr	r9, .L408+24
 4553              		.loc 1 1063 0
 4554 0016 DFF8F0A0 		ldr	r10, .L408+28
 4555              		.loc 1 1064 0
 4556 001a DFF8F080 		ldr	r8, .L408+32
 4557              		.loc 1 1065 0
 4558 001e 344E     		ldr	r6, .L408+4
 4559              		.loc 1 1066 0
 4560 0020 344F     		ldr	r7, .L408+8
ARM GAS  C:\Users\euanm\AppData\Local\Temp\ccwBC4sF.s 			page 81


 4561              		.loc 1 1077 0
 4562 0022 354C     		ldr	r4, .L408+12
 4563              		.loc 1 1058 0
 4564 0024 0546     		mov	r5, r0
 4565              		.loc 1 1059 0
 4566 0026 FFF7FEFF 		bl	mc_interface_lock
 4567              	.LVL327:
 4568              		.loc 1 1062 0
 4569 002a 344A     		ldr	r2, .L408+16
 4570              		.loc 1 1065 0
 4571 002c 0223     		movs	r3, #2
 4572              		.loc 1 1061 0
 4573 002e 0121     		movs	r1, #1
 4574 0030 89F80010 		strb	r1, [r9]
 4575              		.loc 1 1062 0
 4576 0034 82ED008A 		vstr.32	s16, [r2]
 4577              		.loc 1 1063 0
 4578 0038 8AED008A 		vstr.32	s16, [r10]
 4579              		.loc 1 1064 0
 4580 003c C8ED008A 		vstr.32	s17, [r8]
 4581              		.loc 1 1065 0
 4582 0040 3370     		strb	r3, [r6]
 4583              		.loc 1 1066 0
 4584 0042 3B70     		strb	r3, [r7]
 4585              		.loc 1 1069 0
 4586 0044 FFF7FEFF 		bl	timeout_get_timeout_msec
 4587              	.LVL328:
 4588 0048 0190     		str	r0, [sp, #4]
 4589              	.LVL329:
 4590              		.loc 1 1070 0
 4591 004a FFF7FEFF 		bl	timeout_get_brake_current
 4592              	.LVL330:
 4593              		.loc 1 1071 0
 4594 004e 4EF66020 		movw	r0, #60000
 4595              		.loc 1 1070 0
 4596 0052 F0EE408A 		vmov.f32	s17, s0
 4597              	.LVL331:
 4598              		.loc 1 1071 0
 4599 0056 B0EE480A 		vmov.f32	s0, s16
 4600              	.LVL332:
 4601 005a FFF7FEFF 		bl	timeout_configure
 4602              	.LVL333:
 4603              		.loc 1 1074 0
 4604 005e 42F21070 		movw	r0, #10000
 4605 0062 FFF7FEFF 		bl	chThdSleep
 4606              	.LVL334:
 4607              		.loc 1 1079 0
 4608 0066 0023     		movs	r3, #0
 4609              		.loc 1 1077 0
 4610 0068 84ED018A 		vstr.32	s16, [r4, #4]
 4611              		.loc 1 1082 0
 4612 006c 42F2117B 		movw	fp, #10001
 4613              		.loc 1 1078 0
 4614 0070 84ED028A 		vstr.32	s16, [r4, #8]
 4615              		.loc 1 1079 0
 4616 0074 2360     		str	r3, [r4]
 4617              	.LVL335:
ARM GAS  C:\Users\euanm\AppData\Local\Temp\ccwBC4sF.s 			page 82


 4618              		.loc 1 1082 0
 4619 0076 04E0     		b	.L402
 4620              	.LVL336:
 4621              	.L403:
 4622              		.loc 1 1083 0
 4623 0078 FFF7FEFF 		bl	chThdSleep
 4624              	.LVL337:
 4625              		.loc 1 1086 0
 4626 007c BBF1010B 		subs	fp, fp, #1
 4627              	.LVL338:
 4628 0080 04D0     		beq	.L404
 4629              	.LVL339:
 4630              	.L402:
 4631              		.loc 1 1082 0
 4632 0082 2268     		ldr	r2, [r4]
 4633 0084 AA42     		cmp	r2, r5
 4634              		.loc 1 1083 0
 4635 0086 4FF00A00 		mov	r0, #10
 4636              		.loc 1 1082 0
 4637 008a F5DB     		blt	.L403
 4638              	.LVL340:
 4639              	.L404:
 4640              		.loc 1 1091 0
 4641 008c 94ED016A 		vldr.32	s12, [r4, #4]
 4642 0090 94ED007A 		vldr.32	s14, [r4]	@ int
 4643              		.loc 1 1092 0
 4644 0094 D4ED026A 		vldr.32	s13, [r4, #8]
 4645 0098 D4ED007A 		vldr.32	s15, [r4]	@ int
 4646              		.loc 1 1091 0
 4647 009c B8EEC77A 		vcvt.f32.s32	s14, s14
 4648              		.loc 1 1092 0
 4649 00a0 F8EEE77A 		vcvt.f32.s32	s15, s15
 4650              		.loc 1 1091 0
 4651 00a4 86EE078A 		vdiv.f32	s16, s12, s14
 4652              	.LVL341:
 4653              		.loc 1 1095 0
 4654 00a8 0022     		movs	r2, #0
 4655              		.loc 1 1097 0
 4656 00aa 0023     		movs	r3, #0
 4657              		.loc 1 1098 0
 4658 00ac 0521     		movs	r1, #5
 4659              		.loc 1 1095 0
 4660 00ae CAF80020 		str	r2, [r10]	@ float
 4661              		.loc 1 1096 0
 4662 00b2 C8F80020 		str	r2, [r8]	@ float
 4663              		.loc 1 1097 0
 4664 00b6 89F80030 		strb	r3, [r9]
 4665              		.loc 1 1098 0
 4666 00ba 3170     		strb	r1, [r6]
 4667              		.loc 1 1099 0
 4668 00bc 3B70     		strb	r3, [r7]
 4669              		.loc 1 1092 0
 4670 00be 86EEA79A 		vdiv.f32	s18, s13, s15
 4671              	.LVL342:
 4672              		.loc 1 1100 0
 4673 00c2 FFF7FEFF 		bl	stop_pwm_hw
 4674              	.LVL343:
ARM GAS  C:\Users\euanm\AppData\Local\Temp\ccwBC4sF.s 			page 83


 4675              		.loc 1 1103 0
 4676 00c6 0198     		ldr	r0, [sp, #4]
 4677 00c8 B0EE680A 		vmov.f32	s0, s17
 4678 00cc FFF7FEFF 		bl	timeout_configure
 4679              	.LVL344:
 4680              		.loc 1 1105 0
 4681 00d0 FFF7FEFF 		bl	mc_interface_unlock
 4682              	.LVL345:
 4683              		.loc 1 1107 0
 4684 00d4 C9EE087A 		vdiv.f32	s15, s18, s16
 4685 00d8 9FED090A 		vldr.32	s0, .L408+20
 4686 00dc 27EE800A 		vmul.f32	s0, s15, s0
 4687              		.loc 1 1108 0
 4688 00e0 03B0     		add	sp, sp, #12
 4689              		.cfi_def_cfa_offset 52
 4690              		@ sp needed
 4691 00e2 BDEC048B 		vldm	sp!, {d8-d9}
 4692              		.cfi_restore 82
 4693              		.cfi_restore 83
 4694              		.cfi_restore 80
 4695              		.cfi_restore 81
 4696              		.cfi_def_cfa_offset 36
 4697              	.LVL346:
 4698 00e6 BDE8F08F 		pop	{r4, r5, r6, r7, r8, r9, r10, fp, pc}
 4699              	.LVL347:
 4700              	.L409:
 4701 00ea 00BF     		.align	2
 4702              	.L408:
 4703 00ec 00000000 		.word	0
 4704 00f0 00000000 		.word	.LANCHOR14
 4705 00f4 00000000 		.word	.LANCHOR7
 4706 00f8 00000000 		.word	.LANCHOR17
 4707 00fc 00000000 		.word	.LANCHOR28
 4708 0100 ABAA2A3F 		.word	1059760811
 4709 0104 00000000 		.word	.LANCHOR27
 4710 0108 00000000 		.word	.LANCHOR30
 4711 010c 00000000 		.word	.LANCHOR21
 4712              		.cfi_endproc
 4713              	.LFE291:
 4714              		.size	mcpwm_foc_measure_resistance, .-mcpwm_foc_measure_resistance
 4715              		.section	.text.mcpwm_foc_measure_inductance,"ax",%progbits
 4716              		.align	2
 4717              		.p2align 4,,15
 4718              		.global	mcpwm_foc_measure_inductance
 4719              		.thumb
 4720              		.thumb_func
 4721              		.type	mcpwm_foc_measure_inductance, %function
 4722              	mcpwm_foc_measure_inductance:
 4723              	.LFB292:
 4724              		.loc 1 1125 0
 4725              		.cfi_startproc
 4726              		@ args = 0, pretend = 0, frame = 0
 4727              		@ frame_needed = 0, uses_anonymous_args = 0
 4728              	.LVL348:
 4729 0000 2DE9F84F 		push	{r3, r4, r5, r6, r7, r8, r9, r10, fp, lr}
 4730              		.cfi_def_cfa_offset 40
 4731              		.cfi_offset 3, -40
ARM GAS  C:\Users\euanm\AppData\Local\Temp\ccwBC4sF.s 			page 84


 4732              		.cfi_offset 4, -36
 4733              		.cfi_offset 5, -32
 4734              		.cfi_offset 6, -28
 4735              		.cfi_offset 7, -24
 4736              		.cfi_offset 8, -20
 4737              		.cfi_offset 9, -16
 4738              		.cfi_offset 10, -12
 4739              		.cfi_offset 11, -8
 4740              		.cfi_offset 14, -4
 4741              		.loc 1 1126 0
 4742 0004 384D     		ldr	r5, .L420
 4743              		.loc 1 1125 0
 4744 0006 2DED028B 		vpush.64	{d8}
 4745              		.cfi_def_cfa_offset 48
 4746              		.cfi_offset 80, -48
 4747              		.cfi_offset 81, -44
 4748              		.loc 1 1126 0
 4749 000a DFED388A 		vldr.32	s17, .L420+4
 4750              		.loc 1 1128 0
 4751 000e 0027     		movs	r7, #0
 4752              		.loc 1 1125 0
 4753 0010 8A46     		mov	r10, r1
 4754              		.loc 1 1126 0
 4755 0012 C5ED018A 		vstr.32	s17, [r5, #4]
 4756              		.loc 1 1125 0
 4757 0016 8046     		mov	r8, r0
 4758              		.loc 1 1127 0
 4759 0018 C5ED028A 		vstr.32	s17, [r5, #8]
 4760              		.loc 1 1128 0
 4761 001c 2F60     		str	r7, [r5]
 4762              		.loc 1 1129 0
 4763 001e 85ED040A 		vstr.32	s0, [r5, #16]
 4764              		.loc 1 1132 0
 4765 0022 FFF7FEFF 		bl	timeout_get_timeout_msec
 4766              	.LVL349:
 4767 0026 8346     		mov	fp, r0
 4768              	.LVL350:
 4769              		.loc 1 1133 0
 4770 0028 FFF7FEFF 		bl	timeout_get_brake_current
 4771              	.LVL351:
 4772              		.loc 1 1134 0
 4773 002c 4EF66020 		movw	r0, #60000
 4774              		.loc 1 1133 0
 4775 0030 B0EE408A 		vmov.f32	s16, s0
 4776              	.LVL352:
 4777              		.loc 1 1134 0
 4778 0034 B0EE680A 		vmov.f32	s0, s17
 4779              	.LVL353:
 4780 0038 FFF7FEFF 		bl	timeout_configure
 4781              	.LVL354:
 4782              		.loc 1 1136 0
 4783 003c FFF7FEFF 		bl	mc_interface_lock
 4784              	.LVL355:
 4785              	.LBB122:
 4786              		.loc 1 1139 0
 4787 0040 B845     		cmp	r8, r7
 4788 0042 13DD     		ble	.L415
ARM GAS  C:\Users\euanm\AppData\Local\Temp\ccwBC4sF.s 			page 85


 4789 0044 3C46     		mov	r4, r7
 4790              		.loc 1 1140 0
 4791 0046 4FF00109 		mov	r9, #1
 4792              		.loc 1 1145 0
 4793 004a 41F28936 		movw	r6, #5001
 4794              	.LVL356:
 4795              	.L417:
 4796              		.loc 1 1140 0
 4797 004e 85F80C90 		strb	r9, [r5, #12]
 4798              		.loc 1 1142 0
 4799 0052 04E0     		b	.L414
 4800              	.L416:
 4801              		.loc 1 1144 0
 4802 0054 0134     		adds	r4, r4, #1
 4803              	.LVL357:
 4804              		.loc 1 1143 0
 4805 0056 FFF7FEFF 		bl	chThdSleep
 4806              	.LVL358:
 4807              		.loc 1 1145 0
 4808 005a B442     		cmp	r4, r6
 4809 005c 06D0     		beq	.L415
 4810              	.L414:
 4811              		.loc 1 1142 0
 4812 005e 2B7B     		ldrb	r3, [r5, #12]	@ zero_extendqisi2
 4813              		.loc 1 1143 0
 4814 0060 0A20     		movs	r0, #10
 4815              		.loc 1 1142 0
 4816 0062 002B     		cmp	r3, #0
 4817 0064 F6D1     		bne	.L416
 4818              		.loc 1 1139 0
 4819 0066 0137     		adds	r7, r7, #1
 4820              	.LVL359:
 4821 0068 B845     		cmp	r8, r7
 4822 006a F0D1     		bne	.L417
 4823              	.LVL360:
 4824              	.L415:
 4825              	.LBE122:
 4826              		.loc 1 1156 0
 4827 006c B0EE480A 		vmov.f32	s0, s16
 4828 0070 5846     		mov	r0, fp
 4829 0072 FFF7FEFF 		bl	timeout_configure
 4830              	.LVL361:
 4831              		.loc 1 1158 0
 4832 0076 FFF7FEFF 		bl	mc_interface_unlock
 4833              	.LVL362:
 4834              		.loc 1 1162 0
 4835 007a 1D4B     		ldr	r3, .L420+8
 4836              		.loc 1 1160 0
 4837 007c D5ED014A 		vldr.32	s9, [r5, #4]
 4838 0080 D5ED006A 		vldr.32	s13, [r5]	@ int
 4839              		.loc 1 1161 0
 4840 0084 95ED025A 		vldr.32	s10, [r5, #8]
 4841 0088 95ED007A 		vldr.32	s14, [r5]	@ int
 4842              		.loc 1 1162 0
 4843 008c D3ED0B7A 		vldr.32	s15, [r3, #44]	@ int
 4844 0090 95ED046A 		vldr.32	s12, [r5, #16]
 4845 0094 9FED174A 		vldr.32	s8, .L420+12
ARM GAS  C:\Users\euanm\AppData\Local\Temp\ccwBC4sF.s 			page 86


 4846 0098 DFED175A 		vldr.32	s11, .L420+16
 4847 009c F8EE677A 		vcvt.f32.u32	s15, s15
 4848              		.loc 1 1160 0
 4849 00a0 F8EEE66A 		vcvt.f32.s32	s13, s13
 4850              		.loc 1 1162 0
 4851 00a4 67EE867A 		vmul.f32	s15, s15, s12
 4852              		.loc 1 1161 0
 4853 00a8 B8EEC77A 		vcvt.f32.s32	s14, s14
 4854              		.loc 1 1162 0
 4855 00ac 87EE846A 		vdiv.f32	s12, s15, s8
 4856              		.loc 1 1160 0
 4857 00b0 84EEA64A 		vdiv.f32	s8, s9, s13
 4858              	.LVL363:
 4859              		.loc 1 1161 0
 4860 00b4 C5EE077A 		vdiv.f32	s15, s10, s14
 4861              	.LVL364:
 4862              		.loc 1 1162 0
 4863 00b8 36EE656A 		vsub.f32	s12, s12, s11
 4864              	.LVL365:
 4865              		.loc 1 1165 0
 4866 00bc BAF1000F 		cmp	r10, #0
 4867 00c0 01D0     		beq	.L413
 4868              		.loc 1 1166 0
 4869 00c2 8AED004A 		vstr.32	s8, [r10]
 4870              	.L413:
 4871              		.loc 1 1169 0
 4872 00c6 27EE866A 		vmul.f32	s12, s15, s12
 4873              	.LVL366:
 4874              		.loc 1 1170 0
 4875 00ca BDEC028B 		vldm	sp!, {d8}
 4876              		.cfi_restore 80
 4877              		.cfi_restore 81
 4878              		.cfi_def_cfa_offset 40
 4879              	.LVL367:
 4880              		.loc 1 1169 0
 4881 00ce C6EE047A 		vdiv.f32	s15, s12, s8
 4882              	.LVL368:
 4883 00d2 9FED0A7A 		vldr.32	s14, .L420+20
 4884              	.LVL369:
 4885 00d6 9FED0A0A 		vldr.32	s0, .L420+24
 4886 00da 67EE877A 		vmul.f32	s15, s15, s14
 4887              		.loc 1 1170 0
 4888 00de 27EE800A 		vmul.f32	s0, s15, s0
 4889 00e2 BDE8F88F 		pop	{r3, r4, r5, r6, r7, r8, r9, r10, fp, pc}
 4890              	.LVL370:
 4891              	.L421:
 4892 00e6 00BF     		.align	2
 4893              	.L420:
 4894 00e8 00000000 		.word	.LANCHOR17
 4895 00ec 00000000 		.word	0
 4896 00f0 00000140 		.word	1073807360
 4897 00f4 A037204D 		.word	1293957024
 4898 00f8 57BDBF34 		.word	884981079
 4899 00fc 00247449 		.word	1232348160
 4900 0100 ABAA2A3F 		.word	1059760811
 4901              		.cfi_endproc
 4902              	.LFE292:
ARM GAS  C:\Users\euanm\AppData\Local\Temp\ccwBC4sF.s 			page 87


 4903              		.size	mcpwm_foc_measure_inductance, .-mcpwm_foc_measure_inductance
 4904              		.section	.text.mcpwm_foc_measure_res_ind,"ax",%progbits
 4905              		.align	2
 4906              		.p2align 4,,15
 4907              		.global	mcpwm_foc_measure_res_ind
 4908              		.thumb
 4909              		.thumb_func
 4910              		.type	mcpwm_foc_measure_res_ind, %function
 4911              	mcpwm_foc_measure_res_ind:
 4912              	.LFB293:
 4913              		.loc 1 1184 0
 4914              		.cfi_startproc
 4915              		@ args = 0, pretend = 0, frame = 8
 4916              		@ frame_needed = 0, uses_anonymous_args = 0
 4917              	.LVL371:
 4918 0000 2DE9F047 		push	{r4, r5, r6, r7, r8, r9, r10, lr}
 4919              		.cfi_def_cfa_offset 32
 4920              		.cfi_offset 4, -32
 4921              		.cfi_offset 5, -28
 4922              		.cfi_offset 6, -24
 4923              		.cfi_offset 7, -20
 4924              		.cfi_offset 8, -16
 4925              		.cfi_offset 9, -12
 4926              		.cfi_offset 10, -8
 4927              		.cfi_offset 14, -4
 4928              		.loc 1 1185 0
 4929 0004 774D     		ldr	r5, .L440
 4930              		.loc 1 1189 0
 4931 0006 784A     		ldr	r2, .L440+4
 4932              		.loc 1 1185 0
 4933 0008 2B68     		ldr	r3, [r5]
 4934              		.loc 1 1194 0
 4935 000a 784C     		ldr	r4, .L440+8
 4936              		.loc 1 1185 0
 4937 000c D3F89CA0 		ldr	r10, [r3, #156]	@ float
 4938              	.LVL372:
 4939              		.loc 1 1190 0
 4940 0010 774E     		ldr	r6, .L440+12
 4941              		.loc 1 1186 0
 4942 0012 D3F89490 		ldr	r9, [r3, #148]	@ float
 4943              	.LVL373:
 4944              		.loc 1 1187 0
 4945 0016 D3F89880 		ldr	r8, [r3, #152]	@ float
 4946              	.LVL374:
 4947              		.loc 1 1193 0
 4948 001a 764F     		ldr	r7, .L440+16
 4949              		.loc 1 1184 0
 4950 001c 2DED048B 		vpush.64	{d8, d9}
 4951              		.cfi_def_cfa_offset 48
 4952              		.cfi_offset 80, -48
 4953              		.cfi_offset 81, -44
 4954              		.cfi_offset 82, -40
 4955              		.cfi_offset 83, -36
 4956              		.loc 1 1189 0
 4957 0020 C3F89C20 		str	r2, [r3, #156]	@ float
 4958              		.loc 1 1191 0
 4959 0024 744A     		ldr	r2, .L440+20
ARM GAS  C:\Users\euanm\AppData\Local\Temp\ccwBC4sF.s 			page 88


 4960              		.loc 1 1190 0
 4961 0026 C3F89460 		str	r6, [r3, #148]	@ float
 4962              		.loc 1 1191 0
 4963 002a C3F89820 		str	r2, [r3, #152]	@ float
 4964              		.loc 1 1193 0
 4965 002e D3ED277A 		vldr.32	s15, [r3, #156]
 4966              		.loc 1 1194 0
 4967 0032 2668     		ldr	r6, [r4]
 4968 0034 714A     		ldr	r2, .L440+24
 4969 0036 46F00206 		orr	r6, r6, #2
 4970 003a 2660     		str	r6, [r4]
 4971 003c 1668     		ldr	r6, [r2]
 4972              		.loc 1 1193 0
 4973 003e FDEEE77A 		vcvt.s32.f32	s15, s15
 4974              		.loc 1 1194 0
 4975 0042 46F0020E 		orr	lr, r6, #2
 4976              		.loc 1 1193 0
 4977 0046 17EE906A 		vmov	r6, s15	@ int
 4978              		.loc 1 1194 0
 4979 004a 4FF0050C 		mov	ip, #5
 4980              		.loc 1 1193 0
 4981 004e 97FBF6F6 		sdiv	r6, r7, r6
 4982              	.LVL375:
 4983              		.loc 1 1194 0
 4984 0052 B71E     		subs	r7, r6, #2
 4985 0054 C2F800E0 		str	lr, [r2]
 4986 0058 E662     		str	r6, [r4, #44]
 4987 005a D662     		str	r6, [r2, #44]
 4988 005c C2F834C0 		str	ip, [r2, #52]
 4989 0060 2764     		str	r7, [r4, #64]
 4990 0062 9763     		str	r7, [r2, #56]
 4991 0064 2668     		ldr	r6, [r4]
 4992              	.LVL376:
 4993 0066 26F00206 		bic	r6, r6, #2
 4994 006a 2660     		str	r6, [r4]
 4995 006c 1468     		ldr	r4, [r2]
 4996 006e 24F00204 		bic	r4, r4, #2
 4997 0072 1460     		str	r4, [r2]
 4998              	.LVL377:
 4999              	.LBB123:
 5000              		.loc 1 1198 0
 5001 0074 D3ED017A 		vldr.32	s15, [r3, #4]
 5002 0078 F6EE008A 		vmov.f32	s17, #5.0e-1
 5003 007c 67EEA87A 		vmul.f32	s15, s15, s17
 5004 0080 B0EE008A 		vmov.f32	s16, #2.0e+0
 5005 0084 F4EEC87A 		vcmpe.f32	s15, s16
 5006 0088 F1EE10FA 		vmrs	APSR_nzcv, FPSCR
 5007              	.LBE123:
 5008              		.loc 1 1184 0
 5009 008c 82B0     		sub	sp, sp, #8
 5010              		.cfi_def_cfa_offset 56
 5011              		.loc 1 1184 0
 5012 008e 0446     		mov	r4, r0
 5013 0090 0E46     		mov	r6, r1
 5014              	.LBB124:
 5015              		.loc 1 1198 0
 5016 0092 22DD     		ble	.L433
ARM GAS  C:\Users\euanm\AppData\Local\Temp\ccwBC4sF.s 			page 89


 5017 0094 B7EE089A 		vmov.f32	s18, #1.5e+0
 5018 0098 0BE0     		b	.L426
 5019              	.LVL378:
 5020              	.L439:
 5021              		.loc 1 1198 0 is_stmt 0 discriminator 2
 5022 009a 2B68     		ldr	r3, [r5]
 5023 009c D3ED017A 		vldr.32	s15, [r3, #4]
 5024 00a0 28EE098A 		vmul.f32	s16, s16, s18
 5025              	.LVL379:
 5026 00a4 67EEA87A 		vmul.f32	s15, s15, s17
 5027 00a8 F4EEC87A 		vcmpe.f32	s15, s16
 5028 00ac F1EE10FA 		vmrs	APSR_nzcv, FPSCR
 5029 00b0 13DD     		ble	.L433
 5030              	.LVL380:
 5031              	.L426:
 5032              		.loc 1 1199 0 is_stmt 1
 5033 00b2 1420     		movs	r0, #20
 5034 00b4 B0EE480A 		vmov.f32	s0, s16
 5035 00b8 FFF7FEFF 		bl	mcpwm_foc_measure_resistance
 5036              	.LVL381:
 5037              		.loc 1 1201 0
 5038 00bc 88EE800A 		vdiv.f32	s0, s17, s0
 5039              	.LVL382:
 5040 00c0 B4EEC80A 		vcmpe.f32	s0, s16
 5041 00c4 F1EE10FA 		vmrs	APSR_nzcv, FPSCR
 5042 00c8 E7D5     		bpl	.L439
 5043              	.LVL383:
 5044              	.LBE124:
 5045              		.loc 1 1207 0
 5046 00ca DFED4D7A 		vldr.32	s15, .L440+28
 5047 00ce B4EEE78A 		vcmpe.f32	s16, s15
 5048 00d2 F1EE10FA 		vmrs	APSR_nzcv, FPSCR
 5049 00d6 06D5     		bpl	.L427
 5050 00d8 2B68     		ldr	r3, [r5]
 5051              	.LVL384:
 5052              	.L433:
 5053              		.loc 1 1208 0
 5054 00da D3ED017A 		vldr.32	s15, [r3, #4]
 5055 00de B6EE008A 		vmov.f32	s16, #5.0e-1
 5056 00e2 27EE888A 		vmul.f32	s16, s15, s16
 5057              	.LVL385:
 5058              	.L427:
 5059              		.loc 1 1211 0
 5060 00e6 4FF4FA70 		mov	r0, #500
 5061 00ea B0EE480A 		vmov.f32	s0, s16
 5062 00ee FFF7FEFF 		bl	mcpwm_foc_measure_resistance
 5063              	.LVL386:
 5064              		.loc 1 1213 0
 5065 00f2 2B68     		ldr	r3, [r5]
 5066              		.loc 1 1215 0
 5067 00f4 3D4A     		ldr	r2, .L440+8
 5068              		.loc 1 1213 0
 5069 00f6 4349     		ldr	r1, .L440+32
 5070              		.loc 1 1211 0
 5071 00f8 84ED000A 		vstr.32	s0, [r4]
 5072              		.loc 1 1213 0
 5073 00fc C3F89C10 		str	r1, [r3, #156]	@ float
ARM GAS  C:\Users\euanm\AppData\Local\Temp\ccwBC4sF.s 			page 90


 5074              		.loc 1 1214 0
 5075 0100 D3ED277A 		vldr.32	s15, [r3, #156]
 5076              		.loc 1 1215 0
 5077 0104 1168     		ldr	r1, [r2]
 5078 0106 3D4B     		ldr	r3, .L440+24
 5079              		.loc 1 1214 0
 5080 0108 3A48     		ldr	r0, .L440+16
 5081              	.LBB125:
 5082              		.loc 1 1218 0
 5083 010a DFED3F8A 		vldr.32	s17, .L440+36
 5084              	.LBE125:
 5085              		.loc 1 1215 0
 5086 010e 41F00201 		orr	r1, r1, #2
 5087              		.loc 1 1214 0
 5088 0112 FDEEE77A 		vcvt.s32.f32	s15, s15
 5089              		.loc 1 1215 0
 5090 0116 1160     		str	r1, [r2]
 5091 0118 1C68     		ldr	r4, [r3]
 5092              	.LVL387:
 5093              		.loc 1 1214 0
 5094 011a 17EE901A 		vmov	r1, s15	@ int
 5095              		.loc 1 1215 0
 5096 011e 44F00204 		orr	r4, r4, #2
 5097              		.loc 1 1214 0
 5098 0122 90FBF1F1 		sdiv	r1, r0, r1
 5099              	.LVL388:
 5100              		.loc 1 1215 0
 5101 0126 0527     		movs	r7, #5
 5102 0128 881E     		subs	r0, r1, #2
 5103 012a 1C60     		str	r4, [r3]
 5104 012c D162     		str	r1, [r2, #44]
 5105 012e D962     		str	r1, [r3, #44]
 5106 0130 5F63     		str	r7, [r3, #52]
 5107 0132 1064     		str	r0, [r2, #64]
 5108 0134 9863     		str	r0, [r3, #56]
 5109 0136 1168     		ldr	r1, [r2]
 5110              	.LVL389:
 5111 0138 21F00201 		bic	r1, r1, #2
 5112 013c 1160     		str	r1, [r2]
 5113 013e 1A68     		ldr	r2, [r3]
 5114 0140 22F00202 		bic	r2, r2, #2
 5115 0144 1A60     		str	r2, [r3]
 5116              	.LVL390:
 5117 0146 0824     		movs	r4, #8
 5118              	.LBB127:
 5119              		.loc 1 1218 0
 5120 0148 B7EE089A 		vmov.f32	s18, #1.5e+0
 5121              	.LVL391:
 5122              	.L432:
 5123              	.LBB126:
 5124              		.loc 1 1220 0
 5125 014c 01A9     		add	r1, sp, #4
 5126 014e 1420     		movs	r0, #20
 5127 0150 B0EE680A 		vmov.f32	s0, s17
 5128 0154 FFF7FEFF 		bl	mcpwm_foc_measure_inductance
 5129              	.LVL392:
 5130              		.loc 1 1222 0
ARM GAS  C:\Users\euanm\AppData\Local\Temp\ccwBC4sF.s 			page 91


 5131 0158 DDED017A 		vldr.32	s15, [sp, #4]
 5132 015c B4EEE78A 		vcmpe.f32	s16, s15
 5133 0160 F1EE10FA 		vmrs	APSR_nzcv, FPSCR
 5134 0164 05D9     		bls	.L431
 5135              	.LBE126:
 5136              		.loc 1 1218 0
 5137 0166 013C     		subs	r4, r4, #1
 5138 0168 68EE898A 		vmul.f32	s17, s17, s18
 5139              	.LVL393:
 5140 016c EED1     		bne	.L432
 5141              	.LBE127:
 5142              		.loc 1 1217 0
 5143 016e DFED278A 		vldr.32	s17, .L440+40
 5144              	.LVL394:
 5145              	.L431:
 5146              		.loc 1 1228 0
 5147 0172 B0EE680A 		vmov.f32	s0, s17
 5148 0176 0021     		movs	r1, #0
 5149 0178 4FF4FA70 		mov	r0, #500
 5150 017c FFF7FEFF 		bl	mcpwm_foc_measure_inductance
 5151              	.LVL395:
 5152              		.loc 1 1230 0
 5153 0180 2B68     		ldr	r3, [r5]
 5154              		.loc 1 1235 0
 5155 0182 1A4A     		ldr	r2, .L440+8
 5156              		.loc 1 1228 0
 5157 0184 86ED000A 		vstr.32	s0, [r6]
 5158              		.loc 1 1230 0
 5159 0188 C3F89CA0 		str	r10, [r3, #156]	@ float
 5160              		.loc 1 1231 0
 5161 018c C3F89490 		str	r9, [r3, #148]	@ float
 5162              		.loc 1 1232 0
 5163 0190 C3F89880 		str	r8, [r3, #152]	@ float
 5164              		.loc 1 1234 0
 5165 0194 D3ED277A 		vldr.32	s15, [r3, #156]
 5166              		.loc 1 1235 0
 5167 0198 1168     		ldr	r1, [r2]
 5168 019a 184B     		ldr	r3, .L440+24
 5169              		.loc 1 1234 0
 5170 019c 1548     		ldr	r0, .L440+16
 5171              		.loc 1 1235 0
 5172 019e 41F00201 		orr	r1, r1, #2
 5173              		.loc 1 1234 0
 5174 01a2 FDEEE77A 		vcvt.s32.f32	s15, s15
 5175              		.loc 1 1235 0
 5176 01a6 1160     		str	r1, [r2]
 5177 01a8 1C68     		ldr	r4, [r3]
 5178              		.loc 1 1234 0
 5179 01aa 17EE901A 		vmov	r1, s15	@ int
 5180              		.loc 1 1235 0
 5181 01ae 44F00204 		orr	r4, r4, #2
 5182              		.loc 1 1234 0
 5183 01b2 90FBF1F1 		sdiv	r1, r0, r1
 5184              	.LVL396:
 5185              		.loc 1 1235 0
 5186 01b6 0525     		movs	r5, #5
 5187 01b8 881E     		subs	r0, r1, #2
ARM GAS  C:\Users\euanm\AppData\Local\Temp\ccwBC4sF.s 			page 92


 5188 01ba 1C60     		str	r4, [r3]
 5189 01bc D162     		str	r1, [r2, #44]
 5190 01be D962     		str	r1, [r3, #44]
 5191 01c0 5D63     		str	r5, [r3, #52]
 5192 01c2 1064     		str	r0, [r2, #64]
 5193 01c4 9863     		str	r0, [r3, #56]
 5194 01c6 1168     		ldr	r1, [r2]
 5195              	.LVL397:
 5196 01c8 21F00201 		bic	r1, r1, #2
 5197 01cc 1160     		str	r1, [r2]
 5198 01ce 1A68     		ldr	r2, [r3]
 5199              		.loc 1 1238 0
 5200 01d0 0120     		movs	r0, #1
 5201              	.LVL398:
 5202              		.loc 1 1235 0
 5203 01d2 22F00202 		bic	r2, r2, #2
 5204 01d6 1A60     		str	r2, [r3]
 5205              		.loc 1 1238 0
 5206 01d8 02B0     		add	sp, sp, #8
 5207              		.cfi_def_cfa_offset 48
 5208              		@ sp needed
 5209 01da BDEC048B 		vldm	sp!, {d8-d9}
 5210              		.cfi_restore 82
 5211              		.cfi_restore 83
 5212              		.cfi_restore 80
 5213              		.cfi_restore 81
 5214              		.cfi_def_cfa_offset 32
 5215              	.LVL399:
 5216 01de BDE8F087 		pop	{r4, r5, r6, r7, r8, r9, r10, pc}
 5217              	.LVL400:
 5218              	.L441:
 5219 01e2 00BF     		.align	2
 5220              	.L440:
 5221 01e4 00000000 		.word	.LANCHOR0
 5222 01e8 00401C46 		.word	1176256512
 5223 01ec 00000140 		.word	1073807360
 5224 01f0 0AD7233C 		.word	1008981770
 5225 01f4 007A030A 		.word	168000000
 5226 01f8 00002041 		.word	1092616192
 5227 01fc 00040140 		.word	1073808384
 5228 0200 0AD7233C 		.word	1008981770
 5229 0204 00803B45 		.word	1161527296
 5230 0208 0AD7A33C 		.word	1017370378
 5231 020c 00000000 		.word	0
 5232              		.cfi_endproc
 5233              	.LFE293:
 5234              		.size	mcpwm_foc_measure_res_ind, .-mcpwm_foc_measure_res_ind
 5235              		.section	.text.mcpwm_foc_hall_detect,"ax",%progbits
 5236              		.align	2
 5237              		.p2align 4,,15
 5238              		.global	mcpwm_foc_hall_detect
 5239              		.thumb
 5240              		.thumb_func
 5241              		.type	mcpwm_foc_hall_detect, %function
 5242              	mcpwm_foc_hall_detect:
 5243              	.LFB294:
 5244              		.loc 1 1253 0
ARM GAS  C:\Users\euanm\AppData\Local\Temp\ccwBC4sF.s 			page 93


 5245              		.cfi_startproc
 5246              		@ args = 0, pretend = 0, frame = 112
 5247              		@ frame_needed = 0, uses_anonymous_args = 0
 5248              	.LVL401:
 5249 0000 2DE9F04F 		push	{r4, r5, r6, r7, r8, r9, r10, fp, lr}
 5250              		.cfi_def_cfa_offset 36
 5251              		.cfi_offset 4, -36
 5252              		.cfi_offset 5, -32
 5253              		.cfi_offset 6, -28
 5254              		.cfi_offset 7, -24
 5255              		.cfi_offset 8, -20
 5256              		.cfi_offset 9, -16
 5257              		.cfi_offset 10, -12
 5258              		.cfi_offset 11, -8
 5259              		.cfi_offset 14, -4
 5260 0004 2DED048B 		vpush.64	{d8, d9}
 5261              		.cfi_def_cfa_offset 52
 5262              		.cfi_offset 80, -52
 5263              		.cfi_offset 81, -48
 5264              		.cfi_offset 82, -44
 5265              		.cfi_offset 83, -40
 5266 0008 9DB0     		sub	sp, sp, #116
 5267              		.cfi_def_cfa_offset 168
 5268              		.loc 1 1253 0
 5269 000a B0EE408A 		vmov.f32	s16, s0
 5270 000e 0190     		str	r0, [sp, #4]
 5271              		.loc 1 1254 0
 5272 0010 FFF7FEFF 		bl	mc_interface_lock
 5273              	.LVL402:
 5274              		.loc 1 1256 0
 5275 0014 9749     		ldr	r1, .L460
 5276              		.loc 1 1258 0
 5277 0016 DFED989A 		vldr.32	s19, .L460+4
 5278              		.loc 1 1257 0
 5279 001a DFF888A2 		ldr	r10, .L460+48
 5280              		.loc 1 1268 0
 5281 001e 974C     		ldr	r4, .L460+8
 5282              	.LBB128:
 5283              	.LBB129:
 5284              	.LBB130:
 5285              		.loc 1 1281 0
 5286 0020 9FED979A 		vldr.32	s18, .L460+12
 5287 0024 DFED978A 		vldr.32	s17, .L460+16
 5288              	.LBB131:
 5289              	.LBB132:
 5290              		.loc 1 2224 0
 5291 0028 974D     		ldr	r5, .L460+20
 5292 002a 984E     		ldr	r6, .L460+24
 5293              	.LBE132:
 5294              	.LBE131:
 5295              	.LBE130:
 5296              	.LBE129:
 5297              	.LBE128:
 5298              		.loc 1 1256 0
 5299 002c 0122     		movs	r2, #1
 5300 002e 0A70     		strb	r2, [r1]
 5301              		.loc 1 1258 0
ARM GAS  C:\Users\euanm\AppData\Local\Temp\ccwBC4sF.s 			page 94


 5302 0030 974A     		ldr	r2, .L460+28
 5303              		.loc 1 1257 0
 5304 0032 8AED008A 		vstr.32	s16, [r10]
 5305              		.loc 1 1258 0
 5306 0036 C2ED009A 		vstr.32	s19, [r2]
 5307              		.loc 1 1259 0
 5308 003a 964A     		ldr	r2, .L460+32
 5309 003c 0223     		movs	r3, #2
 5310 003e 1370     		strb	r3, [r2]
 5311              		.loc 1 1260 0
 5312 0040 954A     		ldr	r2, .L460+36
 5313 0042 1370     		strb	r3, [r2]
 5314              		.loc 1 1263 0
 5315 0044 FFF7FEFF 		bl	timeout_get_timeout_msec
 5316              	.LVL403:
 5317 0048 0090     		str	r0, [sp]
 5318              	.LVL404:
 5319              		.loc 1 1264 0
 5320 004a FFF7FEFF 		bl	timeout_get_brake_current
 5321              	.LVL405:
 5322              		.loc 1 1265 0
 5323 004e 4EF66020 		movw	r0, #60000
 5324              		.loc 1 1264 0
 5325 0052 B0EE408A 		vmov.f32	s16, s0
 5326              	.LVL406:
 5327              		.loc 1 1265 0
 5328 0056 B0EE690A 		vmov.f32	s0, s19
 5329              	.LVL407:
 5330 005a FFF7FEFF 		bl	timeout_configure
 5331              	.LVL408:
 5332              		.loc 1 1269 0
 5333 005e 42F21070 		movw	r0, #10000
 5334              		.loc 1 1268 0
 5335 0062 C4ED009A 		vstr.32	s19, [r4]
 5336              		.loc 1 1275 0
 5337 0066 0CAF     		add	r7, sp, #48
 5338              		.loc 1 1269 0
 5339 0068 FFF7FEFF 		bl	chThdSleep
 5340              	.LVL409:
 5341              		.loc 1 1274 0
 5342 006c 2022     		movs	r2, #32
 5343 006e 0021     		movs	r1, #0
 5344 0070 04A8     		add	r0, sp, #16
 5345 0072 FFF7FEFF 		bl	memset
 5346              	.LVL410:
 5347              		.loc 1 1275 0
 5348 0076 2022     		movs	r2, #32
 5349 0078 0021     		movs	r1, #0
 5350 007a 3846     		mov	r0, r7
 5351 007c FFF7FEFF 		bl	memset
 5352              	.LVL411:
 5353              		.loc 1 1276 0
 5354 0080 2022     		movs	r2, #32
 5355 0082 0021     		movs	r1, #0
 5356 0084 14A8     		add	r0, sp, #80
 5357 0086 FFF7FEFF 		bl	memset
 5358              	.LVL412:
ARM GAS  C:\Users\euanm\AppData\Local\Temp\ccwBC4sF.s 			page 95


 5359 008a 4FF0030B 		mov	fp, #3
 5360              	.LVL413:
 5361              	.L443:
 5362              		.loc 1 1253 0
 5363 008e 4FF00009 		mov	r9, #0
 5364              	.LVL414:
 5365              	.L444:
 5366              	.LBB143:
 5367              	.LBB142:
 5368              	.LBB139:
 5369              		.loc 1 1281 0 discriminator 3
 5370 0092 07EE909A 		vmov	s15, r9	@ int
 5371 0096 F8EEE77A 		vcvt.f32.s32	s15, s15
 5372              		.loc 1 1282 0 discriminator 3
 5373 009a 3220     		movs	r0, #50
 5374              		.loc 1 1281 0 discriminator 3
 5375 009c 67EE897A 		vmul.f32	s15, s15, s18
 5376              	.LBE139:
 5377              		.loc 1 1280 0 discriminator 3
 5378 00a0 09F10109 		add	r9, r9, #1
 5379              	.LVL415:
 5380              	.LBB140:
 5381              		.loc 1 1281 0 discriminator 3
 5382 00a4 87EEA87A 		vdiv.f32	s14, s15, s17
 5383 00a8 84ED007A 		vstr.32	s14, [r4]
 5384              		.loc 1 1282 0 discriminator 3
 5385 00ac FFF7FEFF 		bl	chThdSleep
 5386              	.LVL416:
 5387              	.LBB136:
 5388              	.LBB133:
 5389              		.loc 1 2224 0 discriminator 3
 5390 00b0 2A69     		ldr	r2, [r5, #16]
 5391 00b2 2969     		ldr	r1, [r5, #16]
 5392 00b4 3369     		ldr	r3, [r6, #16]
 5393              	.LBE133:
 5394              	.LBE136:
 5395              		.loc 1 1286 0 discriminator 3
 5396 00b6 94ED000A 		vldr.32	s0, [r4]
 5397              	.LBB137:
 5398              	.LBB134:
 5399              		.loc 1 2224 0 discriminator 3
 5400 00ba 4FEA9118 		lsr	r8, r1, #6
 5401 00be 5B0A     		lsrs	r3, r3, #9
 5402 00c0 08F00208 		and	r8, r8, #2
 5403 00c4 03F00403 		and	r3, r3, #4
 5404 00c8 C2F38012 		ubfx	r2, r2, #6, #1
 5405 00cc 48EA0303 		orr	r3, r8, r3
 5406              	.LBE134:
 5407              	.LBE137:
 5408              		.loc 1 1286 0 discriminator 3
 5409 00d0 03A9     		add	r1, sp, #12
 5410 00d2 02A8     		add	r0, sp, #8
 5411              	.LBB138:
 5412              	.LBB135:
 5413              		.loc 1 2224 0 discriminator 3
 5414 00d4 43EA0208 		orr	r8, r3, r2
 5415              	.LBE135:
ARM GAS  C:\Users\euanm\AppData\Local\Temp\ccwBC4sF.s 			page 96


 5416              	.LBE138:
 5417              		.loc 1 1286 0 discriminator 3
 5418 00d8 FFF7FEFF 		bl	sincosf
 5419              	.LVL417:
 5420              		.loc 1 1287 0 discriminator 3
 5421 00dc 1CAB     		add	r3, sp, #112
 5422 00de 03EB8803 		add	r3, r3, r8, lsl #2
 5423 00e2 13ED186A 		vldr.32	s12, [r3, #-96]
 5424              		.loc 1 1288 0 discriminator 3
 5425 00e6 13ED107A 		vldr.32	s14, [r3, #-64]
 5426              		.loc 1 1287 0 discriminator 3
 5427 00ea DDED026A 		vldr.32	s13, [sp, #8]
 5428              		.loc 1 1288 0 discriminator 3
 5429 00ee DDED037A 		vldr.32	s15, [sp, #12]
 5430              		.loc 1 1289 0 discriminator 3
 5431 00f2 53F8202C 		ldr	r2, [r3, #-32]
 5432              		.loc 1 1287 0 discriminator 3
 5433 00f6 76EE266A 		vadd.f32	s13, s12, s13
 5434              		.loc 1 1288 0 discriminator 3
 5435 00fa 77EE277A 		vadd.f32	s15, s14, s15
 5436              		.loc 1 1289 0 discriminator 3
 5437 00fe 0132     		adds	r2, r2, #1
 5438              	.LBE140:
 5439              		.loc 1 1280 0 discriminator 3
 5440 0100 B9F5B47F 		cmp	r9, #360
 5441              	.LBB141:
 5442              		.loc 1 1287 0 discriminator 3
 5443 0104 43ED186A 		vstr.32	s13, [r3, #-96]
 5444              		.loc 1 1288 0 discriminator 3
 5445 0108 43ED107A 		vstr.32	s15, [r3, #-64]
 5446              		.loc 1 1289 0 discriminator 3
 5447 010c 43F8202C 		str	r2, [r3, #-32]
 5448              	.LBE141:
 5449              		.loc 1 1280 0 discriminator 3
 5450 0110 BFD1     		bne	.L444
 5451              	.LVL418:
 5452              	.LBE142:
 5453              		.loc 1 1279 0 discriminator 2
 5454 0112 BBF1010B 		subs	fp, fp, #1
 5455              	.LVL419:
 5456 0116 BAD1     		bne	.L443
 5457              	.LBE143:
 5458              	.LBB144:
 5459              	.LBB145:
 5460              	.LBB146:
 5461              		.loc 1 1296 0
 5462 0118 9FED599A 		vldr.32	s18, .L460+12
 5463 011c DFED598A 		vldr.32	s17, .L460+16
 5464              	.LBB147:
 5465              	.LBB148:
 5466              		.loc 1 2224 0
 5467 0120 594D     		ldr	r5, .L460+20
 5468 0122 5A4E     		ldr	r6, .L460+24
 5469              	.LBE148:
 5470              	.LBE147:
 5471              	.LBE146:
 5472              	.LBE145:
ARM GAS  C:\Users\euanm\AppData\Local\Temp\ccwBC4sF.s 			page 97


 5473              	.LBE144:
 5474              	.LBB159:
 5475 0124 4FF0030B 		mov	fp, #3
 5476              	.LVL420:
 5477              	.L447:
 5478              	.LBE159:
 5479              		.loc 1 1276 0
 5480 0128 4FF4B479 		mov	r9, #360
 5481              	.LVL421:
 5482              	.L446:
 5483              	.LBB160:
 5484              	.LBB158:
 5485              	.LBB155:
 5486              		.loc 1 1296 0 discriminator 3
 5487 012c 07EE909A 		vmov	s15, r9	@ int
 5488 0130 F8EEE77A 		vcvt.f32.s32	s15, s15
 5489              		.loc 1 1297 0 discriminator 3
 5490 0134 3220     		movs	r0, #50
 5491              		.loc 1 1296 0 discriminator 3
 5492 0136 67EE897A 		vmul.f32	s15, s15, s18
 5493              	.LBE155:
 5494              		.loc 1 1295 0 discriminator 3
 5495 013a 09F1FF39 		add	r9, r9, #-1
 5496              	.LVL422:
 5497              	.LBB156:
 5498              		.loc 1 1296 0 discriminator 3
 5499 013e 87EEA87A 		vdiv.f32	s14, s15, s17
 5500 0142 84ED007A 		vstr.32	s14, [r4]
 5501              		.loc 1 1297 0 discriminator 3
 5502 0146 FFF7FEFF 		bl	chThdSleep
 5503              	.LVL423:
 5504              	.LBB152:
 5505              	.LBB149:
 5506              		.loc 1 2224 0 discriminator 3
 5507 014a 2A69     		ldr	r2, [r5, #16]
 5508 014c 2969     		ldr	r1, [r5, #16]
 5509 014e 3369     		ldr	r3, [r6, #16]
 5510              	.LBE149:
 5511              	.LBE152:
 5512              		.loc 1 1301 0 discriminator 3
 5513 0150 94ED000A 		vldr.32	s0, [r4]
 5514              	.LBB153:
 5515              	.LBB150:
 5516              		.loc 1 2224 0 discriminator 3
 5517 0154 4FEA9118 		lsr	r8, r1, #6
 5518 0158 5B0A     		lsrs	r3, r3, #9
 5519 015a 08F00208 		and	r8, r8, #2
 5520 015e 03F00403 		and	r3, r3, #4
 5521 0162 C2F38012 		ubfx	r2, r2, #6, #1
 5522 0166 48EA0303 		orr	r3, r8, r3
 5523              	.LBE150:
 5524              	.LBE153:
 5525              		.loc 1 1301 0 discriminator 3
 5526 016a 03A9     		add	r1, sp, #12
 5527 016c 02A8     		add	r0, sp, #8
 5528              	.LBB154:
 5529              	.LBB151:
ARM GAS  C:\Users\euanm\AppData\Local\Temp\ccwBC4sF.s 			page 98


 5530              		.loc 1 2224 0 discriminator 3
 5531 016e 43EA0208 		orr	r8, r3, r2
 5532              	.LBE151:
 5533              	.LBE154:
 5534              		.loc 1 1301 0 discriminator 3
 5535 0172 FFF7FEFF 		bl	sincosf
 5536              	.LVL424:
 5537              		.loc 1 1302 0 discriminator 3
 5538 0176 1CAB     		add	r3, sp, #112
 5539 0178 03EB8803 		add	r3, r3, r8, lsl #2
 5540 017c 13ED186A 		vldr.32	s12, [r3, #-96]
 5541              		.loc 1 1303 0 discriminator 3
 5542 0180 13ED107A 		vldr.32	s14, [r3, #-64]
 5543              		.loc 1 1302 0 discriminator 3
 5544 0184 DDED026A 		vldr.32	s13, [sp, #8]
 5545              		.loc 1 1303 0 discriminator 3
 5546 0188 DDED037A 		vldr.32	s15, [sp, #12]
 5547              		.loc 1 1304 0 discriminator 3
 5548 018c 53F8202C 		ldr	r2, [r3, #-32]
 5549              		.loc 1 1302 0 discriminator 3
 5550 0190 76EE266A 		vadd.f32	s13, s12, s13
 5551              		.loc 1 1303 0 discriminator 3
 5552 0194 77EE277A 		vadd.f32	s15, s14, s15
 5553              		.loc 1 1304 0 discriminator 3
 5554 0198 0132     		adds	r2, r2, #1
 5555              	.LBE156:
 5556              		.loc 1 1295 0 discriminator 3
 5557 019a B9F1FF3F 		cmp	r9, #-1
 5558              	.LBB157:
 5559              		.loc 1 1302 0 discriminator 3
 5560 019e 43ED186A 		vstr.32	s13, [r3, #-96]
 5561              		.loc 1 1303 0 discriminator 3
 5562 01a2 43ED107A 		vstr.32	s15, [r3, #-64]
 5563              		.loc 1 1304 0 discriminator 3
 5564 01a6 43F8202C 		str	r2, [r3, #-32]
 5565              	.LBE157:
 5566              		.loc 1 1295 0 discriminator 3
 5567 01aa BFD1     		bne	.L446
 5568              	.LVL425:
 5569              	.LBE158:
 5570              		.loc 1 1294 0 discriminator 2
 5571 01ac BBF1010B 		subs	fp, fp, #1
 5572              	.LVL426:
 5573 01b0 BAD1     		bne	.L447
 5574              	.LBE160:
 5575              		.loc 1 1309 0
 5576 01b2 3749     		ldr	r1, .L460+28
 5577              	.LBB161:
 5578              	.LBB162:
 5579              		.loc 1 1321 0
 5580 01b4 DFED339A 		vldr.32	s19, .L460+16
 5581 01b8 9FED319A 		vldr.32	s18, .L460+12
 5582              		.loc 1 1323 0
 5583 01bc DFED378A 		vldr.32	s17, .L460+40
 5584              	.LBE162:
 5585              	.LBE161:
 5586              		.loc 1 1308 0
ARM GAS  C:\Users\euanm\AppData\Local\Temp\ccwBC4sF.s 			page 99


 5587 01c0 0023     		movs	r3, #0
 5588 01c2 CAF80030 		str	r3, [r10]	@ float
 5589              		.loc 1 1309 0
 5590 01c6 0B60     		str	r3, [r1]	@ float
 5591              		.loc 1 1310 0
 5592 01c8 2A4B     		ldr	r3, .L460
 5593 01ca 83F800B0 		strb	fp, [r3]
 5594              		.loc 1 1311 0
 5595 01ce 314B     		ldr	r3, .L460+32
 5596 01d0 0522     		movs	r2, #5
 5597 01d2 1A70     		strb	r2, [r3]
 5598              		.loc 1 1312 0
 5599 01d4 304B     		ldr	r3, .L460+36
 5600 01d6 83F800B0 		strb	fp, [r3]
 5601              		.loc 1 1313 0
 5602 01da FFF7FEFF 		bl	stop_pwm_hw
 5603              	.LVL427:
 5604              		.loc 1 1316 0
 5605 01de B0EE480A 		vmov.f32	s0, s16
 5606 01e2 0098     		ldr	r0, [sp]
 5607              	.LBB166:
 5608              	.LBB163:
 5609              		.loc 1 1323 0
 5610 01e4 9FED2E8A 		vldr.32	s16, .L460+44
 5611              	.LVL428:
 5612              	.LBE163:
 5613              	.LBE166:
 5614              		.loc 1 1316 0
 5615 01e8 FFF7FEFF 		bl	timeout_configure
 5616              	.LVL429:
 5617 01ec 04AC     		add	r4, sp, #16
 5618 01ee 019D     		ldr	r5, [sp, #4]
 5619 01f0 0DF14C08 		add	r8, sp, #76
 5620 01f4 3E46     		mov	r6, r7
 5621              	.LBB167:
 5622              		.loc 1 1325 0
 5623 01f6 4FF0FF09 		mov	r9, #255
 5624              	.LVL430:
 5625 01fa 0AE0     		b	.L451
 5626              	.LVL431:
 5627              	.L449:
 5628 01fc 0434     		adds	r4, r4, #4
 5629              		.loc 1 1319 0
 5630 01fe BC42     		cmp	r4, r7
 5631              		.loc 1 1325 0
 5632 0200 85F80090 		strb	r9, [r5]
 5633              		.loc 1 1326 0
 5634 0204 0BF1010B 		add	fp, fp, #1
 5635              	.LVL432:
 5636 0208 06F10406 		add	r6, r6, #4
 5637 020c 05F10105 		add	r5, r5, #1
 5638              	.LVL433:
 5639              		.loc 1 1319 0
 5640 0210 23D0     		beq	.L459
 5641              	.LVL434:
 5642              	.L451:
 5643              		.loc 1 1320 0
ARM GAS  C:\Users\euanm\AppData\Local\Temp\ccwBC4sF.s 			page 100


 5644 0212 58F8043F 		ldr	r3, [r8, #4]!
 5645 0216 1E2B     		cmp	r3, #30
 5646 0218 F0DD     		ble	.L449
 5647              	.LBB164:
 5648              		.loc 1 1321 0
 5649 021a D6ED000A 		vldr.32	s1, [r6]
 5650 021e 94ED000A 		vldr.32	s0, [r4]
 5651 0222 FFF7FEFF 		bl	atan2f
 5652              	.LVL435:
 5653 0226 20EE290A 		vmul.f32	s0, s0, s19
 5654              		.loc 1 1322 0
 5655 022a 03A8     		add	r0, sp, #12
 5656              		.loc 1 1321 0
 5657 022c C0EE097A 		vdiv.f32	s15, s0, s18
 5658 0230 0434     		adds	r4, r4, #4
 5659 0232 0436     		adds	r6, r6, #4
 5660 0234 0135     		adds	r5, r5, #1
 5661              	.LVL436:
 5662 0236 CDED037A 		vstr.32	s15, [sp, #12]
 5663              		.loc 1 1322 0
 5664 023a FFF7FEFF 		bl	utils_norm_angle
 5665              	.LVL437:
 5666              		.loc 1 1323 0
 5667 023e 9DED037A 		vldr.32	s14, [sp, #12]
 5668 0242 27EE287A 		vmul.f32	s14, s14, s17
 5669              	.LBE164:
 5670              		.loc 1 1319 0
 5671 0246 BC42     		cmp	r4, r7
 5672              	.LBB165:
 5673              		.loc 1 1323 0
 5674 0248 C7EE087A 		vdiv.f32	s15, s14, s16
 5675 024c FCEEE77A 		vcvt.u32.f32	s15, s15
 5676 0250 17EE903A 		vmov	r3, s15	@ int
 5677 0254 05F8013C 		strb	r3, [r5, #-1]
 5678              	.LVL438:
 5679              	.LBE165:
 5680              		.loc 1 1319 0
 5681 0258 DBD1     		bne	.L451
 5682              	.L459:
 5683              	.LBE167:
 5684              		.loc 1 1330 0
 5685 025a FFF7FEFF 		bl	mc_interface_unlock
 5686              	.LVL439:
 5687              		.loc 1 1333 0
 5688 025e ABF10200 		sub	r0, fp, #2
 5689 0262 B0FA80F0 		clz	r0, r0
 5690 0266 4009     		lsrs	r0, r0, #5
 5691 0268 1DB0     		add	sp, sp, #116
 5692              		.cfi_def_cfa_offset 52
 5693              	.LVL440:
 5694              		@ sp needed
 5695 026a BDEC048B 		vldm	sp!, {d8-d9}
 5696              		.cfi_restore 82
 5697              		.cfi_restore 83
 5698              		.cfi_restore 80
 5699              		.cfi_restore 81
 5700              		.cfi_def_cfa_offset 36
ARM GAS  C:\Users\euanm\AppData\Local\Temp\ccwBC4sF.s 			page 101


 5701 026e BDE8F08F 		pop	{r4, r5, r6, r7, r8, r9, r10, fp, pc}
 5702              	.LVL441:
 5703              	.L461:
 5704 0272 00BF     		.align	2
 5705              	.L460:
 5706 0274 00000000 		.word	.LANCHOR27
 5707 0278 00000000 		.word	0
 5708 027c 00000000 		.word	.LANCHOR28
 5709 0280 DB0F4940 		.word	1078530011
 5710 0284 00003443 		.word	1127481344
 5711 0288 00040240 		.word	1073873920
 5712 028c 00080240 		.word	1073874944
 5713 0290 00000000 		.word	.LANCHOR21
 5714 0294 00000000 		.word	.LANCHOR14
 5715 0298 00000000 		.word	.LANCHOR7
 5716 029c 00004843 		.word	1128792064
 5717 02a0 0000B443 		.word	1135869952
 5718 02a4 00000000 		.word	.LANCHOR30
 5719              		.cfi_endproc
 5720              	.LFE294:
 5721              		.size	mcpwm_foc_hall_detect, .-mcpwm_foc_hall_detect
 5722              		.section	.text.mcpwm_foc_print_state,"ax",%progbits
 5723              		.align	2
 5724              		.p2align 4,,15
 5725              		.global	mcpwm_foc_print_state
 5726              		.thumb
 5727              		.thumb_func
 5728              		.type	mcpwm_foc_print_state, %function
 5729              	mcpwm_foc_print_state:
 5730              	.LFB295:
 5731              		.loc 1 1335 0
 5732              		.cfi_startproc
 5733              		@ args = 0, pretend = 0, frame = 0
 5734              		@ frame_needed = 0, uses_anonymous_args = 0
 5735 0000 10B5     		push	{r4, lr}
 5736              		.cfi_def_cfa_offset 8
 5737              		.cfi_offset 4, -8
 5738              		.cfi_offset 14, -4
 5739              		.loc 1 1336 0
 5740 0002 4A4C     		ldr	r4, .L464
 5741 0004 A06B     		ldr	r0, [r4, #56]	@ float
 5742 0006 FFF7FEFF 		bl	__aeabi_f2d
 5743              	.LVL442:
 5744 000a 0246     		mov	r2, r0
 5745 000c 0B46     		mov	r3, r1
 5746 000e 4848     		ldr	r0, .L464+4
 5747 0010 FFF7FEFF 		bl	commands_printf
 5748              	.LVL443:
 5749              		.loc 1 1337 0
 5750 0014 E06B     		ldr	r0, [r4, #60]	@ float
 5751 0016 FFF7FEFF 		bl	__aeabi_f2d
 5752              	.LVL444:
 5753 001a 0246     		mov	r2, r0
 5754 001c 0B46     		mov	r3, r1
 5755 001e 4548     		ldr	r0, .L464+8
 5756 0020 FFF7FEFF 		bl	commands_printf
 5757              	.LVL445:
ARM GAS  C:\Users\euanm\AppData\Local\Temp\ccwBC4sF.s 			page 102


 5758              		.loc 1 1338 0
 5759 0024 E068     		ldr	r0, [r4, #12]	@ float
 5760 0026 FFF7FEFF 		bl	__aeabi_f2d
 5761              	.LVL446:
 5762 002a 0246     		mov	r2, r0
 5763 002c 0B46     		mov	r3, r1
 5764 002e 4248     		ldr	r0, .L464+12
 5765 0030 FFF7FEFF 		bl	commands_printf
 5766              	.LVL447:
 5767              		.loc 1 1339 0
 5768 0034 206D     		ldr	r0, [r4, #80]	@ float
 5769 0036 FFF7FEFF 		bl	__aeabi_f2d
 5770              	.LVL448:
 5771 003a 0246     		mov	r2, r0
 5772 003c 0B46     		mov	r3, r1
 5773 003e 3F48     		ldr	r0, .L464+16
 5774 0040 FFF7FEFF 		bl	commands_printf
 5775              	.LVL449:
 5776              		.loc 1 1340 0
 5777 0044 606D     		ldr	r0, [r4, #84]	@ float
 5778 0046 FFF7FEFF 		bl	__aeabi_f2d
 5779              	.LVL450:
 5780 004a 0246     		mov	r2, r0
 5781 004c 0B46     		mov	r3, r1
 5782 004e 3C48     		ldr	r0, .L464+20
 5783 0050 FFF7FEFF 		bl	commands_printf
 5784              	.LVL451:
 5785              		.loc 1 1341 0
 5786 0054 2069     		ldr	r0, [r4, #16]	@ float
 5787 0056 FFF7FEFF 		bl	__aeabi_f2d
 5788              	.LVL452:
 5789 005a 0246     		mov	r2, r0
 5790 005c 0B46     		mov	r3, r1
 5791 005e 3948     		ldr	r0, .L464+24
 5792 0060 FFF7FEFF 		bl	commands_printf
 5793              	.LVL453:
 5794              		.loc 1 1342 0
 5795 0064 206B     		ldr	r0, [r4, #48]	@ float
 5796 0066 FFF7FEFF 		bl	__aeabi_f2d
 5797              	.LVL454:
 5798 006a 0246     		mov	r2, r0
 5799 006c 0B46     		mov	r3, r1
 5800 006e 3648     		ldr	r0, .L464+28
 5801 0070 FFF7FEFF 		bl	commands_printf
 5802              	.LVL455:
 5803              		.loc 1 1343 0
 5804 0074 606B     		ldr	r0, [r4, #52]	@ float
 5805 0076 FFF7FEFF 		bl	__aeabi_f2d
 5806              	.LVL456:
 5807 007a 0246     		mov	r2, r0
 5808 007c 0B46     		mov	r3, r1
 5809 007e 3348     		ldr	r0, .L464+32
 5810 0080 FFF7FEFF 		bl	commands_printf
 5811              	.LVL457:
 5812              		.loc 1 1344 0
 5813 0084 206C     		ldr	r0, [r4, #64]	@ float
 5814 0086 FFF7FEFF 		bl	__aeabi_f2d
ARM GAS  C:\Users\euanm\AppData\Local\Temp\ccwBC4sF.s 			page 103


 5815              	.LVL458:
 5816 008a 0246     		mov	r2, r0
 5817 008c 0B46     		mov	r3, r1
 5818 008e 3048     		ldr	r0, .L464+36
 5819 0090 FFF7FEFF 		bl	commands_printf
 5820              	.LVL459:
 5821              		.loc 1 1345 0
 5822 0094 606C     		ldr	r0, [r4, #68]	@ float
 5823 0096 FFF7FEFF 		bl	__aeabi_f2d
 5824              	.LVL460:
 5825 009a 0246     		mov	r2, r0
 5826 009c 0B46     		mov	r3, r1
 5827 009e 2D48     		ldr	r0, .L464+40
 5828 00a0 FFF7FEFF 		bl	commands_printf
 5829              	.LVL461:
 5830              		.loc 1 1346 0
 5831 00a4 A06C     		ldr	r0, [r4, #72]	@ float
 5832 00a6 FFF7FEFF 		bl	__aeabi_f2d
 5833              	.LVL462:
 5834 00aa 0246     		mov	r2, r0
 5835 00ac 0B46     		mov	r3, r1
 5836 00ae 2A48     		ldr	r0, .L464+44
 5837 00b0 FFF7FEFF 		bl	commands_printf
 5838              	.LVL463:
 5839              		.loc 1 1347 0
 5840 00b4 E06C     		ldr	r0, [r4, #76]	@ float
 5841 00b6 FFF7FEFF 		bl	__aeabi_f2d
 5842              	.LVL464:
 5843 00ba 0246     		mov	r2, r0
 5844 00bc 0B46     		mov	r3, r1
 5845 00be 2748     		ldr	r0, .L464+48
 5846 00c0 FFF7FEFF 		bl	commands_printf
 5847              	.LVL465:
 5848              		.loc 1 1348 0
 5849 00c4 2068     		ldr	r0, [r4]	@ float
 5850 00c6 FFF7FEFF 		bl	__aeabi_f2d
 5851              	.LVL466:
 5852 00ca 0246     		mov	r2, r0
 5853 00cc 0B46     		mov	r3, r1
 5854 00ce 2448     		ldr	r0, .L464+52
 5855 00d0 FFF7FEFF 		bl	commands_printf
 5856              	.LVL467:
 5857              		.loc 1 1349 0
 5858 00d4 6068     		ldr	r0, [r4, #4]	@ float
 5859 00d6 FFF7FEFF 		bl	__aeabi_f2d
 5860              	.LVL468:
 5861 00da 0246     		mov	r2, r0
 5862 00dc 0B46     		mov	r3, r1
 5863 00de 2148     		ldr	r0, .L464+56
 5864 00e0 FFF7FEFF 		bl	commands_printf
 5865              	.LVL469:
 5866              		.loc 1 1350 0
 5867 00e4 E069     		ldr	r0, [r4, #28]	@ float
 5868 00e6 FFF7FEFF 		bl	__aeabi_f2d
 5869              	.LVL470:
 5870 00ea 0246     		mov	r2, r0
 5871 00ec 0B46     		mov	r3, r1
ARM GAS  C:\Users\euanm\AppData\Local\Temp\ccwBC4sF.s 			page 104


 5872 00ee 1E48     		ldr	r0, .L464+60
 5873 00f0 FFF7FEFF 		bl	commands_printf
 5874              	.LVL471:
 5875              		.loc 1 1351 0
 5876 00f4 206A     		ldr	r0, [r4, #32]	@ float
 5877 00f6 FFF7FEFF 		bl	__aeabi_f2d
 5878              	.LVL472:
 5879 00fa 0246     		mov	r2, r0
 5880 00fc 0B46     		mov	r3, r1
 5881 00fe 1B48     		ldr	r0, .L464+64
 5882 0100 FFF7FEFF 		bl	commands_printf
 5883              	.LVL473:
 5884              		.loc 1 1352 0
 5885 0104 1A4B     		ldr	r3, .L464+68
 5886 0106 1868     		ldr	r0, [r3]	@ float
 5887 0108 FFF7FEFF 		bl	__aeabi_f2d
 5888              	.LVL474:
 5889 010c 0246     		mov	r2, r0
 5890 010e 0B46     		mov	r3, r1
 5891 0110 1848     		ldr	r0, .L464+72
 5892 0112 FFF7FEFF 		bl	commands_printf
 5893              	.LVL475:
 5894              		.loc 1 1353 0
 5895 0116 184B     		ldr	r3, .L464+76
 5896 0118 1868     		ldr	r0, [r3]	@ float
 5897 011a FFF7FEFF 		bl	__aeabi_f2d
 5898              	.LVL476:
 5899              		.loc 1 1354 0
 5900 011e BDE81040 		pop	{r4, lr}
 5901              		.cfi_restore 14
 5902              		.cfi_restore 4
 5903              		.cfi_def_cfa_offset 0
 5904              		.loc 1 1353 0
 5905 0122 0246     		mov	r2, r0
 5906 0124 0B46     		mov	r3, r1
 5907 0126 1548     		ldr	r0, .L464+80
 5908 0128 FFF7FEBF 		b	commands_printf
 5909              	.LVL477:
 5910              	.L465:
 5911              		.align	2
 5912              	.L464:
 5913 012c 00000000 		.word	.LANCHOR10
 5914 0130 80000000 		.word	.LC8
 5915 0134 94000000 		.word	.LC9
 5916 0138 A8000000 		.word	.LC10
 5917 013c BC000000 		.word	.LC11
 5918 0140 D0000000 		.word	.LC12
 5919 0144 E4000000 		.word	.LC13
 5920 0148 F8000000 		.word	.LC14
 5921 014c 0C010000 		.word	.LC15
 5922 0150 20010000 		.word	.LC16
 5923 0154 34010000 		.word	.LC17
 5924 0158 48010000 		.word	.LC18
 5925 015c 5C010000 		.word	.LC19
 5926 0160 70010000 		.word	.LC20
 5927 0164 84010000 		.word	.LC21
 5928 0168 98010000 		.word	.LC22
ARM GAS  C:\Users\euanm\AppData\Local\Temp\ccwBC4sF.s 			page 105


 5929 016c AC010000 		.word	.LC23
 5930 0170 00000000 		.word	.LANCHOR33
 5931 0174 C0010000 		.word	.LC24
 5932 0178 00000000 		.word	.LANCHOR34
 5933 017c D4010000 		.word	.LC25
 5934              		.cfi_endproc
 5935              	.LFE295:
 5936              		.size	mcpwm_foc_print_state, .-mcpwm_foc_print_state
 5937              		.section	.text.mcpwm_foc_get_last_inj_adc_isr_duration,"ax",%progbits
 5938              		.align	2
 5939              		.p2align 4,,15
 5940              		.global	mcpwm_foc_get_last_inj_adc_isr_duration
 5941              		.thumb
 5942              		.thumb_func
 5943              		.type	mcpwm_foc_get_last_inj_adc_isr_duration, %function
 5944              	mcpwm_foc_get_last_inj_adc_isr_duration:
 5945              	.LFB296:
 5946              		.loc 1 1356 0
 5947              		.cfi_startproc
 5948              		@ args = 0, pretend = 0, frame = 0
 5949              		@ frame_needed = 0, uses_anonymous_args = 0
 5950              		@ link register save eliminated.
 5951              		.loc 1 1357 0
 5952 0000 014B     		ldr	r3, .L467
 5953 0002 93ED000A 		vldr.32	s0, [r3]
 5954              		.loc 1 1358 0
 5955 0006 7047     		bx	lr
 5956              	.L468:
 5957              		.align	2
 5958              	.L467:
 5959 0008 00000000 		.word	.LANCHOR38
 5960              		.cfi_endproc
 5961              	.LFE296:
 5962              		.size	mcpwm_foc_get_last_inj_adc_isr_duration, .-mcpwm_foc_get_last_inj_adc_isr_duration
 5963              		.section	.text.observer_update,"ax",%progbits
 5964              		.align	2
 5965              		.p2align 4,,15
 5966              		.global	observer_update
 5967              		.thumb
 5968              		.thumb_func
 5969              		.type	observer_update, %function
 5970              	observer_update:
 5971              	.LFB300:
 5972              		.loc 1 1803 0
 5973              		.cfi_startproc
 5974              		@ args = 0, pretend = 0, frame = 0
 5975              		@ frame_needed = 0, uses_anonymous_args = 0
 5976              	.LVL478:
 5977              		.loc 1 1805 0
 5978 0000 464B     		ldr	r3, .L475
 5979              		.loc 1 1822 0
 5980 0002 DFED473A 		vldr.32	s7, .L475+4
 5981              		.loc 1 1805 0
 5982 0006 1B68     		ldr	r3, [r3]
 5983              		.loc 1 1803 0
 5984 0008 10B5     		push	{r4, lr}
 5985              		.cfi_def_cfa_offset 8
ARM GAS  C:\Users\euanm\AppData\Local\Temp\ccwBC4sF.s 			page 106


 5986              		.cfi_offset 4, -8
 5987              		.cfi_offset 14, -4
 5988              		.loc 1 1805 0
 5989 000a D3ED2C6A 		vldr.32	s13, [r3, #176]
 5990 000e B7EE086A 		vmov.f32	s12, #1.5e+0
 5991 0012 66EE866A 		vmul.f32	s13, s13, s12
 5992              	.LVL479:
 5993              		.loc 1 1803 0
 5994 0016 2DED028B 		vpush.64	{d8}
 5995              		.cfi_def_cfa_offset 16
 5996              		.cfi_offset 80, -16
 5997              		.cfi_offset 81, -12
 5998              		.loc 1 1811 0
 5999 001a 66EEA14A 		vmul.f32	s9, s13, s3
 6000              		.loc 1 1806 0
 6001 001e D3ED2D8A 		vldr.32	s17, [r3, #180]
 6002              	.LVL480:
 6003              		.loc 1 1807 0
 6004 0022 93ED2F5A 		vldr.32	s10, [r3, #188]
 6005              	.LVL481:
 6006              		.loc 1 1808 0
 6007 0026 93ED2E8A 		vldr.32	s16, [r3, #184]
 6008              	.LVL482:
 6009              		.loc 1 1813 0
 6010 002a 90ED003A 		vldr.32	s6, [r0]
 6011 002e 90ED004A 		vldr.32	s8, [r0]
 6012 0032 D1ED007A 		vldr.32	s15, [r1]
 6013 0036 D1ED002A 		vldr.32	s5, [r1]
 6014              		.loc 1 1817 0
 6015 003a D0ED005A 		vldr.32	s11, [r0]
 6016              		.loc 1 1810 0
 6017 003e 66EE816A 		vmul.f32	s13, s13, s2
 6018              	.LVL483:
 6019              		.loc 1 1813 0
 6020 0042 37EEE47A 		vsub.f32	s14, s15, s9
 6021 0046 72EEE47A 		vsub.f32	s15, s5, s9
 6022 004a 34EE664A 		vsub.f32	s8, s8, s13
 6023 004e 67EE277A 		vmul.f32	s15, s14, s15
 6024 0052 33EE663A 		vsub.f32	s6, s6, s13
 6025              		.loc 1 1817 0
 6026 0056 26EE686A 		vnmul.f32	s12, s12, s17
 6027              		.loc 1 1813 0
 6028 005a E3EE047A 		vfma.f32	s15, s6, s8
 6029              		.loc 1 1803 0
 6030 005e 1446     		mov	r4, r2
 6031              		.loc 1 1817 0
 6032 0060 B6EE007A 		vmov.f32	s14, #5.0e-1
 6033 0064 25EE075A 		vmul.f32	s10, s10, s14
 6034              	.LVL484:
 6035              		.loc 1 1813 0
 6036 0068 D8EE087A 		vfnms.f32	s15, s16, s16
 6037              	.LVL485:
 6038              		.loc 1 1819 0
 6039 006c A1EE060A 		vfma.f32	s0, s2, s12
 6040              	.LVL486:
 6041 0070 75EEE65A 		vsub.f32	s11, s11, s13
 6042              	.LVL487:
ARM GAS  C:\Users\euanm\AppData\Local\Temp\ccwBC4sF.s 			page 107


 6043              		.loc 1 1818 0
 6044 0074 91ED007A 		vldr.32	s14, [r1]
 6045              	.LVL488:
 6046              		.loc 1 1819 0
 6047 0078 90ED004A 		vldr.32	s8, [r0]
 6048 007c 65EE855A 		vmul.f32	s11, s11, s10
 6049              		.loc 1 1820 0
 6050 0080 E1EE860A 		vfma.f32	s1, s3, s12
 6051              	.LVL489:
 6052              		.loc 1 1819 0
 6053 0084 A7EEA50A 		vfma.f32	s0, s15, s11
 6054              		.loc 1 1820 0
 6055 0088 37EE647A 		vsub.f32	s14, s14, s9
 6056              	.LVL490:
 6057              		.loc 1 1819 0
 6058 008c A0EE024A 		vfma.f32	s8, s0, s4
 6059              		.loc 1 1820 0
 6060 0090 27EE057A 		vmul.f32	s14, s14, s10
 6061              		.loc 1 1819 0
 6062 0094 80ED004A 		vstr.32	s8, [r0]
 6063              		.loc 1 1820 0
 6064 0098 E7EE870A 		vfma.f32	s1, s15, s14
 6065 009c D1ED007A 		vldr.32	s15, [r1]
 6066              	.LVL491:
 6067 00a0 E0EE827A 		vfma.f32	s15, s1, s4
 6068 00a4 C1ED007A 		vstr.32	s15, [r1]
 6069              		.loc 1 1822 0
 6070 00a8 D0ED007A 		vldr.32	s15, [r0]
 6071 00ac F0EEE77A 		vabs.f32	s15, s15
 6072 00b0 F4EEE37A 		vcmpe.f32	s15, s7
 6073 00b4 F1EE10FA 		vmrs	APSR_nzcv, FPSCR
 6074 00b8 2DDC     		bgt	.L470
 6075              		.loc 1 1822 0 is_stmt 0 discriminator 1
 6076 00ba 90ED007A 		vldr.32	s14, [r0]
 6077 00be D0ED007A 		vldr.32	s15, [r0]
 6078 00c2 B4EE677A 		vcmp.f32	s14, s15
 6079 00c6 F1EE10FA 		vmrs	APSR_nzcv, FPSCR
 6080 00ca 24D1     		bne	.L470
 6081              	.L471:
 6082              		.loc 1 1826 0 is_stmt 1
 6083 00cc D1ED007A 		vldr.32	s15, [r1]
 6084 00d0 9FED137A 		vldr.32	s14, .L475+4
 6085 00d4 F0EEE77A 		vabs.f32	s15, s15
 6086 00d8 F4EEC77A 		vcmpe.f32	s15, s14
 6087 00dc F1EE10FA 		vmrs	APSR_nzcv, FPSCR
 6088 00e0 08DC     		bgt	.L472
 6089              		.loc 1 1826 0 is_stmt 0 discriminator 1
 6090 00e2 91ED007A 		vldr.32	s14, [r1]
 6091 00e6 D1ED007A 		vldr.32	s15, [r1]
 6092 00ea B4EE677A 		vcmp.f32	s14, s15
 6093 00ee F1EE10FA 		vmrs	APSR_nzcv, FPSCR
 6094 00f2 01D0     		beq	.L473
 6095              	.L472:
 6096              		.loc 1 1827 0 is_stmt 1
 6097 00f4 0023     		movs	r3, #0
 6098 00f6 0B60     		str	r3, [r1]	@ float
 6099              	.L473:
ARM GAS  C:\Users\euanm\AppData\Local\Temp\ccwBC4sF.s 			page 108


 6100              		.loc 1 1830 0
 6101 00f8 91ED000A 		vldr.32	s0, [r1]
 6102 00fc D0ED000A 		vldr.32	s1, [r0]
 6103 0100 30EE640A 		vsub.f32	s0, s0, s9
 6104 0104 70EEE60A 		vsub.f32	s1, s1, s13
 6105 0108 FFF7FEFF 		bl	utils_fast_atan2
 6106              	.LVL492:
 6107              		.loc 1 1831 0
 6108 010c BDEC028B 		vldm	sp!, {d8}
 6109              		.cfi_remember_state
 6110              		.cfi_restore 80
 6111              		.cfi_restore 81
 6112              		.cfi_def_cfa_offset 8
 6113              	.LVL493:
 6114              		.loc 1 1830 0
 6115 0110 84ED000A 		vstr.32	s0, [r4]
 6116              		.loc 1 1831 0
 6117 0114 10BD     		pop	{r4, pc}
 6118              	.LVL494:
 6119              	.L470:
 6120              		.cfi_restore_state
 6121              		.loc 1 1823 0
 6122 0116 0023     		movs	r3, #0
 6123 0118 0360     		str	r3, [r0]	@ float
 6124 011a D7E7     		b	.L471
 6125              	.L476:
 6126              		.align	2
 6127              	.L475:
 6128 011c 00000000 		.word	.LANCHOR0
 6129 0120 EC78AD60 		.word	1621981420
 6130              		.cfi_endproc
 6131              	.LFE300:
 6132              		.size	observer_update, .-observer_update
 6133              		.section	.text.mcpwm_foc_adc_inj_int_handler,"ax",%progbits
 6134              		.align	2
 6135              		.p2align 4,,15
 6136              		.global	mcpwm_foc_adc_inj_int_handler
 6137              		.thumb
 6138              		.thumb_func
 6139              		.type	mcpwm_foc_adc_inj_int_handler, %function
 6140              	mcpwm_foc_adc_inj_int_handler:
 6141              	.LFB297:
 6142              		.loc 1 1360 0
 6143              		.cfi_startproc
 6144              		@ args = 0, pretend = 0, frame = 24
 6145              		@ frame_needed = 0, uses_anonymous_args = 0
 6146 0000 2DE9F04F 		push	{r4, r5, r6, r7, r8, r9, r10, fp, lr}
 6147              		.cfi_def_cfa_offset 36
 6148              		.cfi_offset 4, -36
 6149              		.cfi_offset 5, -32
 6150              		.cfi_offset 6, -28
 6151              		.cfi_offset 7, -24
 6152              		.cfi_offset 8, -20
 6153              		.cfi_offset 9, -16
 6154              		.cfi_offset 10, -12
 6155              		.cfi_offset 11, -8
 6156              		.cfi_offset 14, -4
ARM GAS  C:\Users\euanm\AppData\Local\Temp\ccwBC4sF.s 			page 109


 6157 0004 2DED088B 		vpush.64	{d8, d9, d10, d11}
 6158              		.cfi_def_cfa_offset 68
 6159              		.cfi_offset 80, -68
 6160              		.cfi_offset 81, -64
 6161              		.cfi_offset 82, -60
 6162              		.cfi_offset 83, -56
 6163              		.cfi_offset 84, -52
 6164              		.cfi_offset 85, -48
 6165              		.cfi_offset 86, -44
 6166              		.cfi_offset 87, -40
 6167              		.loc 1 1361 0
 6168 0008 534B     		ldr	r3, .L660
 6169              		.loc 1 1366 0
 6170 000a 544E     		ldr	r6, .L660+4
 6171              		.loc 1 1389 0
 6172 000c 544D     		ldr	r5, .L660+8
 6173              		.loc 1 1361 0
 6174 000e 0027     		movs	r7, #0
 6175              		.loc 1 1360 0
 6176 0010 87B0     		sub	sp, sp, #28
 6177              		.cfi_def_cfa_offset 96
 6178              		.loc 1 1361 0
 6179 0012 5F62     		str	r7, [r3, #36]
 6180              		.loc 1 1364 0
 6181 0014 6420     		movs	r0, #100
 6182 0016 FFF7FEFF 		bl	WWDG_SetCounter
 6183              	.LVL495:
 6184              		.loc 1 1366 0
 6185 001a 3368     		ldr	r3, [r6]
 6186              		.loc 1 1367 0
 6187 001c 5148     		ldr	r0, .L660+12
 6188              		.loc 1 1366 0
 6189 001e 93ED278A 		vldr.32	s16, [r3, #156]
 6190              	.LVL496:
 6191              		.loc 1 1367 0
 6192 0022 1421     		movs	r1, #20
 6193 0024 FFF7FEFF 		bl	ADC_GetInjectedConversionValue
 6194              	.LVL497:
 6195              		.loc 1 1368 0
 6196 0028 1421     		movs	r1, #20
 6197              		.loc 1 1367 0
 6198 002a 0446     		mov	r4, r0
 6199              	.LVL498:
 6200              		.loc 1 1368 0
 6201 002c 4E48     		ldr	r0, .L660+16
 6202              	.LVL499:
 6203 002e FFF7FEFF 		bl	ADC_GetInjectedConversionValue
 6204              	.LVL500:
 6205              		.loc 1 1370 0
 6206 0032 4E4A     		ldr	r2, .L660+20
 6207              		.loc 1 1371 0
 6208 0034 4E49     		ldr	r1, .L660+24
 6209              		.loc 1 1370 0
 6210 0036 1368     		ldr	r3, [r2]
 6211              		.loc 1 1375 0
 6212 0038 DFF860E1 		ldr	lr, .L660+68
 6213              		.loc 1 1385 0
ARM GAS  C:\Users\euanm\AppData\Local\Temp\ccwBC4sF.s 			page 110


 6214 003c DFED4D6A 		vldr.32	s13, .L660+28
 6215 0040 9FED4D6A 		vldr.32	s12, .L660+32
 6216              		.loc 1 1370 0
 6217 0044 2344     		add	r3, r3, r4
 6218 0046 1360     		str	r3, [r2]
 6219              		.loc 1 1371 0
 6220 0048 0B68     		ldr	r3, [r1]
 6221              		.loc 1 1372 0
 6222 004a 4C4A     		ldr	r2, .L660+36
 6223              		.loc 1 1371 0
 6224 004c 0344     		add	r3, r3, r0
 6225 004e 0B60     		str	r3, [r1]
 6226              		.loc 1 1372 0
 6227 0050 1368     		ldr	r3, [r2]
 6228              		.loc 1 1374 0
 6229 0052 4B49     		ldr	r1, .L660+40
 6230              		.loc 1 1372 0
 6231 0054 0133     		adds	r3, r3, #1
 6232 0056 1360     		str	r3, [r2]
 6233              		.loc 1 1374 0
 6234 0058 0968     		ldr	r1, [r1]
 6235              		.loc 1 1375 0
 6236 005a DEF80020 		ldr	r2, [lr]
 6237              		.loc 1 1381 0
 6238 005e 494B     		ldr	r3, .L660+44
 6239              		.loc 1 1374 0
 6240 0060 641A     		subs	r4, r4, r1
 6241              	.LVL501:
 6242              		.loc 1 1375 0
 6243 0062 801A     		subs	r0, r0, r2
 6244              	.LVL502:
 6245              		.loc 1 1381 0
 6246 0064 1C60     		str	r4, [r3]
 6247              		.loc 1 1382 0
 6248 0066 5860     		str	r0, [r3, #4]
 6249              		.loc 1 1383 0
 6250 0068 1968     		ldr	r1, [r3]
 6251 006a 5A68     		ldr	r2, [r3, #4]
 6252 006c 0A44     		add	r2, r2, r1
 6253 006e 5242     		negs	r2, r2
 6254 0070 9A60     		str	r2, [r3, #8]
 6255              		.loc 1 1385 0
 6256 0072 93ED007A 		vldr.32	s14, [r3]	@ int
 6257              		.loc 1 1386 0
 6258 0076 D3ED017A 		vldr.32	s15, [r3, #4]	@ int
 6259              		.loc 1 1389 0
 6260 007a 2B7B     		ldrb	r3, [r5, #12]	@ zero_extendqisi2
 6261              		.loc 1 1385 0
 6262 007c B8EEC77A 		vcvt.f32.s32	s14, s14
 6263              		.loc 1 1386 0
 6264 0080 F8EEE77A 		vcvt.f32.s32	s15, s15
 6265              		.loc 1 1385 0
 6266 0084 27EE267A 		vmul.f32	s14, s14, s13
 6267              		.loc 1 1386 0
 6268 0088 67EEA67A 		vmul.f32	s15, s15, s13
 6269              		.loc 1 1385 0
 6270 008c 87EE069A 		vdiv.f32	s18, s14, s12
ARM GAS  C:\Users\euanm\AppData\Local\Temp\ccwBC4sF.s 			page 111


 6271              	.LVL503:
 6272              		.loc 1 1386 0
 6273 0090 C7EE868A 		vdiv.f32	s17, s15, s12
 6274              	.LVL504:
 6275              		.loc 1 1389 0
 6276 0094 002B     		cmp	r3, #0
 6277 0096 00F08380 		beq	.L478
 6278              	.LBB189:
 6279              		.loc 1 1391 0
 6280 009a 3B4C     		ldr	r4, .L660+48
 6281              	.LVL505:
 6282              		.loc 1 1394 0
 6283 009c 3B4E     		ldr	r6, .L660+52
 6284 009e 3268     		ldr	r2, [r6]
 6285              		.loc 1 1391 0
 6286 00a0 D4ED0B7A 		vldr.32	s15, [r4, #44]	@ int
 6287 00a4 95ED047A 		vldr.32	s14, [r5, #16]
 6288 00a8 F8EE677A 		vcvt.f32.u32	s15, s15
 6289 00ac 67EE877A 		vmul.f32	s15, s15, s14
 6290 00b0 FCEEE77A 		vcvt.u32.f32	s15, s15
 6291              	.LVL506:
 6292              		.loc 1 1394 0
 6293 00b4 002A     		cmp	r2, #0
 6294 00b6 00F00882 		beq	.L637
 6295              		.loc 1 1397 0
 6296 00ba 022A     		cmp	r2, #2
 6297 00bc 00F06282 		beq	.L638
 6298              		.loc 1 1399 0
 6299 00c0 032A     		cmp	r2, #3
 6300 00c2 00F0A182 		beq	.L639
 6301              		.loc 1 1406 0
 6302 00c6 052A     		cmp	r2, #5
 6303 00c8 00F06A82 		beq	.L640
 6304              		.loc 1 1408 0
 6305 00cc 062A     		cmp	r2, #6
 6306 00ce 00F08785 		beq	.L641
