ARM GAS  C:\Users\euanm\AppData\Local\Temp\ccjmNLkj.s 			page 1


   1              		.syntax unified
   2              		.cpu cortex-m4
   3              		.eabi_attribute 27, 1
   4              		.eabi_attribute 28, 1
   5              		.fpu fpv4-sp-d16
   6              		.eabi_attribute 20, 1
   7              		.eabi_attribute 21, 1
   8              		.eabi_attribute 23, 3
   9              		.eabi_attribute 24, 1
  10              		.eabi_attribute 25, 1
  11              		.eabi_attribute 26, 1
  12              		.eabi_attribute 30, 2
  13              		.eabi_attribute 34, 1
  14              		.eabi_attribute 18, 4
  15              		.thumb
  16              		.syntax unified
  17              		.file	"mcpwm.c"
  18              		.text
  19              	.Ltext0:
  20              		.cfi_sections	.debug_frame
  21              		.section	.text.update_adc_sample_pos,"ax",%progbits
  22              		.align	2
  23              		.p2align 4,,15
  24              		.thumb
  25              		.thumb_func
  26              		.type	update_adc_sample_pos, %function
  27              	update_adc_sample_pos:
  28              	.LFB312:
  29              		.file 1 "mcpwm.c"
  30              		.loc 1 2152 0
  31              		.cfi_startproc
  32              		@ args = 0, pretend = 0, frame = 24
  33              		@ frame_needed = 0, uses_anonymous_args = 0
  34              	.LVL0:
  35 0000 F0B5     		push	{r4, r5, r6, r7, lr}
  36              		.cfi_def_cfa_offset 20
  37              		.cfi_offset 4, -20
  38              		.cfi_offset 5, -16
  39              		.cfi_offset 6, -12
  40              		.cfi_offset 7, -8
  41              		.cfi_offset 14, -4
  42 0002 87B0     		sub	sp, sp, #28
  43              		.cfi_def_cfa_offset 48
  44              		.loc 1 2153 0
  45 0004 8268     		ldr	r2, [r0, #8]
  46 0006 0192     		str	r2, [sp, #4]
  47              		.loc 1 2154 0
  48 0008 4268     		ldr	r2, [r0, #4]
  49 000a 0292     		str	r2, [sp, #8]
  50              		.loc 1 2155 0
  51 000c C268     		ldr	r2, [r0, #12]
  52 000e 0392     		str	r2, [sp, #12]
  53              		.loc 1 2156 0
  54 0010 0269     		ldr	r2, [r0, #16]
  55 0012 0492     		str	r2, [sp, #16]
  56              		.loc 1 2157 0
  57 0014 4269     		ldr	r2, [r0, #20]
ARM GAS  C:\Users\euanm\AppData\Local\Temp\ccjmNLkj.s 			page 2


  58              		.loc 1 2159 0
  59 0016 754B     		ldr	r3, .L45
  60              		.loc 1 2157 0
  61 0018 0592     		str	r2, [sp, #20]
  62              		.loc 1 2159 0
  63 001a DDED027A 		vldr.32	s15, [sp, #8]	@ int
  64 001e 1A68     		ldr	r2, [r3]
  65 0020 F8EE677A 		vcvt.f32.u32	s15, s15
  66 0024 92ED167A 		vldr.32	s14, [r2, #88]
  67 0028 019B     		ldr	r3, [sp, #4]
  68 002a 67EE877A 		vmul.f32	s15, s15, s14
  69 002e FCEEE77A 		vcvt.u32.f32	s15, s15
  70 0032 17EE901A 		vmov	r1, s15	@ int
  71 0036 9942     		cmp	r1, r3
  72 0038 0BD2     		bcs	.L2
  73              		.loc 1 2160 0
  74 003a DDED027A 		vldr.32	s15, [sp, #8]	@ int
  75 003e 92ED167A 		vldr.32	s14, [r2, #88]
  76 0042 F8EE677A 		vcvt.f32.u32	s15, s15
  77 0046 67EE877A 		vmul.f32	s15, s15, s14
  78 004a FCEEE77A 		vcvt.u32.f32	s15, s15
  79 004e CDED017A 		vstr.32	s15, [sp, #4]	@ int
  80              	.L2:
  81              		.loc 1 2163 0
  82 0052 6749     		ldr	r1, .L45+4
  83 0054 0023     		movs	r3, #0
  84 0056 0B60     		str	r3, [r1]
  85              		.loc 1 2165 0
  86 0058 9378     		ldrb	r3, [r2, #2]	@ zero_extendqisi2
  87 005a DBB2     		uxtb	r3, r3
  88 005c 012B     		cmp	r3, #1
  89 005e 3DD0     		beq	.L42
  90              		.loc 1 2183 0
  91 0060 644B     		ldr	r3, .L45+8
  92 0062 1B78     		ldrb	r3, [r3]	@ zero_extendqisi2
  93 0064 012B     		cmp	r3, #1
  94 0066 00F08480 		beq	.L43
  95              		.loc 1 2191 0
  96 006a 1378     		ldrb	r3, [r2]	@ zero_extendqisi2
  97 006c 022B     		cmp	r3, #2
  98 006e 43D0     		beq	.L44
  99              		.loc 1 2271 0
 100 0070 019B     		ldr	r3, [sp, #4]
 101 0072 5B08     		lsrs	r3, r3, #1
 102 0074 0393     		str	r3, [sp, #12]
 103              		.loc 1 2274 0
 104 0076 029B     		ldr	r3, [sp, #8]
 105 0078 019C     		ldr	r4, [sp, #4]
 106 007a 019A     		ldr	r2, [sp, #4]
 107 007c 1B1B     		subs	r3, r3, r4
 108 007e 02EB5303 		add	r3, r2, r3, lsr #1
 109 0082 0493     		str	r3, [sp, #16]
 110              		.loc 1 2275 0
 111 0084 029B     		ldr	r3, [sp, #8]
 112 0086 049A     		ldr	r2, [sp, #16]
 113 0088 463B     		subs	r3, r3, #70
 114 008a 9342     		cmp	r3, r2
ARM GAS  C:\Users\euanm\AppData\Local\Temp\ccjmNLkj.s 			page 3


 115 008c 02D2     		bcs	.L21
 116              		.loc 1 2276 0
 117 008e 029B     		ldr	r3, [sp, #8]
 118 0090 463B     		subs	r3, r3, #70
 119 0092 0493     		str	r3, [sp, #16]
 120              	.L21:
 121              		.loc 1 2279 0
 122 0094 049B     		ldr	r3, [sp, #16]
 123 0096 0593     		str	r3, [sp, #20]
 124              		.loc 1 2283 0
 125 0098 029A     		ldr	r2, [sp, #8]
 126 009a 019B     		ldr	r3, [sp, #4]
 127 009c B3EB520F 		cmp	r3, r2, lsr #1
 128 00a0 14D9     		bls	.L5
 129              		.loc 1 2305 0
 130 00a2 554B     		ldr	r3, .L45+12
 131 00a4 1B68     		ldr	r3, [r3]
 132 00a6 002B     		cmp	r3, #0
 133 00a8 50D0     		beq	.L22
 134              		.loc 1 2306 0
 135 00aa 544B     		ldr	r3, .L45+16
 136 00ac 1B68     		ldr	r3, [r3]
 137 00ae 013B     		subs	r3, r3, #1
 138 00b0 052B     		cmp	r3, #5
 139 00b2 0BD8     		bhi	.L5
 140 00b4 DFE803F0 		tbb	[pc, r3]
 141              	.L24:
 142 00b8 57       		.byte	(.L35-.L24)/2
 143 00b9 54       		.byte	(.L33-.L24)/2
 144 00ba 54       		.byte	(.L33-.L24)/2
 145 00bb 5A       		.byte	(.L36-.L24)/2
 146 00bc 5A       		.byte	(.L36-.L24)/2
 147 00bd 57       		.byte	(.L35-.L24)/2
 148              	.LVL1:
 149              		.p2align 1
 150              	.L12:
 151              	.LBB75:
 152              		.loc 1 2235 0
 153 00be 4E4B     		ldr	r3, .L45+12
 154 00c0 1B68     		ldr	r3, [r3]
 155 00c2 002B     		cmp	r3, #0
 156 00c4 00F08C80 		beq	.L18
 157              	.L39:
 158              		.loc 1 2236 0
 159 00c8 0497     		str	r7, [sp, #16]
 160              		.loc 1 2237 0
 161 00ca 0592     		str	r2, [sp, #20]
 162              	.LVL2:
 163              	.L5:
 164              	.LBE75:
 165              		.loc 1 2331 0
 166 00cc 039B     		ldr	r3, [sp, #12]
 167 00ce C360     		str	r3, [r0, #12]
 168              		.loc 1 2332 0
 169 00d0 049B     		ldr	r3, [sp, #16]
 170 00d2 0361     		str	r3, [r0, #16]
 171              		.loc 1 2333 0
ARM GAS  C:\Users\euanm\AppData\Local\Temp\ccjmNLkj.s 			page 4


 172 00d4 059B     		ldr	r3, [sp, #20]
 173 00d6 4361     		str	r3, [r0, #20]
 174              		.loc 1 2334 0
 175 00d8 07B0     		add	sp, sp, #28
 176              		.cfi_remember_state
 177              		.cfi_def_cfa_offset 20
 178              		@ sp needed
 179 00da F0BD     		pop	{r4, r5, r6, r7, pc}
 180              	.L42:
 181              		.cfi_restore_state
 182              		.loc 1 2166 0
 183 00dc 029A     		ldr	r2, [sp, #8]
 184 00de 0A3A     		subs	r2, r2, #10
 185 00e0 0492     		str	r2, [sp, #16]
 186              		.loc 1 2167 0
 187 00e2 029A     		ldr	r2, [sp, #8]
 188 00e4 0A3A     		subs	r2, r2, #10
 189 00e6 0592     		str	r2, [sp, #20]
 190              		.loc 1 2169 0
 191 00e8 019A     		ldr	r2, [sp, #4]
 192 00ea B2F57A7F 		cmp	r2, #1000
 193 00ee 27D9     		bls	.L4
 194              		.loc 1 2170 0
 195 00f0 019B     		ldr	r3, [sp, #4]
 196 00f2 5B08     		lsrs	r3, r3, #1
 197 00f4 0393     		str	r3, [sp, #12]
 198 00f6 E9E7     		b	.L5
 199              	.L44:
 200              	.LBB76:
 201              		.loc 1 2192 0
 202 00f8 029E     		ldr	r6, [sp, #8]
 203              		.loc 1 2193 0
 204 00fa 029C     		ldr	r4, [sp, #8]
 205 00fc 019A     		ldr	r2, [sp, #4]
 206 00fe 019D     		ldr	r5, [sp, #4]
 207              		.loc 1 2194 0
 208 0100 029F     		ldr	r7, [sp, #8]
 209              		.loc 1 2197 0
 210 0102 029B     		ldr	r3, [sp, #8]
 211              		.loc 1 2200 0
 212 0104 DFF8F4E0 		ldr	lr, .L45+16
 213              		.loc 1 2197 0
 214 0108 9B08     		lsrs	r3, r3, #2
 215 010a 0393     		str	r3, [sp, #12]
 216              		.loc 1 2200 0
 217 010c DEF80030 		ldr	r3, [lr]
 218              		.loc 1 2193 0
 219 0110 A21A     		subs	r2, r4, r2
 220              		.loc 1 2200 0
 221 0112 013B     		subs	r3, r3, #1
 222              		.loc 1 2192 0
 223 0114 023E     		subs	r6, r6, #2
 224              	.LVL3:
 225              		.loc 1 2193 0
 226 0116 05EB5202 		add	r2, r5, r2, lsr #1
 227              	.LVL4:
 228              		.loc 1 2194 0
ARM GAS  C:\Users\euanm\AppData\Local\Temp\ccjmNLkj.s 			page 5


 229 011a 023F     		subs	r7, r7, #2
 230              	.LVL5:
 231              		.loc 1 2200 0
 232 011c 052B     		cmp	r3, #5
 233 011e D5D8     		bhi	.L5
 234 0120 01A4     		adr	r4, .L9
 235 0122 54F823F0 		ldr	pc, [r4, r3, lsl #2]
 236 0126 00BF     		.p2align 2
 237              	.L9:
 238 0128 D7010000 		.word	.L8+1
 239 012c C5010000 		.word	.L10+1
 240 0130 B9010000 		.word	.L11+1
 241 0134 BF000000 		.word	.L12+1
 242 0138 A7010000 		.word	.L13+1
 243 013c 97010000 		.word	.L14+1
 244              	.LVL6:
 245              		.p2align 1
 246              	.L4:
 247              	.LBE76:
 248              		.loc 1 2172 0
 249 0140 019A     		ldr	r2, [sp, #4]
 250 0142 02F54872 		add	r2, r2, #800
 251 0146 0392     		str	r2, [sp, #12]
 252              		.loc 1 2173 0
 253 0148 0B60     		str	r3, [r1]
 254 014a BFE7     		b	.L5
 255              	.L22:
 256              		.loc 1 2316 0
 257 014c 2B4B     		ldr	r3, .L45+16
 258 014e 1B68     		ldr	r3, [r3]
 259 0150 013B     		subs	r3, r3, #1
 260 0152 052B     		cmp	r3, #5
 261 0154 BAD8     		bhi	.L5
 262 0156 DFE803F0 		tbb	[pc, r3]
 263              	.L31:
 264 015a 09       		.byte	(.L36-.L31)/2
 265 015b 03       		.byte	(.L33-.L31)/2
 266 015c 03       		.byte	(.L33-.L31)/2
 267 015d 06       		.byte	(.L35-.L31)/2
 268 015e 06       		.byte	(.L35-.L31)/2
 269 015f 09       		.byte	(.L36-.L31)/2
 270              		.p2align 1
 271              	.L33:
 272              		.loc 1 2319 0
 273 0160 0223     		movs	r3, #2
 274 0162 0B60     		str	r3, [r1]
 275 0164 B2E7     		b	.L5
 276              	.L35:
 277              		.loc 1 2321 0
 278 0166 0323     		movs	r3, #3
 279 0168 0B60     		str	r3, [r1]
 280 016a AFE7     		b	.L5
 281              	.L36:
 282              		.loc 1 2322 0
 283 016c 0123     		movs	r3, #1
 284 016e 0B60     		str	r3, [r1]
 285 0170 ACE7     		b	.L5
ARM GAS  C:\Users\euanm\AppData\Local\Temp\ccjmNLkj.s 			page 6


 286              	.L43:
 287              		.loc 1 2185 0
 288 0172 019B     		ldr	r3, [sp, #4]
 289 0174 5B08     		lsrs	r3, r3, #1
 290 0176 0393     		str	r3, [sp, #12]
 291              		.loc 1 2188 0
 292 0178 029B     		ldr	r3, [sp, #8]
 293 017a 0199     		ldr	r1, [sp, #4]
 294 017c 019A     		ldr	r2, [sp, #4]
 295 017e 5B1A     		subs	r3, r3, r1
 296 0180 02EB5303 		add	r3, r2, r3, lsr #1
 297 0184 0493     		str	r3, [sp, #16]
 298              		.loc 1 2189 0
 299 0186 029B     		ldr	r3, [sp, #8]
 300 0188 0199     		ldr	r1, [sp, #4]
 301 018a 019A     		ldr	r2, [sp, #4]
 302 018c 5B1A     		subs	r3, r3, r1
 303 018e 02EB5303 		add	r3, r2, r3, lsr #1
 304 0192 0593     		str	r3, [sp, #20]
 305 0194 9AE7     		b	.L5
 306              	.LVL7:
 307              	.L14:
 308              	.LBB77:
 309              		.loc 1 2258 0
 310 0196 184B     		ldr	r3, .L45+12
 311 0198 1B68     		ldr	r3, [r3]
 312 019a 43B1     		cbz	r3, .L20
 313              	.L38:
 314              		.loc 1 2261 0
 315 019c 0123     		movs	r3, #1
 316              		.loc 1 2259 0
 317 019e 0496     		str	r6, [sp, #16]
 318              		.loc 1 2260 0
 319 01a0 0597     		str	r7, [sp, #20]
 320              		.loc 1 2261 0
 321 01a2 0B60     		str	r3, [r1]
 322 01a4 92E7     		b	.L5
 323              	.L13:
 324              		.loc 1 2246 0
 325 01a6 144B     		ldr	r3, .L45+12
 326 01a8 1B68     		ldr	r3, [r3]
 327 01aa 002B     		cmp	r3, #0
 328 01ac F6D0     		beq	.L38
 329              	.L20:
 330              		.loc 1 2265 0
 331 01ae 0123     		movs	r3, #1
 332              		.loc 1 2263 0
 333 01b0 0496     		str	r6, [sp, #16]
 334              		.loc 1 2264 0
 335 01b2 0592     		str	r2, [sp, #20]
 336              		.loc 1 2265 0
 337 01b4 0B60     		str	r3, [r1]
 338 01b6 89E7     		b	.L5
 339              	.L11:
 340              		.loc 1 2224 0
 341 01b8 0F4B     		ldr	r3, .L45+12
 342 01ba 1B68     		ldr	r3, [r3]
ARM GAS  C:\Users\euanm\AppData\Local\Temp\ccjmNLkj.s 			page 7


 343 01bc 33B1     		cbz	r3, .L17
 344              	.L40:
 345              		.loc 1 2225 0
 346 01be 0492     		str	r2, [sp, #16]
 347              		.loc 1 2226 0
 348 01c0 0597     		str	r7, [sp, #20]
 349 01c2 83E7     		b	.L5
 350              	.L10:
 351              		.loc 1 2213 0
 352 01c4 0C4B     		ldr	r3, .L45+12
 353 01c6 1B68     		ldr	r3, [r3]
 354 01c8 002B     		cmp	r3, #0
 355 01ca F8D0     		beq	.L40
 356              	.L17:
 357              		.loc 1 2230 0
 358 01cc 0223     		movs	r3, #2
 359              		.loc 1 2228 0
 360 01ce 0492     		str	r2, [sp, #16]
 361              		.loc 1 2229 0
 362 01d0 0596     		str	r6, [sp, #20]
 363              		.loc 1 2230 0
 364 01d2 0B60     		str	r3, [r1]
 365 01d4 7AE7     		b	.L5
 366              	.L8:
 367              		.loc 1 2202 0
 368 01d6 084B     		ldr	r3, .L45+12
 369 01d8 1B68     		ldr	r3, [r3]
 370 01da 002B     		cmp	r3, #0
 371 01dc 3FF474AF 		beq	.L39
 372              	.L18:
 373              		.loc 1 2241 0
 374 01e0 0223     		movs	r3, #2
 375              		.loc 1 2239 0
 376 01e2 0497     		str	r7, [sp, #16]
 377              		.loc 1 2240 0
 378 01e4 0596     		str	r6, [sp, #20]
 379              		.loc 1 2241 0
 380 01e6 0B60     		str	r3, [r1]
 381 01e8 70E7     		b	.L5
 382              	.L46:
 383 01ea 00BF     		.align	2
 384              	.L45:
 385 01ec 00000000 		.word	.LANCHOR0
 386 01f0 00000000 		.word	.LANCHOR1
 387 01f4 00000000 		.word	.LANCHOR2
 388 01f8 00000000 		.word	.LANCHOR4
 389 01fc 00000000 		.word	.LANCHOR3
 390              	.LBE77:
 391              		.cfi_endproc
 392              	.LFE312:
 393              		.size	update_adc_sample_pos, .-update_adc_sample_pos
 394              		.section	.text.update_rpm_tacho,"ax",%progbits
 395              		.align	2
 396              		.p2align 4,,15
 397              		.thumb
 398              		.thumb_func
 399              		.type	update_rpm_tacho, %function
ARM GAS  C:\Users\euanm\AppData\Local\Temp\ccjmNLkj.s 			page 8


 400              	update_rpm_tacho:
 401              	.LFB313:
 402              		.loc 1 2336 0
 403              		.cfi_startproc
 404              		@ args = 0, pretend = 0, frame = 0
 405              		@ frame_needed = 0, uses_anonymous_args = 0
 406              		@ link register save eliminated.
 407              		.loc 1 2337 0
 408 0000 1E4B     		ldr	r3, .L60
 409              		.loc 1 2339 0
 410 0002 1F48     		ldr	r0, .L60+4
 411              		.loc 1 2337 0
 412 0004 1968     		ldr	r1, [r3]
 413              		.loc 1 2339 0
 414 0006 0268     		ldr	r2, [r0]
 415 0008 1E4B     		ldr	r3, .L60+8
 416              		.loc 1 2337 0
 417 000a 0139     		subs	r1, r1, #1
 418              	.LVL8:
 419              		.loc 1 2339 0
 420 000c 8A1A     		subs	r2, r1, r2
 421              		.loc 1 2336 0
 422 000e 30B4     		push	{r4, r5}
 423              		.cfi_def_cfa_offset 8
 424              		.cfi_offset 4, -8
 425              		.cfi_offset 5, -4
 426              		.loc 1 2339 0
 427 0010 83FB0243 		smull	r4, r3, r3, r2
 428 0014 A3EBE273 		sub	r3, r3, r2, asr #31
 429 0018 03EB4303 		add	r3, r3, r3, lsl #1
 430 001c A2EB4303 		sub	r3, r2, r3, lsl #1
 431              	.LVL9:
 432              		.loc 1 2342 0
 433 0020 032B     		cmp	r3, #3
 434              		.loc 1 2340 0
 435 0022 0160     		str	r1, [r0]
 436              		.loc 1 2342 0
 437 0024 1DDD     		ble	.L48
 438              		.loc 1 2343 0
 439 0026 063B     		subs	r3, r3, #6
 440              	.LVL10:
 441              	.L54:
 442              		.loc 1 2349 0
 443 0028 174A     		ldr	r2, .L60+12
 444 002a 5169     		ldr	r1, [r2, #20]
 445              	.LVL11:
 446              		.loc 1 2350 0
 447 002c 4FF08040 		mov	r0, #1073741824
 448              		.loc 1 2349 0
 449 0030 1944     		add	r1, r1, r3
 450 0032 5161     		str	r1, [r2, #20]
 451              		.loc 1 2350 0
 452 0034 456A     		ldr	r5, [r0, #36]
 453 0036 9169     		ldr	r1, [r2, #24]
 454              		.loc 1 2351 0
 455 0038 0024     		movs	r4, #0
 456              		.loc 1 2350 0
ARM GAS  C:\Users\euanm\AppData\Local\Temp\ccjmNLkj.s 			page 9


 457 003a 2944     		add	r1, r1, r5
 458 003c 9161     		str	r1, [r2, #24]
 459              		.loc 1 2351 0
 460 003e 4462     		str	r4, [r0, #36]
 461              	.LVL12:
 462              	.L51:
 463              		.loc 1 2355 0
 464 0040 1248     		ldr	r0, .L60+16
 465              		.loc 1 2356 0
 466 0042 1349     		ldr	r1, .L60+20
 467              		.loc 1 2355 0
 468 0044 0268     		ldr	r2, [r0]
 469              		.loc 1 2358 0
 470 0046 134C     		ldr	r4, .L60+24
 471              		.loc 1 2355 0
 472 0048 1A44     		add	r2, r2, r3
 473 004a 0260     		str	r2, [r0]
 474              		.loc 1 2356 0
 475 004c 0A68     		ldr	r2, [r1]
 476 004e 1A44     		add	r2, r2, r3
 477 0050 0A60     		str	r2, [r1]
 478              		.loc 1 2358 0
 479 0052 2268     		ldr	r2, [r4]
 480              		.loc 1 2359 0
 481 0054 1049     		ldr	r1, .L60+28
 482              		.loc 1 2358 0
 483 0056 5AB9     		cbnz	r2, .L59
 484              		.loc 1 2361 0
 485 0058 0A68     		ldr	r2, [r1]
 486 005a D31A     		subs	r3, r2, r3
 487              	.LVL13:
 488 005c 0B60     		str	r3, [r1]
 489              		.loc 1 2363 0
 490 005e 30BC     		pop	{r4, r5}
 491              		.cfi_remember_state
 492              		.cfi_restore 5
 493              		.cfi_restore 4
 494              		.cfi_def_cfa_offset 0
 495 0060 7047     		bx	lr
 496              	.LVL14:
 497              	.L48:
 498              		.cfi_restore_state
 499              		.loc 1 2344 0
 500 0062 9A1C     		adds	r2, r3, #2
 501 0064 01DA     		bge	.L50
 502              		.loc 1 2345 0
 503 0066 0633     		adds	r3, r3, #6
 504              	.LVL15:
 505 0068 DEE7     		b	.L54
 506              	.L50:
 507              		.loc 1 2348 0
 508 006a 002B     		cmp	r3, #0
 509 006c E8D0     		beq	.L51
 510 006e DBE7     		b	.L54
 511              	.LVL16:
 512              	.L59:
 513              		.loc 1 2359 0
ARM GAS  C:\Users\euanm\AppData\Local\Temp\ccjmNLkj.s 			page 10


 514 0070 0A68     		ldr	r2, [r1]
 515 0072 1344     		add	r3, r3, r2
 516              	.LVL17:
 517 0074 0B60     		str	r3, [r1]
 518              		.loc 1 2363 0
 519 0076 30BC     		pop	{r4, r5}
 520              		.cfi_restore 4
 521              		.cfi_restore 5
 522              		.cfi_def_cfa_offset 0
 523 0078 7047     		bx	lr
 524              	.L61:
 525 007a 00BF     		.align	2
 526              	.L60:
 527 007c 00000000 		.word	.LANCHOR3
 528 0080 00000000 		.word	.LANCHOR5
 529 0084 ABAAAA2A 		.word	715827883
 530 0088 00000000 		.word	.LANCHOR6
 531 008c 00000000 		.word	.LANCHOR7
 532 0090 00000000 		.word	.LANCHOR8
 533 0094 00000000 		.word	.LANCHOR4
 534 0098 00000000 		.word	.LANCHOR9
 535              		.cfi_endproc
 536              	.LFE313:
 537              		.size	update_rpm_tacho, .-update_rpm_tacho
 538              		.section	.text.update_timer_attempt,"ax",%progbits
 539              		.align	2
 540              		.p2align 4,,15
 541              		.thumb
 542              		.thumb_func
 543              		.type	update_timer_attempt, %function
 544              	update_timer_attempt:
 545              	.LFB317:
 546              		.loc 1 2448 0
 547              		.cfi_startproc
 548              		@ args = 0, pretend = 0, frame = 0
 549              		@ frame_needed = 0, uses_anonymous_args = 0
 550 0000 08B5     		push	{r3, lr}
 551              		.cfi_def_cfa_offset 8
 552              		.cfi_offset 3, -8
 553              		.cfi_offset 14, -4
 554              		.loc 1 2449 0
 555 0002 FFF7FEFF 		bl	utils_sys_lock_cnt
 556              	.LVL18:
 557              		.loc 1 2452 0
 558 0006 194A     		ldr	r2, .L65
 559 0008 1378     		ldrb	r3, [r2]	@ zero_extendqisi2
 560 000a 002B     		cmp	r3, #0
 561 000c 2AD1     		bne	.L63
 562              		.loc 1 2452 0 is_stmt 0 discriminator 1
 563 000e 184B     		ldr	r3, .L65+4
 564 0010 596A     		ldr	r1, [r3, #36]
 565 0012 0A29     		cmp	r1, #10
 566 0014 26D9     		bls	.L63
 567              		.loc 1 2452 0 discriminator 2
 568 0016 586A     		ldr	r0, [r3, #36]
 569 0018 D96A     		ldr	r1, [r3, #44]
 570 001a A1F5FA71 		sub	r1, r1, #500
ARM GAS  C:\Users\euanm\AppData\Local\Temp\ccjmNLkj.s 			page 11


 571 001e 8842     		cmp	r0, r1
 572 0020 20D2     		bcs	.L63
 573              		.loc 1 2454 0 is_stmt 1
 574 0022 1868     		ldr	r0, [r3]
 575              		.loc 1 2455 0
 576 0024 1349     		ldr	r1, .L65+8
 577              		.loc 1 2454 0
 578 0026 40F00200 		orr	r0, r0, #2
 579 002a 1860     		str	r0, [r3]
 580              		.loc 1 2455 0
 581 002c 0868     		ldr	r0, [r1]
 582 002e 40F00200 		orr	r0, r0, #2
 583 0032 0860     		str	r0, [r1]
 584              		.loc 1 2458 0
 585 0034 5068     		ldr	r0, [r2, #4]
 586 0036 D862     		str	r0, [r3, #44]
 587              		.loc 1 2459 0
 588 0038 9068     		ldr	r0, [r2, #8]
 589 003a 5863     		str	r0, [r3, #52]
 590              		.loc 1 2460 0
 591 003c 9068     		ldr	r0, [r2, #8]
 592 003e 9863     		str	r0, [r3, #56]
 593              		.loc 1 2461 0
 594 0040 9068     		ldr	r0, [r2, #8]
 595 0042 D863     		str	r0, [r3, #60]
 596              		.loc 1 2462 0
 597 0044 D068     		ldr	r0, [r2, #12]
 598 0046 4863     		str	r0, [r1, #52]
 599              		.loc 1 2463 0
 600 0048 1069     		ldr	r0, [r2, #16]
 601 004a 1864     		str	r0, [r3, #64]
 602              		.loc 1 2464 0
 603 004c 5069     		ldr	r0, [r2, #20]
 604 004e 8863     		str	r0, [r1, #56]
 605              		.loc 1 2467 0
 606 0050 1868     		ldr	r0, [r3]
 607 0052 20F00200 		bic	r0, r0, #2
 608 0056 1860     		str	r0, [r3]
 609              		.loc 1 2468 0
 610 0058 0B68     		ldr	r3, [r1]
 611              		.loc 1 2469 0
 612 005a 0120     		movs	r0, #1
 613              		.loc 1 2468 0
 614 005c 23F00203 		bic	r3, r3, #2
 615 0060 0B60     		str	r3, [r1]
 616              		.loc 1 2469 0
 617 0062 1070     		strb	r0, [r2]
 618              	.L63:
 619              		.loc 1 2473 0
 620 0064 BDE80840 		pop	{r3, lr}
 621              		.cfi_restore 14
 622              		.cfi_restore 3
 623              		.cfi_def_cfa_offset 0
 624              		.loc 1 2472 0
 625 0068 FFF7FEBF 		b	utils_sys_unlock_cnt
 626              	.LVL19:
 627              	.L66:
ARM GAS  C:\Users\euanm\AppData\Local\Temp\ccjmNLkj.s 			page 12


 628              		.align	2
 629              	.L65:
 630 006c 00000000 		.word	.LANCHOR10
 631 0070 00000140 		.word	1073807360
 632 0074 00040140 		.word	1073808384
 633              		.cfi_endproc
 634              	.LFE317:
 635              		.size	update_timer_attempt, .-update_timer_attempt
 636              		.section	.text.set_next_timer_settings,"ax",%progbits
 637              		.align	2
 638              		.p2align 4,,15
 639              		.thumb
 640              		.thumb_func
 641              		.type	set_next_timer_settings, %function
 642              	set_next_timer_settings:
 643              	.LFB316:
 644              		.loc 1 2435 0
 645              		.cfi_startproc
 646              		@ args = 0, pretend = 0, frame = 0
 647              		@ frame_needed = 0, uses_anonymous_args = 0
 648              	.LVL20:
 649 0000 70B5     		push	{r4, r5, r6, lr}
 650              		.cfi_def_cfa_offset 16
 651              		.cfi_offset 4, -16
 652              		.cfi_offset 5, -12
 653              		.cfi_offset 6, -8
 654              		.cfi_offset 14, -4
 655              		.loc 1 2435 0
 656 0002 0446     		mov	r4, r0
 657              		.loc 1 2436 0
 658 0004 FFF7FEFF 		bl	utils_sys_lock_cnt
 659              	.LVL21:
 660              		.loc 1 2437 0
 661 0008 0FCC     		ldmia	r4!, {r0, r1, r2, r3}
 662              	.LVL22:
 663 000a 074E     		ldr	r6, .L69
 664 000c 3546     		mov	r5, r6
 665 000e 0FC5     		stmia	r5!, {r0, r1, r2, r3}
 666 0010 94E80300 		ldmia	r4, {r0, r1}
 667              		.loc 1 2438 0
 668 0014 0023     		movs	r3, #0
 669              		.loc 1 2437 0
 670 0016 85E80300 		stmia	r5, {r0, r1}
 671              		.loc 1 2438 0
 672 001a 3370     		strb	r3, [r6]
 673              		.loc 1 2439 0
 674 001c FFF7FEFF 		bl	utils_sys_unlock_cnt
 675              	.LVL23:
 676              		.loc 1 2442 0
 677 0020 BDE87040 		pop	{r4, r5, r6, lr}
 678              		.cfi_restore 14
 679              		.cfi_restore 6
 680              		.cfi_restore 5
 681              		.cfi_restore 4
 682              		.cfi_def_cfa_offset 0
 683              	.LVL24:
 684              		.loc 1 2441 0
ARM GAS  C:\Users\euanm\AppData\Local\Temp\ccjmNLkj.s 			page 13


 685 0024 FFF7FEBF 		b	update_timer_attempt
 686              	.LVL25:
 687              	.L70:
 688              		.align	2
 689              	.L69:
 690 0028 00000000 		.word	.LANCHOR10
 691              		.cfi_endproc
 692              	.LFE316:
 693              		.size	set_next_timer_settings, .-set_next_timer_settings
 694              		.section	.text.set_duty_cycle_hw,"ax",%progbits
 695              		.align	2
 696              		.p2align 4,,15
 697              		.thumb
 698              		.thumb_func
 699              		.type	set_duty_cycle_hw, %function
 700              	set_duty_cycle_hw:
 701              	.LFB292:
 702              		.loc 1 1063 0
 703              		.cfi_startproc
 704              		@ args = 0, pretend = 0, frame = 32
 705              		@ frame_needed = 0, uses_anonymous_args = 0
 706              	.LVL26:
 707 0000 70B5     		push	{r4, r5, r6, lr}
 708              		.cfi_def_cfa_offset 16
 709              		.cfi_offset 4, -16
 710              		.cfi_offset 5, -12
 711              		.cfi_offset 6, -8
 712              		.cfi_offset 14, -4
 713              		.loc 1 1067 0
 714 0002 414D     		ldr	r5, .L87
 715              		.loc 1 1070 0
 716 0004 414E     		ldr	r6, .L87+4
 717              		.loc 1 1063 0
 718 0006 88B0     		sub	sp, sp, #32
 719              		.cfi_def_cfa_offset 48
 720              		.loc 1 1063 0
 721 0008 8DED010A 		vstr.32	s0, [sp, #4]
 722              		.loc 1 1066 0
 723 000c FFF7FEFF 		bl	utils_sys_lock_cnt
 724              	.LVL27:
 725              		.loc 1 1067 0
 726 0010 0FCD     		ldmia	r5!, {r0, r1, r2, r3}
 727 0012 02AC     		add	r4, sp, #8
 728 0014 0FC4     		stmia	r4!, {r0, r1, r2, r3}
 729 0016 95E80300 		ldmia	r5, {r0, r1}
 730 001a 84E80300 		stmia	r4, {r0, r1}
 731              		.loc 1 1068 0
 732 001e FFF7FEFF 		bl	utils_sys_unlock_cnt
 733              	.LVL28:
 734              		.loc 1 1070 0
 735 0022 3368     		ldr	r3, [r6]
 736 0024 01A8     		add	r0, sp, #4
 737              	.LVL29:
 738 0026 93ED150A 		vldr.32	s0, [r3, #84]
 739 002a D3ED160A 		vldr.32	s1, [r3, #88]
 740 002e FFF7FEFF 		bl	utils_truncate_number
 741              	.LVL30:
ARM GAS  C:\Users\euanm\AppData\Local\Temp\ccjmNLkj.s 			page 14


 742              		.loc 1 1072 0
 743 0032 3368     		ldr	r3, [r6]
 744 0034 9A78     		ldrb	r2, [r3, #2]	@ zero_extendqisi2
 745 0036 12B9     		cbnz	r2, .L72
 746              		.loc 1 1072 0 is_stmt 0 discriminator 1
 747 0038 1A78     		ldrb	r2, [r3]	@ zero_extendqisi2
 748 003a 022A     		cmp	r2, #2
 749 003c 3FD0     		beq	.L85
 750              	.L72:
 751              		.loc 1 1076 0 is_stmt 1
 752 003e 9DED037A 		vldr.32	s14, [sp, #12]	@ int
 753 0042 DDED017A 		vldr.32	s15, [sp, #4]
 754 0046 B8EE477A 		vcvt.f32.u32	s14, s14
 755 004a 27EE277A 		vmul.f32	s14, s14, s15
 756 004e BCEEC77A 		vcvt.u32.f32	s14, s14
 757 0052 8DED007A 		vstr.32	s14, [sp]	@ int
 758 0056 BDF80020 		ldrh	r2, [sp]
 759 005a 0492     		str	r2, [sp, #16]
 760              		.loc 1 1079 0
 761 005c 9A78     		ldrb	r2, [r3, #2]	@ zero_extendqisi2
 762 005e 012A     		cmp	r2, #1
 763 0060 4DD0     		beq	.L86
 764              	.L74:
 765              		.loc 1 1082 0
 766 0062 2B4A     		ldr	r2, .L87+8
 767 0064 1278     		ldrb	r2, [r2]	@ zero_extendqisi2
 768 0066 012A     		cmp	r2, #1
 769 0068 25D0     		beq	.L76
 770              		.loc 1 1082 0 is_stmt 0 discriminator 1
 771 006a 1B78     		ldrb	r3, [r3]	@ zero_extendqisi2
 772 006c 022B     		cmp	r3, #2
 773 006e 22D0     		beq	.L76
 774              		.loc 1 1085 0 is_stmt 1
 775 0070 9FED286A 		vldr.32	s12, .L87+12
 776 0074 DFED286A 		vldr.32	s13, .L87+16
 777 0078 284B     		ldr	r3, .L87+20
 778 007a F0EEE77A 		vabs.f32	s15, s15
 779 007e B7EE007A 		vmov.f32	s14, #1.0e+0
 780 0082 37EE677A 		vsub.f32	s14, s14, s15
 781 0086 67EE867A 		vmul.f32	s15, s15, s12
 782 008a E7EE267A 		vfma.f32	s15, s14, s13
 783 008e C3ED007A 		vstr.32	s15, [r3]
 784              	.L75:
 785              		.loc 1 1090 0
 786 0092 D3ED007A 		vldr.32	s15, [r3]
 787 0096 224A     		ldr	r2, .L87+24
 788 0098 FDEEE77A 		vcvt.s32.f32	s15, s15
 789              		.loc 1 1091 0
 790 009c 02A8     		add	r0, sp, #8
 791              		.loc 1 1090 0
 792 009e 17EE903A 		vmov	r3, s15	@ int
 793 00a2 92FBF3F3 		sdiv	r3, r2, r3
 794 00a6 0393     		str	r3, [sp, #12]
 795              		.loc 1 1091 0
 796 00a8 FFF7FEFF 		bl	update_adc_sample_pos
 797              	.LVL31:
 798              		.loc 1 1092 0
ARM GAS  C:\Users\euanm\AppData\Local\Temp\ccjmNLkj.s 			page 15


 799 00ac 02A8     		add	r0, sp, #8
 800 00ae FFF7FEFF 		bl	set_next_timer_settings
 801              	.LVL32:
 802              		.loc 1 1093 0
 803 00b2 08B0     		add	sp, sp, #32
 804              		.cfi_remember_state
 805              		.cfi_def_cfa_offset 16
 806              		@ sp needed
 807 00b4 70BD     		pop	{r4, r5, r6, pc}
 808              	.LVL33:
 809              	.L76:
 810              		.cfi_restore_state
 811              		.loc 1 1083 0
 812 00b6 194B     		ldr	r3, .L87+20
 813 00b8 1A4A     		ldr	r2, .L87+28
 814 00ba 1A60     		str	r2, [r3]	@ float
 815 00bc E9E7     		b	.L75
 816              	.L85:
 817              		.loc 1 1072 0 discriminator 2
 818 00be 144A     		ldr	r2, .L87+8
 819 00c0 1278     		ldrb	r2, [r2]	@ zero_extendqisi2
 820 00c2 012A     		cmp	r2, #1
 821 00c4 BBD0     		beq	.L72
 822              		.loc 1 1073 0
 823 00c6 DDED036A 		vldr.32	s13, [sp, #12]	@ int
 824              		.loc 1 1074 0
 825 00ca 9DED037A 		vldr.32	s14, [sp, #12]	@ int
 826              		.loc 1 1073 0
 827 00ce DDED017A 		vldr.32	s15, [sp, #4]
 828 00d2 F8EE666A 		vcvt.f32.u32	s13, s13
 829 00d6 B8EE477A 		vcvt.f32.u32	s14, s14
 830 00da B6EE006A 		vmov.f32	s12, #5.0e-1
 831 00de 66EE866A 		vmul.f32	s13, s13, s12
 832 00e2 27EE067A 		vmul.f32	s14, s14, s12
 833 00e6 A6EEA77A 		vfma.f32	s14, s13, s15
 834 00ea BCEEC77A 		vcvt.u32.f32	s14, s14
 835 00ee 8DED007A 		vstr.32	s14, [sp]	@ int
 836 00f2 BDF80020 		ldrh	r2, [sp]
 837 00f6 0492     		str	r2, [sp, #16]
 838              		.loc 1 1079 0
 839 00f8 9A78     		ldrb	r2, [r3, #2]	@ zero_extendqisi2
 840 00fa 012A     		cmp	r2, #1
 841 00fc B1D1     		bne	.L74
 842              	.L86:
 843              		.loc 1 1080 0
 844 00fe 074B     		ldr	r3, .L87+20
 845 0100 094A     		ldr	r2, .L87+32
 846 0102 1A60     		str	r2, [r3]	@ float
 847 0104 C5E7     		b	.L75
 848              	.L88:
 849 0106 00BF     		.align	2
 850              	.L87:
 851 0108 00000000 		.word	.LANCHOR10
 852 010c 00000000 		.word	.LANCHOR0
 853 0110 00000000 		.word	.LANCHOR2
 854 0114 00401C47 		.word	1193033728
 855 0118 00803B45 		.word	1161527296
ARM GAS  C:\Users\euanm\AppData\Local\Temp\ccjmNLkj.s 			page 16


 856 011c 00000000 		.word	.LANCHOR11
 857 0120 007A030A 		.word	168000000
 858 0124 00401C47 		.word	1193033728
 859 0128 0050C346 		.word	1187205120
 860              		.cfi_endproc
 861              	.LFE292:
 862              		.size	set_duty_cycle_hw, .-set_duty_cycle_hw
 863              		.section	.text.rpm_thread,"ax",%progbits
 864              		.align	2
 865              		.p2align 4,,15
 866              		.thumb
 867              		.thumb_func
 868              		.type	rpm_thread, %function
 869              	rpm_thread:
 870              	.LFB295:
 871              		.loc 1 1184 0
 872              		.cfi_startproc
 873              		@ args = 0, pretend = 0, frame = 16
 874              		@ frame_needed = 0, uses_anonymous_args = 0
 875              	.LVL34:
 876              	.LBB87:
 877              	.LBB88:
 878              		.file 2 "ChibiOS_3.0.2/os/rt/include/chregistry.h"
 879              		.loc 2 135 0
 880 0000 C84B     		ldr	r3, .L127
 881 0002 C949     		ldr	r1, .L127+4
 882 0004 9A69     		ldr	r2, [r3, #24]
 883              	.LBE88:
 884              	.LBE87:
 885              	.LBB90:
 886              		.loc 1 1190 0
 887 0006 C94B     		ldr	r3, .L127+8
 888              	.LBE90:
 889              	.LBB107:
 890              	.LBB89:
 891              		.loc 2 135 0
 892 0008 9161     		str	r1, [r2, #24]
 893              	.LBE89:
 894              	.LBE107:
 895              	.LBB108:
 896              		.loc 1 1190 0
 897 000a 1B78     		ldrb	r3, [r3]	@ zero_extendqisi2
 898 000c 002B     		cmp	r3, #0
 899 000e 40F08481 		bne	.L124
 900              	.LBE108:
 901              		.loc 1 1184 0
 902 0012 2DE9F04F 		push	{r4, r5, r6, r7, r8, r9, r10, fp, lr}
 903              		.cfi_def_cfa_offset 36
 904              		.cfi_offset 4, -36
 905              		.cfi_offset 5, -32
 906              		.cfi_offset 6, -28
 907              		.cfi_offset 7, -24
 908              		.cfi_offset 8, -20
 909              		.cfi_offset 9, -16
 910              		.cfi_offset 10, -12
 911              		.cfi_offset 11, -8
 912              		.cfi_offset 14, -4
ARM GAS  C:\Users\euanm\AppData\Local\Temp\ccjmNLkj.s 			page 17


 913 0016 2DED0A8B 		vpush.64	{d8, d9, d10, d11, d12}
 914              		.cfi_def_cfa_offset 76
 915              		.cfi_offset 80, -76
 916              		.cfi_offset 81, -72
 917              		.cfi_offset 82, -68
 918              		.cfi_offset 83, -64
 919              		.cfi_offset 84, -60
 920              		.cfi_offset 85, -56
 921              		.cfi_offset 86, -52
 922              		.cfi_offset 87, -48
 923              		.cfi_offset 88, -44
 924              		.cfi_offset 89, -40
 925 001a DFF85CB3 		ldr	fp, .L127+84
 926 001e DFF83093 		ldr	r9, .L127+44
 927 0022 C34F     		ldr	r7, .L127+12
 928 0024 C34D     		ldr	r5, .L127+16
 929 0026 C44E     		ldr	r6, .L127+20
 930 0028 DFF84483 		ldr	r8, .L127+76
 931 002c DFF84CA3 		ldr	r10, .L127+88
 932              	.LBB109:
 933              	.LBB91:
 934              		.loc 1 1206 0
 935 0030 DFEDC29A 		vldr.32	s19, .L127+24
 936              	.LBE91:
 937              	.LBB92:
 938              		.loc 1 1203 0
 939 0034 9FEDC2AA 		vldr.32	s20, .L127+28
 940 0038 9FEDC28A 		vldr.32	s16, .L127+32
 941              	.LBE92:
 942              		.loc 1 1223 0
 943 003c 9FEDC29A 		vldr.32	s18, .L127+36
 944              		.loc 1 1237 0
 945 0040 DFEDC28A 		vldr.32	s17, .L127+40
 946              	.LBE109:
 947              		.loc 1 1184 0
 948 0044 85B0     		sub	sp, sp, #20
 949              		.cfi_def_cfa_offset 96
 950              	.LBB110:
 951              		.loc 1 1195 0
 952 0046 5C46     		mov	r4, fp
 953 0048 AFE0     		b	.L90
 954              	.LVL35:
 955              	.L91:
 956              	.LBB93:
 957              		.loc 1 1206 0
 958 004a 4FF08043 		mov	r3, #1073741824
 959 004e D3ED097A 		vldr.32	s15, [r3, #36]	@ int
 960              		.loc 1 1208 0
 961 0052 D9ED006A 		vldr.32	s13, [r9]
 962 0056 BE4B     		ldr	r3, .L127+44
 963              		.loc 1 1206 0
 964 0058 F8EE677A 		vcvt.f32.u32	s15, s15
 965 005c B1EE087A 		vmov.f32	s14, #6.0e+0
 966 0060 67EE877A 		vmul.f32	s15, s15, s14
 967              		.loc 1 1208 0
 968 0064 F0EEE66A 		vabs.f32	s13, s13
 969              		.loc 1 1206 0
ARM GAS  C:\Users\euanm\AppData\Local\Temp\ccjmNLkj.s 			page 18


 970 0068 89EEA77A 		vdiv.f32	s14, s19, s15
 971              	.LVL36:
 972              		.loc 1 1208 0
 973 006c F0EEC77A 		vabs.f32	s15, s14
 974 0070 F4EEE67A 		vcmpe.f32	s15, s13
 975 0074 F1EE10FA 		vmrs	APSR_nzcv, FPSCR
 976              		.loc 1 1209 0
 977 0078 48BF     		it	mi
 978 007a 83ED007A 		vstrmi.32	s14, [r3]
 979              	.LVL37:
 980              	.L92:
 981              	.LBE93:
 982              		.loc 1 1215 0
 983 007e 99ED007A 		vldr.32	s14, [r9]
 984 0082 D7ED007A 		vldr.32	s15, [r7]
 985              		.loc 1 1220 0
 986 0086 2B68     		ldr	r3, [r5]
 987              		.loc 1 1223 0
 988 0088 DFEDAF0A 		vldr.32	s1, .L127+36
 989              		.loc 1 1215 0
 990 008c 37EE277A 		vadd.f32	s14, s14, s15
 991 0090 F6EE007A 		vmov.f32	s15, #5.0e-1
 992 0094 67EE277A 		vmul.f32	s15, s14, s15
 993 0098 C9ED007A 		vstr.32	s15, [r9]
 994              		.loc 1 1216 0
 995 009c D9F80010 		ldr	r1, [r9]	@ float
 996              		.loc 1 1217 0
 997 00a0 D9ED00AA 		vldr.32	s21, [r9]
 998              		.loc 1 1220 0
 999 00a4 9A6F     		ldr	r2, [r3, #120]	@ float
 1000 00a6 CBF80020 		str	r2, [fp]	@ float
 1001              		.loc 1 1221 0
 1002 00aa DBED006A 		vldr.32	s13, [fp]
 1003 00ae 328A     		ldrh	r2, [r6, #16]
 1004              		.loc 1 1222 0
 1005 00b0 93ED217A 		vldr.32	s14, [r3, #132]
 1006 00b4 93ED1B6A 		vldr.32	s12, [r3, #108]
 1007              		.loc 1 1216 0
 1008 00b8 3960     		str	r1, [r7]	@ float
 1009              		.loc 1 1221 0
 1010 00ba 92B2     		uxth	r2, r2
 1011 00bc 07EE902A 		vmov	s15, r2	@ int
 1012              		.loc 1 1217 0
 1013 00c0 F0EEEAAA 		vabs.f32	s21, s21
 1014              	.LVL38:
 1015              		.loc 1 1222 0
 1016 00c4 F4EEC6AA 		vcmpe.f32	s21, s12
 1017              		.loc 1 1221 0
 1018 00c8 F8EE677A 		vcvt.f32.u32	s15, s15
 1019              		.loc 1 1222 0
 1020 00cc F1EE10FA 		vmrs	APSR_nzcv, FPSCR
 1021 00d0 D8BF     		it	le
 1022 00d2 93ED1B6A 		vldrle.32	s12, [r3, #108]
 1023              		.loc 1 1221 0
 1024 00d6 67EE877A 		vmul.f32	s15, s15, s14
 1025              		.loc 1 1222 0
 1026 00da C8BF     		it	gt
ARM GAS  C:\Users\euanm\AppData\Local\Temp\ccjmNLkj.s 			page 19


 1027 00dc B0EE6A6A 		vmovgt.f32	s12, s21
 1028              		.loc 1 1221 0
 1029 00e0 87EE867A 		vdiv.f32	s14, s15, s12
 1030              		.loc 1 1223 0
 1031 00e4 B0EE6A0A 		vmov.f32	s0, s21
 1032              		.loc 1 1221 0
 1033 00e8 77EE267A 		vadd.f32	s15, s14, s13
 1034 00ec CBED017A 		vstr.32	s15, [fp, #4]
 1035              		.loc 1 1223 0
 1036 00f0 93ED201A 		vldr.32	s2, [r3, #128]
 1037 00f4 DBED011A 		vldr.32	s3, [fp, #4]
 1038              		.loc 1 1225 0
 1039 00f8 9BED012A 		vldr.32	s4, [fp, #4]
 1040 00fc D3ED1F7A 		vldr.32	s15, [r3, #124]
 1041              		.loc 1 1223 0
 1042 0100 22EE272A 		vmul.f32	s4, s4, s15
 1043 0104 FFF7FEFF 		bl	utils_map
 1044              	.LVL39:
 1045 0108 8BED010A 		vstr.32	s0, [fp, #4]
 1046              		.loc 1 1226 0
 1047 010c DBED006A 		vldr.32	s13, [fp]
 1048 0110 328A     		ldrh	r2, [r6, #16]
 1049              		.loc 1 1227 0
 1050 0112 2B68     		ldr	r3, [r5]
 1051              		.loc 1 1226 0
 1052 0114 92B2     		uxth	r2, r2
 1053 0116 07EE902A 		vmov	s15, r2	@ int
 1054              		.loc 1 1227 0
 1055 011a 93ED217A 		vldr.32	s14, [r3, #132]
 1056 011e D3ED1C5A 		vldr.32	s11, [r3, #112]
 1057              		.loc 1 1226 0
 1058 0122 F8EE677A 		vcvt.f32.u32	s15, s15
 1059              		.loc 1 1229 0
 1060 0126 B7EE006A 		vmov.f32	s12, #1.0e+0
 1061              		.loc 1 1226 0
 1062 012a 67EE877A 		vmul.f32	s15, s15, s14
 1063 012e 87EEA57A 		vdiv.f32	s14, s15, s11
 1064 0132 77EE267A 		vadd.f32	s15, s14, s13
 1065 0136 CBED027A 		vstr.32	s15, [fp, #8]
 1066              		.loc 1 1229 0
 1067 013a DBED017A 		vldr.32	s15, [fp, #4]
 1068 013e F4EEC67A 		vcmpe.f32	s15, s12
 1069 0142 F1EE10FA 		vmrs	APSR_nzcv, FPSCR
 1070              		.loc 1 1230 0
 1071 0146 48BF     		it	mi
 1072 0148 84ED016A 		vstrmi.32	s12, [r4, #4]
 1073              		.loc 1 1233 0
 1074 014c 9BED017A 		vldr.32	s14, [fp, #4]
 1075 0150 DBED027A 		vldr.32	s15, [fp, #8]
 1076 0154 B4EEE77A 		vcmpe.f32	s14, s15
 1077              		.loc 1 1237 0
 1078 0158 8AEE887A 		vdiv.f32	s14, s21, s16
 1079 015c F1EE087A 		vmov.f32	s15, #6.0e+0
 1080 0160 27EE277A 		vmul.f32	s14, s14, s15
 1081              		.loc 1 1233 0
 1082 0164 F1EE10FA 		vmrs	APSR_nzcv, FPSCR
 1083              		.loc 1 1237 0
ARM GAS  C:\Users\euanm\AppData\Local\Temp\ccjmNLkj.s 			page 20


 1084 0168 C8EE876A 		vdiv.f32	s13, s17, s14
 1085              		.loc 1 1234 0
 1086 016c C4BF     		itt	gt
 1087 016e A268     		ldrgt	r2, [r4, #8]	@ float
 1088 0170 6260     		strgt	r2, [r4, #4]	@ float
 1089              	.LBB94:
 1090              	.LBB95:
 1091              		.loc 1 1102 0
 1092 0172 784A     		ldr	r2, .L127+48
 1093              	.LBE95:
 1094              	.LBE94:
 1095              		.loc 1 1237 0
 1096 0174 CBED036A 		vstr.32	s13, [fp, #12]
 1097              		.loc 1 1238 0
 1098 0178 D3ED1B6A 		vldr.32	s13, [r3, #108]
 1099 017c 86EE887A 		vdiv.f32	s14, s13, s16
 1100 0180 67EE277A 		vmul.f32	s15, s14, s15
 1101 0184 88EEA77A 		vdiv.f32	s14, s17, s15
 1102 0188 8BED047A 		vstr.32	s14, [fp, #16]
 1103              	.LBB104:
 1104              	.LBB102:
 1105              		.loc 1 1102 0
 1106 018c 1278     		ldrb	r2, [r2]	@ zero_extendqisi2
 1107 018e 012A     		cmp	r2, #1
 1108 0190 2CD0     		beq	.L99
 1109              		.loc 1 1103 0
 1110 0192 88ED009A 		vstr.32	s18, [r8]
 1111              		.loc 1 1104 0
 1112 0196 8AED009A 		vstr.32	s18, [r10]
 1113              	.LVL40:
 1114              	.L111:
 1115              	.LBE102:
 1116              	.LBE104:
 1117              		.loc 1 1242 0
 1118 019a 0A20     		movs	r0, #10
 1119 019c FFF7FEFF 		bl	chThdSleep
 1120              	.LVL41:
 1121              		.loc 1 1190 0
 1122 01a0 624B     		ldr	r3, .L127+8
 1123 01a2 1B78     		ldrb	r3, [r3]	@ zero_extendqisi2
 1124 01a4 002B     		cmp	r3, #0
 1125 01a6 40F0B080 		bne	.L126
 1126              	.L90:
 1127              		.loc 1 1195 0
 1128 01aa DBF81430 		ldr	r3, [fp, #20]
 1129 01ae 002B     		cmp	r3, #0
 1130 01b0 3FF44BAF 		beq	.L91
 1131              	.LBB105:
 1132              		.loc 1 1196 0
 1133 01b4 FFF7FEFF 		bl	utils_sys_lock_cnt
 1134              	.LVL42:
 1135              		.loc 1 1197 0
 1136 01b8 94ED05BA 		vldr.32	s22, [r4, #20]	@ int
 1137              	.LVL43:
 1138              		.loc 1 1198 0
 1139 01bc D4ED06AA 		vldr.32	s21, [r4, #24]	@ int
 1140              	.LVL44:
ARM GAS  C:\Users\euanm\AppData\Local\Temp\ccjmNLkj.s 			page 21


 1141              		.loc 1 1199 0
 1142 01c0 0023     		movs	r3, #0
 1143 01c2 6361     		str	r3, [r4, #20]
 1144              		.loc 1 1200 0
 1145 01c4 A361     		str	r3, [r4, #24]
 1146              		.loc 1 1201 0
 1147 01c6 FFF7FEFF 		bl	utils_sys_unlock_cnt
 1148              	.LVL45:
 1149              		.loc 1 1203 0
 1150 01ca B8EECBBA 		vcvt.f32.s32	s22, s22
 1151              	.LVL46:
 1152 01ce F8EE6AAA 		vcvt.f32.u32	s21, s21
 1153              	.LVL47:
 1154 01d2 2BEE0ABA 		vmul.f32	s22, s22, s20
 1155              	.LVL48:
 1156 01d6 F1EE087A 		vmov.f32	s15, #6.0e+0
 1157 01da 2BEE08BA 		vmul.f32	s22, s22, s16
 1158 01de 6AEEA7AA 		vmul.f32	s21, s21, s15
 1159              	.LVL49:
 1160 01e2 CBEE2A7A 		vdiv.f32	s15, s22, s21
 1161 01e6 C9ED007A 		vstr.32	s15, [r9]
 1162              	.LBE105:
 1163 01ea 48E7     		b	.L92
 1164              	.LVL50:
 1165              	.L99:
 1166              	.LBB106:
 1167              	.LBB103:
 1168              		.loc 1 1109 0
 1169 01ec 5A4A     		ldr	r2, .L127+52
 1170 01ee D2ED007A 		vldr.32	s15, [r2]
 1171 01f2 93ED407A 		vldr.32	s14, [r3, #256]
 1172 01f6 F0EEE77A 		vabs.f32	s15, s15
 1173 01fa F4EEC77A 		vcmpe.f32	s15, s14
 1174 01fe F1EE10FA 		vmrs	APSR_nzcv, FPSCR
 1175 0202 07D5     		bpl	.L121
 1176              		.loc 1 1112 0
 1177 0204 554B     		ldr	r3, .L127+56
 1178              		.loc 1 1110 0
 1179 0206 88ED009A 		vstr.32	s18, [r8]
 1180              		.loc 1 1111 0
 1181 020a 8AED009A 		vstr.32	s18, [r10]
 1182              		.loc 1 1112 0
 1183 020e 83ED009A 		vstr.32	s18, [r3]
 1184 0212 C2E7     		b	.L111
 1185              	.L121:
 1186              		.loc 1 1117 0
 1187 0214 318A     		ldrh	r1, [r6, #16]
 1188 0216 DFED526A 		vldr.32	s13, .L127+60
 1189 021a 9FED527A 		vldr.32	s14, .L127+64
 1190              	.LBB96:
 1191              	.LBB97:
 1192              		.loc 1 723 0
 1193 021e 5248     		ldr	r0, .L127+68
 1194              	.LBE97:
 1195              	.LBE96:
 1196              		.loc 1 1120 0
 1197 0220 92ED006A 		vldr.32	s12, [r2]
ARM GAS  C:\Users\euanm\AppData\Local\Temp\ccjmNLkj.s 			page 22


 1198              		.loc 1 1117 0
 1199 0224 89B2     		uxth	r1, r1
 1200 0226 07EE901A 		vmov	s15, r1	@ int
 1201 022a F8EE677A 		vcvt.f32.u32	s15, s15
 1202              	.LBB100:
 1203              	.LBB98:
 1204              		.loc 1 723 0
 1205 022e 0168     		ldr	r1, [r0]
 1206 0230 D9ED00AA 		vldr.32	s21, [r9]
 1207              	.LVL51:
 1208              	.LBE98:
 1209              	.LBE100:
 1210              		.loc 1 1117 0
 1211 0234 67EEA67A 		vmul.f32	s15, s15, s13
 1212 0238 F7EE006A 		vmov.f32	s13, #1.0e+0
 1213 023c 67EE877A 		vmul.f32	s15, s15, s14
 1214 0240 C6EEA7BA 		vdiv.f32	s23, s13, s15
 1215              	.LVL52:
 1216              	.LBB101:
 1217              	.LBB99:
 1218              		.loc 1 723 0
 1219 0244 09B9     		cbnz	r1, .L104
 1220 0246 F1EE6AAA 		vneg.f32	s21, s21
 1221              	.L104:
 1222              	.LBE99:
 1223              	.LBE101:
 1224              		.loc 1 1123 0
 1225 024a 93ED3DCA 		vldr.32	s24, [r3, #244]
 1226              		.loc 1 1124 0
 1227 024e DFED477A 		vldr.32	s15, .L127+72
 1228 0252 93ED3E7A 		vldr.32	s14, [r3, #248]
 1229              		.loc 1 1125 0
 1230 0256 93ED3F5A 		vldr.32	s10, [r3, #252]
 1231              		.loc 1 1124 0
 1232 025a D8ED005A 		vldr.32	s11, [r8]
 1233              		.loc 1 1125 0
 1234 025e 9AED00BA 		vldr.32	s22, [r10]
 1235              		.loc 1 1128 0
 1236 0262 4348     		ldr	r0, .L127+76
 1237 0264 0192     		str	r2, [sp, #4]
 1238              		.loc 1 1125 0
 1239 0266 C5EE276A 		vdiv.f32	s13, s10, s15
 1240              		.loc 1 1120 0
 1241 026a 76EE6AAA 		vsub.f32	s21, s12, s21
 1242              	.LVL53:
 1243              		.loc 1 1124 0
 1244 026e 67EE277A 		vmul.f32	s15, s14, s15
 1245              		.loc 1 1125 0
 1246 0272 3AEECBBA 		vsub.f32	s22, s21, s22
 1247              		.loc 1 1124 0
 1248 0276 67EEAA7A 		vmul.f32	s15, s15, s21
 1249              		.loc 1 1128 0
 1250 027a F7EE000A 		vmov.f32	s1, #1.0e+0
 1251              		.loc 1 1124 0
 1252 027e EBEEA75A 		vfma.f32	s11, s23, s15
 1253              		.loc 1 1128 0
 1254 0282 BFEE000A 		vmov.f32	s0, #-1.0e+0
ARM GAS  C:\Users\euanm\AppData\Local\Temp\ccjmNLkj.s 			page 23


 1255              		.loc 1 1125 0
 1256 0286 2BEE26BA 		vmul.f32	s22, s22, s13
 1257              		.loc 1 1123 0
 1258 028a 2AEE8CCA 		vmul.f32	s24, s21, s24
 1259              	.LVL54:
 1260              		.loc 1 1124 0
 1261 028e C8ED005A 		vstr.32	s11, [r8]
 1262              		.loc 1 1128 0
 1263 0292 FFF7FEFF 		bl	utils_truncate_number
 1264              	.LVL55:
 1265              		.loc 1 1134 0
 1266 0296 D8ED007A 		vldr.32	s15, [r8]
 1267              		.loc 1 1136 0
 1268 029a 364B     		ldr	r3, .L127+80
 1269              		.loc 1 1131 0
 1270 029c CAED00AA 		vstr.32	s21, [r10]
 1271              		.loc 1 1134 0
 1272 02a0 EBEE8C7A 		vfma.f32	s15, s23, s24
 1273              		.loc 1 1136 0
 1274 02a4 1978     		ldrb	r1, [r3]	@ zero_extendqisi2
 1275 02a6 019A     		ldr	r2, [sp, #4]
 1276              		.loc 1 1134 0
 1277 02a8 EBEE8B7A 		vfma.f32	s15, s23, s22
 1278 02ac CDED037A 		vstr.32	s15, [sp, #12]
 1279              		.loc 1 1136 0
 1280 02b0 19B9     		cbnz	r1, .L105
 1281 02b2 2968     		ldr	r1, [r5]
 1282 02b4 91F80411 		ldrb	r1, [r1, #260]	@ zero_extendqisi2
 1283 02b8 F9B9     		cbnz	r1, .L106
 1284              	.L105:
 1285 02ba 1B78     		ldrb	r3, [r3]	@ zero_extendqisi2
 1286 02bc 022B     		cmp	r3, #2
 1287 02be 1CD0     		beq	.L106
 1288              		.loc 1 1139 0
 1289 02c0 D2ED007A 		vldr.32	s15, [r2]
 1290 02c4 F5EEC07A 		vcmpe.f32	s15, #0
 1291 02c8 F1EE10FA 		vmrs	APSR_nzcv, FPSCR
 1292              		.loc 1 1140 0
 1293 02cc 4BBF     		itete	mi
 1294 02ce DFED1E0A 		vldrmi.32	s1, .L127+36
 1295              		.loc 1 1142 0
 1296 02d2 9FED1D0A 		vldrpl.32	s0, .L127+36
 1297              		.loc 1 1140 0
 1298 02d6 BFEE000A 		vmovmi.f32	s0, #-1.0e+0
 1299              		.loc 1 1142 0
 1300 02da F7EE000A 		vmovpl.f32	s1, #1.0e+0
 1301 02de 03A8     		add	r0, sp, #12
 1302 02e0 FFF7FEFF 		bl	utils_truncate_number
 1303              	.LVL56:
 1304              	.L108:
 1305              		.loc 1 1146 0
 1306 02e4 2B68     		ldr	r3, [r5]
 1307 02e6 DDED037A 		vldr.32	s15, [sp, #12]
 1308 02ea 93ED177A 		vldr.32	s14, [r3, #92]
 1309 02ee 1B4B     		ldr	r3, .L127+56
 1310 02f0 67EE277A 		vmul.f32	s15, s14, s15
 1311 02f4 C3ED007A 		vstr.32	s15, [r3]
ARM GAS  C:\Users\euanm\AppData\Local\Temp\ccjmNLkj.s 			page 24


 1312 02f8 4FE7     		b	.L111
 1313              	.L106:
 1314              		.loc 1 1137 0
 1315 02fa F7EE000A 		vmov.f32	s1, #1.0e+0
 1316 02fe BFEE000A 		vmov.f32	s0, #-1.0e+0
 1317 0302 03A8     		add	r0, sp, #12
 1318 0304 FFF7FEFF 		bl	utils_truncate_number
 1319              	.LVL57:
 1320 0308 ECE7     		b	.L108
 1321              	.LVL58:
 1322              	.L126:
 1323              	.LBE103:
 1324              	.LBE106:
 1325              		.loc 1 1191 0
 1326 030a 084A     		ldr	r2, .L127+8
 1327 030c 0023     		movs	r3, #0
 1328 030e 1370     		strb	r3, [r2]
 1329              	.LBE110:
 1330              		.loc 1 1244 0
 1331 0310 05B0     		add	sp, sp, #20
 1332              		.cfi_def_cfa_offset 76
 1333              		@ sp needed
 1334 0312 BDEC0A8B 		vldm	sp!, {d8-d12}
 1335              		.cfi_restore 88
 1336              		.cfi_restore 89
 1337              		.cfi_restore 86
 1338              		.cfi_restore 87
 1339              		.cfi_restore 84
 1340              		.cfi_restore 85
 1341              		.cfi_restore 82
 1342              		.cfi_restore 83
 1343              		.cfi_restore 80
 1344              		.cfi_restore 81
 1345              		.cfi_def_cfa_offset 36
 1346 0316 BDE8F08F 		pop	{r4, r5, r6, r7, r8, r9, r10, fp, pc}
 1347              	.LVL59:
 1348              	.L124:
 1349              		.cfi_def_cfa_offset 0
 1350              		.cfi_restore 4
 1351              		.cfi_restore 5
 1352              		.cfi_restore 6
 1353              		.cfi_restore 7
 1354              		.cfi_restore 8
 1355              		.cfi_restore 9
 1356              		.cfi_restore 10
 1357              		.cfi_restore 11
 1358              		.cfi_restore 14
 1359              	.LBB111:
 1360              		.loc 1 1191 0
 1361 031a 044A     		ldr	r2, .L127+8
 1362 031c 0023     		movs	r3, #0
 1363 031e 1370     		strb	r3, [r2]
 1364 0320 7047     		bx	lr
 1365              	.L128:
 1366 0322 00BF     		.align	2
 1367              	.L127:
 1368 0324 00000000 		.word	ch
ARM GAS  C:\Users\euanm\AppData\Local\Temp\ccjmNLkj.s 			page 25


 1369 0328 00000000 		.word	.LC1
 1370 032c 00000000 		.word	.LANCHOR12
 1371 0330 00000000 		.word	.LANCHOR14
 1372 0334 00000000 		.word	.LANCHOR0
 1373 0338 00000000 		.word	ADC_Value
 1374 033c C0E1644C 		.word	1281679808
 1375 0340 00247449 		.word	1232348160
 1376 0344 00007042 		.word	1114636288
 1377 0348 00000000 		.word	0
 1378 034c 00401C47 		.word	1193033728
 1379 0350 00000000 		.word	.LANCHOR13
 1380 0354 00000000 		.word	.LANCHOR15
 1381 0358 00000000 		.word	.LANCHOR18
 1382 035c 00000000 		.word	.LANCHOR19
 1383 0360 6740533A 		.word	978534503
 1384 0364 74D19541 		.word	1100337524
 1385 0368 00000000 		.word	.LANCHOR4
 1386 036c 6F12833A 		.word	981668463
 1387 0370 00000000 		.word	.LANCHOR16
 1388 0374 00000000 		.word	.LANCHOR20
 1389 0378 00000000 		.word	.LANCHOR6
 1390 037c 00000000 		.word	.LANCHOR17
 1391              	.LBE111:
 1392              		.cfi_endproc
 1393              	.LFE295:
 1394              		.size	rpm_thread, .-rpm_thread
 1395              		.section	.text.timer_thread,"ax",%progbits
 1396              		.align	2
 1397              		.p2align 4,,15
 1398              		.thumb
 1399              		.thumb_func
 1400              		.type	timer_thread, %function
 1401              	timer_thread:
 1402              	.LFB296:
 1403              		.loc 1 1246 0
 1404              		.cfi_startproc
 1405              		@ args = 0, pretend = 0, frame = 0
 1406              		@ frame_needed = 0, uses_anonymous_args = 0
 1407              	.LVL60:
 1408 0000 2DE9F843 		push	{r3, r4, r5, r6, r7, r8, r9, lr}
 1409              		.cfi_def_cfa_offset 32
 1410              		.cfi_offset 3, -32
 1411              		.cfi_offset 4, -28
 1412              		.cfi_offset 5, -24
 1413              		.cfi_offset 6, -20
 1414              		.cfi_offset 7, -16
 1415              		.cfi_offset 8, -12
 1416              		.cfi_offset 9, -8
 1417              		.cfi_offset 14, -4
 1418              	.LBB112:
 1419              	.LBB113:
 1420              		.loc 2 135 0
 1421 0004 7B4B     		ldr	r3, .L180
 1422              	.LBE113:
 1423              	.LBE112:
 1424              	.LBB117:
 1425              		.loc 1 1256 0
ARM GAS  C:\Users\euanm\AppData\Local\Temp\ccjmNLkj.s 			page 26


 1426 0006 7C4D     		ldr	r5, .L180+4
 1427              	.LBE117:
 1428              	.LBB127:
 1429              	.LBB114:
 1430              		.loc 2 135 0
 1431 0008 9A69     		ldr	r2, [r3, #24]
 1432              	.LBE114:
 1433              	.LBE127:
 1434              	.LBB128:
 1435              		.loc 1 1256 0
 1436 000a 2B78     		ldrb	r3, [r5]	@ zero_extendqisi2
 1437              	.LBE128:
 1438              	.LBB129:
 1439              	.LBB115:
 1440              		.loc 2 135 0
 1441 000c 7B49     		ldr	r1, .L180+8
 1442              	.LBE115:
 1443              	.LBE129:
 1444              		.loc 1 1246 0
 1445 000e 2DED028B 		vpush.64	{d8}
 1446              		.cfi_def_cfa_offset 40
 1447              		.cfi_offset 80, -40
 1448              		.cfi_offset 81, -36
 1449              	.LBB130:
 1450              	.LBB116:
 1451              		.loc 2 135 0
 1452 0012 9161     		str	r1, [r2, #24]
 1453              	.LBE116:
 1454              	.LBE130:
 1455              	.LBB131:
 1456              		.loc 1 1256 0
 1457 0014 002B     		cmp	r3, #0
 1458 0016 54D1     		bne	.L157
 1459              		.loc 1 1333 0
 1460 0018 794E     		ldr	r6, .L180+12
 1461 001a 7A4C     		ldr	r4, .L180+16
 1462 001c 7A4F     		ldr	r7, .L180+20
 1463              		.loc 1 1298 0
 1464 001e DFED7B8A 		vldr.32	s17, .L180+24
 1465              		.loc 1 1346 0
 1466 0022 9FED7B8A 		vldr.32	s16, .L180+28
 1467              		.loc 1 1313 0
 1468 0026 B046     		mov	r8, r6
 1469 0028 06E0     		b	.L130
 1470              	.LVL61:
 1471              	.L176:
 1472              		.loc 1 1338 0
 1473 002a 1360     		str	r3, [r2]
 1474              	.L153:
 1475              		.loc 1 1352 0
 1476 002c 0A20     		movs	r0, #10
 1477 002e FFF7FEFF 		bl	chThdSleep
 1478              	.LVL62:
 1479              		.loc 1 1256 0
 1480 0032 2B78     		ldrb	r3, [r5]	@ zero_extendqisi2
 1481 0034 002B     		cmp	r3, #0
 1482 0036 44D1     		bne	.L157
ARM GAS  C:\Users\euanm\AppData\Local\Temp\ccjmNLkj.s 			page 27


 1483              	.L130:
 1484              		.loc 1 1261 0
 1485 0038 2378     		ldrb	r3, [r4]	@ zero_extendqisi2
 1486 003a 03F0FF09 		and	r9, r3, #255
 1487 003e 002B     		cmp	r3, #0
 1488 0040 45D0     		beq	.L175
 1489              		.loc 1 1333 0
 1490 0042 0023     		movs	r3, #0
 1491 0044 3360     		str	r3, [r6]
 1492              	.L151:
 1493              		.loc 1 1338 0
 1494 0046 3B68     		ldr	r3, [r7]
 1495 0048 6F4A     		ldr	r2, .L180+20
 1496 004a 0133     		adds	r3, r3, #1
 1497              		.loc 1 1339 0
 1498 004c 092B     		cmp	r3, #9
 1499 004e ECDD     		ble	.L176
 1500              		.loc 1 1341 0
 1501 0050 2378     		ldrb	r3, [r4]	@ zero_extendqisi2
 1502 0052 6C48     		ldr	r0, .L180+16
 1503              		.loc 1 1340 0
 1504 0054 0021     		movs	r1, #0
 1505              		.loc 1 1341 0
 1506 0056 022B     		cmp	r3, #2
 1507              		.loc 1 1340 0
 1508 0058 1160     		str	r1, [r2]
 1509              		.loc 1 1341 0
 1510 005a 00F0B580 		beq	.L177
 1511              		.loc 1 1344 0
 1512 005e 0378     		ldrb	r3, [r0]	@ zero_extendqisi2
 1513 0060 002B     		cmp	r3, #0
 1514 0062 E3D1     		bne	.L153
 1515              		.loc 1 1345 0
 1516 0064 6B4B     		ldr	r3, .L180+32
 1517 0066 6C4A     		ldr	r2, .L180+36
 1518 0068 1B68     		ldr	r3, [r3]
 1519 006a 93ED157A 		vldr.32	s14, [r3, #84]
 1520 006e D2ED007A 		vldr.32	s15, [r2]
 1521 0072 B4EEE77A 		vcmpe.f32	s14, s15
 1522 0076 F1EE10FA 		vmrs	APSR_nzcv, FPSCR
 1523 007a D7D8     		bhi	.L153
 1524              	.LBB118:
 1525              	.LBB119:
 1526              		.loc 1 739 0
 1527 007c 6749     		ldr	r1, .L180+40
 1528 007e 684B     		ldr	r3, .L180+44
 1529 0080 91ED000A 		vldr.32	s0, [r1]
 1530 0084 1B8A     		ldrh	r3, [r3, #16]
 1531              	.L174:
 1532              	.LBE119:
 1533              	.LBE118:
 1534              		.loc 1 1346 0
 1535 0086 DFED677A 		vldr.32	s15, .L180+48
 1536              	.LBB122:
 1537              	.LBB120:
 1538              		.loc 1 739 0
 1539 008a D2ED006A 		vldr.32	s13, [r2]
ARM GAS  C:\Users\euanm\AppData\Local\Temp\ccjmNLkj.s 			page 28


 1540              	.LBE120:
 1541              	.LBE122:
 1542              		.loc 1 1346 0
 1543 008e 6648     		ldr	r0, .L180+52
 1544 0090 664A     		ldr	r2, .L180+56
 1545              	.LBB123:
 1546              	.LBB121:
 1547              		.loc 1 739 0
 1548 0092 9BB2     		uxth	r3, r3
 1549              	.LBE121:
 1550              	.LBE123:
 1551              		.loc 1 1346 0
 1552 0094 07EE103A 		vmov	s14, r3	@ int
 1553 0098 B8EE477A 		vcvt.f32.u32	s14, s14
 1554 009c F0EEE66A 		vabs.f32	s13, s13
 1555 00a0 27EE087A 		vmul.f32	s14, s14, s16
 1556 00a4 0721     		movs	r1, #7
 1557 00a6 67EE277A 		vmul.f32	s15, s14, s15
 1558 00aa 67EEA67A 		vmul.f32	s15, s15, s13
 1559 00ae 80EE270A 		vdiv.f32	s0, s0, s15
 1560 00b2 FFF7FEFF 		bl	filter_add_sample
 1561              	.LVL63:
 1562              		.loc 1 1352 0
 1563 00b6 0A20     		movs	r0, #10
 1564 00b8 FFF7FEFF 		bl	chThdSleep
 1565              	.LVL64:
 1566              		.loc 1 1256 0
 1567 00bc 2B78     		ldrb	r3, [r5]	@ zero_extendqisi2
 1568 00be 002B     		cmp	r3, #0
 1569 00c0 BAD0     		beq	.L130
 1570              	.L157:
 1571              	.LBE131:
 1572              		.loc 1 1354 0
 1573 00c2 BDEC028B 		vldm	sp!, {d8}
 1574              		.cfi_remember_state
 1575              		.cfi_restore 80
 1576              		.cfi_restore 81
 1577              		.cfi_def_cfa_offset 32
 1578              	.LBB132:
 1579              		.loc 1 1257 0
 1580 00c6 0023     		movs	r3, #0
 1581 00c8 2B70     		strb	r3, [r5]
 1582              	.LBE132:
 1583              		.loc 1 1354 0
 1584 00ca BDE8F883 		pop	{r3, r4, r5, r6, r7, r8, r9, pc}
 1585              	.L175:
 1586              		.cfi_restore_state
 1587              	.LBB133:
 1588              		.loc 1 1264 0
 1589 00ce 584B     		ldr	r3, .L180+60
 1590 00d0 5849     		ldr	r1, .L180+64
 1591 00d2 1B68     		ldr	r3, [r3]
 1592 00d4 5848     		ldr	r0, .L180+68
 1593 00d6 0722     		movs	r2, #7
 1594 00d8 FFF7FEFF 		bl	filter_run_fir_iteration
 1595              	.LVL65:
 1596              		.loc 1 1268 0
ARM GAS  C:\Users\euanm\AppData\Local\Temp\ccjmNLkj.s 			page 29


 1597 00dc 4D4B     		ldr	r3, .L180+32
 1598 00de D3F800E0 		ldr	lr, [r3]
 1599 00e2 9EF80230 		ldrb	r3, [lr, #2]	@ zero_extendqisi2
 1600 00e6 DBB2     		uxtb	r3, r3
 1601 00e8 012B     		cmp	r3, #1
 1602 00ea 61D0     		beq	.L178
 1603              		.loc 1 1276 0
 1604 00ec 534B     		ldr	r3, .L180+72
 1605 00ee 1B78     		ldrb	r3, [r3]	@ zero_extendqisi2
 1606 00f0 03F0FF01 		and	r1, r3, #255
 1607 00f4 002B     		cmp	r3, #0
 1608 00f6 52D0     		beq	.L136
 1609 00f8 DFED517A 		vldr.32	s15, .L180+76
 1610 00fc 9FED517A 		vldr.32	s14, .L180+80
 1611 0100 5148     		ldr	r0, .L180+84
 1612 0102 4B46     		mov	r3, r9
 1613              	.L141:
 1614              	.LVL66:
 1615              	.LBB124:
 1616              		.loc 1 1281 0
 1617 0104 9A00     		lsls	r2, r3, #2
 1618 0106 8118     		adds	r1, r0, r2
 1619 0108 D1ED006A 		vldr.32	s13, [r1]
 1620 010c F4EEC76A 		vcmpe.f32	s13, s14
 1621 0110 F1EE10FA 		vmrs	APSR_nzcv, FPSCR
 1622              		.loc 1 1282 0
 1623 0114 48BF     		it	mi
 1624 0116 91ED007A 		vldrmi.32	s14, [r1]
 1625              	.LVL67:
 1626              		.loc 1 1285 0
 1627 011a D1ED006A 		vldr.32	s13, [r1]
 1628 011e F4EEE76A 		vcmpe.f32	s13, s15
 1629 0122 F1EE10FA 		vmrs	APSR_nzcv, FPSCR
 1630              		.loc 1 1280 0
 1631 0126 03F10103 		add	r3, r3, #1
 1632              	.LVL68:
 1633              		.loc 1 1286 0
 1634 012a C8BF     		it	gt
 1635 012c D1ED007A 		vldrgt.32	s15, [r1]
 1636              	.LVL69:
 1637              		.loc 1 1280 0
 1638 0130 062B     		cmp	r3, #6
 1639 0132 E7D1     		bne	.L141
 1640              	.LBE124:
 1641              		.loc 1 1298 0
 1642 0134 77EE276A 		vadd.f32	s13, s14, s15
 1643 0138 B6EE006A 		vmov.f32	s12, #5.0e-1
 1644 013c 77EEC77A 		vsub.f32	s15, s15, s14
 1645              	.LVL70:
 1646 0140 26EE867A 		vmul.f32	s14, s13, s12
 1647              	.LVL71:
 1648 0144 C7EE876A 		vdiv.f32	s13, s15, s14
 1649 0148 F4EEE86A 		vcmpe.f32	s13, s17
 1650 014c F1EE10FA 		vmrs	APSR_nzcv, FPSCR
 1651 0150 41DD     		ble	.L169
 1652              		.loc 1 1299 0
 1653 0152 3368     		ldr	r3, [r6]
ARM GAS  C:\Users\euanm\AppData\Local\Temp\ccjmNLkj.s 			page 30


 1654              	.LVL72:
 1655              		.loc 1 1300 0
 1656 0154 3D4A     		ldr	r2, .L180+88
 1657              		.loc 1 1299 0
 1658 0156 0C2B     		cmp	r3, #12
 1659 0158 06DD     		ble	.L135
 1660              		.loc 1 1300 0
 1661 015a 1368     		ldr	r3, [r2]
 1662 015c 012B     		cmp	r3, #1
 1663 015e 46D0     		beq	.L179
 1664              	.L147:
 1665              		.loc 1 1317 0
 1666 0160 0123     		movs	r3, #1
 1667 0162 1360     		str	r3, [r2]
 1668              	.L148:
 1669              		.loc 1 1319 0
 1670 0164 0023     		movs	r3, #0
 1671 0166 3360     		str	r3, [r6]
 1672              	.L135:
 1673              		.loc 1 1326 0
 1674 0168 1368     		ldr	r3, [r2]
 1675              		.loc 1 1327 0
 1676 016a 2B4A     		ldr	r2, .L180+36
 1677              		.loc 1 1331 0
 1678 016c 2A48     		ldr	r0, .L180+36
 1679              		.loc 1 1326 0
 1680 016e 012B     		cmp	r3, #1
 1681              		.loc 1 1327 0
 1682 0170 2B4B     		ldr	r3, .L180+44
 1683 0172 1B8A     		ldrh	r3, [r3, #16]
 1684 0174 9BB2     		uxth	r3, r3
 1685 0176 07EE903A 		vmov	s15, r3	@ int
 1686 017a F8EE677A 		vcvt.f32.u32	s15, s15
 1687              		.loc 1 1329 0
 1688 017e 18BF     		it	ne
 1689 0180 B1EE400A 		vnegne.f32	s0, s0
 1690              	.LVL73:
 1691 0184 80EE277A 		vdiv.f32	s14, s0, s15
 1692 0188 82ED007A 		vstr.32	s14, [r2]
 1693              		.loc 1 1331 0
 1694 018c 9EED160A 		vldr.32	s0, [lr, #88]
 1695 0190 DEED160A 		vldr.32	s1, [lr, #88]
 1696 0194 B1EE400A 		vneg.f32	s0, s0
 1697 0198 FFF7FEFF 		bl	utils_truncate_number
 1698              	.LVL74:
 1699 019c 53E7     		b	.L151
 1700              	.LVL75:
 1701              	.L136:
 1702              		.loc 1 1313 0
 1703 019e 3368     		ldr	r3, [r6]
 1704 01a0 0333     		adds	r3, r3, #3
 1705 01a2 1CDA     		bge	.L146
 1706              		.loc 1 1314 0
 1707 01a4 294A     		ldr	r2, .L180+88
 1708 01a6 1368     		ldr	r3, [r2]
 1709 01a8 012B     		cmp	r3, #1
 1710 01aa D9D1     		bne	.L147
ARM GAS  C:\Users\euanm\AppData\Local\Temp\ccjmNLkj.s 			page 31


 1711              		.loc 1 1315 0
 1712 01ac 1160     		str	r1, [r2]
 1713 01ae D9E7     		b	.L148
 1714              	.L178:
 1715              		.loc 1 1269 0
 1716 01b0 B5EEC00A 		vcmpe.f32	s0, #0
 1717              		.loc 1 1270 0
 1718 01b4 254A     		ldr	r2, .L180+88
 1719              		.loc 1 1269 0
 1720 01b6 F1EE10FA 		vmrs	APSR_nzcv, FPSCR
 1721              		.loc 1 1270 0
 1722 01ba CEBF     		itee	gt
 1723 01bc C2F80090 		strgt	r9, [r2]
 1724              		.loc 1 1273 0
 1725 01c0 B1EE400A 		vnegle.f32	s0, s0
 1726              	.LVL76:
 1727              		.loc 1 1272 0
 1728 01c4 1360     		strle	r3, [r2]
 1729 01c6 CFE7     		b	.L135
 1730              	.LVL77:
 1731              	.L177:
 1732              	.LBB125:
 1733              	.LBB126:
 1734              		.loc 1 739 0
 1735 01c8 144A     		ldr	r2, .L180+40
 1736 01ca 154B     		ldr	r3, .L180+44
 1737 01cc 92ED000A 		vldr.32	s0, [r2]
 1738 01d0 1B8A     		ldrh	r3, [r3, #16]
 1739 01d2 114A     		ldr	r2, .L180+36
 1740 01d4 57E7     		b	.L174
 1741              	.LVL78:
 1742              	.L169:
 1743              	.LBE126:
 1744              	.LBE125:
 1745              		.loc 1 1308 0
 1746 01d6 0023     		movs	r3, #0
 1747              	.LVL79:
 1748 01d8 3360     		str	r3, [r6]
 1749 01da 1C4A     		ldr	r2, .L180+88
 1750 01dc C4E7     		b	.L135
 1751              	.L146:
 1752              		.loc 1 1320 0
 1753 01de D8F80030 		ldr	r3, [r8]
 1754 01e2 1A4A     		ldr	r2, .L180+88
 1755 01e4 002B     		cmp	r3, #0
 1756              		.loc 1 1321 0
 1757 01e6 C8BF     		it	gt
 1758 01e8 C8F80010 		strgt	r1, [r8]
 1759 01ec BCE7     		b	.L135
 1760              	.L179:
 1761              		.loc 1 1301 0
 1762 01ee 0023     		movs	r3, #0
 1763 01f0 1360     		str	r3, [r2]
 1764 01f2 B7E7     		b	.L148
 1765              	.L181:
 1766              		.align	2
 1767              	.L180:
ARM GAS  C:\Users\euanm\AppData\Local\Temp\ccjmNLkj.s 			page 32


 1768 01f4 00000000 		.word	ch
 1769 01f8 00000000 		.word	.LANCHOR21
 1770 01fc 0C000000 		.word	.LC2
 1771 0200 00000000 		.word	.LANCHOR7
 1772 0204 00000000 		.word	.LANCHOR2
 1773 0208 00000000 		.word	.LANCHOR28
 1774 020c 9A99993F 		.word	1067030938
 1775 0210 6740533A 		.word	978534503
 1776 0214 00000000 		.word	.LANCHOR0
 1777 0218 00000000 		.word	.LANCHOR27
 1778 021c 00000000 		.word	.LANCHOR13
 1779 0220 00000000 		.word	ADC_Value
 1780 0224 74D19541 		.word	1100337524
 1781 0228 00000000 		.word	.LANCHOR30
 1782 022c 00000000 		.word	.LANCHOR29
 1783 0230 00000000 		.word	.LANCHOR22
 1784 0234 00000000 		.word	.LANCHOR23
 1785 0238 00000000 		.word	.LANCHOR24
 1786 023c 00000000 		.word	.LANCHOR25
 1787 0240 00000000 		.word	0
 1788 0244 E7841155 		.word	1427211495
 1789 0248 00000000 		.word	.LANCHOR26
 1790 024c 00000000 		.word	.LANCHOR4
 1791              	.LBE133:
 1792              		.cfi_endproc
 1793              	.LFE296:
 1794              		.size	timer_thread, .-timer_thread
 1795              		.section	.text.set_next_comm_step,"ax",%progbits
 1796              		.align	2
 1797              		.p2align 4,,15
 1798              		.thumb
 1799              		.thumb_func
 1800              		.type	set_next_comm_step, %function
 1801              	set_next_comm_step:
 1802              	.LFB319:
 1803              		.loc 1 2488 0
 1804              		.cfi_startproc
 1805              		@ args = 0, pretend = 0, frame = 0
 1806              		@ frame_needed = 0, uses_anonymous_args = 0
 1807              	.LVL80:
 1808 0000 F8B5     		push	{r3, r4, r5, r6, r7, lr}
 1809              		.cfi_def_cfa_offset 24
 1810              		.cfi_offset 3, -24
 1811              		.cfi_offset 4, -20
 1812              		.cfi_offset 5, -16
 1813              		.cfi_offset 6, -12
 1814              		.cfi_offset 7, -8
 1815              		.cfi_offset 14, -4
 1816              		.loc 1 2489 0
 1817 0002 CA4B     		ldr	r3, .L217
 1818 0004 1B68     		ldr	r3, [r3]
 1819 0006 9D78     		ldrb	r5, [r3, #2]	@ zero_extendqisi2
 1820 0008 EDB2     		uxtb	r5, r5
 1821 000a 012D     		cmp	r5, #1
 1822 000c 00F00581 		beq	.L211
 1823              	.LVL81:
 1824              		.loc 1 2529 0
ARM GAS  C:\Users\euanm\AppData\Local\Temp\ccjmNLkj.s 			page 33


 1825 0010 C74A     		ldr	r2, .L217+4
 1826 0012 1278     		ldrb	r2, [r2]	@ zero_extendqisi2
 1827 0014 012A     		cmp	r2, #1
 1828 0016 0446     		mov	r4, r0
 1829 0018 4FD0     		beq	.L200
 1830              		.loc 1 2530 0
 1831 001a 1B78     		ldrb	r3, [r3]	@ zero_extendqisi2
 1832 001c 03F0FF05 		and	r5, r3, #255
 1833 0020 002B     		cmp	r3, #0
 1834 0022 4BD0     		beq	.L203
 1835              		.loc 1 2524 0
 1836 0024 022D     		cmp	r5, #2
 1837 0026 0CBF     		ite	eq
 1838 0028 7026     		moveq	r6, #112
 1839 002a 2026     		movne	r6, #32
 1840              		.loc 1 2544 0
 1841 002c 012C     		cmp	r4, #1
 1842              		.loc 1 2524 0
 1843 002e 4FF00405 		mov	r5, #4
 1844              	.LVL82:
 1845              		.loc 1 2544 0
 1846 0032 47D0     		beq	.L212
 1847              	.L188:
 1848              		.loc 1 2576 0
 1849 0034 022C     		cmp	r4, #2
 1850 0036 00F0C680 		beq	.L213
 1851              		.loc 1 2608 0
 1852 003a 032C     		cmp	r4, #3
 1853 003c 00F01781 		beq	.L214
 1854              		.loc 1 2640 0
 1855 0040 042C     		cmp	r4, #4
 1856 0042 00F03E81 		beq	.L215
 1857              		.loc 1 2672 0
 1858 0046 052C     		cmp	r4, #5
 1859 0048 00F09C80 		beq	.L216
 1860              		.loc 1 2704 0
 1861 004c 062C     		cmp	r4, #6
 1862 004e 40F09081 		bne	.L198
 1863              		.loc 1 2705 0
 1864 0052 B84B     		ldr	r3, .L217+8
 1865 0054 1C68     		ldr	r4, [r3]
 1866              		.loc 1 2707 0
 1867 0056 2022     		movs	r2, #32
 1868              		.loc 1 2705 0
 1869 0058 002C     		cmp	r4, #0
 1870 005a 00F02182 		beq	.L199
 1871              		.loc 1 2707 0
 1872 005e 0821     		movs	r1, #8
 1873 0060 B548     		ldr	r0, .L217+12
 1874              	.LVL83:
 1875 0062 FFF7FEFF 		bl	TIM_SelectOCxM
 1876              	.LVL84:
 1877              		.loc 1 2708 0
 1878 0066 0122     		movs	r2, #1
 1879 0068 0821     		movs	r1, #8
 1880 006a B348     		ldr	r0, .L217+12
 1881 006c FFF7FEFF 		bl	TIM_CCxCmd
ARM GAS  C:\Users\euanm\AppData\Local\Temp\ccjmNLkj.s 			page 34


 1882              	.LVL85:
 1883              		.loc 1 2709 0
 1884 0070 0022     		movs	r2, #0
 1885 0072 0821     		movs	r1, #8
 1886 0074 B048     		ldr	r0, .L217+12
 1887 0076 FFF7FEFF 		bl	TIM_CCxNCmd
 1888              	.LVL86:
 1889              		.loc 1 2712 0
 1890 007a 6022     		movs	r2, #96
 1891 007c 0421     		movs	r1, #4
 1892 007e AE48     		ldr	r0, .L217+12
 1893 0080 FFF7FEFF 		bl	TIM_SelectOCxM
 1894              	.LVL87:
 1895              		.loc 1 2713 0
 1896 0084 0122     		movs	r2, #1
 1897 0086 0421     		movs	r1, #4
 1898 0088 AB48     		ldr	r0, .L217+12
 1899 008a FFF7FEFF 		bl	TIM_CCxCmd
 1900              	.LVL88:
 1901              		.loc 1 2714 0
 1902 008e 2A46     		mov	r2, r5
 1903 0090 0421     		movs	r1, #4
 1904              	.L208:
 1905 0092 A948     		ldr	r0, .L217+12
 1906 0094 FFF7FEFF 		bl	TIM_CCxNCmd
 1907              	.LVL89:
 1908              		.loc 1 2717 0
 1909 0098 3246     		mov	r2, r6
 1910 009a 0021     		movs	r1, #0
 1911 009c A648     		ldr	r0, .L217+12
 1912 009e FFF7FEFF 		bl	TIM_SelectOCxM
 1913              	.LVL90:
 1914              		.loc 1 2718 0
 1915 00a2 0122     		movs	r2, #1
 1916 00a4 0021     		movs	r1, #0
 1917 00a6 A448     		ldr	r0, .L217+12
 1918 00a8 FFF7FEFF 		bl	TIM_CCxCmd
 1919              	.LVL91:
 1920              		.loc 1 2719 0
 1921 00ac 0422     		movs	r2, #4
 1922 00ae 0021     		movs	r1, #0
 1923 00b0 A148     		ldr	r0, .L217+12
 1924              		.loc 1 2750 0
 1925 00b2 BDE8F840 		pop	{r3, r4, r5, r6, r7, lr}
 1926              		.cfi_remember_state
 1927              		.cfi_restore 14
 1928              		.cfi_restore 7
 1929              		.cfi_restore 6
 1930              		.cfi_restore 5
 1931              		.cfi_restore 4
 1932              		.cfi_restore 3
 1933              		.cfi_def_cfa_offset 0
 1934              	.LVL92:
 1935              		.loc 1 2719 0
 1936 00b6 FFF7FEBF 		b	TIM_CCxNCmd
 1937              	.LVL93:
 1938              	.L200:
ARM GAS  C:\Users\euanm\AppData\Local\Temp\ccjmNLkj.s 			page 35


 1939              		.cfi_restore_state
 1940              		.loc 1 2524 0
 1941 00ba 0425     		movs	r5, #4
 1942              	.L203:
 1943              		.loc 1 2544 0
 1944 00bc 012C     		cmp	r4, #1
 1945              		.loc 1 2521 0
 1946 00be 4FF02006 		mov	r6, #32
 1947              	.LVL94:
 1948              		.loc 1 2544 0
 1949 00c2 B7D1     		bne	.L188
 1950              	.L212:
 1951              		.loc 1 2545 0
 1952 00c4 9B4B     		ldr	r3, .L217+8
 1953 00c6 1F68     		ldr	r7, [r3]
 1954              		.loc 1 2547 0
 1955 00c8 2022     		movs	r2, #32
 1956              		.loc 1 2545 0
 1957 00ca 6FB3     		cbz	r7, .L189
 1958              		.loc 1 2547 0
 1959 00cc 0021     		movs	r1, #0
 1960 00ce 9A48     		ldr	r0, .L217+12
 1961              	.LVL95:
 1962 00d0 FFF7FEFF 		bl	TIM_SelectOCxM
 1963              	.LVL96:
 1964              		.loc 1 2548 0
 1965 00d4 2246     		mov	r2, r4
 1966 00d6 0021     		movs	r1, #0
 1967 00d8 9748     		ldr	r0, .L217+12
 1968 00da FFF7FEFF 		bl	TIM_CCxCmd
 1969              	.LVL97:
 1970              		.loc 1 2549 0
 1971 00de 0022     		movs	r2, #0
 1972 00e0 1146     		mov	r1, r2
 1973 00e2 9548     		ldr	r0, .L217+12
 1974 00e4 FFF7FEFF 		bl	TIM_CCxNCmd
 1975              	.LVL98:
 1976              		.loc 1 2552 0
 1977 00e8 6022     		movs	r2, #96
 1978 00ea 0421     		movs	r1, #4
 1979 00ec 9248     		ldr	r0, .L217+12
 1980 00ee FFF7FEFF 		bl	TIM_SelectOCxM
 1981              	.LVL99:
 1982              		.loc 1 2553 0
 1983 00f2 2246     		mov	r2, r4
 1984 00f4 0421     		movs	r1, #4
 1985 00f6 9048     		ldr	r0, .L217+12
 1986 00f8 FFF7FEFF 		bl	TIM_CCxCmd
 1987              	.LVL100:
 1988              		.loc 1 2554 0
 1989 00fc 2A46     		mov	r2, r5
 1990 00fe 0421     		movs	r1, #4
 1991 0100 8D48     		ldr	r0, .L217+12
 1992 0102 FFF7FEFF 		bl	TIM_CCxNCmd
 1993              	.LVL101:
 1994              		.loc 1 2557 0
 1995 0106 3246     		mov	r2, r6
ARM GAS  C:\Users\euanm\AppData\Local\Temp\ccjmNLkj.s 			page 36


 1996 0108 0821     		movs	r1, #8
 1997 010a 8B48     		ldr	r0, .L217+12
 1998 010c FFF7FEFF 		bl	TIM_SelectOCxM
 1999              	.LVL102:
 2000              		.loc 1 2558 0
 2001 0110 2246     		mov	r2, r4
 2002              	.LVL103:
 2003              	.L204:
 2004 0112 0821     		movs	r1, #8
 2005 0114 8848     		ldr	r0, .L217+12
 2006 0116 FFF7FEFF 		bl	TIM_CCxCmd
 2007              	.LVL104:
 2008              		.loc 1 2559 0
 2009 011a 0422     		movs	r2, #4
 2010 011c 0821     		movs	r1, #8
 2011 011e 8648     		ldr	r0, .L217+12
 2012              		.loc 1 2750 0
 2013 0120 BDE8F840 		pop	{r3, r4, r5, r6, r7, lr}
 2014              		.cfi_remember_state
 2015              		.cfi_restore 14
 2016              		.cfi_restore 7
 2017              		.cfi_restore 6
 2018              		.cfi_restore 5
 2019              		.cfi_restore 4
 2020              		.cfi_restore 3
 2021              		.cfi_def_cfa_offset 0
 2022              		.loc 1 2559 0
 2023 0124 FFF7FEBF 		b	TIM_CCxNCmd
 2024              	.LVL105:
 2025              	.L189:
 2026              		.cfi_restore_state
 2027              		.loc 1 2562 0
 2028 0128 3946     		mov	r1, r7
 2029 012a 8348     		ldr	r0, .L217+12
 2030              	.LVL106:
 2031 012c FFF7FEFF 		bl	TIM_SelectOCxM
 2032              	.LVL107:
 2033              		.loc 1 2563 0
 2034 0130 2246     		mov	r2, r4
 2035 0132 3946     		mov	r1, r7
 2036 0134 8048     		ldr	r0, .L217+12
 2037 0136 FFF7FEFF 		bl	TIM_CCxCmd
 2038              	.LVL108:
 2039              		.loc 1 2564 0
 2040 013a 3A46     		mov	r2, r7
 2041 013c 3946     		mov	r1, r7
 2042 013e 7E48     		ldr	r0, .L217+12
 2043 0140 FFF7FEFF 		bl	TIM_CCxNCmd
 2044              	.LVL109:
 2045              		.loc 1 2567 0
 2046 0144 6022     		movs	r2, #96
 2047 0146 0821     		movs	r1, #8
 2048 0148 7B48     		ldr	r0, .L217+12
 2049 014a FFF7FEFF 		bl	TIM_SelectOCxM
 2050              	.LVL110:
 2051              		.loc 1 2568 0
 2052 014e 2246     		mov	r2, r4
ARM GAS  C:\Users\euanm\AppData\Local\Temp\ccjmNLkj.s 			page 37


 2053 0150 0821     		movs	r1, #8
 2054 0152 7948     		ldr	r0, .L217+12
 2055 0154 FFF7FEFF 		bl	TIM_CCxCmd
 2056              	.LVL111:
 2057              		.loc 1 2569 0
 2058 0158 2A46     		mov	r2, r5
 2059 015a 0821     		movs	r1, #8
 2060 015c 7648     		ldr	r0, .L217+12
 2061 015e FFF7FEFF 		bl	TIM_CCxNCmd
 2062              	.LVL112:
 2063              		.loc 1 2572 0
 2064 0162 3246     		mov	r2, r6
 2065 0164 0421     		movs	r1, #4
 2066 0166 7448     		ldr	r0, .L217+12
 2067 0168 FFF7FEFF 		bl	TIM_SelectOCxM
 2068              	.LVL113:
 2069              		.loc 1 2573 0
 2070 016c 2246     		mov	r2, r4
 2071              	.LVL114:
 2072              	.L206:
 2073              		.loc 1 2605 0
 2074 016e 0421     		movs	r1, #4
 2075 0170 7148     		ldr	r0, .L217+12
 2076 0172 FFF7FEFF 		bl	TIM_CCxCmd
 2077              	.LVL115:
 2078              		.loc 1 2606 0
 2079 0176 0422     		movs	r2, #4
 2080 0178 1146     		mov	r1, r2
 2081 017a 6F48     		ldr	r0, .L217+12
 2082              		.loc 1 2750 0
 2083 017c BDE8F840 		pop	{r3, r4, r5, r6, r7, lr}
 2084              		.cfi_remember_state
 2085              		.cfi_restore 14
 2086              		.cfi_restore 7
 2087              		.cfi_restore 6
 2088              		.cfi_restore 5
 2089              		.cfi_restore 4
 2090              		.cfi_restore 3
 2091              		.cfi_def_cfa_offset 0
 2092              	.LVL116:
 2093              		.loc 1 2606 0
 2094 0180 FFF7FEBF 		b	TIM_CCxNCmd
 2095              	.LVL117:
 2096              	.L216:
 2097              		.cfi_restore_state
 2098              		.loc 1 2673 0
 2099 0184 6B4B     		ldr	r3, .L217+8
 2100 0186 1C68     		ldr	r4, [r3]
 2101              		.loc 1 2675 0
 2102 0188 2022     		movs	r2, #32
 2103              		.loc 1 2673 0
 2104 018a 002C     		cmp	r4, #0
 2105 018c 00F0AC81 		beq	.L197
 2106              		.loc 1 2675 0
 2107 0190 0421     		movs	r1, #4
 2108 0192 6948     		ldr	r0, .L217+12
 2109              	.LVL118:
ARM GAS  C:\Users\euanm\AppData\Local\Temp\ccjmNLkj.s 			page 38


 2110 0194 FFF7FEFF 		bl	TIM_SelectOCxM
 2111              	.LVL119:
 2112              		.loc 1 2676 0
 2113 0198 0122     		movs	r2, #1
 2114 019a 0421     		movs	r1, #4
 2115 019c 6648     		ldr	r0, .L217+12
 2116 019e FFF7FEFF 		bl	TIM_CCxCmd
 2117              	.LVL120:
 2118              		.loc 1 2677 0
 2119 01a2 0022     		movs	r2, #0
 2120 01a4 0421     		movs	r1, #4
 2121 01a6 6448     		ldr	r0, .L217+12
 2122 01a8 FFF7FEFF 		bl	TIM_CCxNCmd
 2123              	.LVL121:
 2124              		.loc 1 2680 0
 2125 01ac 6022     		movs	r2, #96
 2126 01ae 0821     		movs	r1, #8
 2127 01b0 6148     		ldr	r0, .L217+12
 2128 01b2 FFF7FEFF 		bl	TIM_SelectOCxM
 2129              	.LVL122:
 2130              		.loc 1 2681 0
 2131 01b6 0122     		movs	r2, #1
 2132 01b8 0821     		movs	r1, #8
 2133 01ba 5F48     		ldr	r0, .L217+12
 2134 01bc FFF7FEFF 		bl	TIM_CCxCmd
 2135              	.LVL123:
 2136              		.loc 1 2682 0
 2137 01c0 2A46     		mov	r2, r5
 2138 01c2 0821     		movs	r1, #8
 2139 01c4 65E7     		b	.L208
 2140              	.LVL124:
 2141              	.L213:
 2142              		.loc 1 2577 0
 2143 01c6 5B4B     		ldr	r3, .L217+8
 2144 01c8 1C68     		ldr	r4, [r3]
 2145              		.loc 1 2579 0
 2146 01ca 2022     		movs	r2, #32
 2147              		.loc 1 2577 0
 2148 01cc 002C     		cmp	r4, #0
 2149 01ce 00F0B580 		beq	.L191
 2150              		.loc 1 2579 0
 2151 01d2 0421     		movs	r1, #4
 2152 01d4 5848     		ldr	r0, .L217+12
 2153              	.LVL125:
 2154 01d6 FFF7FEFF 		bl	TIM_SelectOCxM
 2155              	.LVL126:
 2156              		.loc 1 2580 0
 2157 01da 0122     		movs	r2, #1
 2158 01dc 0421     		movs	r1, #4
 2159 01de 5648     		ldr	r0, .L217+12
 2160 01e0 FFF7FEFF 		bl	TIM_CCxCmd
 2161              	.LVL127:
 2162              		.loc 1 2581 0
 2163 01e4 0022     		movs	r2, #0
 2164 01e6 0421     		movs	r1, #4
 2165 01e8 5348     		ldr	r0, .L217+12
 2166 01ea FFF7FEFF 		bl	TIM_CCxNCmd
ARM GAS  C:\Users\euanm\AppData\Local\Temp\ccjmNLkj.s 			page 39


 2167              	.LVL128:
 2168              		.loc 1 2584 0
 2169 01ee 6022     		movs	r2, #96
 2170 01f0 0021     		movs	r1, #0
 2171 01f2 5148     		ldr	r0, .L217+12
 2172 01f4 FFF7FEFF 		bl	TIM_SelectOCxM
 2173              	.LVL129:
 2174              		.loc 1 2585 0
 2175 01f8 0122     		movs	r2, #1
 2176 01fa 0021     		movs	r1, #0
 2177 01fc 4E48     		ldr	r0, .L217+12
 2178 01fe FFF7FEFF 		bl	TIM_CCxCmd
 2179              	.LVL130:
 2180              		.loc 1 2586 0
 2181 0202 2A46     		mov	r2, r5
 2182 0204 0021     		movs	r1, #0
 2183              	.L210:
 2184              		.loc 1 2633 0
 2185 0206 4C48     		ldr	r0, .L217+12
 2186 0208 FFF7FEFF 		bl	TIM_CCxNCmd
 2187              	.LVL131:
 2188              		.loc 1 2636 0
 2189 020c 3246     		mov	r2, r6
 2190 020e 0821     		movs	r1, #8
 2191 0210 4948     		ldr	r0, .L217+12
 2192 0212 FFF7FEFF 		bl	TIM_SelectOCxM
 2193              	.LVL132:
 2194              		.loc 1 2637 0
 2195 0216 0122     		movs	r2, #1
 2196 0218 7BE7     		b	.L204
 2197              	.LVL133:
 2198              	.L211:
 2199              		.loc 1 2491 0
 2200 021a 2022     		movs	r2, #32
 2201 021c 0421     		movs	r1, #4
 2202 021e 4648     		ldr	r0, .L217+12
 2203              	.LVL134:
 2204 0220 FFF7FEFF 		bl	TIM_SelectOCxM
 2205              	.LVL135:
 2206              		.loc 1 2492 0
 2207 0224 2A46     		mov	r2, r5
 2208 0226 0421     		movs	r1, #4
 2209 0228 4348     		ldr	r0, .L217+12
 2210 022a FFF7FEFF 		bl	TIM_CCxCmd
 2211              	.LVL136:
 2212              		.loc 1 2493 0
 2213 022e 0022     		movs	r2, #0
 2214 0230 0421     		movs	r1, #4
 2215 0232 4148     		ldr	r0, .L217+12
 2216 0234 FFF7FEFF 		bl	TIM_CCxNCmd
 2217              	.LVL137:
 2218              		.loc 1 2495 0
 2219 0238 3E4B     		ldr	r3, .L217+8
 2220 023a 1C68     		ldr	r4, [r3]
 2221              		.loc 1 2497 0
 2222 023c 6022     		movs	r2, #96
 2223              		.loc 1 2495 0
ARM GAS  C:\Users\euanm\AppData\Local\Temp\ccjmNLkj.s 			page 40


 2224 023e 002C     		cmp	r4, #0
 2225 0240 00F0C680 		beq	.L184
 2226              		.loc 1 2497 0
 2227 0244 0021     		movs	r1, #0
 2228 0246 3C48     		ldr	r0, .L217+12
 2229 0248 FFF7FEFF 		bl	TIM_SelectOCxM
 2230              	.LVL138:
 2231              		.loc 1 2498 0
 2232 024c 2A46     		mov	r2, r5
 2233 024e 0021     		movs	r1, #0
 2234 0250 3948     		ldr	r0, .L217+12
 2235 0252 FFF7FEFF 		bl	TIM_CCxCmd
 2236              	.LVL139:
 2237              		.loc 1 2499 0
 2238 0256 0422     		movs	r2, #4
 2239 0258 0021     		movs	r1, #0
 2240 025a 3748     		ldr	r0, .L217+12
 2241 025c FFF7FEFF 		bl	TIM_CCxNCmd
 2242              	.LVL140:
 2243              		.loc 1 2502 0
 2244 0260 2022     		movs	r2, #32
 2245 0262 0821     		movs	r1, #8
 2246 0264 3448     		ldr	r0, .L217+12
 2247 0266 FFF7FEFF 		bl	TIM_SelectOCxM
 2248              	.LVL141:
 2249              		.loc 1 2503 0
 2250 026a 2A46     		mov	r2, r5
 2251 026c 51E7     		b	.L204
 2252              	.LVL142:
 2253              	.L214:
 2254              		.loc 1 2609 0
 2255 026e 314B     		ldr	r3, .L217+8
 2256 0270 1C68     		ldr	r4, [r3]
 2257              		.loc 1 2611 0
 2258 0272 2022     		movs	r2, #32
 2259              		.loc 1 2609 0
 2260 0274 002C     		cmp	r4, #0
 2261 0276 00F0CA80 		beq	.L193
 2262              		.loc 1 2611 0
 2263 027a 0821     		movs	r1, #8
 2264 027c 2E48     		ldr	r0, .L217+12
 2265              	.LVL143:
 2266 027e FFF7FEFF 		bl	TIM_SelectOCxM
 2267              	.LVL144:
 2268              		.loc 1 2612 0
 2269 0282 0122     		movs	r2, #1
 2270 0284 0821     		movs	r1, #8
 2271 0286 2C48     		ldr	r0, .L217+12
 2272 0288 FFF7FEFF 		bl	TIM_CCxCmd
 2273              	.LVL145:
 2274              		.loc 1 2613 0
 2275 028c 0022     		movs	r2, #0
 2276 028e 0821     		movs	r1, #8
 2277 0290 2948     		ldr	r0, .L217+12
 2278 0292 FFF7FEFF 		bl	TIM_CCxNCmd
 2279              	.LVL146:
 2280              		.loc 1 2616 0
ARM GAS  C:\Users\euanm\AppData\Local\Temp\ccjmNLkj.s 			page 41


 2281 0296 6022     		movs	r2, #96
 2282 0298 0021     		movs	r1, #0
 2283 029a 2748     		ldr	r0, .L217+12
 2284 029c FFF7FEFF 		bl	TIM_SelectOCxM
 2285              	.LVL147:
 2286              		.loc 1 2617 0
 2287 02a0 0122     		movs	r2, #1
 2288 02a2 0021     		movs	r1, #0
 2289 02a4 2448     		ldr	r0, .L217+12
 2290 02a6 FFF7FEFF 		bl	TIM_CCxCmd
 2291              	.LVL148:
 2292              		.loc 1 2618 0
 2293 02aa 2A46     		mov	r2, r5
 2294 02ac 0021     		movs	r1, #0
 2295              	.L209:
 2296              		.loc 1 2601 0
 2297 02ae 2248     		ldr	r0, .L217+12
 2298 02b0 FFF7FEFF 		bl	TIM_CCxNCmd
 2299              	.LVL149:
 2300              		.loc 1 2604 0
 2301 02b4 3246     		mov	r2, r6
 2302 02b6 0421     		movs	r1, #4
 2303 02b8 1F48     		ldr	r0, .L217+12
 2304 02ba FFF7FEFF 		bl	TIM_SelectOCxM
 2305              	.LVL150:
 2306              		.loc 1 2605 0
 2307 02be 0122     		movs	r2, #1
 2308 02c0 55E7     		b	.L206
 2309              	.LVL151:
 2310              	.L215:
 2311              		.loc 1 2641 0
 2312 02c2 1C4B     		ldr	r3, .L217+8
 2313 02c4 1F68     		ldr	r7, [r3]
 2314              		.loc 1 2643 0
 2315 02c6 2022     		movs	r2, #32
 2316              		.loc 1 2641 0
 2317 02c8 002F     		cmp	r7, #0
 2318 02ca 00F0BB80 		beq	.L195
 2319              		.loc 1 2643 0
 2320 02ce 0021     		movs	r1, #0
 2321 02d0 1948     		ldr	r0, .L217+12
 2322              	.LVL152:
 2323 02d2 FFF7FEFF 		bl	TIM_SelectOCxM
 2324              	.LVL153:
 2325              		.loc 1 2644 0
 2326 02d6 0122     		movs	r2, #1
 2327 02d8 0021     		movs	r1, #0
 2328 02da 1748     		ldr	r0, .L217+12
 2329 02dc FFF7FEFF 		bl	TIM_CCxCmd
 2330              	.LVL154:
 2331              		.loc 1 2645 0
 2332 02e0 0022     		movs	r2, #0
 2333 02e2 1146     		mov	r1, r2
 2334 02e4 1448     		ldr	r0, .L217+12
 2335 02e6 FFF7FEFF 		bl	TIM_CCxNCmd
 2336              	.LVL155:
 2337              		.loc 1 2648 0
ARM GAS  C:\Users\euanm\AppData\Local\Temp\ccjmNLkj.s 			page 42


 2338 02ea 6022     		movs	r2, #96
 2339 02ec 0821     		movs	r1, #8
 2340 02ee 1248     		ldr	r0, .L217+12
 2341 02f0 FFF7FEFF 		bl	TIM_SelectOCxM
 2342              	.LVL156:
 2343              		.loc 1 2649 0
 2344 02f4 0122     		movs	r2, #1
 2345 02f6 0821     		movs	r1, #8
 2346 02f8 0F48     		ldr	r0, .L217+12
 2347 02fa FFF7FEFF 		bl	TIM_CCxCmd
 2348              	.LVL157:
 2349              		.loc 1 2650 0
 2350 02fe 2A46     		mov	r2, r5
 2351 0300 0821     		movs	r1, #8
 2352 0302 0D48     		ldr	r0, .L217+12
 2353 0304 FFF7FEFF 		bl	TIM_CCxNCmd
 2354              	.LVL158:
 2355              		.loc 1 2653 0
 2356 0308 3246     		mov	r2, r6
 2357 030a 2146     		mov	r1, r4
 2358 030c 0A48     		ldr	r0, .L217+12
 2359 030e FFF7FEFF 		bl	TIM_SelectOCxM
 2360              	.LVL159:
 2361              		.loc 1 2654 0
 2362 0312 2146     		mov	r1, r4
 2363 0314 0122     		movs	r2, #1
 2364 0316 0848     		ldr	r0, .L217+12
 2365 0318 FFF7FEFF 		bl	TIM_CCxCmd
 2366              	.LVL160:
 2367              		.loc 1 2655 0
 2368 031c 2246     		mov	r2, r4
 2369 031e 2146     		mov	r1, r4
 2370 0320 0548     		ldr	r0, .L217+12
 2371              		.loc 1 2750 0
 2372 0322 BDE8F840 		pop	{r3, r4, r5, r6, r7, lr}
 2373              		.cfi_remember_state
 2374              		.cfi_restore 14
 2375              		.cfi_restore 7
 2376              		.cfi_restore 6
 2377              		.cfi_restore 5
 2378              		.cfi_restore 4
 2379              		.cfi_restore 3
 2380              		.cfi_def_cfa_offset 0
 2381              	.LVL161:
 2382              		.loc 1 2655 0
 2383 0326 FFF7FEBF 		b	TIM_CCxNCmd
 2384              	.LVL162:
 2385              	.L218:
 2386 032a 00BF     		.align	2
 2387              	.L217:
 2388 032c 00000000 		.word	.LANCHOR0
 2389 0330 00000000 		.word	.LANCHOR2
 2390 0334 00000000 		.word	.LANCHOR4
 2391 0338 00000140 		.word	1073807360
 2392              	.LVL163:
 2393              	.L191:
 2394              		.cfi_restore_state
ARM GAS  C:\Users\euanm\AppData\Local\Temp\ccjmNLkj.s 			page 43


 2395              		.loc 1 2594 0
 2396 033c 0821     		movs	r1, #8
 2397 033e 7848     		ldr	r0, .L219
 2398              	.LVL164:
 2399 0340 FFF7FEFF 		bl	TIM_SelectOCxM
 2400              	.LVL165:
 2401              		.loc 1 2595 0
 2402 0344 0122     		movs	r2, #1
 2403 0346 0821     		movs	r1, #8
 2404 0348 7548     		ldr	r0, .L219
 2405 034a FFF7FEFF 		bl	TIM_CCxCmd
 2406              	.LVL166:
 2407              		.loc 1 2596 0
 2408 034e 2246     		mov	r2, r4
 2409 0350 0821     		movs	r1, #8
 2410 0352 7348     		ldr	r0, .L219
 2411 0354 FFF7FEFF 		bl	TIM_CCxNCmd
 2412              	.LVL167:
 2413              		.loc 1 2599 0
 2414 0358 6022     		movs	r2, #96
 2415 035a 2146     		mov	r1, r4
 2416 035c 7048     		ldr	r0, .L219
 2417 035e FFF7FEFF 		bl	TIM_SelectOCxM
 2418              	.LVL168:
 2419              		.loc 1 2600 0
 2420 0362 0122     		movs	r2, #1
 2421 0364 2146     		mov	r1, r4
 2422 0366 6E48     		ldr	r0, .L219
 2423 0368 FFF7FEFF 		bl	TIM_CCxCmd
 2424              	.LVL169:
 2425              		.loc 1 2601 0
 2426 036c 2A46     		mov	r2, r5
 2427 036e 2146     		mov	r1, r4
 2428 0370 9DE7     		b	.L209
 2429              	.LVL170:
 2430              	.L198:
 2431              		.loc 1 2738 0
 2432 0372 4022     		movs	r2, #64
 2433 0374 0021     		movs	r1, #0
 2434 0376 6A48     		ldr	r0, .L219
 2435              	.LVL171:
 2436 0378 FFF7FEFF 		bl	TIM_SelectOCxM
 2437              	.LVL172:
 2438              		.loc 1 2739 0
 2439 037c 0122     		movs	r2, #1
 2440 037e 0021     		movs	r1, #0
 2441 0380 6748     		ldr	r0, .L219
 2442 0382 FFF7FEFF 		bl	TIM_CCxCmd
 2443              	.LVL173:
 2444              		.loc 1 2740 0
 2445 0386 0022     		movs	r2, #0
 2446 0388 1146     		mov	r1, r2
 2447 038a 6548     		ldr	r0, .L219
 2448 038c FFF7FEFF 		bl	TIM_CCxNCmd
 2449              	.LVL174:
 2450              		.loc 1 2742 0
 2451 0390 4022     		movs	r2, #64
ARM GAS  C:\Users\euanm\AppData\Local\Temp\ccjmNLkj.s 			page 44


 2452 0392 0421     		movs	r1, #4
 2453 0394 6248     		ldr	r0, .L219
 2454 0396 FFF7FEFF 		bl	TIM_SelectOCxM
 2455              	.LVL175:
 2456              		.loc 1 2743 0
 2457 039a 0122     		movs	r2, #1
 2458 039c 0421     		movs	r1, #4
 2459 039e 6048     		ldr	r0, .L219
 2460 03a0 FFF7FEFF 		bl	TIM_CCxCmd
 2461              	.LVL176:
 2462              		.loc 1 2744 0
 2463 03a4 0022     		movs	r2, #0
 2464 03a6 0421     		movs	r1, #4
 2465 03a8 5D48     		ldr	r0, .L219
 2466 03aa FFF7FEFF 		bl	TIM_CCxNCmd
 2467              	.LVL177:
 2468              		.loc 1 2746 0
 2469 03ae 4022     		movs	r2, #64
 2470 03b0 0821     		movs	r1, #8
 2471 03b2 5B48     		ldr	r0, .L219
 2472 03b4 FFF7FEFF 		bl	TIM_SelectOCxM
 2473              	.LVL178:
 2474              		.loc 1 2747 0
 2475 03b8 0122     		movs	r2, #1
 2476 03ba 0821     		movs	r1, #8
 2477 03bc 5848     		ldr	r0, .L219
 2478 03be FFF7FEFF 		bl	TIM_CCxCmd
 2479              	.LVL179:
 2480              		.loc 1 2748 0
 2481 03c2 0022     		movs	r2, #0
 2482 03c4 0821     		movs	r1, #8
 2483 03c6 5648     		ldr	r0, .L219
 2484              		.loc 1 2750 0
 2485 03c8 BDE8F840 		pop	{r3, r4, r5, r6, r7, lr}
 2486              		.cfi_remember_state
 2487              		.cfi_restore 14
 2488              		.cfi_restore 7
 2489              		.cfi_restore 6
 2490              		.cfi_restore 5
 2491              		.cfi_restore 4
 2492              		.cfi_restore 3
 2493              		.cfi_def_cfa_offset 0
 2494              	.LVL180:
 2495              		.loc 1 2748 0
 2496 03cc FFF7FEBF 		b	TIM_CCxNCmd
 2497              	.LVL181:
 2498              	.L184:
 2499              		.cfi_restore_state
 2500              		.loc 1 2507 0
 2501 03d0 0821     		movs	r1, #8
 2502 03d2 5348     		ldr	r0, .L219
 2503 03d4 FFF7FEFF 		bl	TIM_SelectOCxM
 2504              	.LVL182:
 2505              		.loc 1 2508 0
 2506 03d8 2A46     		mov	r2, r5
 2507 03da 0821     		movs	r1, #8
 2508 03dc 5048     		ldr	r0, .L219
ARM GAS  C:\Users\euanm\AppData\Local\Temp\ccjmNLkj.s 			page 45


 2509 03de FFF7FEFF 		bl	TIM_CCxCmd
 2510              	.LVL183:
 2511              		.loc 1 2509 0
 2512 03e2 0422     		movs	r2, #4
 2513 03e4 0821     		movs	r1, #8
 2514 03e6 4E48     		ldr	r0, .L219
 2515 03e8 FFF7FEFF 		bl	TIM_CCxNCmd
 2516              	.LVL184:
 2517              		.loc 1 2512 0
 2518 03ec 2022     		movs	r2, #32
 2519 03ee 2146     		mov	r1, r4
 2520 03f0 4B48     		ldr	r0, .L219
 2521 03f2 FFF7FEFF 		bl	TIM_SelectOCxM
 2522              	.LVL185:
 2523              		.loc 1 2513 0
 2524 03f6 2A46     		mov	r2, r5
 2525              	.L205:
 2526              		.loc 1 2733 0
 2527 03f8 2146     		mov	r1, r4
 2528 03fa 4948     		ldr	r0, .L219
 2529 03fc FFF7FEFF 		bl	TIM_CCxCmd
 2530              	.LVL186:
 2531              		.loc 1 2734 0
 2532 0400 2146     		mov	r1, r4
 2533 0402 0422     		movs	r2, #4
 2534 0404 4648     		ldr	r0, .L219
 2535              		.loc 1 2750 0
 2536 0406 BDE8F840 		pop	{r3, r4, r5, r6, r7, lr}
 2537              		.cfi_remember_state
 2538              		.cfi_restore 14
 2539              		.cfi_restore 7
 2540              		.cfi_restore 6
 2541              		.cfi_restore 5
 2542              		.cfi_restore 4
 2543              		.cfi_restore 3
 2544              		.cfi_def_cfa_offset 0
 2545              		.loc 1 2734 0
 2546 040a FFF7FEBF 		b	TIM_CCxNCmd
 2547              	.LVL187:
 2548              	.L193:
 2549              		.cfi_restore_state
 2550              		.loc 1 2626 0
 2551 040e 0421     		movs	r1, #4
 2552 0410 4348     		ldr	r0, .L219
 2553              	.LVL188:
 2554 0412 FFF7FEFF 		bl	TIM_SelectOCxM
 2555              	.LVL189:
 2556              		.loc 1 2627 0
 2557 0416 0122     		movs	r2, #1
 2558 0418 0421     		movs	r1, #4
 2559 041a 4148     		ldr	r0, .L219
 2560 041c FFF7FEFF 		bl	TIM_CCxCmd
 2561              	.LVL190:
 2562              		.loc 1 2628 0
 2563 0420 2246     		mov	r2, r4
 2564 0422 0421     		movs	r1, #4
 2565 0424 3E48     		ldr	r0, .L219
ARM GAS  C:\Users\euanm\AppData\Local\Temp\ccjmNLkj.s 			page 46


 2566 0426 FFF7FEFF 		bl	TIM_CCxNCmd
 2567              	.LVL191:
 2568              		.loc 1 2631 0
 2569 042a 6022     		movs	r2, #96
 2570 042c 2146     		mov	r1, r4
 2571 042e 3C48     		ldr	r0, .L219
 2572 0430 FFF7FEFF 		bl	TIM_SelectOCxM
 2573              	.LVL192:
 2574              		.loc 1 2632 0
 2575 0434 0122     		movs	r2, #1
 2576 0436 2146     		mov	r1, r4
 2577 0438 3948     		ldr	r0, .L219
 2578 043a FFF7FEFF 		bl	TIM_CCxCmd
 2579              	.LVL193:
 2580              		.loc 1 2633 0
 2581 043e 2A46     		mov	r2, r5
 2582 0440 2146     		mov	r1, r4
 2583 0442 E0E6     		b	.L210
 2584              	.LVL194:
 2585              	.L195:
 2586              		.loc 1 2658 0
 2587 0444 3946     		mov	r1, r7
 2588 0446 3648     		ldr	r0, .L219
 2589              	.LVL195:
 2590 0448 FFF7FEFF 		bl	TIM_SelectOCxM
 2591              	.LVL196:
 2592              		.loc 1 2659 0
 2593 044c 3946     		mov	r1, r7
 2594 044e 0122     		movs	r2, #1
 2595 0450 3348     		ldr	r0, .L219
 2596 0452 FFF7FEFF 		bl	TIM_CCxCmd
 2597              	.LVL197:
 2598              		.loc 1 2660 0
 2599 0456 3A46     		mov	r2, r7
 2600 0458 3946     		mov	r1, r7
 2601 045a 3148     		ldr	r0, .L219
 2602 045c FFF7FEFF 		bl	TIM_CCxNCmd
 2603              	.LVL198:
 2604              		.loc 1 2663 0
 2605 0460 2146     		mov	r1, r4
 2606 0462 6022     		movs	r2, #96
 2607 0464 2E48     		ldr	r0, .L219
 2608 0466 FFF7FEFF 		bl	TIM_SelectOCxM
 2609              	.LVL199:
 2610              		.loc 1 2664 0
 2611 046a 2146     		mov	r1, r4
 2612 046c 0122     		movs	r2, #1
 2613 046e 2C48     		ldr	r0, .L219
 2614 0470 FFF7FEFF 		bl	TIM_CCxCmd
 2615              	.LVL200:
 2616              		.loc 1 2665 0
 2617 0474 2A46     		mov	r2, r5
 2618 0476 2146     		mov	r1, r4
 2619 0478 2948     		ldr	r0, .L219
 2620 047a FFF7FEFF 		bl	TIM_CCxNCmd
 2621              	.LVL201:
 2622              		.loc 1 2668 0
ARM GAS  C:\Users\euanm\AppData\Local\Temp\ccjmNLkj.s 			page 47


 2623 047e 3246     		mov	r2, r6
 2624 0480 0821     		movs	r1, #8
 2625 0482 2748     		ldr	r0, .L219
 2626 0484 FFF7FEFF 		bl	TIM_SelectOCxM
 2627              	.LVL202:
 2628              		.loc 1 2669 0
 2629 0488 0122     		movs	r2, #1
 2630 048a 0821     		movs	r1, #8
 2631 048c 2448     		ldr	r0, .L219
 2632 048e FFF7FEFF 		bl	TIM_CCxCmd
 2633              	.LVL203:
 2634              		.loc 1 2670 0
 2635 0492 2246     		mov	r2, r4
 2636 0494 0821     		movs	r1, #8
 2637 0496 2248     		ldr	r0, .L219
 2638              		.loc 1 2750 0
 2639 0498 BDE8F840 		pop	{r3, r4, r5, r6, r7, lr}
 2640              		.cfi_remember_state
 2641              		.cfi_restore 14
 2642              		.cfi_restore 7
 2643              		.cfi_restore 6
 2644              		.cfi_restore 5
 2645              		.cfi_restore 4
 2646              		.cfi_restore 3
 2647              		.cfi_def_cfa_offset 0
 2648              	.LVL204:
 2649              		.loc 1 2670 0
 2650 049c FFF7FEBF 		b	TIM_CCxNCmd
 2651              	.LVL205:
 2652              	.L199:
 2653              		.cfi_restore_state
 2654              		.loc 1 2722 0
 2655 04a0 0421     		movs	r1, #4
 2656 04a2 1F48     		ldr	r0, .L219
 2657              	.LVL206:
 2658 04a4 FFF7FEFF 		bl	TIM_SelectOCxM
 2659              	.LVL207:
 2660              		.loc 1 2723 0
 2661 04a8 0122     		movs	r2, #1
 2662 04aa 0421     		movs	r1, #4
 2663 04ac 1C48     		ldr	r0, .L219
 2664 04ae FFF7FEFF 		bl	TIM_CCxCmd
 2665              	.LVL208:
 2666              		.loc 1 2724 0
 2667 04b2 2246     		mov	r2, r4
 2668 04b4 0421     		movs	r1, #4
 2669 04b6 1A48     		ldr	r0, .L219
 2670 04b8 FFF7FEFF 		bl	TIM_CCxNCmd
 2671              	.LVL209:
 2672              		.loc 1 2727 0
 2673 04bc 6022     		movs	r2, #96
 2674 04be 0821     		movs	r1, #8
 2675 04c0 1748     		ldr	r0, .L219
 2676 04c2 FFF7FEFF 		bl	TIM_SelectOCxM
 2677              	.LVL210:
 2678              		.loc 1 2728 0
 2679 04c6 0122     		movs	r2, #1
ARM GAS  C:\Users\euanm\AppData\Local\Temp\ccjmNLkj.s 			page 48


 2680 04c8 0821     		movs	r1, #8
 2681 04ca 1548     		ldr	r0, .L219
 2682 04cc FFF7FEFF 		bl	TIM_CCxCmd
 2683              	.LVL211:
 2684              		.loc 1 2729 0
 2685 04d0 2A46     		mov	r2, r5
 2686 04d2 0821     		movs	r1, #8
 2687              	.L207:
 2688 04d4 1248     		ldr	r0, .L219
 2689 04d6 FFF7FEFF 		bl	TIM_CCxNCmd
 2690              	.LVL212:
 2691              		.loc 1 2732 0
 2692 04da 3246     		mov	r2, r6
 2693 04dc 2146     		mov	r1, r4
 2694 04de 1048     		ldr	r0, .L219
 2695 04e0 FFF7FEFF 		bl	TIM_SelectOCxM
 2696              	.LVL213:
 2697              		.loc 1 2733 0
 2698 04e4 0122     		movs	r2, #1
 2699 04e6 87E7     		b	.L205
 2700              	.LVL214:
 2701              	.L197:
 2702              		.loc 1 2690 0
 2703 04e8 0821     		movs	r1, #8
 2704 04ea 0D48     		ldr	r0, .L219
 2705              	.LVL215:
 2706 04ec FFF7FEFF 		bl	TIM_SelectOCxM
 2707              	.LVL216:
 2708              		.loc 1 2691 0
 2709 04f0 0122     		movs	r2, #1
 2710 04f2 0821     		movs	r1, #8
 2711 04f4 0A48     		ldr	r0, .L219
 2712 04f6 FFF7FEFF 		bl	TIM_CCxCmd
 2713              	.LVL217:
 2714              		.loc 1 2692 0
 2715 04fa 2246     		mov	r2, r4
 2716 04fc 0821     		movs	r1, #8
 2717 04fe 0848     		ldr	r0, .L219
 2718 0500 FFF7FEFF 		bl	TIM_CCxNCmd
 2719              	.LVL218:
 2720              		.loc 1 2695 0
 2721 0504 6022     		movs	r2, #96
 2722 0506 0421     		movs	r1, #4
 2723 0508 0548     		ldr	r0, .L219
 2724 050a FFF7FEFF 		bl	TIM_SelectOCxM
 2725              	.LVL219:
 2726              		.loc 1 2696 0
 2727 050e 0122     		movs	r2, #1
 2728 0510 0421     		movs	r1, #4
 2729 0512 0348     		ldr	r0, .L219
 2730 0514 FFF7FEFF 		bl	TIM_CCxCmd
 2731              	.LVL220:
 2732              		.loc 1 2697 0
 2733 0518 2A46     		mov	r2, r5
 2734 051a 0421     		movs	r1, #4
 2735 051c DAE7     		b	.L207
 2736              	.L220:
ARM GAS  C:\Users\euanm\AppData\Local\Temp\ccjmNLkj.s 			page 49


 2737 051e 00BF     		.align	2
 2738              	.L219:
 2739 0520 00000140 		.word	1073807360
 2740              		.cfi_endproc
 2741              	.LFE319:
 2742              		.size	set_next_comm_step, .-set_next_comm_step
 2743              		.section	.text.update_sensor_mode,"ax",%progbits
 2744              		.align	2
 2745              		.p2align 4,,15
 2746              		.thumb
 2747              		.thumb_func
 2748              		.type	update_sensor_mode, %function
 2749              	update_sensor_mode:
 2750              	.LFB314:
 2751              		.loc 1 2377 0
 2752              		.cfi_startproc
 2753              		@ args = 0, pretend = 0, frame = 0
 2754              		@ frame_needed = 0, uses_anonymous_args = 0
 2755              		@ link register save eliminated.
 2756              		.loc 1 2378 0
 2757 0000 164B     		ldr	r3, .L232
 2758 0002 1B68     		ldr	r3, [r3]
 2759 0004 DA78     		ldrb	r2, [r3, #3]	@ zero_extendqisi2
 2760 0006 32B1     		cbz	r2, .L230
 2761              		.loc 1 2380 0
 2762 0008 DB78     		ldrb	r3, [r3, #3]	@ zero_extendqisi2
 2763 000a 022B     		cmp	r3, #2
 2764              		.loc 1 2382 0
 2765 000c 144B     		ldr	r3, .L232+4
 2766              		.loc 1 2380 0
 2767 000e 06D0     		beq	.L231
 2768              	.L224:
 2769              		.loc 1 2392 0
 2770 0010 0022     		movs	r2, #0
 2771 0012 1A70     		strb	r2, [r3]
 2772              	.L221:
 2773 0014 7047     		bx	lr
 2774              	.L230:
 2775              		.loc 1 2379 0
 2776 0016 124B     		ldr	r3, .L232+4
 2777 0018 0122     		movs	r2, #1
 2778 001a 1A70     		strb	r2, [r3]
 2779 001c 7047     		bx	lr
 2780              	.L231:
 2781              		.loc 1 2382 0
 2782 001e 1A78     		ldrb	r2, [r3]	@ zero_extendqisi2
 2783              	.LBB136:
 2784              		.loc 1 2383 0
 2785 0020 1049     		ldr	r1, .L232+8
 2786              	.LBE136:
 2787              		.loc 1 2382 0
 2788 0022 62B1     		cbz	r2, .L225
 2789              	.LBB137:
 2790              		.loc 1 2383 0
 2791 0024 104A     		ldr	r2, .L232+12
 2792 0026 D1ED007A 		vldr.32	s15, [r1]
 2793 002a 92ED007A 		vldr.32	s14, [r2]
ARM GAS  C:\Users\euanm\AppData\Local\Temp\ccjmNLkj.s 			page 50


 2794 002e F0EEE77A 		vabs.f32	s15, s15
 2795 0032 F4EEC77A 		vcmpe.f32	s15, s14
 2796 0036 F1EE10FA 		vmrs	APSR_nzcv, FPSCR
 2797 003a EBD5     		bpl	.L221
 2798 003c E8E7     		b	.L224
 2799              	.L225:
 2800              	.LBE137:
 2801              		.loc 1 2387 0
 2802 003e 0B4A     		ldr	r2, .L232+16
 2803 0040 D1ED007A 		vldr.32	s15, [r1]
 2804 0044 92ED007A 		vldr.32	s14, [r2]
 2805 0048 F0EEE77A 		vabs.f32	s15, s15
 2806 004c F4EEC77A 		vcmpe.f32	s15, s14
 2807 0050 F1EE10FA 		vmrs	APSR_nzcv, FPSCR
 2808 0054 DEDD     		ble	.L221
 2809              		.loc 1 2388 0
 2810 0056 0122     		movs	r2, #1
 2811 0058 1A70     		strb	r2, [r3]
 2812 005a 7047     		bx	lr
 2813              	.L233:
 2814              		.align	2
 2815              	.L232:
 2816 005c 00000000 		.word	.LANCHOR0
 2817 0060 00000000 		.word	.LANCHOR25
 2818 0064 00000000 		.word	.LANCHOR13
 2819 0068 00000000 		.word	.LANCHOR31
 2820 006c 00000000 		.word	.LANCHOR32
 2821              		.cfi_endproc
 2822              	.LFE314:
 2823              		.size	update_sensor_mode, .-update_sensor_mode
 2824              		.section	.text.commutate,"ax",%progbits
 2825              		.align	2
 2826              		.p2align 4,,15
 2827              		.thumb
 2828              		.thumb_func
 2829              		.type	commutate, %function
 2830              	commutate:
 2831              	.LFB315:
 2832              		.loc 1 2396 0
 2833              		.cfi_startproc
 2834              		@ args = 0, pretend = 0, frame = 24
 2835              		@ frame_needed = 0, uses_anonymous_args = 0
 2836              	.LVL221:
 2837              		.loc 1 2397 0
 2838 0000 2B4B     		ldr	r3, .L258
 2839 0002 2C4A     		ldr	r2, .L258+4
 2840 0004 1968     		ldr	r1, [r3]	@ float
 2841              		.loc 1 2396 0
 2842 0006 F0B5     		push	{r4, r5, r6, r7, lr}
 2843              		.cfi_def_cfa_offset 20
 2844              		.cfi_offset 4, -20
 2845              		.cfi_offset 5, -16
 2846              		.cfi_offset 6, -12
 2847              		.cfi_offset 7, -8
 2848              		.cfi_offset 14, -4
 2849              		.loc 1 2398 0
 2850 0008 2B4C     		ldr	r4, .L258+8
ARM GAS  C:\Users\euanm\AppData\Local\Temp\ccjmNLkj.s 			page 51


 2851              		.loc 1 2397 0
 2852 000a 1160     		str	r1, [r2]	@ float
 2853              		.loc 1 2398 0
 2854 000c 2268     		ldr	r2, [r4]
 2855 000e 2B49     		ldr	r1, .L258+12
 2856              		.loc 1 2402 0
 2857 0010 2B4D     		ldr	r5, .L258+16
 2858              		.loc 1 2398 0
 2859 0012 D3F800E0 		ldr	lr, [r3]	@ float
 2860              		.loc 1 2400 0
 2861 0016 2B4E     		ldr	r6, .L258+20
 2862              		.loc 1 2402 0
 2863 0018 2D68     		ldr	r5, [r5]
 2864              		.loc 1 2398 0
 2865 001a 013A     		subs	r2, r2, #1
 2866 001c 01EB8202 		add	r2, r1, r2, lsl #2
 2867              		.loc 1 2399 0
 2868 0020 0027     		movs	r7, #0
 2869              		.loc 1 2398 0
 2870 0022 C2F800E0 		str	lr, [r2]	@ float
 2871              		.loc 1 2400 0
 2872 0026 0022     		movs	r2, #0
 2873              		.loc 1 2399 0
 2874 0028 1F60     		str	r7, [r3]	@ float
 2875              		.loc 1 2400 0
 2876 002a 3260     		str	r2, [r6]
 2877              		.loc 1 2402 0
 2878 002c AB78     		ldrb	r3, [r5, #2]	@ zero_extendqisi2
 2879              		.loc 1 2396 0
 2880 002e 87B0     		sub	sp, sp, #28
 2881              		.cfi_def_cfa_offset 48
 2882              		.loc 1 2402 0
 2883 0030 03BB     		cbnz	r3, .L235
 2884              		.loc 1 2402 0 is_stmt 0 discriminator 1
 2885 0032 254B     		ldr	r3, .L258+24
 2886 0034 1B78     		ldrb	r3, [r3]	@ zero_extendqisi2
 2887 0036 EBB1     		cbz	r3, .L235
 2888              		.loc 1 2403 0 is_stmt 1
 2889 0038 2368     		ldr	r3, [r4]
 2890 003a 1844     		add	r0, r0, r3
 2891              	.LVL222:
 2892 003c 2060     		str	r0, [r4]
 2893              		.loc 1 2404 0
 2894 003e 2368     		ldr	r3, [r4]
 2895 0040 062B     		cmp	r3, #6
 2896 0042 0BDD     		ble	.L253
 2897              	.L246:
 2898              		.loc 1 2405 0
 2899 0044 2368     		ldr	r3, [r4]
 2900 0046 063B     		subs	r3, r3, #6
 2901 0048 2360     		str	r3, [r4]
 2902              		.loc 1 2404 0
 2903 004a 2368     		ldr	r3, [r4]
 2904 004c 062B     		cmp	r3, #6
 2905 004e F9DC     		bgt	.L246
 2906              		.loc 1 2407 0
 2907 0050 2368     		ldr	r3, [r4]
ARM GAS  C:\Users\euanm\AppData\Local\Temp\ccjmNLkj.s 			page 52


 2908 0052 002B     		cmp	r3, #0
 2909 0054 05DC     		bgt	.L257
 2910              	.L245:
 2911              		.loc 1 2408 0
 2912 0056 2368     		ldr	r3, [r4]
 2913 0058 0633     		adds	r3, r3, #6
 2914 005a 2360     		str	r3, [r4]
 2915              	.L253:
 2916              		.loc 1 2407 0
 2917 005c 2368     		ldr	r3, [r4]
 2918 005e 002B     		cmp	r3, #0
 2919 0060 F9DD     		ble	.L245
 2920              	.L257:
 2921              		.loc 1 2411 0
 2922 0062 FFF7FEFF 		bl	update_rpm_tacho
 2923              	.LVL223:
 2924              		.loc 1 2413 0
 2925 0066 194B     		ldr	r3, .L258+28
 2926 0068 1B78     		ldrb	r3, [r3]	@ zero_extendqisi2
 2927 006a 022B     		cmp	r3, #2
 2928 006c 1BD1     		bne	.L254
 2929              		.loc 1 2418 0
 2930 006e 2068     		ldr	r0, [r4]
 2931 0070 FFF7FEFF 		bl	set_next_comm_step
 2932              	.LVL224:
 2933              	.L235:
 2934              		.loc 1 2421 0
 2935 0074 2021     		movs	r1, #32
 2936 0076 1648     		ldr	r0, .L258+32
 2937              		.loc 1 2427 0
 2938 0078 164D     		ldr	r5, .L258+36
 2939              		.loc 1 2421 0
 2940 007a FFF7FEFF 		bl	TIM_GenerateEvent
 2941              	.LVL225:
 2942              		.loc 1 2422 0
 2943 007e 164B     		ldr	r3, .L258+40
 2944 0080 0122     		movs	r2, #1
 2945 0082 1A60     		str	r2, [r3]
 2946              		.loc 1 2426 0
 2947 0084 FFF7FEFF 		bl	utils_sys_lock_cnt
 2948              	.LVL226:
 2949              		.loc 1 2427 0
 2950 0088 0FCD     		ldmia	r5!, {r0, r1, r2, r3}
 2951 008a 6C46     		mov	r4, sp
 2952 008c 0FC4     		stmia	r4!, {r0, r1, r2, r3}
 2953 008e 95E80300 		ldmia	r5, {r0, r1}
 2954 0092 84E80300 		stmia	r4, {r0, r1}
 2955              		.loc 1 2428 0
 2956 0096 FFF7FEFF 		bl	utils_sys_unlock_cnt
 2957              	.LVL227:
 2958              		.loc 1 2430 0
 2959 009a 6846     		mov	r0, sp
 2960 009c FFF7FEFF 		bl	update_adc_sample_pos
 2961              	.LVL228:
 2962              		.loc 1 2431 0
 2963 00a0 6846     		mov	r0, sp
 2964 00a2 FFF7FEFF 		bl	set_next_timer_settings
ARM GAS  C:\Users\euanm\AppData\Local\Temp\ccjmNLkj.s 			page 53


 2965              	.LVL229:
 2966              	.L254:
 2967              		.loc 1 2432 0
 2968 00a6 FFF7FEFF 		bl	update_sensor_mode
 2969              	.LVL230:
 2970              		.loc 1 2433 0
 2971 00aa 07B0     		add	sp, sp, #28
 2972              		.cfi_def_cfa_offset 20
 2973              		@ sp needed
 2974 00ac F0BD     		pop	{r4, r5, r6, r7, pc}
 2975              	.L259:
 2976 00ae 00BF     		.align	2
 2977              	.L258:
 2978 00b0 00000000 		.word	.LANCHOR33
 2979 00b4 00000000 		.word	.LANCHOR34
 2980 00b8 00000000 		.word	.LANCHOR3
 2981 00bc 00000000 		.word	.LANCHOR26
 2982 00c0 00000000 		.word	.LANCHOR0
 2983 00c4 00000000 		.word	.LANCHOR35
 2984 00c8 00000000 		.word	.LANCHOR25
 2985 00cc 00000000 		.word	.LANCHOR2
 2986 00d0 00000140 		.word	1073807360
 2987 00d4 00000000 		.word	.LANCHOR10
 2988 00d8 00000000 		.word	.LANCHOR36
 2989              		.cfi_endproc
 2990              	.LFE315:
 2991              		.size	commutate, .-commutate
 2992              		.section	.text.set_switching_frequency.constprop.1,"ax",%progbits
 2993              		.align	2
 2994              		.p2align 4,,15
 2995              		.thumb
 2996              		.thumb_func
 2997              		.type	set_switching_frequency.constprop.1, %function
 2998              	set_switching_frequency.constprop.1:
 2999              	.LFB321:
 3000              		.loc 1 2475 0
 3001              		.cfi_startproc
 3002              		@ args = 0, pretend = 0, frame = 24
 3003              		@ frame_needed = 0, uses_anonymous_args = 0
 3004              	.LVL231:
 3005 0000 70B5     		push	{r4, r5, r6, lr}
 3006              		.cfi_def_cfa_offset 16
 3007              		.cfi_offset 4, -16
 3008              		.cfi_offset 5, -12
 3009              		.cfi_offset 6, -8
 3010              		.cfi_offset 14, -4
 3011              		.loc 1 2476 0
 3012 0002 114E     		ldr	r6, .L262
 3013              		.loc 1 2480 0
 3014 0004 114D     		ldr	r5, .L262+4
 3015              		.loc 1 2476 0
 3016 0006 124B     		ldr	r3, .L262+8
 3017 0008 3360     		str	r3, [r6]	@ float
 3018              		.loc 1 2475 0
 3019 000a 86B0     		sub	sp, sp, #24
 3020              		.cfi_def_cfa_offset 40
 3021              		.loc 1 2479 0
ARM GAS  C:\Users\euanm\AppData\Local\Temp\ccjmNLkj.s 			page 54


 3022 000c FFF7FEFF 		bl	utils_sys_lock_cnt
 3023              	.LVL232:
 3024              		.loc 1 2480 0
 3025 0010 0FCD     		ldmia	r5!, {r0, r1, r2, r3}
 3026 0012 6C46     		mov	r4, sp
 3027 0014 0FC4     		stmia	r4!, {r0, r1, r2, r3}
 3028 0016 95E80300 		ldmia	r5, {r0, r1}
 3029 001a 84E80300 		stmia	r4, {r0, r1}
 3030              		.loc 1 2481 0
 3031 001e FFF7FEFF 		bl	utils_sys_unlock_cnt
 3032              	.LVL233:
 3033              		.loc 1 2483 0
 3034 0022 D6ED007A 		vldr.32	s15, [r6]
 3035 0026 0B4A     		ldr	r2, .L262+12
 3036 0028 FDEEE77A 		vcvt.s32.f32	s15, s15
 3037              		.loc 1 2484 0
 3038 002c 6846     		mov	r0, sp
 3039              		.loc 1 2483 0
 3040 002e 17EE903A 		vmov	r3, s15	@ int
 3041 0032 92FBF3F3 		sdiv	r3, r2, r3
 3042 0036 0193     		str	r3, [sp, #4]
 3043              		.loc 1 2484 0
 3044 0038 FFF7FEFF 		bl	update_adc_sample_pos
 3045              	.LVL234:
 3046              		.loc 1 2485 0
 3047 003c 6846     		mov	r0, sp
 3048 003e FFF7FEFF 		bl	set_next_timer_settings
 3049              	.LVL235:
 3050              		.loc 1 2486 0
 3051 0042 06B0     		add	sp, sp, #24
 3052              		.cfi_def_cfa_offset 16
 3053              		@ sp needed
 3054 0044 70BD     		pop	{r4, r5, r6, pc}
 3055              	.L263:
 3056 0046 00BF     		.align	2
 3057              	.L262:
 3058 0048 00000000 		.word	.LANCHOR11
 3059 004c 00000000 		.word	.LANCHOR10
 3060 0050 00401C47 		.word	1193033728
 3061 0054 007A030A 		.word	168000000
 3062              		.cfi_endproc
 3063              	.LFE321:
 3064              		.size	set_switching_frequency.constprop.1, .-set_switching_frequency.constprop.1
 3065              		.section	.text.full_brake_hw,"ax",%progbits
 3066              		.align	2
 3067              		.p2align 4,,15
 3068              		.thumb
 3069              		.thumb_func
 3070              		.type	full_brake_hw, %function
 3071              	full_brake_hw:
 3072              	.LFB289:
 3073              		.loc 1 904 0
 3074              		.cfi_startproc
 3075              		@ args = 0, pretend = 0, frame = 0
 3076              		@ frame_needed = 0, uses_anonymous_args = 0
 3077 0000 10B5     		push	{r4, lr}
 3078              		.cfi_def_cfa_offset 8
ARM GAS  C:\Users\euanm\AppData\Local\Temp\ccjmNLkj.s 			page 55


 3079              		.cfi_offset 4, -8
 3080              		.cfi_offset 14, -4
 3081              		.loc 1 905 0
 3082 0002 1B4C     		ldr	r4, .L266
 3083 0004 4022     		movs	r2, #64
 3084 0006 2046     		mov	r0, r4
 3085 0008 0021     		movs	r1, #0
 3086 000a FFF7FEFF 		bl	TIM_SelectOCxM
 3087              	.LVL236:
 3088              		.loc 1 906 0
 3089 000e 2046     		mov	r0, r4
 3090 0010 0122     		movs	r2, #1
 3091 0012 0021     		movs	r1, #0
 3092 0014 FFF7FEFF 		bl	TIM_CCxCmd
 3093              	.LVL237:
 3094              		.loc 1 907 0
 3095 0018 2046     		mov	r0, r4
 3096 001a 0422     		movs	r2, #4
 3097 001c 0021     		movs	r1, #0
 3098 001e FFF7FEFF 		bl	TIM_CCxNCmd
 3099              	.LVL238:
 3100              		.loc 1 909 0
 3101 0022 2046     		mov	r0, r4
 3102 0024 4022     		movs	r2, #64
 3103 0026 0421     		movs	r1, #4
 3104 0028 FFF7FEFF 		bl	TIM_SelectOCxM
 3105              	.LVL239:
 3106              		.loc 1 910 0
 3107 002c 2046     		mov	r0, r4
 3108 002e 0122     		movs	r2, #1
 3109 0030 0421     		movs	r1, #4
 3110 0032 FFF7FEFF 		bl	TIM_CCxCmd
 3111              	.LVL240:
 3112              		.loc 1 911 0
 3113 0036 0422     		movs	r2, #4
 3114 0038 2046     		mov	r0, r4
 3115 003a 1146     		mov	r1, r2
 3116 003c FFF7FEFF 		bl	TIM_CCxNCmd
 3117              	.LVL241:
 3118              		.loc 1 913 0
 3119 0040 2046     		mov	r0, r4
 3120 0042 4022     		movs	r2, #64
 3121 0044 0821     		movs	r1, #8
 3122 0046 FFF7FEFF 		bl	TIM_SelectOCxM
 3123              	.LVL242:
 3124              		.loc 1 914 0
 3125 004a 2046     		mov	r0, r4
 3126 004c 0122     		movs	r2, #1
 3127 004e 0821     		movs	r1, #8
 3128 0050 FFF7FEFF 		bl	TIM_CCxCmd
 3129              	.LVL243:
 3130              		.loc 1 915 0
 3131 0054 2046     		mov	r0, r4
 3132 0056 0422     		movs	r2, #4
 3133 0058 0821     		movs	r1, #8
 3134 005a FFF7FEFF 		bl	TIM_CCxNCmd
 3135              	.LVL244:
ARM GAS  C:\Users\euanm\AppData\Local\Temp\ccjmNLkj.s 			page 56


 3136              		.loc 1 917 0
 3137 005e 2046     		mov	r0, r4
 3138 0060 2021     		movs	r1, #32
 3139 0062 FFF7FEFF 		bl	TIM_GenerateEvent
 3140              	.LVL245:
 3141              		.loc 1 920 0
 3142 0066 BDE81040 		pop	{r4, lr}
 3143              		.cfi_restore 14
 3144              		.cfi_restore 4
 3145              		.cfi_def_cfa_offset 0
 3146              		.loc 1 919 0
 3147 006a FFF7FEBF 		b	set_switching_frequency.constprop.1
 3148              	.LVL246:
 3149              	.L267:
 3150 006e 00BF     		.align	2
 3151              	.L266:
 3152 0070 00000140 		.word	1073807360
 3153              		.cfi_endproc
 3154              	.LFE289:
 3155              		.size	full_brake_hw, .-full_brake_hw
 3156              		.section	.text.stop_pwm_hw,"ax",%progbits
 3157              		.align	2
 3158              		.p2align 4,,15
 3159              		.thumb
 3160              		.thumb_func
 3161              		.type	stop_pwm_hw, %function
 3162              	stop_pwm_hw:
 3163              	.LFB287:
 3164              		.loc 1 880 0
 3165              		.cfi_startproc
 3166              		@ args = 0, pretend = 0, frame = 0
 3167              		@ frame_needed = 0, uses_anonymous_args = 0
 3168 0000 10B5     		push	{r4, lr}
 3169              		.cfi_def_cfa_offset 8
 3170              		.cfi_offset 4, -8
 3171              		.cfi_offset 14, -4
 3172              		.loc 1 881 0
 3173 0002 1B4C     		ldr	r4, .L270
 3174 0004 4022     		movs	r2, #64
 3175 0006 2046     		mov	r0, r4
 3176 0008 0021     		movs	r1, #0
 3177 000a FFF7FEFF 		bl	TIM_SelectOCxM
 3178              	.LVL247:
 3179              		.loc 1 882 0
 3180 000e 2046     		mov	r0, r4
 3181 0010 0122     		movs	r2, #1
 3182 0012 0021     		movs	r1, #0
 3183 0014 FFF7FEFF 		bl	TIM_CCxCmd
 3184              	.LVL248:
 3185              		.loc 1 883 0
 3186 0018 0022     		movs	r2, #0
 3187 001a 2046     		mov	r0, r4
 3188 001c 1146     		mov	r1, r2
 3189 001e FFF7FEFF 		bl	TIM_CCxNCmd
 3190              	.LVL249:
 3191              		.loc 1 885 0
 3192 0022 2046     		mov	r0, r4
ARM GAS  C:\Users\euanm\AppData\Local\Temp\ccjmNLkj.s 			page 57


 3193 0024 4022     		movs	r2, #64
 3194 0026 0421     		movs	r1, #4
 3195 0028 FFF7FEFF 		bl	TIM_SelectOCxM
 3196              	.LVL250:
 3197              		.loc 1 886 0
 3198 002c 2046     		mov	r0, r4
 3199 002e 0122     		movs	r2, #1
 3200 0030 0421     		movs	r1, #4
 3201 0032 FFF7FEFF 		bl	TIM_CCxCmd
 3202              	.LVL251:
 3203              		.loc 1 887 0
 3204 0036 2046     		mov	r0, r4
 3205 0038 0022     		movs	r2, #0
 3206 003a 0421     		movs	r1, #4
 3207 003c FFF7FEFF 		bl	TIM_CCxNCmd
 3208              	.LVL252:
 3209              		.loc 1 889 0
 3210 0040 2046     		mov	r0, r4
 3211 0042 4022     		movs	r2, #64
 3212 0044 0821     		movs	r1, #8
 3213 0046 FFF7FEFF 		bl	TIM_SelectOCxM
 3214              	.LVL253:
 3215              		.loc 1 890 0
 3216 004a 2046     		mov	r0, r4
 3217 004c 0122     		movs	r2, #1
 3218 004e 0821     		movs	r1, #8
 3219 0050 FFF7FEFF 		bl	TIM_CCxCmd
 3220              	.LVL254:
 3221              		.loc 1 891 0
 3222 0054 2046     		mov	r0, r4
 3223 0056 0022     		movs	r2, #0
 3224 0058 0821     		movs	r1, #8
 3225 005a FFF7FEFF 		bl	TIM_CCxNCmd
 3226              	.LVL255:
 3227              		.loc 1 893 0
 3228 005e 2046     		mov	r0, r4
 3229 0060 2021     		movs	r1, #32
 3230 0062 FFF7FEFF 		bl	TIM_GenerateEvent
 3231              	.LVL256:
 3232              		.loc 1 896 0
 3233 0066 BDE81040 		pop	{r4, lr}
 3234              		.cfi_restore 14
 3235              		.cfi_restore 4
 3236              		.cfi_def_cfa_offset 0
 3237              		.loc 1 895 0
 3238 006a FFF7FEBF 		b	set_switching_frequency.constprop.1
 3239              	.LVL257:
 3240              	.L271:
 3241 006e 00BF     		.align	2
 3242              	.L270:
 3243 0070 00000140 		.word	1073807360
 3244              		.cfi_endproc
 3245              	.LFE287:
 3246              		.size	stop_pwm_hw, .-stop_pwm_hw
 3247              		.section	.text.mcpwm_deinit,"ax",%progbits
 3248              		.align	2
 3249              		.p2align 4,,15
ARM GAS  C:\Users\euanm\AppData\Local\Temp\ccjmNLkj.s 			page 58


 3250              		.global	mcpwm_deinit
 3251              		.thumb
 3252              		.thumb_func
 3253              		.type	mcpwm_deinit, %function
 3254              	mcpwm_deinit:
 3255              	.LFB258:
 3256              		.loc 1 462 0
 3257              		.cfi_startproc
 3258              		@ args = 0, pretend = 0, frame = 0
 3259              		@ frame_needed = 0, uses_anonymous_args = 0
 3260 0000 38B5     		push	{r3, r4, r5, lr}
 3261              		.cfi_def_cfa_offset 16
 3262              		.cfi_offset 3, -16
 3263              		.cfi_offset 4, -12
 3264              		.cfi_offset 5, -8
 3265              		.cfi_offset 14, -4
 3266              		.loc 1 465 0
 3267 0002 154C     		ldr	r4, .L276
 3268              		.loc 1 466 0
 3269 0004 154D     		ldr	r5, .L276+4
 3270              		.loc 1 463 0
 3271 0006 FFF7FEFF 		bl	WWDG_DeInit
 3272              	.LVL258:
 3273              		.loc 1 465 0
 3274 000a 0123     		movs	r3, #1
 3275 000c 2370     		strb	r3, [r4]
 3276              		.loc 1 466 0
 3277 000e 2B70     		strb	r3, [r5]
 3278              		.loc 1 468 0
 3279 0010 01E0     		b	.L273
 3280              	.L274:
 3281              		.loc 1 469 0
 3282 0012 FFF7FEFF 		bl	chThdSleep
 3283              	.LVL259:
 3284              	.L273:
 3285              		.loc 1 468 0
 3286 0016 2378     		ldrb	r3, [r4]	@ zero_extendqisi2
 3287              		.loc 1 469 0
 3288 0018 0A20     		movs	r0, #10
 3289              		.loc 1 468 0
 3290 001a 002B     		cmp	r3, #0
 3291 001c F9D1     		bne	.L274
 3292              		.loc 1 468 0 is_stmt 0 discriminator 1
 3293 001e 2B78     		ldrb	r3, [r5]	@ zero_extendqisi2
 3294 0020 002B     		cmp	r3, #0
 3295 0022 F6D1     		bne	.L274
 3296              		.loc 1 472 0 is_stmt 1
 3297 0024 0E48     		ldr	r0, .L276+8
 3298 0026 FFF7FEFF 		bl	TIM_DeInit
 3299              	.LVL260:
 3300              		.loc 1 473 0
 3301 002a 4FF08040 		mov	r0, #1073741824
 3302 002e FFF7FEFF 		bl	TIM_DeInit
 3303              	.LVL261:
 3304              		.loc 1 474 0
 3305 0032 0C48     		ldr	r0, .L276+12
 3306 0034 FFF7FEFF 		bl	TIM_DeInit
ARM GAS  C:\Users\euanm\AppData\Local\Temp\ccjmNLkj.s 			page 59


 3307              	.LVL262:
 3308              		.loc 1 475 0
 3309 0038 0B48     		ldr	r0, .L276+16
 3310 003a FFF7FEFF 		bl	TIM_DeInit
 3311              	.LVL263:
 3312              		.loc 1 476 0
 3313 003e FFF7FEFF 		bl	ADC_DeInit
 3314              	.LVL264:
 3315              		.loc 1 477 0
 3316 0042 0A48     		ldr	r0, .L276+20
 3317 0044 FFF7FEFF 		bl	DMA_DeInit
 3318              	.LVL265:
 3319              		.loc 1 478 0
 3320 0048 1220     		movs	r0, #18
 3321 004a FFF7FEFF 		bl	nvicDisableVector
 3322              	.LVL266:
 3323              		.loc 1 479 0
 3324 004e 0848     		ldr	r0, .L276+24
 3325              		.loc 1 480 0
 3326 0050 BDE83840 		pop	{r3, r4, r5, lr}
 3327              		.cfi_restore 14
 3328              		.cfi_restore 5
 3329              		.cfi_restore 4
 3330              		.cfi_restore 3
 3331              		.cfi_def_cfa_offset 0
 3332              		.loc 1 479 0
 3333 0054 FFF7FEBF 		b	dmaStreamRelease
 3334              	.LVL267:
 3335              	.L277:
 3336              		.align	2
 3337              	.L276:
 3338 0058 00000000 		.word	.LANCHOR21
 3339 005c 00000000 		.word	.LANCHOR12
 3340 0060 00000140 		.word	1073807360
 3341 0064 00040140 		.word	1073808384
 3342 0068 00180040 		.word	1073747968
 3343 006c 70640240 		.word	1073898608
 3344 0070 90000000 		.word	_stm32_dma_streams+144
 3345              		.cfi_endproc
 3346              	.LFE258:
 3347              		.size	mcpwm_deinit, .-mcpwm_deinit
 3348              		.section	.text.mcpwm_init_hall_table,"ax",%progbits
 3349              		.align	2
 3350              		.p2align 4,,15
 3351              		.global	mcpwm_init_hall_table
 3352              		.thumb
 3353              		.thumb_func
 3354              		.type	mcpwm_init_hall_table, %function
 3355              	mcpwm_init_hall_table:
 3356              	.LFB260:
 3357              		.loc 1 500 0
 3358              		.cfi_startproc
 3359              		@ args = 0, pretend = 0, frame = 32
 3360              		@ frame_needed = 0, uses_anonymous_args = 0
 3361              		@ link register save eliminated.
 3362              	.LVL268:
 3363 0000 F0B4     		push	{r4, r5, r6, r7}
ARM GAS  C:\Users\euanm\AppData\Local\Temp\ccjmNLkj.s 			page 60


 3364              		.cfi_def_cfa_offset 16
 3365              		.cfi_offset 4, -16
 3366              		.cfi_offset 5, -12
 3367              		.cfi_offset 6, -8
 3368              		.cfi_offset 7, -4
 3369              		.loc 1 501 0
 3370 0002 1F4F     		ldr	r7, .L288
 3371 0004 1F4C     		ldr	r4, .L288+4
 3372              		.loc 1 500 0
 3373 0006 0546     		mov	r5, r0
 3374              		.loc 1 501 0
 3375 0008 0FCF     		ldmia	r7!, {r0, r1, r2, r3}
 3376              	.LVL269:
 3377              		.loc 1 500 0
 3378 000a 88B0     		sub	sp, sp, #32
 3379              		.cfi_def_cfa_offset 48
 3380              		.loc 1 501 0
 3381 000c 01AE     		add	r6, sp, #4
 3382 000e 0FC6     		stmia	r6!, {r0, r1, r2, r3}
 3383 0010 97E80700 		ldmia	r7, {r0, r1, r2}
 3384 0014 86E80700 		stmia	r6, {r0, r1, r2}
 3385              	.LVL270:
 3386 0018 681E     		subs	r0, r5, #1
 3387 001a 04F12001 		add	r1, r4, #32
 3388              	.LVL271:
 3389              	.L281:
 3390              	.LBB138:
 3391              	.LBB139:
 3392              		.loc 1 504 0
 3393 001e 10F9013F 		ldrsb	r3, [r0, #1]!
 3394              	.LVL272:
 3395 0022 44F8043F 		str	r3, [r4, #4]!
 3396              	.LVL273:
 3397              		.loc 1 512 0
 3398 0026 08AA     		add	r2, sp, #32
 3399 0028 02EB8302 		add	r2, r2, r3, lsl #2
 3400              		.loc 1 507 0
 3401 002c 002B     		cmp	r3, #0
 3402              		.loc 1 512 0
 3403 002e C8BF     		it	gt
 3404 0030 52F81C3C 		ldrgt	r3, [r2, #-28]
 3405              	.LVL274:
 3406 0034 44F8203C 		str	r3, [r4, #-32]
 3407              	.LVL275:
 3408              	.LBE139:
 3409              		.loc 1 503 0
 3410 0038 8C42     		cmp	r4, r1
 3411 003a F0D1     		bne	.L281
 3412              	.LBE138:
 3413              		.loc 1 516 0
 3414 003c 124B     		ldr	r3, .L288+8
 3415 003e 9FED136A 		vldr.32	s12, .L288+12
 3416 0042 1B68     		ldr	r3, [r3]
 3417              		.loc 1 517 0
 3418 0044 DFED126A 		vldr.32	s13, .L288+16
 3419              		.loc 1 516 0
 3420 0048 D3ED247A 		vldr.32	s15, [r3, #144]
ARM GAS  C:\Users\euanm\AppData\Local\Temp\ccjmNLkj.s 			page 61


 3421              		.loc 1 520 0
 3422 004c 93ED247A 		vldr.32	s14, [r3, #144]
 3423 0050 1049     		ldr	r1, .L288+20
 3424              		.loc 1 521 0
 3425 0052 114A     		ldr	r2, .L288+24
 3426              		.loc 1 516 0
 3427 0054 67EE867A 		vmul.f32	s15, s15, s12
 3428              	.LVL276:
 3429              		.loc 1 518 0
 3430 0058 F4EE667A 		vcmp.f32	s15, s13
 3431 005c F1EE10FA 		vmrs	APSR_nzcv, FPSCR
 3432 0060 C8BF     		it	gt
 3433 0062 F0EE667A 		vmovgt.f32	s15, s13
 3434              	.LVL277:
 3435              		.loc 1 520 0
 3436 0066 37EE677A 		vsub.f32	s14, s14, s15
 3437 006a 81ED007A 		vstr.32	s14, [r1]
 3438              		.loc 1 521 0
 3439 006e 93ED247A 		vldr.32	s14, [r3, #144]
 3440 0072 77EE877A 		vadd.f32	s15, s15, s14
 3441              	.LVL278:
 3442 0076 C2ED007A 		vstr.32	s15, [r2]
 3443              		.loc 1 522 0
 3444 007a 08B0     		add	sp, sp, #32
 3445              		.cfi_def_cfa_offset 16
 3446              		@ sp needed
 3447 007c F0BC     		pop	{r4, r5, r6, r7}
 3448              		.cfi_restore 7
 3449              		.cfi_restore 6
 3450              		.cfi_restore 5
 3451              		.cfi_restore 4
 3452              		.cfi_def_cfa_offset 0
 3453              	.LVL279:
 3454 007e 7047     		bx	lr
 3455              	.L289:
 3456              		.align	2
 3457              	.L288:
 3458 0080 00000000 		.word	.LANCHOR37
 3459 0084 1C000000 		.word	.LANCHOR38+28
 3460 0088 00000000 		.word	.LANCHOR0
 3461 008c CDCCCC3D 		.word	1036831949
 3462 0090 0000FA43 		.word	1140457472
 3463 0094 00000000 		.word	.LANCHOR31
 3464 0098 00000000 		.word	.LANCHOR32
 3465              		.cfi_endproc
 3466              	.LFE260:
 3467              		.size	mcpwm_init_hall_table, .-mcpwm_init_hall_table
 3468              		.section	.text.mcpwm_init,"ax",%progbits
 3469              		.align	2
 3470              		.p2align 4,,15
 3471              		.global	mcpwm_init
 3472              		.thumb
 3473              		.thumb_func
 3474              		.type	mcpwm_init, %function
 3475              	mcpwm_init:
 3476              	.LFB257:
 3477              		.loc 1 163 0
ARM GAS  C:\Users\euanm\AppData\Local\Temp\ccjmNLkj.s 			page 62


 3478              		.cfi_startproc
 3479              		@ args = 0, pretend = 0, frame = 184
 3480              		@ frame_needed = 0, uses_anonymous_args = 0
 3481              	.LVL280:
 3482 0000 2DE9F04F 		push	{r4, r5, r6, r7, r8, r9, r10, fp, lr}
 3483              		.cfi_def_cfa_offset 36
 3484              		.cfi_offset 4, -36
 3485              		.cfi_offset 5, -32
 3486              		.cfi_offset 6, -28
 3487              		.cfi_offset 7, -24
 3488              		.cfi_offset 8, -20
 3489              		.cfi_offset 9, -16
 3490              		.cfi_offset 10, -12
 3491              		.cfi_offset 11, -8
 3492              		.cfi_offset 14, -4
 3493 0004 B1B0     		sub	sp, sp, #196
 3494              		.cfi_def_cfa_offset 232
 3495              		.loc 1 170 0
 3496 0006 CD4D     		ldr	r5, .L297
 3497              		.loc 1 163 0
 3498 0008 0390     		str	r0, [sp, #12]
 3499              		.loc 1 164 0
 3500 000a FFF7FEFF 		bl	utils_sys_lock_cnt
 3501              	.LVL281:
 3502              		.loc 1 170 0
 3503 000e 0399     		ldr	r1, [sp, #12]
 3504              		.loc 1 176 0
 3505 0010 DFEDCB7A 		vldr.32	s15, .L297+4
 3506              		.loc 1 170 0
 3507 0014 2960     		str	r1, [r5]
 3508              		.loc 1 173 0
 3509 0016 DFF8BCB3 		ldr	fp, .L297+152
 3510              		.loc 1 174 0
 3511 001a DFF8BCA3 		ldr	r10, .L297+156
 3512              		.loc 1 175 0
 3513 001e C94A     		ldr	r2, .L297+8
 3514              		.loc 1 176 0
 3515 0020 C948     		ldr	r0, .L297+12
 3516              		.loc 1 177 0
 3517 0022 DFF8B8E3 		ldr	lr, .L297+160
 3518              		.loc 1 178 0
 3519 0026 C94F     		ldr	r7, .L297+16
 3520              		.loc 1 179 0
 3521 0028 C94E     		ldr	r6, .L297+20
 3522              		.loc 1 180 0
 3523 002a CA4B     		ldr	r3, .L297+24
 3524              		.loc 1 181 0
 3525 002c DFF8B093 		ldr	r9, .L297+164
 3526              		.loc 1 182 0
 3527 0030 DFF8B083 		ldr	r8, .L297+168
 3528              		.loc 1 183 0
 3529 0034 C849     		ldr	r1, .L297+28
 3530              		.loc 1 185 0
 3531 0036 DFF8B0C3 		ldr	ip, .L297+172
 3532              		.loc 1 190 0
 3533 003a 9FEDC87A 		vldr.32	s14, .L297+32
 3534              		.loc 1 174 0
ARM GAS  C:\Users\euanm\AppData\Local\Temp\ccjmNLkj.s 			page 63


 3535 003e 0024     		movs	r4, #0
 3536              		.loc 1 173 0
 3537 0040 0125     		movs	r5, #1
 3538 0042 CBF80050 		str	r5, [fp]
 3539              		.loc 1 174 0
 3540 0046 CAF80040 		str	r4, [r10]
 3541              		.loc 1 175 0
 3542 004a 1560     		str	r5, [r2]
 3543              		.loc 1 176 0
 3544 004c C0ED007A 		vstr.32	s15, [r0]
 3545              		.loc 1 186 0
 3546 0050 C34A     		ldr	r2, .L297+36
 3547              		.loc 1 177 0
 3548 0052 CEED007A 		vstr.32	s15, [lr]
 3549              		.loc 1 178 0
 3550 0056 C7ED007A 		vstr.32	s15, [r7]
 3551              		.loc 1 179 0
 3552 005a C6ED007A 		vstr.32	s15, [r6]
 3553              		.loc 1 180 0
 3554 005e 1C70     		strb	r4, [r3]
 3555              		.loc 1 181 0
 3556 0060 C9ED007A 		vstr.32	s15, [r9]
 3557              		.loc 1 182 0
 3558 0064 C8ED007A 		vstr.32	s15, [r8]
 3559              		.loc 1 183 0
 3560 0068 0C60     		str	r4, [r1]
 3561              		.loc 1 184 0
 3562 006a BE49     		ldr	r1, .L297+40
 3563              		.loc 1 193 0
 3564 006c DFF87CE3 		ldr	lr, .L297+176
 3565              		.loc 1 184 0
 3566 0070 0C60     		str	r4, [r1]
 3567              		.loc 1 185 0
 3568 0072 CCF80040 		str	r4, [ip]
 3569              		.loc 1 186 0
 3570 0076 1470     		strb	r4, [r2]
 3571              		.loc 1 187 0
 3572 0078 BB4A     		ldr	r2, .L297+44
 3573              		.loc 1 196 0
 3574 007a BC4B     		ldr	r3, .L297+48
 3575              		.loc 1 190 0
 3576 007c DFF870B3 		ldr	fp, .L297+180
 3577              		.loc 1 192 0
 3578 0080 BB48     		ldr	r0, .L297+52
 3579              		.loc 1 194 0
 3580 0082 BC4F     		ldr	r7, .L297+56
 3581              		.loc 1 195 0
 3582 0084 BC4E     		ldr	r6, .L297+60
 3583              		.loc 1 198 0
 3584 0086 DFF86CA3 		ldr	r10, .L297+184
 3585              		.loc 1 202 0
 3586 008a DFF86CC3 		ldr	ip, .L297+188
 3587              		.loc 1 200 0
 3588 008e DFF86C93 		ldr	r9, .L297+192
 3589              		.loc 1 201 0
 3590 0092 DFF86C83 		ldr	r8, .L297+196
 3591              		.loc 1 187 0
ARM GAS  C:\Users\euanm\AppData\Local\Temp\ccjmNLkj.s 			page 64


 3592 0096 0521     		movs	r1, #5
 3593 0098 1170     		strb	r1, [r2]
 3594              		.loc 1 188 0
 3595 009a B84A     		ldr	r2, .L297+64
 3596 009c C2ED007A 		vstr.32	s15, [r2]
 3597              		.loc 1 189 0
 3598 00a0 B74A     		ldr	r2, .L297+68
 3599 00a2 C2ED007A 		vstr.32	s15, [r2]
 3600              		.loc 1 191 0
 3601 00a6 B74A     		ldr	r2, .L297+72
 3602              		.loc 1 190 0
 3603 00a8 8BED007A 		vstr.32	s14, [fp]
 3604              		.loc 1 191 0
 3605 00ac 1460     		str	r4, [r2]
 3606              		.loc 1 192 0
 3607 00ae 0460     		str	r4, [r0]
 3608              		.loc 1 193 0
 3609 00b0 CEF80040 		str	r4, [lr]
 3610              		.loc 1 194 0
 3611 00b4 3C60     		str	r4, [r7]
 3612              		.loc 1 195 0
 3613 00b6 3460     		str	r4, [r6]
 3614              		.loc 1 196 0
 3615 00b8 1C60     		str	r4, [r3]
 3616 00ba 5C60     		str	r4, [r3, #4]
 3617 00bc 9C60     		str	r4, [r3, #8]
 3618 00be DC60     		str	r4, [r3, #12]
 3619 00c0 1C61     		str	r4, [r3, #16]
 3620 00c2 5C61     		str	r4, [r3, #20]
 3621 00c4 9C61     		str	r4, [r3, #24]
 3622              		.loc 1 197 0
 3623 00c6 B04B     		ldr	r3, .L297+76
 3624              		.loc 1 204 0
 3625 00c8 B048     		ldr	r0, .L297+80
 3626              		.loc 1 197 0
 3627 00ca C3ED007A 		vstr.32	s15, [r3]
 3628              		.loc 1 199 0
 3629 00ce B04B     		ldr	r3, .L297+84
 3630              		.loc 1 198 0
 3631 00d0 CAED007A 		vstr.32	s15, [r10]
 3632              		.loc 1 199 0
 3633 00d4 C3ED007A 		vstr.32	s15, [r3]
 3634              		.loc 1 203 0
 3635 00d8 AE4B     		ldr	r3, .L297+88
 3636              		.loc 1 200 0
 3637 00da C9F80040 		str	r4, [r9]
 3638              		.loc 1 204 0
 3639 00de E022     		movs	r2, #224
 3640              		.loc 1 201 0
 3641 00e0 C8ED007A 		vstr.32	s15, [r8]
 3642              		.loc 1 204 0
 3643 00e4 2146     		mov	r1, r4
 3644              		.loc 1 202 0
 3645 00e6 CCF80040 		str	r4, [ip]
 3646 00ea CCF80440 		str	r4, [ip, #4]
 3647 00ee CCF80840 		str	r4, [ip, #8]
 3648 00f2 CCF80C40 		str	r4, [ip, #12]
ARM GAS  C:\Users\euanm\AppData\Local\Temp\ccjmNLkj.s 			page 65


 3649 00f6 CCF81040 		str	r4, [ip, #16]
 3650 00fa CCF81440 		str	r4, [ip, #20]
 3651              		.loc 1 203 0
 3652 00fe 1C70     		strb	r4, [r3]
 3653              		.loc 1 204 0
 3654 0100 FFF7FEFF 		bl	memset
 3655              	.LVL282:
 3656              		.loc 1 205 0
 3657 0104 FFF7FEFF 		bl	update_sensor_mode
 3658              	.LVL283:
 3659              		.loc 1 207 0
 3660 0108 0399     		ldr	r1, [sp, #12]
 3661              		.loc 1 218 0
 3662 010a A34E     		ldr	r6, .L297+92
 3663              		.loc 1 219 0
 3664 010c A34F     		ldr	r7, .L297+96
 3665              		.loc 1 207 0
 3666 010e 01F18800 		add	r0, r1, #136
 3667 0112 FFF7FEFF 		bl	mcpwm_init_hall_table
 3668              	.LVL284:
 3669              		.loc 1 210 0
 3670 0116 2A46     		mov	r2, r5
 3671 0118 0721     		movs	r1, #7
 3672 011a 9FEDA10A 		vldr.32	s0, .L297+100
 3673 011e A148     		ldr	r0, .L297+104
 3674 0120 FFF7FEFF 		bl	filter_create_fir_lowpass
 3675              	.LVL285:
 3676              		.loc 1 213 0
 3677 0124 2A46     		mov	r2, r5
 3678 0126 0721     		movs	r1, #7
 3679 0128 9FED9D0A 		vldr.32	s0, .L297+100
 3680 012c 9E48     		ldr	r0, .L297+108
 3681 012e FFF7FEFF 		bl	filter_create_fir_lowpass
 3682              	.LVL286:
 3683              		.loc 1 216 0
 3684 0132 9FED9E0A 		vldr.32	s0, .L297+112
 3685 0136 9E48     		ldr	r0, .L297+116
 3686 0138 2A46     		mov	r2, r5
 3687 013a 0421     		movs	r1, #4
 3688 013c FFF7FEFF 		bl	filter_create_fir_lowpass
 3689              	.LVL287:
 3690              		.loc 1 218 0
 3691 0140 3046     		mov	r0, r6
 3692 0142 FFF7FEFF 		bl	TIM_DeInit
 3693              	.LVL288:
 3694              		.loc 1 219 0
 3695 0146 3846     		mov	r0, r7
 3696 0148 FFF7FEFF 		bl	TIM_DeInit
 3697              	.LVL289:
 3698              		.loc 1 220 0
 3699 014c 7462     		str	r4, [r6, #36]
 3700              		.loc 1 224 0
 3701 014e 2946     		mov	r1, r5
 3702 0150 2846     		mov	r0, r5
 3703              		.loc 1 221 0
 3704 0152 7C62     		str	r4, [r7, #36]
 3705              		.loc 1 224 0
ARM GAS  C:\Users\euanm\AppData\Local\Temp\ccjmNLkj.s 			page 66


 3706 0154 FFF7FEFF 		bl	RCC_APB2PeriphClockCmd
 3707              	.LVL290:
 3708              		.loc 1 229 0
 3709 0158 DBED007A 		vldr.32	s15, [fp]
 3710 015c 954A     		ldr	r2, .L297+120
 3711              		.loc 1 227 0
 3712 015e ADF81440 		strh	r4, [sp, #20]	@ movhi
 3713              		.loc 1 229 0
 3714 0162 FDEEE77A 		vcvt.s32.f32	s15, s15
 3715              		.loc 1 233 0
 3716 0166 3046     		mov	r0, r6
 3717              		.loc 1 229 0
 3718 0168 17EE903A 		vmov	r3, s15	@ int
 3719              		.loc 1 233 0
 3720 016c 05A9     		add	r1, sp, #20
 3721              		.loc 1 229 0
 3722 016e 92FBF3F3 		sdiv	r3, r2, r3
 3723              		.loc 1 228 0
 3724 0172 ADF81640 		strh	r4, [sp, #22]	@ movhi
 3725              		.loc 1 229 0
 3726 0176 0693     		str	r3, [sp, #24]
 3727              		.loc 1 230 0
 3728 0178 ADF81C40 		strh	r4, [sp, #28]	@ movhi
 3729              		.loc 1 231 0
 3730 017c 8DF81E40 		strb	r4, [sp, #30]
 3731              		.loc 1 233 0
 3732 0180 FFF7FEFF 		bl	TIM_TimeBaseInit
 3733              	.LVL291:
 3734              		.loc 1 239 0
 3735 0184 F36A     		ldr	r3, [r6, #44]
 3736              		.loc 1 237 0
 3737 0186 ADF84250 		strh	r5, [sp, #66]	@ movhi
 3738              		.loc 1 239 0
 3739 018a EB40     		lsrs	r3, r3, r5
 3740              		.loc 1 238 0
 3741 018c 4FF00409 		mov	r9, #4
 3742              		.loc 1 242 0
 3743 0190 4FF4807B 		mov	fp, #256
 3744              		.loc 1 245 0
 3745 0194 3046     		mov	r0, r6
 3746 0196 10A9     		add	r1, sp, #64
 3747              		.loc 1 243 0
 3748 0198 4FF4007A 		mov	r10, #512
 3749              		.loc 1 239 0
 3750 019c 1293     		str	r3, [sp, #72]
 3751              		.loc 1 236 0
 3752 019e 4FF06003 		mov	r3, #96	@ movhi
 3753 01a2 ADF84030 		strh	r3, [sp, #64]	@ movhi
 3754              		.loc 1 240 0
 3755 01a6 ADF84C40 		strh	r4, [sp, #76]	@ movhi
 3756              		.loc 1 241 0
 3757 01aa ADF84E40 		strh	r4, [sp, #78]	@ movhi
 3758              		.loc 1 238 0
 3759 01ae ADF84490 		strh	r9, [sp, #68]	@ movhi
 3760              		.loc 1 242 0
 3761 01b2 ADF850B0 		strh	fp, [sp, #80]	@ movhi
 3762              		.loc 1 243 0
ARM GAS  C:\Users\euanm\AppData\Local\Temp\ccjmNLkj.s 			page 67


 3763 01b6 ADF852A0 		strh	r10, [sp, #82]	@ movhi
 3764              		.loc 1 245 0
 3765 01ba FFF7FEFF 		bl	TIM_OC1Init
 3766              	.LVL292:
 3767              		.loc 1 246 0
 3768 01be 10A9     		add	r1, sp, #64
 3769 01c0 3046     		mov	r0, r6
 3770 01c2 FFF7FEFF 		bl	TIM_OC2Init
 3771              	.LVL293:
 3772              		.loc 1 247 0
 3773 01c6 10A9     		add	r1, sp, #64
 3774 01c8 3046     		mov	r0, r6
 3775 01ca FFF7FEFF 		bl	TIM_OC3Init
 3776              	.LVL294:
 3777              		.loc 1 248 0
 3778 01ce 10A9     		add	r1, sp, #64
 3779 01d0 3046     		mov	r0, r6
 3780 01d2 FFF7FEFF 		bl	TIM_OC4Init
 3781              	.LVL295:
 3782              		.loc 1 250 0
 3783 01d6 3046     		mov	r0, r6
 3784 01d8 0821     		movs	r1, #8
 3785 01da FFF7FEFF 		bl	TIM_OC1PreloadConfig
 3786              	.LVL296:
 3787              		.loc 1 251 0
 3788 01de 3046     		mov	r0, r6
 3789 01e0 0821     		movs	r1, #8
 3790 01e2 FFF7FEFF 		bl	TIM_OC2PreloadConfig
 3791              	.LVL297:
 3792              		.loc 1 252 0
 3793 01e6 3046     		mov	r0, r6
 3794 01e8 0821     		movs	r1, #8
 3795 01ea FFF7FEFF 		bl	TIM_OC3PreloadConfig
 3796              	.LVL298:
 3797              		.loc 1 253 0
 3798 01ee 3046     		mov	r0, r6
 3799 01f0 0821     		movs	r1, #8
 3800 01f2 FFF7FEFF 		bl	TIM_OC4PreloadConfig
 3801              	.LVL299:
 3802              		.loc 1 259 0
 3803 01f6 3C23     		movs	r3, #60
 3804              		.loc 1 256 0
 3805 01f8 4FF40062 		mov	r2, #2048	@ movhi
 3806              		.loc 1 257 0
 3807 01fc 4FF48068 		mov	r8, #1024
 3808              		.loc 1 264 0
 3809 0200 3046     		mov	r0, r6
 3810 0202 08A9     		add	r1, sp, #32
 3811              		.loc 1 259 0
 3812 0204 ADF82630 		strh	r3, [sp, #38]	@ movhi
 3813              		.loc 1 261 0
 3814 0208 4FF40053 		mov	r3, #8192	@ movhi
 3815              		.loc 1 256 0
 3816 020c ADF82020 		strh	r2, [sp, #32]	@ movhi
 3817              		.loc 1 261 0
 3818 0210 ADF82A30 		strh	r3, [sp, #42]	@ movhi
 3819              		.loc 1 258 0
ARM GAS  C:\Users\euanm\AppData\Local\Temp\ccjmNLkj.s 			page 68


 3820 0214 ADF82440 		strh	r4, [sp, #36]	@ movhi
 3821              		.loc 1 260 0
 3822 0218 ADF82840 		strh	r4, [sp, #40]	@ movhi
 3823              		.loc 1 262 0
 3824 021c ADF82C40 		strh	r4, [sp, #44]	@ movhi
 3825              		.loc 1 257 0
 3826 0220 ADF82280 		strh	r8, [sp, #34]	@ movhi
 3827              		.loc 1 264 0
 3828 0224 FFF7FEFF 		bl	TIM_BDTRConfig
 3829              	.LVL300:
 3830              		.loc 1 265 0
 3831 0228 2946     		mov	r1, r5
 3832 022a 3046     		mov	r0, r6
 3833 022c FFF7FEFF 		bl	TIM_CCPreloadControl
 3834              	.LVL301:
 3835              		.loc 1 266 0
 3836 0230 2946     		mov	r1, r5
 3837 0232 3046     		mov	r0, r6
 3838 0234 FFF7FEFF 		bl	TIM_ARRPreloadConfig
 3839              	.LVL302:
 3840              		.loc 1 276 0
 3841 0238 2946     		mov	r1, r5
 3842 023a 5F48     		ldr	r0, .L297+124
 3843 023c FFF7FEFF 		bl	RCC_AHB1PeriphClockCmd
 3844              	.LVL303:
 3845              		.loc 1 277 0
 3846 0240 2946     		mov	r1, r5
 3847 0242 4FF4E060 		mov	r0, #1792
 3848 0246 FFF7FEFF 		bl	RCC_APB2PeriphClockCmd
 3849              	.LVL304:
 3850              		.loc 1 279 0
 3851 024a 2346     		mov	r3, r4
 3852 024c 5B4A     		ldr	r2, .L297+128
 3853 024e 5C48     		ldr	r0, .L297+132
 3854 0250 0321     		movs	r1, #3
 3855 0252 FFF7FEFF 		bl	dmaStreamAllocate
 3856              	.LVL305:
 3857              		.loc 1 292 0
 3858 0256 4FF40063 		mov	r3, #2048
 3859 025a 2893     		str	r3, [sp, #160]
 3860              		.loc 1 293 0
 3861 025c 4FF40053 		mov	r3, #8192
 3862              		.loc 1 286 0
 3863 0260 DFF8A0C1 		ldr	ip, .L297+200
 3864              		.loc 1 287 0
 3865 0264 DFF8A0E1 		ldr	lr, .L297+204
 3866              		.loc 1 300 0
 3867 0268 5648     		ldr	r0, .L297+136
 3868              		.loc 1 293 0
 3869 026a 2993     		str	r3, [sp, #164]
 3870              		.loc 1 289 0
 3871 026c 0C22     		movs	r2, #12
 3872              		.loc 1 295 0
 3873 026e 4FF40033 		mov	r3, #131072
 3874              		.loc 1 300 0
 3875 0272 21A9     		add	r1, sp, #132
 3876              		.loc 1 286 0
ARM GAS  C:\Users\euanm\AppData\Local\Temp\ccjmNLkj.s 			page 69


 3877 0274 CDF88CC0 		str	ip, [sp, #140]
 3878              		.loc 1 287 0
 3879 0278 CDF888E0 		str	lr, [sp, #136]
 3880              		.loc 1 295 0
 3881 027c 2B93     		str	r3, [sp, #172]
 3882              		.loc 1 289 0
 3883 027e 2592     		str	r2, [sp, #148]
 3884              		.loc 1 285 0
 3885 0280 2194     		str	r4, [sp, #132]
 3886              		.loc 1 288 0
 3887 0282 2494     		str	r4, [sp, #144]
 3888              		.loc 1 290 0
 3889 0284 2694     		str	r4, [sp, #152]
 3890              		.loc 1 291 0
 3891 0286 CDF89C80 		str	r8, [sp, #156]
 3892              		.loc 1 294 0
 3893 028a CDF8A8B0 		str	fp, [sp, #168]
 3894              		.loc 1 296 0
 3895 028e 2C94     		str	r4, [sp, #176]
 3896              		.loc 1 297 0
 3897 0290 2D94     		str	r4, [sp, #180]
 3898              		.loc 1 298 0
 3899 0292 2E94     		str	r4, [sp, #184]
 3900              		.loc 1 299 0
 3901 0294 2F94     		str	r4, [sp, #188]
 3902              		.loc 1 300 0
 3903 0296 FFF7FEFF 		bl	DMA_Init
 3904              	.LVL306:
 3905              		.loc 1 303 0
 3906 029a 2946     		mov	r1, r5
 3907 029c 4948     		ldr	r0, .L297+136
 3908 029e FFF7FEFF 		bl	DMA_Cmd
 3909              	.LVL307:
 3910              		.loc 1 306 0
 3911 02a2 1021     		movs	r1, #16
 3912 02a4 2A46     		mov	r2, r5
 3913 02a6 4748     		ldr	r0, .L297+136
 3914 02a8 FFF7FEFF 		bl	DMA_ITConfig
 3915              	.LVL308:
 3916              		.loc 1 311 0
 3917 02ac 1622     		movs	r2, #22
 3918              		.loc 1 313 0
 3919 02ae 4FF48043 		mov	r3, #16384
 3920              		.loc 1 315 0
 3921 02b2 0CA8     		add	r0, sp, #48
 3922              		.loc 1 311 0
 3923 02b4 0C92     		str	r2, [sp, #48]
 3924              		.loc 1 313 0
 3925 02b6 0E93     		str	r3, [sp, #56]
 3926              		.loc 1 312 0
 3927 02b8 0D94     		str	r4, [sp, #52]
 3928              		.loc 1 314 0
 3929 02ba 0F94     		str	r4, [sp, #60]
 3930              		.loc 1 315 0
 3931 02bc FFF7FEFF 		bl	ADC_CommonInit
 3932              	.LVL309:
 3933              		.loc 1 322 0
ARM GAS  C:\Users\euanm\AppData\Local\Temp\ccjmNLkj.s 			page 70


 3934 02c0 4FF05063 		mov	r3, #218103808
 3935              		.loc 1 321 0
 3936 02c4 4FF00052 		mov	r2, #536870912
 3937              		.loc 1 326 0
 3938 02c8 15A9     		add	r1, sp, #84
 3939 02ca 3F48     		ldr	r0, .L297+140
 3940              		.loc 1 322 0
 3941 02cc 1893     		str	r3, [sp, #96]
 3942              		.loc 1 321 0
 3943 02ce 1792     		str	r2, [sp, #92]
 3944              		.loc 1 318 0
 3945 02d0 1594     		str	r4, [sp, #84]
 3946              		.loc 1 319 0
 3947 02d2 8DF85850 		strb	r5, [sp, #88]
 3948              		.loc 1 320 0
 3949 02d6 8DF85940 		strb	r4, [sp, #89]
 3950              		.loc 1 323 0
 3951 02da 1994     		str	r4, [sp, #100]
 3952              		.loc 1 324 0
 3953 02dc 8DF86890 		strb	r9, [sp, #104]
 3954              		.loc 1 326 0
 3955 02e0 FFF7FEFF 		bl	ADC_Init
 3956              	.LVL310:
 3957              		.loc 1 329 0
 3958 02e4 15A9     		add	r1, sp, #84
 3959 02e6 3948     		ldr	r0, .L297+144
 3960              		.loc 1 327 0
 3961 02e8 1794     		str	r4, [sp, #92]
 3962              		.loc 1 328 0
 3963 02ea 1894     		str	r4, [sp, #96]
 3964              		.loc 1 329 0
 3965 02ec FFF7FEFF 		bl	ADC_Init
 3966              	.LVL311:
 3967              		.loc 1 330 0
 3968 02f0 15A9     		add	r1, sp, #84
 3969 02f2 3748     		ldr	r0, .L297+148
 3970 02f4 FFF7FEFF 		bl	ADC_Init
 3971              	.LVL312:
 3972              		.loc 1 333 0
 3973 02f8 2846     		mov	r0, r5
 3974 02fa FFF7FEFF 		bl	ADC_TempSensorVrefintCmd
 3975              	.LVL313:
 3976              		.loc 1 336 0
 3977 02fe 2846     		mov	r0, r5
 3978 0300 FFF7FEFF 		bl	ADC_MultiModeDMARequestAfterLastTransferCmd
 3979              	.LVL314:
 3980              		.loc 1 339 0
 3981 0304 2146     		mov	r1, r4
 3982 0306 3048     		ldr	r0, .L297+140
 3983 0308 FFF7FEFF 		bl	ADC_ExternalTrigInjectedConvConfig
 3984              	.LVL315:
 3985              		.loc 1 340 0
 3986 030c 4FF44021 		mov	r1, #786432
 3987 0310 2E48     		ldr	r0, .L297+144
 3988 0312 FFF7FEFF 		bl	ADC_ExternalTrigInjectedConvConfig
 3989              	.LVL316:
 3990              		.loc 1 341 0
ARM GAS  C:\Users\euanm\AppData\Local\Temp\ccjmNLkj.s 			page 71


 3991 0316 4FF40011 		mov	r1, #2097152
 3992 031a 2B48     		ldr	r0, .L297+140
 3993 031c FFF7FEFF 		bl	ADC_ExternalTrigInjectedConvEdgeConfig
 3994              	.LVL317:
 3995              		.loc 1 342 0
 3996 0320 4FF40011 		mov	r1, #2097152
 3997 0324 2948     		ldr	r0, .L297+144
 3998 0326 FFF7FEFF 		bl	ADC_ExternalTrigInjectedConvEdgeConfig
 3999              	.LVL318:
 4000              		.loc 1 343 0
 4001 032a 0221     		movs	r1, #2
 4002 032c 2648     		ldr	r0, .L297+140
 4003 032e FFF7FEFF 		bl	ADC_InjectedSequencerLengthConfig
 4004              	.LVL319:
 4005              		.loc 1 344 0
 4006 0332 0221     		movs	r1, #2
 4007 0334 2548     		ldr	r0, .L297+144
 4008 0336 FFF7FEFF 		bl	ADC_InjectedSequencerLengthConfig
 4009              	.LVL320:
 4010 033a 67E0     		b	.L298
 4011              	.L299:
 4012              		.align	2
 4013              	.L297:
 4014 033c 00000000 		.word	.LANCHOR0
 4015 0340 00000000 		.word	0
 4016 0344 00000000 		.word	.LANCHOR4
 4017 0348 00000000 		.word	.LANCHOR13
 4018 034c 00000000 		.word	.LANCHOR27
 4019 0350 00000000 		.word	.LANCHOR18
 4020 0354 00000000 		.word	.LANCHOR20
 4021 0358 00000000 		.word	.LANCHOR9
 4022 035c 00401C47 		.word	1193033728
 4023 0360 00000000 		.word	.LANCHOR2
 4024 0364 00000000 		.word	.LANCHOR8
 4025 0368 00000000 		.word	.LANCHOR15
 4026 036c 00000000 		.word	.LANCHOR6
 4027 0370 00000000 		.word	.LANCHOR1
 4028 0374 00000000 		.word	.LANCHOR46
 4029 0378 00000000 		.word	.LANCHOR36
 4030 037c 00000000 		.word	.LANCHOR42
 4031 0380 00000000 		.word	.LANCHOR43
 4032 0384 00000000 		.word	.LANCHOR44
 4033 0388 00000000 		.word	.LANCHOR47
 4034 038c 00000000 		.word	.LANCHOR50
 4035 0390 00000000 		.word	.LANCHOR33
 4036 0394 00000000 		.word	.LANCHOR49
 4037 0398 00000140 		.word	1073807360
 4038 039c 00040140 		.word	1073808384
 4039 03a0 0AD7A33C 		.word	1017370378
 4040 03a4 00000000 		.word	.LANCHOR51
 4041 03a8 00000000 		.word	.LANCHOR23
 4042 03ac 9A99193E 		.word	1041865114
 4043 03b0 00000000 		.word	.LANCHOR52
 4044 03b4 007A030A 		.word	168000000
 4045 03b8 05004000 		.word	4194309
 4046 03bc 00000000 		.word	mcpwm_adc_int_handler
 4047 03c0 90000000 		.word	_stm32_dma_streams+144
ARM GAS  C:\Users\euanm\AppData\Local\Temp\ccjmNLkj.s 			page 72


 4048 03c4 70640240 		.word	1073898608
 4049 03c8 00200140 		.word	1073815552
 4050 03cc 00210140 		.word	1073815808
 4051 03d0 00220140 		.word	1073816064
 4052 03d4 00000000 		.word	.LANCHOR3
 4053 03d8 00000000 		.word	.LANCHOR39
 4054 03dc 00000000 		.word	.LANCHOR40
 4055 03e0 00000000 		.word	.LANCHOR41
 4056 03e4 00000000 		.word	.LANCHOR19
 4057 03e8 00000000 		.word	.LANCHOR7
 4058 03ec 00000000 		.word	.LANCHOR45
 4059 03f0 00000000 		.word	.LANCHOR11
 4060 03f4 00000000 		.word	.LANCHOR48
 4061 03f8 00000000 		.word	.LANCHOR26
 4062 03fc 00000000 		.word	.LANCHOR35
 4063 0400 00000000 		.word	.LANCHOR34
 4064 0404 00000000 		.word	ADC_Value
 4065 0408 08230140 		.word	1073816328
 4066              	.L298:
 4067              		.loc 1 346 0
 4068 040c FFF7FEFF 		bl	hw_setup_adc_channels
 4069              	.LVL321:
 4070              		.loc 1 349 0
 4071 0410 2A46     		mov	r2, r5
 4072 0412 40F20741 		movw	r1, #1031
 4073 0416 8248     		ldr	r0, .L300
 4074 0418 FFF7FEFF 		bl	ADC_ITConfig
 4075              	.LVL322:
 4076              		.loc 1 350 0
 4077 041c 0621     		movs	r1, #6
 4078 041e 1220     		movs	r0, #18
 4079 0420 FFF7FEFF 		bl	nvicEnableVector
 4080              	.LVL323:
 4081              		.loc 1 353 0
 4082 0424 2946     		mov	r1, r5
 4083 0426 7E48     		ldr	r0, .L300
 4084 0428 FFF7FEFF 		bl	ADC_Cmd
 4085              	.LVL324:
 4086              		.loc 1 356 0
 4087 042c 2946     		mov	r1, r5
 4088 042e 7D48     		ldr	r0, .L300+4
 4089 0430 FFF7FEFF 		bl	ADC_Cmd
 4090              	.LVL325:
 4091              		.loc 1 359 0
 4092 0434 2946     		mov	r1, r5
 4093 0436 7C48     		ldr	r0, .L300+8
 4094 0438 FFF7FEFF 		bl	ADC_Cmd
 4095              	.LVL326:
 4096              		.loc 1 363 0
 4097 043c 2946     		mov	r1, r5
 4098 043e 0220     		movs	r0, #2
 4099 0440 FFF7FEFF 		bl	RCC_APB2PeriphClockCmd
 4100              	.LVL327:
 4101              		.loc 1 367 0
 4102 0444 4FF6FF73 		movw	r3, #65535
 4103              		.loc 1 370 0
 4104 0448 05A9     		add	r1, sp, #20
ARM GAS  C:\Users\euanm\AppData\Local\Temp\ccjmNLkj.s 			page 73


 4105 044a 3846     		mov	r0, r7
 4106              		.loc 1 367 0
 4107 044c 0693     		str	r3, [sp, #24]
 4108              		.loc 1 365 0
 4109 044e ADF81440 		strh	r4, [sp, #20]	@ movhi
 4110              		.loc 1 366 0
 4111 0452 ADF81640 		strh	r4, [sp, #22]	@ movhi
 4112              		.loc 1 368 0
 4113 0456 ADF81C40 		strh	r4, [sp, #28]	@ movhi
 4114              		.loc 1 369 0
 4115 045a 8DF81E40 		strb	r4, [sp, #30]
 4116              		.loc 1 370 0
 4117 045e FFF7FEFF 		bl	TIM_TimeBaseInit
 4118              	.LVL328:
 4119              		.loc 1 374 0
 4120 0462 4FF4FA73 		mov	r3, #500
 4121              		.loc 1 372 0
 4122 0466 4FF06002 		mov	r2, #96	@ movhi
 4123              		.loc 1 379 0
 4124 046a 10A9     		add	r1, sp, #64
 4125 046c 3846     		mov	r0, r7
 4126              		.loc 1 372 0
 4127 046e ADF84020 		strh	r2, [sp, #64]	@ movhi
 4128              		.loc 1 374 0
 4129 0472 1293     		str	r3, [sp, #72]
 4130              		.loc 1 373 0
 4131 0474 ADF84250 		strh	r5, [sp, #66]	@ movhi
 4132              		.loc 1 375 0
 4133 0478 ADF84C40 		strh	r4, [sp, #76]	@ movhi
 4134              		.loc 1 376 0
 4135 047c ADF84E40 		strh	r4, [sp, #78]	@ movhi
 4136              		.loc 1 377 0
 4137 0480 ADF850B0 		strh	fp, [sp, #80]	@ movhi
 4138              		.loc 1 378 0
 4139 0484 ADF852A0 		strh	r10, [sp, #82]	@ movhi
 4140              		.loc 1 379 0
 4141 0488 FFF7FEFF 		bl	TIM_OC1Init
 4142              	.LVL329:
 4143              		.loc 1 380 0
 4144 048c 3846     		mov	r0, r7
 4145 048e 0821     		movs	r1, #8
 4146 0490 FFF7FEFF 		bl	TIM_OC1PreloadConfig
 4147              	.LVL330:
 4148              		.loc 1 381 0
 4149 0494 10A9     		add	r1, sp, #64
 4150 0496 3846     		mov	r0, r7
 4151 0498 FFF7FEFF 		bl	TIM_OC2Init
 4152              	.LVL331:
 4153              		.loc 1 382 0
 4154 049c 3846     		mov	r0, r7
 4155 049e 0821     		movs	r1, #8
 4156 04a0 FFF7FEFF 		bl	TIM_OC2PreloadConfig
 4157              	.LVL332:
 4158              		.loc 1 384 0
 4159 04a4 2946     		mov	r1, r5
 4160 04a6 3846     		mov	r0, r7
 4161 04a8 FFF7FEFF 		bl	TIM_ARRPreloadConfig
ARM GAS  C:\Users\euanm\AppData\Local\Temp\ccjmNLkj.s 			page 74


 4162              	.LVL333:
 4163              		.loc 1 385 0
 4164 04ac 2946     		mov	r1, r5
 4165 04ae 3846     		mov	r0, r7
 4166 04b0 FFF7FEFF 		bl	TIM_CCPreloadControl
 4167              	.LVL334:
 4168              		.loc 1 388 0
 4169 04b4 2946     		mov	r1, r5
 4170 04b6 3846     		mov	r0, r7
 4171 04b8 FFF7FEFF 		bl	TIM_CtrlPWMOutputs
 4172              	.LVL335:
 4173              		.loc 1 391 0
 4174 04bc 3046     		mov	r0, r6
 4175 04be 2021     		movs	r1, #32
 4176 04c0 FFF7FEFF 		bl	TIM_SelectOutputTrigger
 4177              	.LVL336:
 4178              		.loc 1 392 0
 4179 04c4 3046     		mov	r0, r6
 4180 04c6 8021     		movs	r1, #128
 4181 04c8 FFF7FEFF 		bl	TIM_SelectMasterSlaveMode
 4182              	.LVL337:
 4183              		.loc 1 393 0
 4184 04cc 2146     		mov	r1, r4
 4185 04ce 3846     		mov	r0, r7
 4186 04d0 FFF7FEFF 		bl	TIM_SelectInputTrigger
 4187              	.LVL338:
 4188              		.loc 1 394 0
 4189 04d4 4946     		mov	r1, r9
 4190 04d6 3846     		mov	r0, r7
 4191 04d8 FFF7FEFF 		bl	TIM_SelectSlaveMode
 4192              	.LVL339:
 4193              		.loc 1 397 0
 4194 04dc 2946     		mov	r1, r5
 4195 04de 3046     		mov	r0, r6
 4196 04e0 FFF7FEFF 		bl	TIM_Cmd
 4197              	.LVL340:
 4198              		.loc 1 398 0
 4199 04e4 2946     		mov	r1, r5
 4200 04e6 3846     		mov	r0, r7
 4201 04e8 FFF7FEFF 		bl	TIM_Cmd
 4202              	.LVL341:
 4203              		.loc 1 401 0
 4204 04ec 2946     		mov	r1, r5
 4205 04ee 3046     		mov	r0, r6
 4206 04f0 FFF7FEFF 		bl	TIM_CtrlPWMOutputs
 4207              	.LVL342:
 4208              		.loc 1 404 0
 4209 04f4 2946     		mov	r1, r5
 4210 04f6 2846     		mov	r0, r5
 4211 04f8 FFF7FEFF 		bl	RCC_APB1PeriphClockCmd
 4212              	.LVL343:
 4213              		.loc 1 408 0
 4214 04fc 4FF0FF32 		mov	r2, #-1
 4215              		.loc 1 409 0
 4216 0500 5323     		movs	r3, #83
 4217              		.loc 1 412 0
 4218 0502 05A9     		add	r1, sp, #20
ARM GAS  C:\Users\euanm\AppData\Local\Temp\ccjmNLkj.s 			page 75


 4219 0504 4FF08040 		mov	r0, #1073741824
 4220              		.loc 1 408 0
 4221 0508 0692     		str	r2, [sp, #24]
 4222              		.loc 1 409 0
 4223 050a ADF81430 		strh	r3, [sp, #20]	@ movhi
 4224              		.loc 1 410 0
 4225 050e ADF81C40 		strh	r4, [sp, #28]	@ movhi
 4226              		.loc 1 411 0
 4227 0512 ADF81640 		strh	r4, [sp, #22]	@ movhi
 4228              		.loc 1 412 0
 4229 0516 FFF7FEFF 		bl	TIM_TimeBaseInit
 4230              	.LVL344:
 4231              		.loc 1 415 0
 4232 051a 2946     		mov	r1, r5
 4233 051c 4FF08040 		mov	r0, #1073741824
 4234 0520 FFF7FEFF 		bl	TIM_Cmd
 4235              	.LVL345:
 4236              		.loc 1 418 0
 4237 0524 FFF7FEFF 		bl	stop_pwm_hw
 4238              	.LVL346:
 4239              		.loc 1 420 0
 4240 0528 F36A     		ldr	r3, [r6, #44]
 4241 052a 1C93     		str	r3, [sp, #112]
 4242              		.loc 1 421 0
 4243 052c F36A     		ldr	r3, [r6, #44]
 4244              		.loc 1 422 0
 4245 052e 1BA8     		add	r0, sp, #108
 4246              		.loc 1 421 0
 4247 0530 EB40     		lsrs	r3, r3, r5
 4248 0532 1D93     		str	r3, [sp, #116]
 4249              		.loc 1 422 0
 4250 0534 FFF7FEFF 		bl	update_adc_sample_pos
 4251              	.LVL347:
 4252              		.loc 1 423 0
 4253 0538 1BA8     		add	r0, sp, #108
 4254 053a FFF7FEFF 		bl	set_next_timer_settings
 4255              	.LVL348:
 4256              		.loc 1 425 0
 4257 053e FFF7FEFF 		bl	utils_sys_unlock_cnt
 4258              	.LVL349:
 4259              		.loc 1 429 0
 4260 0542 3A4B     		ldr	r3, .L300+12
 4261              		.loc 1 428 0
 4262 0544 3A4A     		ldr	r2, .L300+16
 4263              		.loc 1 429 0
 4264 0546 4FF48051 		mov	r1, #4096
 4265              		.loc 1 428 0
 4266 054a A2F81880 		strh	r8, [r2, #24]	@ movhi
 4267              	.LVL350:
 4268              		.loc 1 429 0
 4269 054e 5983     		strh	r1, [r3, #26]	@ movhi
 4270              	.LBB142:
 4271              	.LBB143:
 4272              		.loc 1 525 0
 4273 0550 1983     		strh	r1, [r3, #24]	@ movhi
 4274              	.L291:
 4275              		.loc 1 526 0
ARM GAS  C:\Users\euanm\AppData\Local\Temp\ccjmNLkj.s 			page 76


 4276 0552 1369     		ldr	r3, [r2, #16]
 4277 0554 DB04     		lsls	r3, r3, #19
 4278 0556 FCD5     		bpl	.L291
 4279              		.loc 1 527 0
 4280 0558 42F21070 		movw	r0, #10000
 4281 055c FFF7FEFF 		bl	chThdSleep
 4282              	.LVL351:
 4283              		.loc 1 528 0
 4284 0560 344C     		ldr	r4, .L300+20
 4285              		.loc 1 529 0
 4286 0562 3548     		ldr	r0, .L300+24
 4287              		.loc 1 530 0
 4288 0564 3549     		ldr	r1, .L300+28
 4289              		.loc 1 528 0
 4290 0566 0023     		movs	r3, #0
 4291 0568 2360     		str	r3, [r4]
 4292              		.loc 1 529 0
 4293 056a 0360     		str	r3, [r0]
 4294              		.loc 1 530 0
 4295 056c 0B60     		str	r3, [r1]
 4296              	.L292:
 4297              		.loc 1 531 0
 4298 056e 0B68     		ldr	r3, [r1]
 4299 0570 324A     		ldr	r2, .L300+28
 4300 0572 B3F57A6F 		cmp	r3, #4000
 4301 0576 FADB     		blt	.L292
 4302              		.loc 1 532 0
 4303 0578 314D     		ldr	r5, .L300+32
 4304 057a 2368     		ldr	r3, [r4]
 4305 057c 1168     		ldr	r1, [r2]
 4306 057e 93FBF1F3 		sdiv	r3, r3, r1
 4307              		.loc 1 533 0
 4308 0582 3049     		ldr	r1, .L300+36
 4309              		.loc 1 532 0
 4310 0584 2B60     		str	r3, [r5]
 4311              		.loc 1 534 0
 4312 0586 294C     		ldr	r4, .L300+12
 4313              		.loc 1 533 0
 4314 0588 0368     		ldr	r3, [r0]
 4315 058a 1268     		ldr	r2, [r2]
 4316 058c 93FBF2F3 		sdiv	r3, r3, r2
 4317              		.loc 1 535 0
 4318 0590 0125     		movs	r5, #1
 4319              		.loc 1 533 0
 4320 0592 0B60     		str	r3, [r1]
 4321              		.loc 1 534 0
 4322 0594 4FF48052 		mov	r2, #4096
 4323              		.loc 1 535 0
 4324 0598 2B4B     		ldr	r3, .L300+40
 4325              		.loc 1 534 0
 4326 059a 6283     		strh	r2, [r4, #26]	@ movhi
 4327              	.LBE143:
 4328              	.LBE142:
 4329              		.loc 1 433 0
 4330 059c 2946     		mov	r1, r5
 4331 059e 4020     		movs	r0, #64
 4332              		.loc 1 439 0
ARM GAS  C:\Users\euanm\AppData\Local\Temp\ccjmNLkj.s 			page 77


 4333 05a0 0024     		movs	r4, #0
 4334              	.LBB145:
 4335              	.LBB144:
 4336              		.loc 1 535 0
 4337 05a2 1D70     		strb	r5, [r3]
 4338              	.LBE144:
 4339              	.LBE145:
 4340              		.loc 1 433 0
 4341 05a4 FFF7FEFF 		bl	RCC_APB1PeriphClockCmd
 4342              	.LVL352:
 4343              		.loc 1 437 0
 4344 05a8 4FF0FF32 		mov	r2, #-1
 4345              		.loc 1 438 0
 4346 05ac 0723     		movs	r3, #7
 4347              		.loc 1 441 0
 4348 05ae 05A9     		add	r1, sp, #20
 4349 05b0 2648     		ldr	r0, .L300+44
 4350              		.loc 1 437 0
 4351 05b2 0692     		str	r2, [sp, #24]
 4352              		.loc 1 438 0
 4353 05b4 ADF81430 		strh	r3, [sp, #20]	@ movhi
 4354              		.loc 1 439 0
 4355 05b8 ADF81C40 		strh	r4, [sp, #28]	@ movhi
 4356              		.loc 1 440 0
 4357 05bc ADF81640 		strh	r4, [sp, #22]	@ movhi
 4358              		.loc 1 441 0
 4359 05c0 FFF7FEFF 		bl	TIM_TimeBaseInit
 4360              	.LVL353:
 4361              		.loc 1 443 0
 4362 05c4 2946     		mov	r1, r5
 4363 05c6 2148     		ldr	r0, .L300+44
 4364              		.loc 1 447 0
 4365 05c8 214E     		ldr	r6, .L300+48
 4366              		.loc 1 443 0
 4367 05ca FFF7FEFF 		bl	TIM_Cmd
 4368              	.LVL354:
 4369              		.loc 1 446 0
 4370 05ce 214A     		ldr	r2, .L300+52
 4371              		.loc 1 448 0
 4372 05d0 0094     		str	r4, [sp]
 4373 05d2 214B     		ldr	r3, .L300+56
 4374              		.loc 1 446 0
 4375 05d4 1470     		strb	r4, [r2]
 4376              		.loc 1 448 0
 4377 05d6 40F69811 		movw	r1, #2456
 4378 05da 4022     		movs	r2, #64
 4379              		.loc 1 447 0
 4380 05dc 3470     		strb	r4, [r6]
 4381              		.loc 1 448 0
 4382 05de 1F48     		ldr	r0, .L300+60
 4383 05e0 FFF7FEFF 		bl	chThdCreateStatic
 4384              	.LVL355:
 4385              		.loc 1 449 0
 4386 05e4 1E4B     		ldr	r3, .L300+64
 4387 05e6 0094     		str	r4, [sp]
 4388 05e8 4022     		movs	r2, #64
 4389 05ea 4FF4B361 		mov	r1, #1432
ARM GAS  C:\Users\euanm\AppData\Local\Temp\ccjmNLkj.s 			page 78


 4390 05ee 1D48     		ldr	r0, .L300+68
 4391 05f0 FFF7FEFF 		bl	chThdCreateStatic
 4392              	.LVL356:
 4393              		.loc 1 452 0
 4394 05f4 2946     		mov	r1, r5
 4395 05f6 4FF40060 		mov	r0, #2048
 4396 05fa FFF7FEFF 		bl	RCC_APB1PeriphClockCmd
 4397              	.LVL357:
 4398              		.loc 1 453 0
 4399 05fe 2046     		mov	r0, r4
 4400 0600 FFF7FEFF 		bl	WWDG_SetPrescaler
 4401              	.LVL358:
 4402              		.loc 1 454 0
 4403 0604 FF20     		movs	r0, #255
 4404 0606 FFF7FEFF 		bl	WWDG_SetWindowValue
 4405              	.LVL359:
 4406              		.loc 1 455 0
 4407 060a 6420     		movs	r0, #100
 4408 060c FFF7FEFF 		bl	WWDG_Enable
 4409              	.LVL360:
 4410              		.loc 1 458 0
 4411 0610 154B     		ldr	r3, .L300+72
 4412 0612 1C60     		str	r4, [r3]
 4413              		.loc 1 459 0
 4414 0614 154B     		ldr	r3, .L300+76
 4415 0616 1C60     		str	r4, [r3]
 4416              		.loc 1 460 0
 4417 0618 31B0     		add	sp, sp, #196
 4418              		.cfi_def_cfa_offset 36
 4419              		@ sp needed
 4420 061a BDE8F08F 		pop	{r4, r5, r6, r7, r8, r9, r10, fp, pc}
 4421              	.L301:
 4422 061e 00BF     		.align	2
 4423              	.L300:
 4424 0620 00200140 		.word	1073815552
 4425 0624 00210140 		.word	1073815808
 4426 0628 00220140 		.word	1073816064
 4427 062c 00040240 		.word	1073873920
 4428 0630 00080240 		.word	1073874944
 4429 0634 00000000 		.word	.LANCHOR53
 4430 0638 00000000 		.word	.LANCHOR54
 4431 063c 00000000 		.word	.LANCHOR55
 4432 0640 00000000 		.word	.LANCHOR56
 4433 0644 00000000 		.word	.LANCHOR57
 4434 0648 00000000 		.word	.LANCHOR49
 4435 064c 00180040 		.word	1073747968
 4436 0650 00000000 		.word	.LANCHOR12
 4437 0654 00000000 		.word	.LANCHOR21
 4438 0658 00000000 		.word	timer_thread
 4439 065c 00000000 		.word	.LANCHOR58
 4440 0660 00000000 		.word	rpm_thread
 4441 0664 00000000 		.word	.LANCHOR59
 4442 0668 00000000 		.word	.LANCHOR9
 4443 066c 00000000 		.word	.LANCHOR8
 4444              		.cfi_endproc
 4445              	.LFE257:
 4446              		.size	mcpwm_init, .-mcpwm_init
ARM GAS  C:\Users\euanm\AppData\Local\Temp\ccjmNLkj.s 			page 79


 4447              		.section	.text.mcpwm_set_configuration,"ax",%progbits
 4448              		.align	2
 4449              		.p2align 4,,15
 4450              		.global	mcpwm_set_configuration
 4451              		.thumb
 4452              		.thumb_func
 4453              		.type	mcpwm_set_configuration, %function
 4454              	mcpwm_set_configuration:
 4455              	.LFB259:
 4456              		.loc 1 482 0
 4457              		.cfi_startproc
 4458              		@ args = 0, pretend = 0, frame = 0
 4459              		@ frame_needed = 0, uses_anonymous_args = 0
 4460              	.LVL361:
 4461 0000 70B5     		push	{r4, r5, r6, lr}
 4462              		.cfi_def_cfa_offset 16
 4463              		.cfi_offset 4, -16
 4464              		.cfi_offset 5, -12
 4465              		.cfi_offset 6, -8
 4466              		.cfi_offset 14, -4
 4467              	.LBB146:
 4468              	.LBB147:
 4469              		.loc 1 875 0
 4470 0002 0C49     		ldr	r1, .L304
 4471              		.loc 1 876 0
 4472 0004 0C4A     		ldr	r2, .L304+4
 4473              	.LBE147:
 4474              	.LBE146:
 4475              		.loc 1 484 0
 4476 0006 0D4D     		ldr	r5, .L304+8
 4477              	.LBB150:
 4478              	.LBB148:
 4479              		.loc 1 875 0
 4480 0008 0023     		movs	r3, #0
 4481              	.LBE148:
 4482              	.LBE150:
 4483              		.loc 1 484 0
 4484 000a 0526     		movs	r6, #5
 4485              		.loc 1 482 0
 4486 000c 0446     		mov	r4, r0
 4487              		.loc 1 484 0
 4488 000e 2E70     		strb	r6, [r5]
 4489              	.LBB151:
 4490              	.LBB149:
 4491              		.loc 1 875 0
 4492 0010 0B70     		strb	r3, [r1]
 4493              		.loc 1 876 0
 4494 0012 1360     		str	r3, [r2]
 4495              		.loc 1 877 0
 4496 0014 FFF7FEFF 		bl	stop_pwm_hw
 4497              	.LVL362:
 4498              	.LBE149:
 4499              	.LBE151:
 4500              		.loc 1 487 0
 4501 0018 FFF7FEFF 		bl	utils_sys_lock_cnt
 4502              	.LVL363:
 4503              		.loc 1 488 0
ARM GAS  C:\Users\euanm\AppData\Local\Temp\ccjmNLkj.s 			page 80


 4504 001c 084B     		ldr	r3, .L304+12
 4505              		.loc 1 489 0
 4506 001e 04F18800 		add	r0, r4, #136
 4507              		.loc 1 488 0
 4508 0022 1C60     		str	r4, [r3]
 4509              		.loc 1 489 0
 4510 0024 FFF7FEFF 		bl	mcpwm_init_hall_table
 4511              	.LVL364:
 4512              		.loc 1 490 0
 4513 0028 FFF7FEFF 		bl	update_sensor_mode
 4514              	.LVL365:
 4515              		.loc 1 492 0
 4516 002c BDE87040 		pop	{r4, r5, r6, lr}
 4517              		.cfi_restore 14
 4518              		.cfi_restore 6
 4519              		.cfi_restore 5
 4520              		.cfi_restore 4
 4521              		.cfi_def_cfa_offset 0
 4522              	.LVL366:
 4523              		.loc 1 491 0
 4524 0030 FFF7FEBF 		b	utils_sys_unlock_cnt
 4525              	.LVL367:
 4526              	.L305:
 4527              		.align	2
 4528              	.L304:
 4529 0034 00000000 		.word	.LANCHOR2
 4530 0038 00000000 		.word	.LANCHOR44
 4531 003c 00000000 		.word	.LANCHOR15
 4532 0040 00000000 		.word	.LANCHOR0
 4533              		.cfi_endproc
 4534              	.LFE259:
 4535              		.size	mcpwm_set_configuration, .-mcpwm_set_configuration
 4536              		.section	.text.mcpwm_set_brake_current,"ax",%progbits
 4537              		.align	2
 4538              		.p2align 4,,15
 4539              		.global	mcpwm_set_brake_current
 4540              		.thumb
 4541              		.thumb_func
 4542              		.type	mcpwm_set_brake_current, %function
 4543              	mcpwm_set_brake_current:
 4544              	.LFB268:
 4545              		.loc 1 655 0
 4546              		.cfi_startproc
 4547              		@ args = 0, pretend = 0, frame = 8
 4548              		@ frame_needed = 0, uses_anonymous_args = 0
 4549              	.LVL368:
 4550 0000 30B5     		push	{r4, r5, lr}
 4551              		.cfi_def_cfa_offset 12
 4552              		.cfi_offset 4, -12
 4553              		.cfi_offset 5, -8
 4554              		.cfi_offset 14, -4
 4555              		.loc 1 656 0
 4556 0002 2E4C     		ldr	r4, .L331
 4557 0004 2368     		ldr	r3, [r4]
 4558 0006 D3ED477A 		vldr.32	s15, [r3, #284]
 4559 000a B0EEC07A 		vabs.f32	s14, s0
 4560 000e B4EEE77A 		vcmpe.f32	s14, s15
ARM GAS  C:\Users\euanm\AppData\Local\Temp\ccjmNLkj.s 			page 81


 4561              		.loc 1 655 0
 4562 0012 83B0     		sub	sp, sp, #12
 4563              		.cfi_def_cfa_offset 24
 4564              		.loc 1 656 0
 4565 0014 F1EE10FA 		vmrs	APSR_nzcv, FPSCR
 4566              		.loc 1 655 0
 4567 0018 8DED010A 		vstr.32	s0, [sp, #4]
 4568              		.loc 1 656 0
 4569 001c 2DD4     		bmi	.L329
 4570              		.loc 1 662 0
 4571 001e 93ED180A 		vldr.32	s0, [r3, #96]
 4572              	.LVL369:
 4573 0022 D3ED180A 		vldr.32	s1, [r3, #96]
 4574              		.loc 1 664 0
 4575 0026 264D     		ldr	r5, .L331+4
 4576              		.loc 1 662 0
 4577 0028 B0EEC00A 		vabs.f32	s0, s0
 4578 002c B1EE400A 		vneg.f32	s0, s0
 4579 0030 F0EEE00A 		vabs.f32	s1, s1
 4580 0034 01A8     		add	r0, sp, #4
 4581              	.LVL370:
 4582 0036 FFF7FEFF 		bl	utils_truncate_number
 4583              	.LVL371:
 4584              		.loc 1 665 0
 4585 003a 2249     		ldr	r1, .L331+8
 4586 003c 0198     		ldr	r0, [sp, #4]	@ float
 4587              		.loc 1 667 0
 4588 003e 224B     		ldr	r3, .L331+12
 4589              		.loc 1 664 0
 4590 0040 0322     		movs	r2, #3
 4591 0042 2A70     		strb	r2, [r5]
 4592              		.loc 1 665 0
 4593 0044 0860     		str	r0, [r1]	@ float
 4594              		.loc 1 667 0
 4595 0046 1978     		ldrb	r1, [r3]	@ zero_extendqisi2
 4596 0048 0229     		cmp	r1, #2
 4597 004a 14D0     		beq	.L306
 4598              		.loc 1 667 0 is_stmt 0 discriminator 1
 4599 004c 1978     		ldrb	r1, [r3]	@ zero_extendqisi2
 4600 004e 9142     		cmp	r1, r2
 4601 0050 11D0     		beq	.L306
 4602              		.loc 1 670 0 is_stmt 1
 4603 0052 2168     		ldr	r1, [r4]
 4604 0054 8878     		ldrb	r0, [r1, #2]	@ zero_extendqisi2
 4605 0056 0128     		cmp	r0, #1
 4606 0058 1BD0     		beq	.L330
 4607              		.loc 1 677 0
 4608 005a 1C48     		ldr	r0, .L331+16
 4609 005c D0ED007A 		vldr.32	s15, [r0]
 4610 0060 91ED0A7A 		vldr.32	s14, [r1, #40]
 4611 0064 F0EEE77A 		vabs.f32	s15, s15
 4612 0068 F4EEC77A 		vcmpe.f32	s15, s14
 4613 006c F1EE10FA 		vmrs	APSR_nzcv, FPSCR
 4614 0070 1BDD     		ble	.L326
 4615              	.L328:
 4616              		.loc 1 678 0
 4617 0072 0222     		movs	r2, #2
ARM GAS  C:\Users\euanm\AppData\Local\Temp\ccjmNLkj.s 			page 82


 4618 0074 1A70     		strb	r2, [r3]
 4619              	.L306:
 4620              		.loc 1 684 0
 4621 0076 03B0     		add	sp, sp, #12
 4622              		.cfi_remember_state
 4623              		.cfi_def_cfa_offset 12
 4624              		@ sp needed
 4625 0078 30BD     		pop	{r4, r5, pc}
 4626              	.LVL372:
 4627              	.L329:
 4628              		.cfi_restore_state
 4629              		.loc 1 657 0
 4630 007a 1148     		ldr	r0, .L331+4
 4631              	.LBB152:
 4632              	.LBB153:
 4633              		.loc 1 875 0
 4634 007c 1249     		ldr	r1, .L331+12
 4635              		.loc 1 876 0
 4636 007e 144A     		ldr	r2, .L331+20
 4637              		.loc 1 875 0
 4638 0080 0023     		movs	r3, #0
 4639              	.LBE153:
 4640              	.LBE152:
 4641              		.loc 1 657 0
 4642 0082 0524     		movs	r4, #5
 4643 0084 0470     		strb	r4, [r0]
 4644              	.LBB155:
 4645              	.LBB154:
 4646              		.loc 1 875 0
 4647 0086 0B70     		strb	r3, [r1]
 4648              		.loc 1 876 0
 4649 0088 1360     		str	r3, [r2]
 4650              		.loc 1 877 0
 4651 008a FFF7FEFF 		bl	stop_pwm_hw
 4652              	.LVL373:
 4653              	.LBE154:
 4654              	.LBE155:
 4655              		.loc 1 684 0
 4656 008e 03B0     		add	sp, sp, #12
 4657              		.cfi_remember_state
 4658              		.cfi_def_cfa_offset 12
 4659              		@ sp needed
 4660 0090 30BD     		pop	{r4, r5, pc}
 4661              	.LVL374:
 4662              	.L330:
 4663              		.cfi_restore_state
 4664              		.loc 1 671 0
 4665 0092 1049     		ldr	r1, .L331+24
 4666 0094 9FED107A 		vldr.32	s14, .L331+28
 4667 0098 D1ED007A 		vldr.32	s15, [r1]
 4668 009c F0EEE77A 		vabs.f32	s15, s15
 4669 00a0 F4EEC77A 		vcmpe.f32	s15, s14
 4670 00a4 F1EE10FA 		vmrs	APSR_nzcv, FPSCR
 4671 00a8 E3DC     		bgt	.L328
 4672              	.L326:
 4673              	.LBB156:
 4674              	.LBB157:
ARM GAS  C:\Users\euanm\AppData\Local\Temp\ccjmNLkj.s 			page 83


 4675              		.loc 1 900 0
 4676 00aa 0949     		ldr	r1, .L331+20
 4677              		.loc 1 899 0
 4678 00ac 1A70     		strb	r2, [r3]
 4679              		.loc 1 900 0
 4680 00ae 0023     		movs	r3, #0
 4681 00b0 0B60     		str	r3, [r1]
 4682              		.loc 1 901 0
 4683 00b2 FFF7FEFF 		bl	full_brake_hw
 4684              	.LVL375:
 4685              	.LBE157:
 4686              	.LBE156:
 4687              		.loc 1 684 0
 4688 00b6 03B0     		add	sp, sp, #12
 4689              		.cfi_def_cfa_offset 12
 4690              		@ sp needed
 4691 00b8 30BD     		pop	{r4, r5, pc}
 4692              	.LVL376:
 4693              	.L332:
 4694 00ba 00BF     		.align	2
 4695              	.L331:
 4696 00bc 00000000 		.word	.LANCHOR0
 4697 00c0 00000000 		.word	.LANCHOR15
 4698 00c4 00000000 		.word	.LANCHOR19
 4699 00c8 00000000 		.word	.LANCHOR2
 4700 00cc 00000000 		.word	.LANCHOR13
 4701 00d0 00000000 		.word	.LANCHOR44
 4702 00d4 00000000 		.word	.LANCHOR27
 4703 00d8 CDCCCC3D 		.word	1036831949
 4704              		.cfi_endproc
 4705              	.LFE268:
 4706              		.size	mcpwm_set_brake_current, .-mcpwm_set_brake_current
 4707              		.section	.text.mcpwm_get_comm_step,"ax",%progbits
 4708              		.align	2
 4709              		.p2align 4,,15
 4710              		.global	mcpwm_get_comm_step
 4711              		.thumb
 4712              		.thumb_func
 4713              		.type	mcpwm_get_comm_step, %function
 4714              	mcpwm_get_comm_step:
 4715              	.LFB269:
 4716              		.loc 1 692 0
 4717              		.cfi_startproc
 4718              		@ args = 0, pretend = 0, frame = 0
 4719              		@ frame_needed = 0, uses_anonymous_args = 0
 4720              		@ link register save eliminated.
 4721              		.loc 1 693 0
 4722 0000 014B     		ldr	r3, .L334
 4723 0002 1868     		ldr	r0, [r3]
 4724              		.loc 1 694 0
 4725 0004 7047     		bx	lr
 4726              	.L335:
 4727 0006 00BF     		.align	2
 4728              	.L334:
 4729 0008 00000000 		.word	.LANCHOR3
 4730              		.cfi_endproc
 4731              	.LFE269:
ARM GAS  C:\Users\euanm\AppData\Local\Temp\ccjmNLkj.s 			page 84


 4732              		.size	mcpwm_get_comm_step, .-mcpwm_get_comm_step
 4733              		.section	.text.mcpwm_get_duty_cycle_set,"ax",%progbits
 4734              		.align	2
 4735              		.p2align 4,,15
 4736              		.global	mcpwm_get_duty_cycle_set
 4737              		.thumb
 4738              		.thumb_func
 4739              		.type	mcpwm_get_duty_cycle_set, %function
 4740              	mcpwm_get_duty_cycle_set:
 4741              	.LFB270:
 4742              		.loc 1 696 0
 4743              		.cfi_startproc
 4744              		@ args = 0, pretend = 0, frame = 0
 4745              		@ frame_needed = 0, uses_anonymous_args = 0
 4746              		@ link register save eliminated.
 4747              		.loc 1 697 0
 4748 0000 014B     		ldr	r3, .L337
 4749 0002 93ED000A 		vldr.32	s0, [r3]
 4750              		.loc 1 698 0
 4751 0006 7047     		bx	lr
 4752              	.L338:
 4753              		.align	2
 4754              	.L337:
 4755 0008 00000000 		.word	.LANCHOR40
 4756              		.cfi_endproc
 4757              	.LFE270:
 4758              		.size	mcpwm_get_duty_cycle_set, .-mcpwm_get_duty_cycle_set
 4759              		.section	.text.mcpwm_get_duty_cycle_now,"ax",%progbits
 4760              		.align	2
 4761              		.p2align 4,,15
 4762              		.global	mcpwm_get_duty_cycle_now
 4763              		.thumb
 4764              		.thumb_func
 4765              		.type	mcpwm_get_duty_cycle_now, %function
 4766              	mcpwm_get_duty_cycle_now:
 4767              	.LFB271:
 4768              		.loc 1 700 0
 4769              		.cfi_startproc
 4770              		@ args = 0, pretend = 0, frame = 0
 4771              		@ frame_needed = 0, uses_anonymous_args = 0
 4772              		@ link register save eliminated.
 4773              		.loc 1 701 0
 4774 0000 014B     		ldr	r3, .L340
 4775 0002 93ED000A 		vldr.32	s0, [r3]
 4776              		.loc 1 702 0
 4777 0006 7047     		bx	lr
 4778              	.L341:
 4779              		.align	2
 4780              	.L340:
 4781 0008 00000000 		.word	.LANCHOR27
 4782              		.cfi_endproc
 4783              	.LFE271:
 4784              		.size	mcpwm_get_duty_cycle_now, .-mcpwm_get_duty_cycle_now
 4785              		.section	.text.mcpwm_get_switching_frequency_now,"ax",%progbits
 4786              		.align	2
 4787              		.p2align 4,,15
 4788              		.global	mcpwm_get_switching_frequency_now
ARM GAS  C:\Users\euanm\AppData\Local\Temp\ccjmNLkj.s 			page 85


 4789              		.thumb
 4790              		.thumb_func
 4791              		.type	mcpwm_get_switching_frequency_now, %function
 4792              	mcpwm_get_switching_frequency_now:
 4793              	.LFB272:
 4794              		.loc 1 710 0
 4795              		.cfi_startproc
 4796              		@ args = 0, pretend = 0, frame = 0
 4797              		@ frame_needed = 0, uses_anonymous_args = 0
 4798              		@ link register save eliminated.
 4799              		.loc 1 711 0
 4800 0000 014B     		ldr	r3, .L343
 4801 0002 93ED000A 		vldr.32	s0, [r3]
 4802              		.loc 1 712 0
 4803 0006 7047     		bx	lr
 4804              	.L344:
 4805              		.align	2
 4806              	.L343:
 4807 0008 00000000 		.word	.LANCHOR11
 4808              		.cfi_endproc
 4809              	.LFE272:
 4810              		.size	mcpwm_get_switching_frequency_now, .-mcpwm_get_switching_frequency_now
 4811              		.section	.text.mcpwm_get_rpm,"ax",%progbits
 4812              		.align	2
 4813              		.p2align 4,,15
 4814              		.global	mcpwm_get_rpm
 4815              		.thumb
 4816              		.thumb_func
 4817              		.type	mcpwm_get_rpm, %function
 4818              	mcpwm_get_rpm:
 4819              	.LFB273:
 4820              		.loc 1 722 0
 4821              		.cfi_startproc
 4822              		@ args = 0, pretend = 0, frame = 0
 4823              		@ frame_needed = 0, uses_anonymous_args = 0
 4824              		@ link register save eliminated.
 4825              		.loc 1 723 0
 4826 0000 064B     		ldr	r3, .L349
 4827 0002 1B68     		ldr	r3, [r3]
 4828 0004 1BB1     		cbz	r3, .L348
 4829              		.loc 1 723 0 is_stmt 0 discriminator 2
 4830 0006 064B     		ldr	r3, .L349+4
 4831 0008 93ED000A 		vldr.32	s0, [r3]
 4832              		.loc 1 724 0 is_stmt 1 discriminator 2
 4833 000c 7047     		bx	lr
 4834              	.L348:
 4835              		.loc 1 723 0 discriminator 1
 4836 000e 044B     		ldr	r3, .L349+4
 4837 0010 93ED000A 		vldr.32	s0, [r3]
 4838 0014 B1EE400A 		vneg.f32	s0, s0
 4839 0018 7047     		bx	lr
 4840              	.L350:
 4841 001a 00BF     		.align	2
 4842              	.L349:
 4843 001c 00000000 		.word	.LANCHOR4
 4844 0020 00000000 		.word	.LANCHOR13
 4845              		.cfi_endproc
ARM GAS  C:\Users\euanm\AppData\Local\Temp\ccjmNLkj.s 			page 86


 4846              	.LFE273:
 4847              		.size	mcpwm_get_rpm, .-mcpwm_get_rpm
 4848              		.section	.text.mcpwm_get_state,"ax",%progbits
 4849              		.align	2
 4850              		.p2align 4,,15
 4851              		.global	mcpwm_get_state
 4852              		.thumb
 4853              		.thumb_func
 4854              		.type	mcpwm_get_state, %function
 4855              	mcpwm_get_state:
 4856              	.LFB274:
 4857              		.loc 1 726 0
 4858              		.cfi_startproc
 4859              		@ args = 0, pretend = 0, frame = 0
 4860              		@ frame_needed = 0, uses_anonymous_args = 0
 4861              		@ link register save eliminated.
 4862              		.loc 1 727 0
 4863 0000 014B     		ldr	r3, .L352
 4864 0002 1878     		ldrb	r0, [r3]	@ zero_extendqisi2
 4865              		.loc 1 728 0
 4866 0004 7047     		bx	lr
 4867              	.L353:
 4868 0006 00BF     		.align	2
 4869              	.L352:
 4870 0008 00000000 		.word	.LANCHOR2
 4871              		.cfi_endproc
 4872              	.LFE274:
 4873              		.size	mcpwm_get_state, .-mcpwm_get_state
 4874              		.section	.text.mcpwm_get_kv,"ax",%progbits
 4875              		.align	2
 4876              		.p2align 4,,15
 4877              		.global	mcpwm_get_kv
 4878              		.thumb
 4879              		.thumb_func
 4880              		.type	mcpwm_get_kv, %function
 4881              	mcpwm_get_kv:
 4882              	.LFB275:
 4883              		.loc 1 738 0
 4884              		.cfi_startproc
 4885              		@ args = 0, pretend = 0, frame = 0
 4886              		@ frame_needed = 0, uses_anonymous_args = 0
 4887              		@ link register save eliminated.
 4888              		.loc 1 739 0
 4889 0000 0D4A     		ldr	r2, .L355
 4890 0002 0E4B     		ldr	r3, .L355+4
 4891 0004 92ED000A 		vldr.32	s0, [r2]
 4892 0008 1B8A     		ldrh	r3, [r3, #16]
 4893 000a 9FED0D6A 		vldr.32	s12, .L355+8
 4894 000e 0D4A     		ldr	r2, .L355+12
 4895 0010 DFED0D7A 		vldr.32	s15, .L355+16
 4896 0014 D2ED006A 		vldr.32	s13, [r2]
 4897 0018 9BB2     		uxth	r3, r3
 4898 001a 07EE103A 		vmov	s14, r3	@ int
 4899 001e B8EE477A 		vcvt.f32.u32	s14, s14
 4900 0022 F0EEE66A 		vabs.f32	s13, s13
 4901 0026 27EE067A 		vmul.f32	s14, s14, s12
 4902 002a 67EE277A 		vmul.f32	s15, s14, s15
ARM GAS  C:\Users\euanm\AppData\Local\Temp\ccjmNLkj.s 			page 87


 4903 002e 67EEA67A 		vmul.f32	s15, s15, s13
 4904              		.loc 1 740 0
 4905 0032 80EE270A 		vdiv.f32	s0, s0, s15
 4906 0036 7047     		bx	lr
 4907              	.L356:
 4908              		.align	2
 4909              	.L355:
 4910 0038 00000000 		.word	.LANCHOR13
 4911 003c 00000000 		.word	ADC_Value
 4912 0040 6740533A 		.word	978534503
 4913 0044 00000000 		.word	.LANCHOR27
 4914 0048 74D19541 		.word	1100337524
 4915              		.cfi_endproc
 4916              	.LFE275:
 4917              		.size	mcpwm_get_kv, .-mcpwm_get_kv
 4918              		.section	.text.mcpwm_get_kv_filtered,"ax",%progbits
 4919              		.align	2
 4920              		.p2align 4,,15
 4921              		.global	mcpwm_get_kv_filtered
 4922              		.thumb
 4923              		.thumb_func
 4924              		.type	mcpwm_get_kv_filtered, %function
 4925              	mcpwm_get_kv_filtered:
 4926              	.LFB276:
 4927              		.loc 1 750 0
 4928              		.cfi_startproc
 4929              		@ args = 0, pretend = 0, frame = 0
 4930              		@ frame_needed = 0, uses_anonymous_args = 0
 4931              		@ link register save eliminated.
 4932              		.loc 1 751 0
 4933 0000 034B     		ldr	r3, .L358
 4934 0002 0449     		ldr	r1, .L358+4
 4935 0004 1B68     		ldr	r3, [r3]
 4936 0006 0448     		ldr	r0, .L358+8
 4937 0008 0722     		movs	r2, #7
 4938 000a FFF7FEBF 		b	filter_run_fir_iteration
 4939              	.LVL377:
 4940              	.L359:
 4941 000e 00BF     		.align	2
 4942              	.L358:
 4943 0010 00000000 		.word	.LANCHOR29
 4944 0014 00000000 		.word	.LANCHOR51
 4945 0018 00000000 		.word	.LANCHOR30
 4946              		.cfi_endproc
 4947              	.LFE276:
 4948              		.size	mcpwm_get_kv_filtered, .-mcpwm_get_kv_filtered
 4949              		.section	.text.mcpwm_get_tot_current,"ax",%progbits
 4950              		.align	2
 4951              		.p2align 4,,15
 4952              		.global	mcpwm_get_tot_current
 4953              		.thumb
 4954              		.thumb_func
 4955              		.type	mcpwm_get_tot_current, %function
 4956              	mcpwm_get_tot_current:
 4957              	.LFB277:
 4958              		.loc 1 765 0
 4959              		.cfi_startproc
ARM GAS  C:\Users\euanm\AppData\Local\Temp\ccjmNLkj.s 			page 88


 4960              		@ args = 0, pretend = 0, frame = 0
 4961              		@ frame_needed = 0, uses_anonymous_args = 0
 4962              		@ link register save eliminated.
 4963              		.loc 1 766 0
 4964 0000 014B     		ldr	r3, .L361
 4965 0002 93ED000A 		vldr.32	s0, [r3]
 4966              		.loc 1 767 0
 4967 0006 7047     		bx	lr
 4968              	.L362:
 4969              		.align	2
 4970              	.L361:
 4971 0008 00000000 		.word	.LANCHOR42
 4972              		.cfi_endproc
 4973              	.LFE277:
 4974              		.size	mcpwm_get_tot_current, .-mcpwm_get_tot_current
 4975              		.section	.text.mcpwm_get_tot_current_filtered,"ax",%progbits
 4976              		.align	2
 4977              		.p2align 4,,15
 4978              		.global	mcpwm_get_tot_current_filtered
 4979              		.thumb
 4980              		.thumb_func
 4981              		.type	mcpwm_get_tot_current_filtered, %function
 4982              	mcpwm_get_tot_current_filtered:
 4983              	.LFB278:
 4984              		.loc 1 777 0
 4985              		.cfi_startproc
 4986              		@ args = 0, pretend = 0, frame = 0
 4987              		@ frame_needed = 0, uses_anonymous_args = 0
 4988              		@ link register save eliminated.
 4989              		.loc 1 778 0
 4990 0000 014B     		ldr	r3, .L364
 4991 0002 93ED000A 		vldr.32	s0, [r3]
 4992              		.loc 1 779 0
 4993 0006 7047     		bx	lr
 4994              	.L365:
 4995              		.align	2
 4996              	.L364:
 4997 0008 00000000 		.word	.LANCHOR43
 4998              		.cfi_endproc
 4999              	.LFE278:
 5000              		.size	mcpwm_get_tot_current_filtered, .-mcpwm_get_tot_current_filtered
 5001              		.section	.text.mcpwm_get_tot_current_directional,"ax",%progbits
 5002              		.align	2
 5003              		.p2align 4,,15
 5004              		.global	mcpwm_get_tot_current_directional
 5005              		.thumb
 5006              		.thumb_func
 5007              		.type	mcpwm_get_tot_current_directional, %function
 5008              	mcpwm_get_tot_current_directional:
 5009              	.LFB279:
 5010              		.loc 1 788 0
 5011              		.cfi_startproc
 5012              		@ args = 0, pretend = 0, frame = 0
 5013              		@ frame_needed = 0, uses_anonymous_args = 0
 5014              		@ link register save eliminated.
 5015              	.LBB158:
 5016              	.LBB159:
ARM GAS  C:\Users\euanm\AppData\Local\Temp\ccjmNLkj.s 			page 89


 5017              		.loc 1 766 0
 5018 0000 064A     		ldr	r2, .L369
 5019              	.LBE159:
 5020              	.LBE158:
 5021              		.loc 1 790 0
 5022 0002 074B     		ldr	r3, .L369+4
 5023              	.LBB161:
 5024              	.LBB160:
 5025              		.loc 1 766 0
 5026 0004 92ED000A 		vldr.32	s0, [r2]
 5027              	.LBE160:
 5028              	.LBE161:
 5029              		.loc 1 790 0
 5030 0008 D3ED007A 		vldr.32	s15, [r3]
 5031 000c F5EEC07A 		vcmpe.f32	s15, #0
 5032 0010 F1EE10FA 		vmrs	APSR_nzcv, FPSCR
 5033 0014 D8BF     		it	le
 5034 0016 B1EE400A 		vnegle.f32	s0, s0
 5035              		.loc 1 791 0
 5036 001a 7047     		bx	lr
 5037              	.L370:
 5038              		.align	2
 5039              	.L369:
 5040 001c 00000000 		.word	.LANCHOR42
 5041 0020 00000000 		.word	.LANCHOR27
 5042              		.cfi_endproc
 5043              	.LFE279:
 5044              		.size	mcpwm_get_tot_current_directional, .-mcpwm_get_tot_current_directional
 5045              		.section	.text.mcpwm_get_tot_current_directional_filtered,"ax",%progbits
 5046              		.align	2
 5047              		.p2align 4,,15
 5048              		.global	mcpwm_get_tot_current_directional_filtered
 5049              		.thumb
 5050              		.thumb_func
 5051              		.type	mcpwm_get_tot_current_directional_filtered, %function
 5052              	mcpwm_get_tot_current_directional_filtered:
 5053              	.LFB280:
 5054              		.loc 1 800 0
 5055              		.cfi_startproc
 5056              		@ args = 0, pretend = 0, frame = 0
 5057              		@ frame_needed = 0, uses_anonymous_args = 0
 5058              		@ link register save eliminated.
 5059              	.LBB162:
 5060              	.LBB163:
 5061              		.loc 1 778 0
 5062 0000 064A     		ldr	r2, .L374
 5063              	.LBE163:
 5064              	.LBE162:
 5065              		.loc 1 802 0
 5066 0002 074B     		ldr	r3, .L374+4
 5067              	.LBB165:
 5068              	.LBB164:
 5069              		.loc 1 778 0
 5070 0004 92ED000A 		vldr.32	s0, [r2]
 5071              	.LBE164:
 5072              	.LBE165:
 5073              		.loc 1 802 0
ARM GAS  C:\Users\euanm\AppData\Local\Temp\ccjmNLkj.s 			page 90


 5074 0008 D3ED007A 		vldr.32	s15, [r3]
 5075 000c F5EEC07A 		vcmpe.f32	s15, #0
 5076 0010 F1EE10FA 		vmrs	APSR_nzcv, FPSCR
 5077 0014 D8BF     		it	le
 5078 0016 B1EE400A 		vnegle.f32	s0, s0
 5079              		.loc 1 803 0
 5080 001a 7047     		bx	lr
 5081              	.L375:
 5082              		.align	2
 5083              	.L374:
 5084 001c 00000000 		.word	.LANCHOR43
 5085 0020 00000000 		.word	.LANCHOR27
 5086              		.cfi_endproc
 5087              	.LFE280:
 5088              		.size	mcpwm_get_tot_current_directional_filtered, .-mcpwm_get_tot_current_directional_filtered
 5089              		.section	.text.mcpwm_get_tot_current_in,"ax",%progbits
 5090              		.align	2
 5091              		.p2align 4,,15
 5092              		.global	mcpwm_get_tot_current_in
 5093              		.thumb
 5094              		.thumb_func
 5095              		.type	mcpwm_get_tot_current_in, %function
 5096              	mcpwm_get_tot_current_in:
 5097              	.LFB281:
 5098              		.loc 1 811 0
 5099              		.cfi_startproc
 5100              		@ args = 0, pretend = 0, frame = 0
 5101              		@ frame_needed = 0, uses_anonymous_args = 0
 5102              		@ link register save eliminated.
 5103              	.LBB166:
 5104              	.LBB167:
 5105              		.loc 1 766 0
 5106 0000 054A     		ldr	r2, .L377
 5107              	.LBE167:
 5108              	.LBE166:
 5109              		.loc 1 812 0
 5110 0002 064B     		ldr	r3, .L377+4
 5111              	.LBB169:
 5112              	.LBB168:
 5113              		.loc 1 766 0
 5114 0004 92ED000A 		vldr.32	s0, [r2]
 5115              	.LBE168:
 5116              	.LBE169:
 5117              		.loc 1 812 0
 5118 0008 D3ED007A 		vldr.32	s15, [r3]
 5119 000c F0EEE77A 		vabs.f32	s15, s15
 5120              		.loc 1 813 0
 5121 0010 27EE800A 		vmul.f32	s0, s15, s0
 5122 0014 7047     		bx	lr
 5123              	.L378:
 5124 0016 00BF     		.align	2
 5125              	.L377:
 5126 0018 00000000 		.word	.LANCHOR42
 5127 001c 00000000 		.word	.LANCHOR27
 5128              		.cfi_endproc
 5129              	.LFE281:
 5130              		.size	mcpwm_get_tot_current_in, .-mcpwm_get_tot_current_in
ARM GAS  C:\Users\euanm\AppData\Local\Temp\ccjmNLkj.s 			page 91


 5131              		.section	.text.mcpwm_get_tot_current_in_filtered,"ax",%progbits
 5132              		.align	2
 5133              		.p2align 4,,15
 5134              		.global	mcpwm_get_tot_current_in_filtered
 5135              		.thumb
 5136              		.thumb_func
 5137              		.type	mcpwm_get_tot_current_in_filtered, %function
 5138              	mcpwm_get_tot_current_in_filtered:
 5139              	.LFB282:
 5140              		.loc 1 821 0
 5141              		.cfi_startproc
 5142              		@ args = 0, pretend = 0, frame = 0
 5143              		@ frame_needed = 0, uses_anonymous_args = 0
 5144              		@ link register save eliminated.
 5145              	.LBB170:
 5146              	.LBB171:
 5147              		.loc 1 778 0
 5148 0000 054A     		ldr	r2, .L380
 5149              	.LBE171:
 5150              	.LBE170:
 5151              		.loc 1 822 0
 5152 0002 064B     		ldr	r3, .L380+4
 5153              	.LBB173:
 5154              	.LBB172:
 5155              		.loc 1 778 0
 5156 0004 92ED000A 		vldr.32	s0, [r2]
 5157              	.LBE172:
 5158              	.LBE173:
 5159              		.loc 1 822 0
 5160 0008 D3ED007A 		vldr.32	s15, [r3]
 5161 000c F0EEE77A 		vabs.f32	s15, s15
 5162              		.loc 1 823 0
 5163 0010 27EE800A 		vmul.f32	s0, s15, s0
 5164 0014 7047     		bx	lr
 5165              	.L381:
 5166 0016 00BF     		.align	2
 5167              	.L380:
 5168 0018 00000000 		.word	.LANCHOR43
 5169 001c 00000000 		.word	.LANCHOR27
 5170              		.cfi_endproc
 5171              	.LFE282:
 5172              		.size	mcpwm_get_tot_current_in_filtered, .-mcpwm_get_tot_current_in_filtered
 5173              		.section	.text.mcpwm_get_tachometer_value,"ax",%progbits
 5174              		.align	2
 5175              		.p2align 4,,15
 5176              		.global	mcpwm_get_tachometer_value
 5177              		.thumb
 5178              		.thumb_func
 5179              		.type	mcpwm_get_tachometer_value, %function
 5180              	mcpwm_get_tachometer_value:
 5181              	.LFB283:
 5182              		.loc 1 836 0
 5183              		.cfi_startproc
 5184              		@ args = 0, pretend = 0, frame = 0
 5185              		@ frame_needed = 0, uses_anonymous_args = 0
 5186              		@ link register save eliminated.
 5187              	.LVL378:
ARM GAS  C:\Users\euanm\AppData\Local\Temp\ccjmNLkj.s 			page 92


 5188              		.loc 1 837 0
 5189 0000 034B     		ldr	r3, .L387
 5190 0002 1A68     		ldr	r2, [r3]
 5191              	.LVL379:
 5192              		.loc 1 839 0
 5193 0004 08B1     		cbz	r0, .L383
 5194              		.loc 1 840 0
 5195 0006 0021     		movs	r1, #0
 5196 0008 1960     		str	r1, [r3]
 5197              	.L383:
 5198              		.loc 1 844 0
 5199 000a 1046     		mov	r0, r2
 5200              	.LVL380:
 5201 000c 7047     		bx	lr
 5202              	.L388:
 5203 000e 00BF     		.align	2
 5204              	.L387:
 5205 0010 00000000 		.word	.LANCHOR9
 5206              		.cfi_endproc
 5207              	.LFE283:
 5208              		.size	mcpwm_get_tachometer_value, .-mcpwm_get_tachometer_value
 5209              		.section	.text.mcpwm_get_tachometer_abs_value,"ax",%progbits
 5210              		.align	2
 5211              		.p2align 4,,15
 5212              		.global	mcpwm_get_tachometer_abs_value
 5213              		.thumb
 5214              		.thumb_func
 5215              		.type	mcpwm_get_tachometer_abs_value, %function
 5216              	mcpwm_get_tachometer_abs_value:
 5217              	.LFB284:
 5218              		.loc 1 856 0
 5219              		.cfi_startproc
 5220              		@ args = 0, pretend = 0, frame = 0
 5221              		@ frame_needed = 0, uses_anonymous_args = 0
 5222              		@ link register save eliminated.
 5223              	.LVL381:
 5224              		.loc 1 857 0
 5225 0000 034B     		ldr	r3, .L394
 5226 0002 1A68     		ldr	r2, [r3]
 5227              	.LVL382:
 5228              		.loc 1 859 0
 5229 0004 08B1     		cbz	r0, .L390
 5230              		.loc 1 860 0
 5231 0006 0021     		movs	r1, #0
 5232 0008 1960     		str	r1, [r3]
 5233              	.L390:
 5234              		.loc 1 864 0
 5235 000a 1046     		mov	r0, r2
 5236              	.LVL383:
 5237 000c 7047     		bx	lr
 5238              	.L395:
 5239 000e 00BF     		.align	2
 5240              	.L394:
 5241 0010 00000000 		.word	.LANCHOR8
 5242              		.cfi_endproc
 5243              	.LFE284:
 5244              		.size	mcpwm_get_tachometer_abs_value, .-mcpwm_get_tachometer_abs_value
ARM GAS  C:\Users\euanm\AppData\Local\Temp\ccjmNLkj.s 			page 93


 5245              		.section	.text.mcpwm_stop_pwm,"ax",%progbits
 5246              		.align	2
 5247              		.p2align 4,,15
 5248              		.global	mcpwm_stop_pwm
 5249              		.thumb
 5250              		.thumb_func
 5251              		.type	mcpwm_stop_pwm, %function
 5252              	mcpwm_stop_pwm:
 5253              	.LFB285:
 5254              		.loc 1 869 0
 5255              		.cfi_startproc
 5256              		@ args = 0, pretend = 0, frame = 0
 5257              		@ frame_needed = 0, uses_anonymous_args = 0
 5258              		@ link register save eliminated.
 5259              		.loc 1 870 0
 5260 0000 0648     		ldr	r0, .L398
 5261              	.LBB174:
 5262              	.LBB175:
 5263              		.loc 1 875 0
 5264 0002 0749     		ldr	r1, .L398+4
 5265              		.loc 1 876 0
 5266 0004 074A     		ldr	r2, .L398+8
 5267              	.LBE175:
 5268              	.LBE174:
 5269              		.loc 1 869 0
 5270 0006 10B4     		push	{r4}
 5271              		.cfi_def_cfa_offset 4
 5272              		.cfi_offset 4, -4
 5273              		.loc 1 870 0
 5274 0008 0524     		movs	r4, #5
 5275 000a 0470     		strb	r4, [r0]
 5276              	.LBB178:
 5277              	.LBB176:
 5278              		.loc 1 875 0
 5279 000c 0023     		movs	r3, #0
 5280              	.LBE176:
 5281              	.LBE178:
 5282              		.loc 1 872 0
 5283 000e 5DF8044B 		ldr	r4, [sp], #4
 5284              		.cfi_restore 4
 5285              		.cfi_def_cfa_offset 0
 5286              	.LBB179:
 5287              	.LBB177:
 5288              		.loc 1 875 0
 5289 0012 0B70     		strb	r3, [r1]
 5290              		.loc 1 876 0
 5291 0014 1360     		str	r3, [r2]
 5292              		.loc 1 877 0
 5293 0016 FFF7FEBF 		b	stop_pwm_hw
 5294              	.LVL384:
 5295              	.L399:
 5296 001a 00BF     		.align	2
 5297              	.L398:
 5298 001c 00000000 		.word	.LANCHOR15
 5299 0020 00000000 		.word	.LANCHOR2
 5300 0024 00000000 		.word	.LANCHOR44
 5301              	.LBE177:
ARM GAS  C:\Users\euanm\AppData\Local\Temp\ccjmNLkj.s 			page 94


 5302              	.LBE179:
 5303              		.cfi_endproc
 5304              	.LFE285:
 5305              		.size	mcpwm_stop_pwm, .-mcpwm_stop_pwm
 5306              		.section	.text.mcpwm_adc_inj_int_handler,"ax",%progbits
 5307              		.align	2
 5308              		.p2align 4,,15
 5309              		.global	mcpwm_adc_inj_int_handler
 5310              		.thumb
 5311              		.thumb_func
 5312              		.type	mcpwm_adc_inj_int_handler, %function
 5313              	mcpwm_adc_inj_int_handler:
 5314              	.LFB297:
 5315              		.loc 1 1356 0
 5316              		.cfi_startproc
 5317              		@ args = 0, pretend = 0, frame = 0
 5318              		@ frame_needed = 0, uses_anonymous_args = 0
 5319 0000 F8B5     		push	{r3, r4, r5, r6, r7, lr}
 5320              		.cfi_def_cfa_offset 24
 5321              		.cfi_offset 3, -24
 5322              		.cfi_offset 4, -20
 5323              		.cfi_offset 5, -16
 5324              		.cfi_offset 6, -12
 5325              		.cfi_offset 7, -8
 5326              		.cfi_offset 14, -4
 5327              		.loc 1 1357 0
 5328 0002 B14B     		ldr	r3, .L475
 5329              		.loc 1 1359 0
 5330 0004 B148     		ldr	r0, .L475+4
 5331              		.loc 1 1357 0
 5332 0006 0022     		movs	r2, #0
 5333              		.loc 1 1356 0
 5334 0008 2DED028B 		vpush.64	{d8}
 5335              		.cfi_def_cfa_offset 32
 5336              		.cfi_offset 80, -32
 5337              		.cfi_offset 81, -28
 5338              		.loc 1 1359 0
 5339 000c 1421     		movs	r1, #20
 5340              		.loc 1 1357 0
 5341 000e 5A62     		str	r2, [r3, #36]
 5342              		.loc 1 1359 0
 5343 0010 FFF7FEFF 		bl	ADC_GetInjectedConversionValue
 5344              	.LVL385:
 5345              		.loc 1 1360 0
 5346 0014 1421     		movs	r1, #20
 5347              		.loc 1 1359 0
 5348 0016 0546     		mov	r5, r0
 5349              	.LVL386:
 5350              		.loc 1 1360 0
 5351 0018 AD48     		ldr	r0, .L475+8
 5352              	.LVL387:
 5353 001a FFF7FEFF 		bl	ADC_GetInjectedConversionValue
 5354              	.LVL388:
 5355              		.loc 1 1362 0
 5356 001e 1821     		movs	r1, #24
 5357              		.loc 1 1360 0
 5358 0020 0646     		mov	r6, r0
ARM GAS  C:\Users\euanm\AppData\Local\Temp\ccjmNLkj.s 			page 95


 5359              	.LVL389:
 5360              		.loc 1 1362 0
 5361 0022 AB48     		ldr	r0, .L475+8
 5362              	.LVL390:
 5363 0024 FFF7FEFF 		bl	ADC_GetInjectedConversionValue
 5364              	.LVL391:
 5365              		.loc 1 1363 0
 5366 0028 1821     		movs	r1, #24
 5367 002a A848     		ldr	r0, .L475+4
 5368 002c FFF7FEFF 		bl	ADC_GetInjectedConversionValue
 5369              	.LVL392:
 5370              		.loc 1 1368 0
 5371 0030 A84B     		ldr	r3, .L475+12
 5372 0032 1A68     		ldr	r2, [r3]
 5373 0034 012A     		cmp	r2, #1
 5374 0036 00F0AF80 		beq	.L466
 5375              		.loc 1 1370 0
 5376 003a 1A68     		ldr	r2, [r3]
 5377 003c 022A     		cmp	r2, #2
 5378 003e 00F0AF80 		beq	.L467
 5379              		.loc 1 1372 0
 5380 0042 1B68     		ldr	r3, [r3]
 5381 0044 032B     		cmp	r3, #3
 5382 0046 00F0AF80 		beq	.L468
 5383              	.LVL393:
 5384              	.L402:
 5385              		.loc 1 1390 0
 5386 004a A34C     		ldr	r4, .L475+16
 5387              		.loc 1 1391 0
 5388 004c A34F     		ldr	r7, .L475+20
 5389              		.loc 1 1390 0
 5390 004e 2368     		ldr	r3, [r4]
 5391              		.loc 1 1392 0
 5392 0050 A34A     		ldr	r2, .L475+24
 5393              		.loc 1 1394 0
 5394 0052 A449     		ldr	r1, .L475+28
 5395              		.loc 1 1395 0
 5396 0054 A448     		ldr	r0, .L475+32
 5397              		.loc 1 1390 0
 5398 0056 2B44     		add	r3, r3, r5
 5399 0058 2360     		str	r3, [r4]
 5400              		.loc 1 1391 0
 5401 005a 3B68     		ldr	r3, [r7]
 5402              		.loc 1 1419 0
 5403 005c A34C     		ldr	r4, .L475+36
 5404              		.loc 1 1391 0
 5405 005e 3344     		add	r3, r3, r6
 5406 0060 3B60     		str	r3, [r7]
 5407              		.loc 1 1392 0
 5408 0062 1368     		ldr	r3, [r2]
 5409              		.loc 1 1424 0
 5410 0064 A24F     		ldr	r7, .L475+40
 5411              		.loc 1 1392 0
 5412 0066 0133     		adds	r3, r3, #1
 5413 0068 1360     		str	r3, [r2]
 5414              		.loc 1 1394 0
 5415 006a 0B68     		ldr	r3, [r1]
ARM GAS  C:\Users\euanm\AppData\Local\Temp\ccjmNLkj.s 			page 96


 5416              		.loc 1 1395 0
 5417 006c 0368     		ldr	r3, [r0]
 5418              		.loc 1 1396 0
 5419 006e 0A68     		ldr	r2, [r1]
 5420              		.loc 1 1397 0
 5421 0070 0368     		ldr	r3, [r0]
 5422              		.loc 1 1398 0
 5423 0072 D1F800E0 		ldr	lr, [r1]
 5424              		.loc 1 1399 0
 5425 0076 D0F800E0 		ldr	lr, [r0]
 5426              		.loc 1 1396 0
 5427 007a AD1A     		subs	r5, r5, r2
 5428              	.LVL394:
 5429              		.loc 1 1397 0
 5430 007c F61A     		subs	r6, r6, r3
 5431              	.LVL395:
 5432              		.loc 1 1419 0
 5433 007e 2560     		str	r5, [r4]
 5434              		.loc 1 1420 0
 5435 0080 6660     		str	r6, [r4, #4]
 5436              		.loc 1 1421 0
 5437 0082 2568     		ldr	r5, [r4]
 5438              	.LVL396:
 5439 0084 6368     		ldr	r3, [r4, #4]
 5440              		.loc 1 1424 0
 5441 0086 3A68     		ldr	r2, [r7]
 5442              		.loc 1 1421 0
 5443 0088 2B44     		add	r3, r3, r5
 5444 008a 5B42     		negs	r3, r3
 5445 008c A360     		str	r3, [r4, #8]
 5446              	.LVL397:
 5447              		.loc 1 1424 0
 5448 008e 9378     		ldrb	r3, [r2, #2]	@ zero_extendqisi2
 5449 0090 012B     		cmp	r3, #1
 5450 0092 23D0     		beq	.L469
 5451              	.LBB180:
 5452              		.loc 1 1453 0
 5453 0094 974D     		ldr	r5, .L475+44
 5454 0096 2B78     		ldrb	r3, [r5]	@ zero_extendqisi2
 5455 0098 032B     		cmp	r3, #3
 5456 009a 00F0A581 		beq	.L470
 5457              	.LBB181:
 5458              		.loc 1 1459 0
 5459 009e 964B     		ldr	r3, .L475+48
 5460 00a0 1B68     		ldr	r3, [r3]
 5461 00a2 6BB1     		cbz	r3, .L410
 5462              		.loc 1 1460 0
 5463 00a4 954B     		ldr	r3, .L475+52
 5464 00a6 1A68     		ldr	r2, [r3]
 5465 00a8 013A     		subs	r2, r2, #1
 5466 00aa 052A     		cmp	r2, #5
 5467 00ac 00F2D081 		bhi	.L445
 5468 00b0 DFE812F0 		tbh	[pc, r2, lsl #1]
 5469              	.L413:
 5470 00b4 8400     		.2byte	(.L423-.L413)/2
 5471 00b6 8400     		.2byte	(.L423-.L413)/2
 5472 00b8 0001     		.2byte	(.L421-.L413)/2
ARM GAS  C:\Users\euanm\AppData\Local\Temp\ccjmNLkj.s 			page 97


 5473 00ba 0501     		.2byte	(.L419-.L413)/2
 5474 00bc F900     		.2byte	(.L425-.L413)/2
 5475 00be F900     		.2byte	(.L425-.L413)/2
 5476              		.p2align 1
 5477              	.L410:
 5478              		.loc 1 1470 0
 5479 00c0 8E4B     		ldr	r3, .L475+52
 5480 00c2 1A68     		ldr	r2, [r3]
 5481 00c4 013A     		subs	r2, r2, #1
 5482 00c6 052A     		cmp	r2, #5
 5483 00c8 00F2C281 		bhi	.L445
 5484 00cc DFE812F0 		tbh	[pc, r2, lsl #1]
 5485              	.L420:
 5486 00d0 F700     		.2byte	(.L419-.L420)/2
 5487 00d2 F200     		.2byte	(.L421-.L420)/2
 5488 00d4 7600     		.2byte	(.L423-.L420)/2
 5489 00d6 7600     		.2byte	(.L423-.L420)/2
 5490 00d8 EB00     		.2byte	(.L425-.L420)/2
 5491 00da EB00     		.2byte	(.L425-.L420)/2
 5492              		.p2align 1
 5493              	.L469:
 5494              	.LBE181:
 5495              	.LBE180:
 5496              		.loc 1 1425 0
 5497 00dc 864B     		ldr	r3, .L475+48
 5498 00de 1B68     		ldr	r3, [r3]
 5499 00e0 002B     		cmp	r3, #0
 5500 00e2 67D1     		bne	.L471
 5501              		.loc 1 1428 0
 5502 00e4 864B     		ldr	r3, .L475+56
 5503 00e6 1B89     		ldrh	r3, [r3, #8]
 5504 00e8 0968     		ldr	r1, [r1]
 5505              	.L464:
 5506 00ea 9BB2     		uxth	r3, r3
 5507 00ec 5B1A     		subs	r3, r3, r1
 5508 00ee 00EE103A 		vmov	s0, r3	@ int
 5509 00f2 B8EEC00A 		vcvt.f32.s32	s0, s0
 5510 00f6 B1EE408A 		vneg.f32	s16, s0
 5511              	.LVL398:
 5512              	.L406:
 5513              		.loc 1 1559 0
 5514 00fa 9FED820A 		vldr.32	s0, .L475+60
 5515 00fe 9FED827A 		vldr.32	s14, .L475+64
 5516 0102 824B     		ldr	r3, .L475+68
 5517              		.loc 1 1562 0
 5518 0104 9FED826A 		vldr.32	s12, .L475+72
 5519              		.loc 1 1559 0
 5520 0108 28EE000A 		vmul.f32	s0, s16, s0
 5521 010c C0EE077A 		vdiv.f32	s15, s0, s14
 5522 0110 C3ED007A 		vstr.32	s15, [r3]
 5523              		.loc 1 1562 0
 5524 0114 D3ED006A 		vldr.32	s13, [r3]
 5525 0118 92ED057A 		vldr.32	s14, [r2, #20]
 5526 011c 27EE067A 		vmul.f32	s14, s14, s12
 5527 0120 F0EEE66A 		vabs.f32	s13, s13
 5528 0124 F4EEC76A 		vcmpe.f32	s13, s14
 5529 0128 F1EE10FA 		vmrs	APSR_nzcv, FPSCR
ARM GAS  C:\Users\euanm\AppData\Local\Temp\ccjmNLkj.s 			page 98


 5530 012c 14DD     		ble	.L440
 5531              		.loc 1 1563 0
 5532 012e 93ED007A 		vldr.32	s14, [r3]
 5533 0132 D2ED057A 		vldr.32	s15, [r2, #20]
 5534 0136 B5EEC07A 		vcmpe.f32	s14, #0
 5535 013a F1EE10FA 		vmrs	APSR_nzcv, FPSCR
 5536 013e BFEE007A 		vmov.f32	s14, #-1.0e+0
 5537 0142 F7EE006A 		vmov.f32	s13, #1.0e+0
 5538 0146 58BF     		it	pl
 5539 0148 B0EE667A 		vmovpl.f32	s14, s13
 5540 014c 67EE277A 		vmul.f32	s15, s14, s15
 5541 0150 67EE867A 		vmul.f32	s15, s15, s12
 5542 0154 C3ED007A 		vstr.32	s15, [r3]
 5543              	.L440:
 5544              		.loc 1 1566 0
 5545 0158 6E4C     		ldr	r4, .L475+76
 5546 015a 93ED000A 		vldr.32	s0, [r3]
 5547 015e 6E48     		ldr	r0, .L475+80
 5548 0160 2246     		mov	r2, r4
 5549 0162 0421     		movs	r1, #4
 5550 0164 FFF7FEFF 		bl	filter_add_sample
 5551              	.LVL399:
 5552              		.loc 1 1568 0
 5553 0168 2368     		ldr	r3, [r4]
 5554 016a 6C49     		ldr	r1, .L475+84
 5555 016c 6A48     		ldr	r0, .L475+80
 5556 016e 0422     		movs	r2, #4
 5557 0170 FFF7FEFF 		bl	filter_run_fir_iteration
 5558              	.LVL400:
 5559 0174 6A4A     		ldr	r2, .L475+88
 5560              		.loc 1 1572 0
 5561 0176 544B     		ldr	r3, .L475
 5562              		.loc 1 1568 0
 5563 0178 82ED000A 		vstr.32	s0, [r2]
 5564              		.loc 1 1572 0
 5565 017c D3ED097A 		vldr.32	s15, [r3, #36]	@ int
 5566 0180 DFED686A 		vldr.32	s13, .L475+92
 5567 0184 684B     		ldr	r3, .L475+96
 5568 0186 F8EE677A 		vcvt.f32.u32	s15, s15
 5569              		.loc 1 1573 0
 5570 018a BDEC028B 		vldm	sp!, {d8}
 5571              		.cfi_remember_state
 5572              		.cfi_restore 80
 5573              		.cfi_restore 81
 5574              		.cfi_def_cfa_offset 24
 5575              	.LVL401:
 5576              		.loc 1 1572 0
 5577 018e 87EEA67A 		vdiv.f32	s14, s15, s13
 5578 0192 83ED007A 		vstr.32	s14, [r3]
 5579              		.loc 1 1573 0
 5580 0196 F8BD     		pop	{r3, r4, r5, r6, r7, pc}
 5581              	.LVL402:
 5582              	.L466:
 5583              		.cfi_restore_state
 5584              		.loc 1 1369 0
 5585 0198 594B     		ldr	r3, .L475+56
 5586 019a 1D89     		ldrh	r5, [r3, #8]
ARM GAS  C:\Users\euanm\AppData\Local\Temp\ccjmNLkj.s 			page 99


 5587              	.LVL403:
 5588 019c ADB2     		uxth	r5, r5
 5589              	.LVL404:
 5590 019e 54E7     		b	.L402
 5591              	.LVL405:
 5592              	.L467:
 5593              		.loc 1 1371 0
 5594 01a0 574B     		ldr	r3, .L475+56
 5595 01a2 DE88     		ldrh	r6, [r3, #6]
 5596              	.LVL406:
 5597 01a4 B6B2     		uxth	r6, r6
 5598              	.LVL407:
 5599 01a6 50E7     		b	.L402
 5600              	.LVL408:
 5601              	.L468:
 5602              		.loc 1 1373 0
 5603 01a8 554B     		ldr	r3, .L475+56
 5604 01aa 1D89     		ldrh	r5, [r3, #8]
 5605              	.LVL409:
 5606              		.loc 1 1374 0
 5607 01ac DE88     		ldrh	r6, [r3, #6]
 5608              	.LVL410:
 5609              		.loc 1 1373 0
 5610 01ae ADB2     		uxth	r5, r5
 5611              	.LVL411:
 5612              		.loc 1 1374 0
 5613 01b0 B6B2     		uxth	r6, r6
 5614              	.LVL412:
 5615 01b2 4AE7     		b	.L402
 5616              	.LVL413:
 5617              	.L471:
 5618              		.loc 1 1426 0
 5619 01b4 524B     		ldr	r3, .L475+56
 5620 01b6 DB88     		ldrh	r3, [r3, #6]
 5621 01b8 0168     		ldr	r1, [r0]
 5622 01ba 96E7     		b	.L464
 5623              	.L423:
 5624              	.LBB189:
 5625              	.LBB182:
 5626              		.loc 1 1474 0
 5627 01bc D4ED017A 		vldr.32	s15, [r4, #4]	@ int
 5628 01c0 F8EEE77A 		vcvt.f32.s32	s15, s15
 5629 01c4 F1EE677A 		vneg.f32	s15, s15
 5630              	.LVL414:
 5631              	.L411:
 5632              		.loc 1 1484 0
 5633 01c8 584A     		ldr	r2, .L475+100
 5634 01ca 1868     		ldr	r0, [r3]
 5635 01cc 1168     		ldr	r1, [r2]
 5636              		.loc 1 1487 0
 5637 01ce 1B68     		ldr	r3, [r3]
 5638 01d0 1360     		str	r3, [r2]
 5639              		.loc 1 1484 0
 5640 01d2 8842     		cmp	r0, r1
 5641              		.loc 1 1485 0
 5642 01d4 16BF     		itet	ne
 5643 01d6 5649     		ldrne	r1, .L475+104
ARM GAS  C:\Users\euanm\AppData\Local\Temp\ccjmNLkj.s 			page 100


 5644 01d8 5549     		ldreq	r1, .L475+104
 5645 01da 91ED008A 		vldrne.32	s16, [r1]
 5646              	.LVL415:
 5647              		.loc 1 1488 0
 5648 01de C1ED007A 		vstr.32	s15, [r1]
 5649 01e2 08BF     		it	eq
 5650 01e4 B0EE678A 		vmoveq.f32	s16, s15
 5651              	.LVL416:
 5652              	.L409:
 5653              	.LBE182:
 5654              		.loc 1 1491 0
 5655 01e8 524E     		ldr	r6, .L475+108
 5656              	.LVL417:
 5657 01ea 3368     		ldr	r3, [r6]
 5658 01ec 042B     		cmp	r3, #4
 5659 01ee 0AD0     		beq	.L472
 5660              	.L427:
 5661              		.loc 1 1538 0
 5662 01f0 002B     		cmp	r3, #0
 5663 01f2 00F0A980 		beq	.L436
 5664              		.loc 1 1542 0
 5665 01f6 2A78     		ldrb	r2, [r5]	@ zero_extendqisi2
 5666              		.loc 1 1539 0
 5667 01f8 013B     		subs	r3, r3, #1
 5668              		.loc 1 1542 0
 5669 01fa 012A     		cmp	r2, #1
 5670              		.loc 1 1539 0
 5671 01fc 3360     		str	r3, [r6]
 5672              		.loc 1 1542 0
 5673 01fe 00F0EF80 		beq	.L473
 5674              	.L465:
 5675 0202 3A68     		ldr	r2, [r7]
 5676 0204 79E7     		b	.L406
 5677              	.L472:
 5678              	.LBB183:
 5679              		.loc 1 1492 0
 5680 0206 94ED007A 		vldr.32	s14, [r4]	@ int
 5681              		.loc 1 1493 0
 5682 020a D4ED017A 		vldr.32	s15, [r4, #4]	@ int
 5683              		.loc 1 1496 0
 5684 020e 4A4B     		ldr	r3, .L475+112
 5685 0210 4A4A     		ldr	r2, .L475+116
 5686 0212 1968     		ldr	r1, [r3]
 5687              		.loc 1 1501 0
 5688 0214 4848     		ldr	r0, .L475+112
 5689              		.loc 1 1492 0
 5690 0216 B8EEC77A 		vcvt.f32.s32	s14, s14
 5691              		.loc 1 1493 0
 5692 021a F8EEE77A 		vcvt.f32.s32	s15, s15
 5693              		.loc 1 1492 0
 5694 021e B0EEC77A 		vabs.f32	s14, s14
 5695              	.LVL418:
 5696              		.loc 1 1493 0
 5697 0222 F0EEE77A 		vabs.f32	s15, s15
 5698              	.LVL419:
 5699              		.loc 1 1495 0
 5700 0226 B4EEE77A 		vcmpe.f32	s14, s15
ARM GAS  C:\Users\euanm\AppData\Local\Temp\ccjmNLkj.s 			page 101


 5701 022a F1EE10FA 		vmrs	APSR_nzcv, FPSCR
 5702              		.loc 1 1496 0
 5703 022e 02EB8101 		add	r1, r2, r1, lsl #2
 5704 0232 CCBF     		ite	gt
 5705 0234 81ED007A 		vstrgt.32	s14, [r1]
 5706              		.loc 1 1498 0
 5707 0238 C1ED007A 		vstrle.32	s15, [r1]
 5708              		.loc 1 1501 0
 5709 023c 1968     		ldr	r1, [r3]
 5710 023e 0029     		cmp	r1, #0
 5711 0240 40F3F280 		ble	.L431
 5712              		.loc 1 1502 0
 5713 0244 D0F800E0 		ldr	lr, [r0]
 5714              		.loc 1 1503 0
 5715 0248 0168     		ldr	r1, [r0]
 5716              		.loc 1 1502 0
 5717 024a 3D4C     		ldr	r4, .L475+120
 5718              		.loc 1 1503 0
 5719 024c 0139     		subs	r1, r1, #1
 5720 024e 02EB8101 		add	r1, r2, r1, lsl #2
 5721 0252 D1ED007A 		vldr.32	s15, [r1]
 5722              	.LVL420:
 5723 0256 0068     		ldr	r0, [r0]
 5724 0258 02EB8000 		add	r0, r2, r0, lsl #2
 5725 025c 90ED007A 		vldr.32	s14, [r0]
 5726              	.LVL421:
 5727 0260 77EEC77A 		vsub.f32	s15, s15, s14
 5728              		.loc 1 1502 0
 5729 0264 04EB8E01 		add	r1, r4, lr, lsl #2
 5730 0268 C1ED007A 		vstr.32	s15, [r1]
 5731              	.L432:
 5732              		.loc 1 1509 0
 5733 026c 244C     		ldr	r4, .L475+56
 5734              		.loc 1 1512 0
 5735 026e 2348     		ldr	r0, .L475+52
 5736              		.loc 1 1509 0
 5737 0270 218A     		ldrh	r1, [r4, #16]
 5738              		.loc 1 1512 0
 5739 0272 0068     		ldr	r0, [r0]
 5740 0274 0628     		cmp	r0, #6
 5741              		.loc 1 1509 0
 5742 0276 89B2     		uxth	r1, r1
 5743              	.LVL422:
 5744 0278 00F29380 		bhi	.L433
 5745 027c 4FF0010E 		mov	lr, #1
 5746 0280 0EFA00F0 		lsl	r0, lr, r0
 5747 0284 10F0480F 		tst	r0, #72
 5748 0288 21FA0EF1 		lsr	r1, r1, lr
 5749              	.LVL423:
 5750 028c 7BD1     		bne	.L434
 5751 028e 10F0240F 		tst	r0, #36
 5752 0292 40F0D980 		bne	.L435
 5753 0296 10F0120F 		tst	r0, #18
 5754 029a 00F08280 		beq	.L433
 5755              		.loc 1 1515 0
 5756 029e D3F800E0 		ldr	lr, [r3]
 5757 02a2 A088     		ldrh	r0, [r4, #4]
ARM GAS  C:\Users\euanm\AppData\Local\Temp\ccjmNLkj.s 			page 102


 5758 02a4 72E0     		b	.L463
 5759              	.LVL424:
 5760              	.L425:
 5761              	.LBE183:
 5762              	.LBB184:
 5763              		.loc 1 1476 0
 5764 02a6 D4ED007A 		vldr.32	s15, [r4]	@ int
 5765 02aa F8EEE77A 		vcvt.f32.s32	s15, s15
 5766 02ae F1EE677A 		vneg.f32	s15, s15
 5767              	.LVL425:
 5768 02b2 89E7     		b	.L411
 5769              	.LVL426:
 5770              	.L421:
 5771              		.loc 1 1472 0
 5772 02b4 D4ED007A 		vldr.32	s15, [r4]	@ int
 5773 02b8 F8EEE77A 		vcvt.f32.s32	s15, s15
 5774              	.LVL427:
 5775 02bc 84E7     		b	.L411
 5776              	.LVL428:
 5777              	.L419:
 5778              		.loc 1 1471 0
 5779 02be D4ED017A 		vldr.32	s15, [r4, #4]	@ int
 5780 02c2 F8EEE77A 		vcvt.f32.s32	s15, s15
 5781              	.LVL429:
 5782 02c6 7FE7     		b	.L411
 5783              	.L476:
 5784              		.align	2
 5785              	.L475:
 5786 02c8 00180040 		.word	1073747968
 5787 02cc 00200140 		.word	1073815552
 5788 02d0 00210140 		.word	1073815808
 5789 02d4 00000000 		.word	.LANCHOR1
 5790 02d8 00000000 		.word	.LANCHOR53
 5791 02dc 00000000 		.word	.LANCHOR54
 5792 02e0 00000000 		.word	.LANCHOR55
 5793 02e4 00000000 		.word	.LANCHOR56
 5794 02e8 00000000 		.word	.LANCHOR57
 5795 02ec 00000000 		.word	ADC_curr_norm_value
 5796 02f0 00000000 		.word	.LANCHOR0
 5797 02f4 00000000 		.word	.LANCHOR2
 5798 02f8 00000000 		.word	.LANCHOR4
 5799 02fc 00000000 		.word	.LANCHOR3
 5800 0300 00000000 		.word	ADC_Value
 5801 0304 6740533A 		.word	978534503
 5802 0308 0BD7233C 		.word	1008981771
 5803 030c 00000000 		.word	.LANCHOR42
 5804 0310 9A99993F 		.word	1067030938
 5805 0314 00000000 		.word	.LANCHOR68
 5806 0318 00000000 		.word	.LANCHOR69
 5807 031c 00000000 		.word	.LANCHOR52
 5808 0320 00000000 		.word	.LANCHOR43
 5809 0324 8096184B 		.word	1259902592
 5810 0328 00000000 		.word	.LANCHOR70
 5811 032c 00000000 		.word	.LANCHOR60
 5812 0330 00000000 		.word	.LANCHOR61
 5813 0334 00000000 		.word	.LANCHOR62
 5814 0338 00000000 		.word	.LANCHOR39
ARM GAS  C:\Users\euanm\AppData\Local\Temp\ccjmNLkj.s 			page 103


 5815 033c 00000000 		.word	.LANCHOR63
 5816 0340 00000000 		.word	.LANCHOR64
 5817 0344 CDCC4C3E 		.word	1045220557
 5818              	.LVL430:
 5819              	.L436:
 5820              	.LBE184:
 5821              		.loc 1 1542 0
 5822 0348 2B78     		ldrb	r3, [r5]	@ zero_extendqisi2
 5823 034a 012B     		cmp	r3, #1
 5824 034c 7FF459AF 		bne	.L465
 5825              	.L438:
 5826              		.loc 1 1543 0
 5827 0350 0523     		movs	r3, #5
 5828              		.loc 1 1545 0
 5829 0352 1FED040A 		vldr.32	s0, .L475+124
 5830              		.loc 1 1543 0
 5831 0356 3360     		str	r3, [r6]
 5832              		.loc 1 1545 0
 5833 0358 FFF7FEFF 		bl	set_duty_cycle_hw
 5834              	.LVL431:
 5835              		.loc 1 1547 0
 5836 035c 404B     		ldr	r3, .L477
 5837 035e 1A68     		ldr	r2, [r3]
 5838 0360 0132     		adds	r2, r2, #1
 5839 0362 1A60     		str	r2, [r3]
 5840              		.loc 1 1548 0
 5841 0364 1A68     		ldr	r2, [r3]
 5842 0366 052A     		cmp	r2, #5
 5843              		.loc 1 1549 0
 5844 0368 C4BF     		itt	gt
 5845 036a 0022     		movgt	r2, #0
 5846 036c 1A60     		strgt	r2, [r3]
 5847              		.loc 1 1552 0
 5848 036e 1B68     		ldr	r3, [r3]
 5849 0370 3C4A     		ldr	r2, .L477+4
 5850 0372 0133     		adds	r3, r3, #1
 5851 0374 1360     		str	r3, [r2]
 5852              		.loc 1 1554 0
 5853 0376 1068     		ldr	r0, [r2]
 5854 0378 FFF7FEFF 		bl	set_next_comm_step
 5855              	.LVL432:
 5856              		.loc 1 1555 0
 5857 037c 2021     		movs	r1, #32
 5858 037e 3A48     		ldr	r0, .L477+8
 5859 0380 FFF7FEFF 		bl	TIM_GenerateEvent
 5860              	.LVL433:
 5861 0384 3DE7     		b	.L465
 5862              	.L434:
 5863              	.LBB185:
 5864              		.loc 1 1525 0
 5865 0386 D3F800E0 		ldr	lr, [r3]
 5866 038a 2088     		ldrh	r0, [r4]
 5867              	.L463:
 5868 038c 374C     		ldr	r4, .L477+12
 5869 038e 80B2     		uxth	r0, r0
 5870 0390 411A     		subs	r1, r0, r1
 5871 0392 07EE901A 		vmov	s15, r1	@ int
ARM GAS  C:\Users\euanm\AppData\Local\Temp\ccjmNLkj.s 			page 104


 5872 0396 F8EEE77A 		vcvt.f32.s32	s15, s15
 5873 039a 04EB8E01 		add	r1, r4, lr, lsl #2
 5874 039e C1ED007A 		vstr.32	s15, [r1]
 5875              	.L433:
 5876              		.loc 1 1532 0
 5877 03a2 1C68     		ldr	r4, [r3]
 5878 03a4 3248     		ldr	r0, .L477+16
 5879              		.loc 1 1533 0
 5880 03a6 3349     		ldr	r1, .L477+20
 5881              		.loc 1 1532 0
 5882 03a8 02EB8402 		add	r2, r2, r4, lsl #2
 5883 03ac D2ED007A 		vldr.32	s15, [r2]
 5884 03b0 1A68     		ldr	r2, [r3]
 5885 03b2 00EB8202 		add	r2, r0, r2, lsl #2
 5886 03b6 92ED007A 		vldr.32	s14, [r2]
 5887 03ba 37EE877A 		vadd.f32	s14, s15, s14
 5888              		.loc 1 1533 0
 5889 03be F7EE006A 		vmov.f32	s13, #1.0e+0
 5890              		.loc 1 1532 0
 5891 03c2 82ED007A 		vstr.32	s14, [r2]
 5892              		.loc 1 1533 0
 5893 03c6 1B68     		ldr	r3, [r3]
 5894 03c8 01EB8303 		add	r3, r1, r3, lsl #2
 5895 03cc D3ED007A 		vldr.32	s15, [r3]
 5896 03d0 77EEA67A 		vadd.f32	s15, s15, s13
 5897 03d4 C3ED007A 		vstr.32	s15, [r3]
 5898              		.loc 1 1535 0
 5899 03d8 FFF7FEFF 		bl	stop_pwm_hw
 5900              	.LVL434:
 5901 03dc 3368     		ldr	r3, [r6]
 5902 03de 07E7     		b	.L427
 5903              	.L473:
 5904              	.LBE185:
 5905              		.loc 1 1542 0 discriminator 1
 5906 03e0 002B     		cmp	r3, #0
 5907 03e2 7FF40EAF 		bne	.L465
 5908 03e6 B3E7     		b	.L438
 5909              	.LVL435:
 5910              	.L470:
 5911              	.LBB186:
 5912              		.loc 1 1454 0
 5913 03e8 D4ED006A 		vldr.32	s13, [r4]	@ int
 5914              		.loc 1 1455 0
 5915 03ec D4ED017A 		vldr.32	s15, [r4, #4]	@ int
 5916              		.loc 1 1456 0
 5917 03f0 94ED027A 		vldr.32	s14, [r4, #8]	@ int
 5918              		.loc 1 1455 0
 5919 03f4 F8EEE77A 		vcvt.f32.s32	s15, s15
 5920              		.loc 1 1454 0
 5921 03f8 F8EEE66A 		vcvt.f32.s32	s13, s13
 5922              	.LVL436:
 5923              		.loc 1 1457 0
 5924 03fc 67EEA77A 		vmul.f32	s15, s15, s15
 5925              	.LVL437:
 5926              		.loc 1 1456 0
 5927 0400 B8EEC77A 		vcvt.f32.s32	s14, s14
 5928              	.LVL438:
ARM GAS  C:\Users\euanm\AppData\Local\Temp\ccjmNLkj.s 			page 105


 5929              		.loc 1 1457 0
 5930 0404 E6EEA67A 		vfma.f32	s15, s13, s13
 5931 0408 F7EE086A 		vmov.f32	s13, #1.5e+0
 5932              	.LVL439:
 5933 040c E7EE077A 		vfma.f32	s15, s14, s14
 5934 0410 87EEA67A 		vdiv.f32	s14, s15, s13
 5935              	.LVL440:
 5936 0414 B1EEC70A 		vsqrt.f32	s0, s14
 5937 0418 B4EE400A 		vcmp.f32	s0, s0
 5938 041c F1EE10FA 		vmrs	APSR_nzcv, FPSCR
 5939 0420 19D1     		bne	.L474
 5940              	.L408:
 5941 0422 B0EE408A 		vmov.f32	s16, s0
 5942              	.LVL441:
 5943              	.LBE186:
 5944 0426 DFE6     		b	.L409
 5945              	.LVL442:
 5946              	.L431:
 5947              	.LBB187:
 5948              		.loc 1 1505 0
 5949 0428 0468     		ldr	r4, [r0]
 5950              		.loc 1 1506 0
 5951 042a D2ED057A 		vldr.32	s15, [r2, #20]
 5952              	.LVL443:
 5953 042e 0068     		ldr	r0, [r0]
 5954              		.loc 1 1505 0
 5955 0430 1149     		ldr	r1, .L477+24
 5956              		.loc 1 1506 0
 5957 0432 02EB8000 		add	r0, r2, r0, lsl #2
 5958 0436 90ED007A 		vldr.32	s14, [r0]
 5959              	.LVL444:
 5960 043a 77EEC77A 		vsub.f32	s15, s15, s14
 5961              		.loc 1 1505 0
 5962 043e 01EB8401 		add	r1, r1, r4, lsl #2
 5963 0442 C1ED007A 		vstr.32	s15, [r1]
 5964 0446 11E7     		b	.L432
 5965              	.L435:
 5966              		.loc 1 1520 0
 5967 0448 D3F800E0 		ldr	lr, [r3]
 5968 044c 6088     		ldrh	r0, [r4, #2]
 5969 044e 9DE7     		b	.L463
 5970              	.LVL445:
 5971              	.L445:
 5972              	.LBE187:
 5973              	.LBE189:
 5974              		.loc 1 1423 0
 5975 0450 DFED0A7A 		vldr.32	s15, .L477+28
 5976 0454 B8E6     		b	.L411
 5977              	.L474:
 5978              	.LBB190:
 5979              	.LBB188:
 5980              		.loc 1 1457 0
 5981 0456 B0EE470A 		vmov.f32	s0, s14
 5982 045a FFF7FEFF 		bl	sqrtf
 5983              	.LVL446:
 5984 045e E0E7     		b	.L408
 5985              	.L478:
ARM GAS  C:\Users\euanm\AppData\Local\Temp\ccjmNLkj.s 			page 106


 5986              		.align	2
 5987              	.L477:
 5988 0460 00000000 		.word	.LANCHOR39
 5989 0464 00000000 		.word	.LANCHOR3
 5990 0468 00000140 		.word	1073807360
 5991 046c 00000000 		.word	.LANCHOR65
 5992 0470 00000000 		.word	.LANCHOR66
 5993 0474 00000000 		.word	.LANCHOR67
 5994 0478 00000000 		.word	.LANCHOR64
 5995 047c 00000000 		.word	0
 5996              	.LBE188:
 5997              	.LBE190:
 5998              		.cfi_endproc
 5999              	.LFE297:
 6000              		.size	mcpwm_adc_inj_int_handler, .-mcpwm_adc_inj_int_handler
 6001              		.section	.text.mcpwm_set_detect,"ax",%progbits
 6002              		.align	2
 6003              		.p2align 4,,15
 6004              		.global	mcpwm_set_detect
 6005              		.thumb
 6006              		.thumb_func
 6007              		.type	mcpwm_set_detect, %function
 6008              	mcpwm_set_detect:
 6009              	.LFB299:
 6010              		.loc 1 1958 0
 6011              		.cfi_startproc
 6012              		@ args = 0, pretend = 0, frame = 0
 6013              		@ frame_needed = 0, uses_anonymous_args = 0
 6014 0000 F8B5     		push	{r3, r4, r5, r6, r7, lr}
 6015              		.cfi_def_cfa_offset 24
 6016              		.cfi_offset 3, -24
 6017              		.cfi_offset 4, -20
 6018              		.cfi_offset 5, -16
 6019              		.cfi_offset 6, -12
 6020              		.cfi_offset 7, -8
 6021              		.cfi_offset 14, -4
 6022              		.loc 1 1959 0
 6023 0002 FFF7FEFF 		bl	mc_interface_try_input
 6024              	.LVL447:
 6025 0006 00B1     		cbz	r0, .L484
 6026 0008 F8BD     		pop	{r3, r4, r5, r6, r7, pc}
 6027              	.L484:
 6028              		.loc 1 1963 0
 6029 000a 0D4B     		ldr	r3, .L485
 6030 000c 0D4F     		ldr	r7, .L485+4
 6031 000e 0E4E     		ldr	r6, .L485+8
 6032 0010 0E4D     		ldr	r5, .L485+12
 6033 0012 0522     		movs	r2, #5
 6034 0014 0446     		mov	r4, r0
 6035 0016 1A70     		strb	r2, [r3]
 6036              		.loc 1 1964 0
 6037 0018 FFF7FEFF 		bl	stop_pwm_hw
 6038              	.LVL448:
 6039              		.loc 1 1966 0
 6040 001c FFF7FEFF 		bl	set_switching_frequency.constprop.1
 6041              	.LVL449:
 6042              	.LBB191:
ARM GAS  C:\Users\euanm\AppData\Local\Temp\ccjmNLkj.s 			page 107


 6043              		.loc 1 1969 0
 6044 0020 0022     		movs	r2, #0
 6045              		.loc 1 1968 0
 6046 0022 2046     		mov	r0, r4
 6047              	.LVL450:
 6048              	.L481:
 6049              		.loc 1 1969 0 discriminator 3
 6050 0024 8300     		lsls	r3, r0, #2
 6051 0026 FC18     		adds	r4, r7, r3
 6052              		.loc 1 1970 0 discriminator 3
 6053 0028 F118     		adds	r1, r6, r3
 6054              		.loc 1 1968 0 discriminator 3
 6055 002a 0130     		adds	r0, r0, #1
 6056              	.LVL451:
 6057              		.loc 1 1971 0 discriminator 3
 6058 002c 2B44     		add	r3, r3, r5
 6059              		.loc 1 1968 0 discriminator 3
 6060 002e 0628     		cmp	r0, #6
 6061              		.loc 1 1969 0 discriminator 3
 6062 0030 2260     		str	r2, [r4]	@ float
 6063              		.loc 1 1970 0 discriminator 3
 6064 0032 0A60     		str	r2, [r1]	@ float
 6065              		.loc 1 1971 0 discriminator 3
 6066 0034 1A60     		str	r2, [r3]	@ float
 6067              		.loc 1 1968 0 discriminator 3
 6068 0036 F5D1     		bne	.L481
 6069              	.LBE191:
 6070              		.loc 1 1974 0
 6071 0038 054B     		ldr	r3, .L485+16
 6072 003a 0122     		movs	r2, #1
 6073 003c 1A70     		strb	r2, [r3]
 6074 003e F8BD     		pop	{r3, r4, r5, r6, r7, pc}
 6075              	.L486:
 6076              		.align	2
 6077              	.L485:
 6078 0040 00000000 		.word	.LANCHOR15
 6079 0044 00000000 		.word	.LANCHOR63
 6080 0048 00000000 		.word	.LANCHOR66
 6081 004c 00000000 		.word	.LANCHOR67
 6082 0050 00000000 		.word	.LANCHOR2
 6083              		.cfi_endproc
 6084              	.LFE299:
 6085              		.size	mcpwm_set_detect, .-mcpwm_set_detect
 6086              		.section	.text.mcpwm_get_detect_pos,"ax",%progbits
 6087              		.align	2
 6088              		.p2align 4,,15
 6089              		.global	mcpwm_get_detect_pos
 6090              		.thumb
 6091              		.thumb_func
 6092              		.type	mcpwm_get_detect_pos, %function
 6093              	mcpwm_get_detect_pos:
 6094              	.LFB300:
 6095              		.loc 1 1977 0
 6096              		.cfi_startproc
 6097              		@ args = 0, pretend = 0, frame = 8
 6098              		@ frame_needed = 0, uses_anonymous_args = 0
 6099 0000 30B5     		push	{r4, r5, lr}
ARM GAS  C:\Users\euanm\AppData\Local\Temp\ccjmNLkj.s 			page 108


 6100              		.cfi_def_cfa_offset 12
 6101              		.cfi_offset 4, -12
 6102              		.cfi_offset 5, -8
 6103              		.cfi_offset 14, -4
 6104              		.loc 1 1979 0
 6105 0002 4148     		ldr	r0, .L495
 6106 0004 414C     		ldr	r4, .L495+4
 6107 0006 D4ED001A 		vldr.32	s3, [r4]
 6108 000a 90ED007A 		vldr.32	s14, [r0]
 6109              		.loc 1 1980 0
 6110 000e 94ED012A 		vldr.32	s4, [r4, #4]
 6111 0012 D0ED017A 		vldr.32	s15, [r0, #4]
 6112              		.loc 1 1981 0
 6113 0016 D4ED022A 		vldr.32	s5, [r4, #8]
 6114 001a 90ED023A 		vldr.32	s6, [r0, #8]
 6115              		.loc 1 1982 0
 6116 001e D4ED033A 		vldr.32	s7, [r4, #12]
 6117 0022 90ED034A 		vldr.32	s8, [r0, #12]
 6118              		.loc 1 1983 0
 6119 0026 D4ED044A 		vldr.32	s9, [r4, #16]
 6120 002a 90ED045A 		vldr.32	s10, [r0, #16]
 6121              		.loc 1 1984 0
 6122 002e D4ED055A 		vldr.32	s11, [r4, #20]
 6123 0032 90ED056A 		vldr.32	s12, [r0, #20]
 6124              		.loc 1 1977 0
 6125 0036 2DED048B 		vpush.64	{d8, d9}
 6126              		.cfi_def_cfa_offset 28
 6127              		.cfi_offset 80, -28
 6128              		.cfi_offset 81, -24
 6129              		.cfi_offset 82, -20
 6130              		.cfi_offset 83, -16
 6131              		.loc 1 1979 0
 6132 003a C1EE876A 		vdiv.f32	s13, s3, s14
 6133              	.LVL452:
 6134              		.loc 1 1977 0
 6135 003e 83B0     		sub	sp, sp, #12
 6136              		.cfi_def_cfa_offset 40
 6137              	.LBB192:
 6138              		.loc 1 1987 0
 6139 0040 0021     		movs	r1, #0
 6140              		.loc 1 1986 0
 6141 0042 0022     		movs	r2, #0
 6142              	.LBE192:
 6143              		.loc 1 1980 0
 6144 0044 82EE277A 		vdiv.f32	s14, s4, s15
 6145              	.LVL453:
 6146              		.loc 1 1982 0
 6147 0048 83EE849A 		vdiv.f32	s18, s7, s8
 6148              		.loc 1 1981 0
 6149 004c C2EE837A 		vdiv.f32	s15, s5, s6
 6150              	.LVL454:
 6151              		.loc 1 1983 0
 6152 0050 C4EE858A 		vdiv.f32	s17, s9, s10
 6153              	.LVL455:
 6154              		.loc 1 1984 0
 6155 0054 85EE868A 		vdiv.f32	s16, s11, s12
 6156              	.LVL456:
ARM GAS  C:\Users\euanm\AppData\Local\Temp\ccjmNLkj.s 			page 109


 6157              	.L488:
 6158              	.LBB193:
 6159              		.loc 1 1987 0 discriminator 3
 6160 0058 9300     		lsls	r3, r2, #2
 6161 005a E518     		adds	r5, r4, r3
 6162              		.loc 1 1986 0 discriminator 3
 6163 005c 0132     		adds	r2, r2, #1
 6164              	.LVL457:
 6165              		.loc 1 1988 0 discriminator 3
 6166 005e 0344     		add	r3, r3, r0
 6167              		.loc 1 1986 0 discriminator 3
 6168 0060 062A     		cmp	r2, #6
 6169              		.loc 1 1987 0 discriminator 3
 6170 0062 2960     		str	r1, [r5]	@ float
 6171              		.loc 1 1988 0 discriminator 3
 6172 0064 1960     		str	r1, [r3]	@ float
 6173              		.loc 1 1986 0 discriminator 3
 6174 0066 F7D1     		bne	.L488
 6175              	.LBE193:
 6176              		.loc 1 1991 0
 6177 0068 36EE899A 		vadd.f32	s18, s13, s18
 6178              	.LVL458:
 6179              		.loc 1 1992 0
 6180 006c 77EE288A 		vadd.f32	s17, s14, s17
 6181              	.LVL459:
 6182              		.loc 1 1993 0
 6183 0070 77EE887A 		vadd.f32	s15, s15, s16
 6184              	.LVL460:
 6185              		.loc 1 1995 0
 6186 0074 39EE287A 		vadd.f32	s14, s18, s17
 6187              	.LVL461:
 6188 0078 B0EE086A 		vmov.f32	s12, #3.0e+0
 6189 007c 37EE277A 		vadd.f32	s14, s14, s15
 6190              		.loc 1 2000 0
 6191 0080 F7EE086A 		vmov.f32	s13, #1.5e+0
 6192              	.LVL462:
 6193              		.loc 1 1995 0
 6194 0084 87EE068A 		vdiv.f32	s16, s14, s12
 6195              	.LVL463:
 6196              		.loc 1 1997 0
 6197 0088 78EEC88A 		vsub.f32	s17, s17, s16
 6198              	.LVL464:
 6199              		.loc 1 1996 0
 6200 008c 39EE489A 		vsub.f32	s18, s18, s16
 6201              	.LVL465:
 6202              		.loc 1 2000 0
 6203 0090 28EEA87A 		vmul.f32	s14, s17, s17
 6204              		.loc 1 1998 0
 6205 0094 37EEC88A 		vsub.f32	s16, s15, s16
 6206              	.LVL466:
 6207              		.loc 1 2000 0
 6208 0098 F0EE477A 		vmov.f32	s15, s14
 6209 009c E9EE097A 		vfma.f32	s15, s18, s18
 6210 00a0 E8EE087A 		vfma.f32	s15, s16, s16
 6211 00a4 87EEA60A 		vdiv.f32	s0, s15, s13
 6212 00a8 F1EEC09A 		vsqrt.f32	s19, s0
 6213 00ac F4EE699A 		vcmp.f32	s19, s19
ARM GAS  C:\Users\euanm\AppData\Local\Temp\ccjmNLkj.s 			page 110


 6214 00b0 F1EE10FA 		vmrs	APSR_nzcv, FPSCR
 6215 00b4 23D1     		bne	.L494
 6216              	.LVL467:
 6217              	.L489:
 6218              		.loc 1 2006 0
 6219 00b6 89EE290A 		vdiv.f32	s0, s18, s19
 6220              	.LVL468:
 6221 00ba FFF7FEFF 		bl	asinf
 6222              	.LVL469:
 6223              		.loc 1 2013 0
 6224 00be 01A8     		add	r0, sp, #4
 6225              		.loc 1 2006 0
 6226 00c0 DFED137A 		vldr.32	s15, .L495+8
 6227 00c4 DFED135A 		vldr.32	s11, .L495+12
 6228 00c8 20EE270A 		vmul.f32	s0, s0, s15
 6229              		.loc 1 2009 0
 6230 00cc 88EEA96A 		vdiv.f32	s12, s17, s19
 6231              	.LVL470:
 6232 00d0 C8EE296A 		vdiv.f32	s13, s16, s19
 6233              	.LVL471:
 6234              		.loc 1 2006 0
 6235 00d4 80EE257A 		vdiv.f32	s14, s0, s11
 6236              	.LVL472:
 6237              		.loc 1 2009 0
 6238 00d8 B4EEE66A 		vcmpe.f32	s12, s13
 6239 00dc F1EE10FA 		vmrs	APSR_nzcv, FPSCR
 6240              		.loc 1 2010 0
 6241 00e0 4ABF     		itet	mi
 6242 00e2 77EEC77A 		vsubmi.f32	s15, s15, s14
 6243              		.loc 1 2008 0
 6244 00e6 8DED017A 		vstrpl.32	s14, [sp, #4]
 6245              		.loc 1 2010 0
 6246 00ea CDED017A 		vstrmi.32	s15, [sp, #4]
 6247              		.loc 1 2013 0
 6248 00ee FFF7FEFF 		bl	utils_norm_angle
 6249              	.LVL473:
 6250              		.loc 1 2016 0
 6251 00f2 9DED010A 		vldr.32	s0, [sp, #4]
 6252 00f6 03B0     		add	sp, sp, #12
 6253              		.cfi_remember_state
 6254              		.cfi_def_cfa_offset 28
 6255              		@ sp needed
 6256 00f8 BDEC048B 		vldm	sp!, {d8-d9}
 6257              		.cfi_restore 82
 6258              		.cfi_restore 83
 6259              		.cfi_restore 80
 6260              		.cfi_restore 81
 6261              		.cfi_def_cfa_offset 12
 6262              	.LVL474:
 6263 00fc 30BD     		pop	{r4, r5, pc}
 6264              	.LVL475:
 6265              	.L494:
 6266              		.cfi_restore_state
 6267              		.loc 1 2000 0
 6268 00fe FFF7FEFF 		bl	sqrtf
 6269              	.LVL476:
 6270 0102 F0EE409A 		vmov.f32	s19, s0
ARM GAS  C:\Users\euanm\AppData\Local\Temp\ccjmNLkj.s 			page 111


 6271 0106 D6E7     		b	.L489
 6272              	.L496:
 6273              		.align	2
 6274              	.L495:
 6275 0108 00000000 		.word	.LANCHOR67
 6276 010c 00000000 		.word	.LANCHOR66
 6277 0110 00003443 		.word	1127481344
 6278 0114 DB0F4940 		.word	1078530011
 6279              		.cfi_endproc
 6280              	.LFE300:
 6281              		.size	mcpwm_get_detect_pos, .-mcpwm_get_detect_pos
 6282              		.section	.text.mcpwm_read_reset_avg_cycle_integrator,"ax",%progbits
 6283              		.align	2
 6284              		.p2align 4,,15
 6285              		.global	mcpwm_read_reset_avg_cycle_integrator
 6286              		.thumb
 6287              		.thumb_func
 6288              		.type	mcpwm_read_reset_avg_cycle_integrator, %function
 6289              	mcpwm_read_reset_avg_cycle_integrator:
 6290              	.LFB301:
 6291              		.loc 1 2018 0
 6292              		.cfi_startproc
 6293              		@ args = 0, pretend = 0, frame = 0
 6294              		@ frame_needed = 0, uses_anonymous_args = 0
 6295              		@ link register save eliminated.
 6296              		.loc 1 2019 0
 6297 0000 0549     		ldr	r1, .L498
 6298 0002 064B     		ldr	r3, .L498+4
 6299 0004 91ED000A 		vldr.32	s0, [r1]
 6300 0008 D3ED007A 		vldr.32	s15, [r3]
 6301              	.LVL477:
 6302              		.loc 1 2020 0
 6303 000c 0022     		movs	r2, #0
 6304 000e 0A60     		str	r2, [r1]	@ float
 6305              		.loc 1 2023 0
 6306 0010 80EE270A 		vdiv.f32	s0, s0, s15
 6307              	.LVL478:
 6308              		.loc 1 2021 0
 6309 0014 1A60     		str	r2, [r3]	@ float
 6310              		.loc 1 2023 0
 6311 0016 7047     		bx	lr
 6312              	.L499:
 6313              		.align	2
 6314              	.L498:
 6315 0018 00000000 		.word	.LANCHOR47
 6316 001c 00000000 		.word	.LANCHOR48
 6317              		.cfi_endproc
 6318              	.LFE301:
 6319              		.size	mcpwm_read_reset_avg_cycle_integrator, .-mcpwm_read_reset_avg_cycle_integrator
 6320              		.section	.text.mcpwm_set_comm_mode,"ax",%progbits
 6321              		.align	2
 6322              		.p2align 4,,15
 6323              		.global	mcpwm_set_comm_mode
 6324              		.thumb
 6325              		.thumb_func
 6326              		.type	mcpwm_set_comm_mode, %function
 6327              	mcpwm_set_comm_mode:
ARM GAS  C:\Users\euanm\AppData\Local\Temp\ccjmNLkj.s 			page 112


 6328              	.LFB302:
 6329              		.loc 1 2034 0
 6330              		.cfi_startproc
 6331              		@ args = 0, pretend = 0, frame = 0
 6332              		@ frame_needed = 0, uses_anonymous_args = 0
 6333              		@ link register save eliminated.
 6334              	.LVL479:
 6335              		.loc 1 2035 0
 6336 0000 014B     		ldr	r3, .L501
 6337 0002 1B68     		ldr	r3, [r3]
 6338 0004 5870     		strb	r0, [r3, #1]
 6339 0006 7047     		bx	lr
 6340              	.L502:
 6341              		.align	2
 6342              	.L501:
 6343 0008 00000000 		.word	.LANCHOR0
 6344              		.cfi_endproc
 6345              	.LFE302:
 6346              		.size	mcpwm_set_comm_mode, .-mcpwm_set_comm_mode
 6347              		.section	.text.mcpwm_get_comm_mode,"ax",%progbits
 6348              		.align	2
 6349              		.p2align 4,,15
 6350              		.global	mcpwm_get_comm_mode
 6351              		.thumb
 6352              		.thumb_func
 6353              		.type	mcpwm_get_comm_mode, %function
 6354              	mcpwm_get_comm_mode:
 6355              	.LFB303:
 6356              		.loc 1 2038 0
 6357              		.cfi_startproc
 6358              		@ args = 0, pretend = 0, frame = 0
 6359              		@ frame_needed = 0, uses_anonymous_args = 0
 6360              		@ link register save eliminated.
 6361              		.loc 1 2039 0
 6362 0000 014B     		ldr	r3, .L504
 6363 0002 1B68     		ldr	r3, [r3]
 6364 0004 5878     		ldrb	r0, [r3, #1]	@ zero_extendqisi2
 6365              		.loc 1 2040 0
 6366 0006 7047     		bx	lr
 6367              	.L505:
 6368              		.align	2
 6369              	.L504:
 6370 0008 00000000 		.word	.LANCHOR0
 6371              		.cfi_endproc
 6372              	.LFE303:
 6373              		.size	mcpwm_get_comm_mode, .-mcpwm_get_comm_mode
 6374              		.section	.text.mcpwm_get_last_adc_isr_duration,"ax",%progbits
 6375              		.align	2
 6376              		.p2align 4,,15
 6377              		.global	mcpwm_get_last_adc_isr_duration
 6378              		.thumb
 6379              		.thumb_func
 6380              		.type	mcpwm_get_last_adc_isr_duration, %function
 6381              	mcpwm_get_last_adc_isr_duration:
 6382              	.LFB304:
 6383              		.loc 1 2042 0
 6384              		.cfi_startproc
ARM GAS  C:\Users\euanm\AppData\Local\Temp\ccjmNLkj.s 			page 113


 6385              		@ args = 0, pretend = 0, frame = 0
 6386              		@ frame_needed = 0, uses_anonymous_args = 0
 6387              		@ link register save eliminated.
 6388              		.loc 1 2043 0
 6389 0000 014B     		ldr	r3, .L507
 6390 0002 93ED000A 		vldr.32	s0, [r3]
 6391              		.loc 1 2044 0
 6392 0006 7047     		bx	lr
 6393              	.L508:
 6394              		.align	2
 6395              	.L507:
 6396 0008 00000000 		.word	.LANCHOR71
 6397              		.cfi_endproc
 6398              	.LFE304:
 6399              		.size	mcpwm_get_last_adc_isr_duration, .-mcpwm_get_last_adc_isr_duration
 6400              		.section	.text.mcpwm_get_last_inj_adc_isr_duration,"ax",%progbits
 6401              		.align	2
 6402              		.p2align 4,,15
 6403              		.global	mcpwm_get_last_inj_adc_isr_duration
 6404              		.thumb
 6405              		.thumb_func
 6406              		.type	mcpwm_get_last_inj_adc_isr_duration, %function
 6407              	mcpwm_get_last_inj_adc_isr_duration:
 6408              	.LFB305:
 6409              		.loc 1 2046 0
 6410              		.cfi_startproc
 6411              		@ args = 0, pretend = 0, frame = 0
 6412              		@ frame_needed = 0, uses_anonymous_args = 0
 6413              		@ link register save eliminated.
 6414              		.loc 1 2047 0
 6415 0000 014B     		ldr	r3, .L510
 6416 0002 93ED000A 		vldr.32	s0, [r3]
 6417              		.loc 1 2048 0
 6418 0006 7047     		bx	lr
 6419              	.L511:
 6420              		.align	2
 6421              	.L510:
 6422 0008 00000000 		.word	.LANCHOR70
 6423              		.cfi_endproc
 6424              	.LFE305:
 6425              		.size	mcpwm_get_last_inj_adc_isr_duration, .-mcpwm_get_last_inj_adc_isr_duration
 6426              		.section	.text.mcpwm_get_rpm_dep,"ax",%progbits
 6427              		.align	2
 6428              		.p2align 4,,15
 6429              		.global	mcpwm_get_rpm_dep
 6430              		.thumb
 6431              		.thumb_func
 6432              		.type	mcpwm_get_rpm_dep, %function
 6433              	mcpwm_get_rpm_dep:
 6434              	.LFB306:
 6435              		.loc 1 2050 0
 6436              		.cfi_startproc
 6437              		@ args = 0, pretend = 0, frame = 0
 6438              		@ frame_needed = 0, uses_anonymous_args = 0
 6439              		@ link register save eliminated.
 6440              	.LVL480:
 6441 0000 70B4     		push	{r4, r5, r6}
ARM GAS  C:\Users\euanm\AppData\Local\Temp\ccjmNLkj.s 			page 114


 6442              		.cfi_def_cfa_offset 12
 6443              		.cfi_offset 4, -12
 6444              		.cfi_offset 5, -8
 6445              		.cfi_offset 6, -4
 6446              		.loc 1 2051 0
 6447 0002 064D     		ldr	r5, .L514
 6448              		.loc 1 2050 0
 6449 0004 0646     		mov	r6, r0
 6450              		.loc 1 2051 0
 6451 0006 0FCD     		ldmia	r5!, {r0, r1, r2, r3}
 6452              	.LVL481:
 6453 0008 3446     		mov	r4, r6
 6454 000a 0FC4     		stmia	r4!, {r0, r1, r2, r3}
 6455 000c 95E80700 		ldmia	r5, {r0, r1, r2}
 6456 0010 84E80700 		stmia	r4, {r0, r1, r2}
 6457              		.loc 1 2052 0
 6458 0014 3046     		mov	r0, r6
 6459 0016 70BC     		pop	{r4, r5, r6}
 6460              		.cfi_restore 6
 6461              		.cfi_restore 5
 6462              		.cfi_restore 4
 6463              		.cfi_def_cfa_offset 0
 6464              	.LVL482:
 6465 0018 7047     		bx	lr
 6466              	.L515:
 6467 001a 00BF     		.align	2
 6468              	.L514:
 6469 001c 00000000 		.word	.LANCHOR6
 6470              		.cfi_endproc
 6471              	.LFE306:
 6472              		.size	mcpwm_get_rpm_dep, .-mcpwm_get_rpm_dep
 6473              		.section	.text.mcpwm_is_dccal_done,"ax",%progbits
 6474              		.align	2
 6475              		.p2align 4,,15
 6476              		.global	mcpwm_is_dccal_done
 6477              		.thumb
 6478              		.thumb_func
 6479              		.type	mcpwm_is_dccal_done, %function
 6480              	mcpwm_is_dccal_done:
 6481              	.LFB307:
 6482              		.loc 1 2054 0
 6483              		.cfi_startproc
 6484              		@ args = 0, pretend = 0, frame = 0
 6485              		@ frame_needed = 0, uses_anonymous_args = 0
 6486              		@ link register save eliminated.
 6487              		.loc 1 2055 0
 6488 0000 014B     		ldr	r3, .L517
 6489 0002 1878     		ldrb	r0, [r3]	@ zero_extendqisi2
 6490              		.loc 1 2056 0
 6491 0004 7047     		bx	lr
 6492              	.L518:
 6493 0006 00BF     		.align	2
 6494              	.L517:
 6495 0008 00000000 		.word	.LANCHOR49
 6496              		.cfi_endproc
 6497              	.LFE307:
 6498              		.size	mcpwm_is_dccal_done, .-mcpwm_is_dccal_done
ARM GAS  C:\Users\euanm\AppData\Local\Temp\ccjmNLkj.s 			page 115


 6499              		.section	.text.mcpwm_reset_hall_detect_table,"ax",%progbits
 6500              		.align	2
 6501              		.p2align 4,,15
 6502              		.global	mcpwm_reset_hall_detect_table
 6503              		.thumb
 6504              		.thumb_func
 6505              		.type	mcpwm_reset_hall_detect_table, %function
 6506              	mcpwm_reset_hall_detect_table:
 6507              	.LFB308:
 6508              		.loc 1 2061 0
 6509              		.cfi_startproc
 6510              		@ args = 0, pretend = 0, frame = 0
 6511              		@ frame_needed = 0, uses_anonymous_args = 0
 6512              		@ link register save eliminated.
 6513              		.loc 1 2062 0
 6514 0000 E022     		movs	r2, #224
 6515 0002 0021     		movs	r1, #0
 6516 0004 0148     		ldr	r0, .L520
 6517 0006 FFF7FEBF 		b	memset
 6518              	.LVL483:
 6519              	.L521:
 6520 000a 00BF     		.align	2
 6521              	.L520:
 6522 000c 00000000 		.word	.LANCHOR50
 6523              		.cfi_endproc
 6524              	.LFE308:
 6525              		.size	mcpwm_reset_hall_detect_table, .-mcpwm_reset_hall_detect_table
 6526              		.section	.text.mcpwm_get_hall_detect_result,"ax",%progbits
 6527              		.align	2
 6528              		.p2align 4,,15
 6529              		.global	mcpwm_get_hall_detect_result
 6530              		.thumb
 6531              		.thumb_func
 6532              		.type	mcpwm_get_hall_detect_result, %function
 6533              	mcpwm_get_hall_detect_result:
 6534              	.LFB309:
 6535              		.loc 1 2077 0
 6536              		.cfi_startproc
 6537              		@ args = 0, pretend = 0, frame = 32
 6538              		@ frame_needed = 0, uses_anonymous_args = 0
 6539              	.LVL484:
 6540              		.loc 1 2080 0
 6541 0000 294B     		ldr	r3, .L541
 6542 0002 1B68     		ldr	r3, [r3]
 6543 0004 93F83C31 		ldrb	r3, [r3, #316]	@ zero_extendqisi2
 6544 0008 002B     		cmp	r3, #0
 6545 000a 49D1     		bne	.L532
 6546              		.loc 1 2077 0
 6547 000c F0B5     		push	{r4, r5, r6, r7, lr}
 6548              		.cfi_def_cfa_offset 20
 6549              		.cfi_offset 4, -20
 6550              		.cfi_offset 5, -16
 6551              		.cfi_offset 6, -12
 6552              		.cfi_offset 7, -8
 6553              		.cfi_offset 14, -4
 6554 000e DFF89CE0 		ldr	lr, .L541+4
 6555 0012 89B0     		sub	sp, sp, #36
ARM GAS  C:\Users\euanm\AppData\Local\Temp\ccjmNLkj.s 			page 116


 6556              		.cfi_def_cfa_offset 56
 6557 0014 03F0FF06 		and	r6, r3, #255
 6558              	.LBB194:
 6559              	.LBB195:
 6560              	.LBB196:
 6561              		.loc 1 2088 0
 6562 0018 F446     		mov	ip, lr
 6563              	.L527:
 6564              	.LVL485:
