ARM GAS  C:\Users\euanm\AppData\Local\Temp\ccCsOkpq.s 			page 1


   1              		.syntax unified
   2              		.cpu cortex-m4
   3              		.eabi_attribute 27, 1
   4              		.eabi_attribute 28, 1
   5              		.fpu fpv4-sp-d16
   6              		.eabi_attribute 20, 1
   7              		.eabi_attribute 21, 1
   8              		.eabi_attribute 23, 3
   9              		.eabi_attribute 24, 1
  10              		.eabi_attribute 25, 1
  11              		.eabi_attribute 26, 1
  12              		.eabi_attribute 30, 2
  13              		.eabi_attribute 34, 1
  14              		.eabi_attribute 18, 4
  15              		.thumb
  16              		.syntax unified
  17              		.file	"nrf_driver.c"
  18              		.text
  19              	.Ltext0:
  20              		.cfi_sections	.debug_frame
  21              		.section	.text.tx_thread,"ax",%progbits
  22              		.align	2
  23              		.p2align 4,,15
  24              		.thumb
  25              		.thumb_func
  26              		.type	tx_thread, %function
  27              	tx_thread:
  28              	.LFB221:
  29              		.file 1 "nrf/nrf_driver.c"
  30              		.loc 1 78 0
  31              		.cfi_startproc
  32              		@ args = 0, pretend = 0, frame = 8
  33              		@ frame_needed = 0, uses_anonymous_args = 0
  34              	.LVL0:
  35 0000 F0B5     		push	{r4, r5, r6, r7, lr}
  36              		.cfi_def_cfa_offset 20
  37              		.cfi_offset 4, -20
  38              		.cfi_offset 5, -16
  39              		.cfi_offset 6, -12
  40              		.cfi_offset 7, -8
  41              		.cfi_offset 14, -4
  42              	.LBB28:
  43              	.LBB29:
  44              		.file 2 "ChibiOS_3.0.2/os/rt/include/chregistry.h"
  45              		.loc 2 135 0
  46 0002 0F4B     		ldr	r3, .L7
  47 0004 0F4A     		ldr	r2, .L7+4
  48 0006 9B69     		ldr	r3, [r3, #24]
  49 0008 0F4C     		ldr	r4, .L7+8
  50 000a 104F     		ldr	r7, .L7+12
  51 000c 9A61     		str	r2, [r3, #24]
  52              	.LBE29:
  53              	.LBE28:
  54              		.loc 1 78 0
  55 000e 83B0     		sub	sp, sp, #12
  56              		.cfi_def_cfa_offset 32
  57              	.LBB30:
ARM GAS  C:\Users\euanm\AppData\Local\Temp\ccCsOkpq.s 			page 2


  58              		.loc 1 89 0
  59 0010 0226     		movs	r6, #2
  60              		.loc 1 91 0
  61 0012 0025     		movs	r5, #0
  62 0014 02E0     		b	.L4
  63              	.LVL1:
  64              	.L2:
  65              	.LBE30:
  66              		.loc 1 94 0
  67 0016 0A20     		movs	r0, #10
  68 0018 FFF7FEFF 		bl	chThdSleep
  69              	.LVL2:
  70              	.L4:
  71              		.loc 1 84 0
  72 001c 2368     		ldr	r3, [r4]
  73 001e 0133     		adds	r3, r3, #1
  74              		.loc 1 86 0
  75 0020 312B     		cmp	r3, #49
  76              		.loc 1 84 0
  77 0022 2360     		str	r3, [r4]
  78              		.loc 1 86 0
  79 0024 F7DD     		ble	.L2
  80              	.LVL3:
  81              	.LBB35:
  82              	.LBB31:
  83              	.LBB32:
  84              		.loc 1 69 0
  85 0026 0121     		movs	r1, #1
  86 0028 01A8     		add	r0, sp, #4
  87              	.LBE32:
  88              	.LBE31:
  89              		.loc 1 89 0
  90 002a 8DF80460 		strb	r6, [sp, #4]
  91              	.LVL4:
  92              	.LBB34:
  93              	.LBB33:
  94              		.loc 1 69 0
  95 002e FFF7FEFF 		bl	rfhelp_send_data_crc
  96              	.LVL5:
  97              		.loc 1 71 0
  98 0032 10B9     		cbnz	r0, .L3
  99              		.loc 1 72 0
 100 0034 4FF4FA73 		mov	r3, #500
 101 0038 3B60     		str	r3, [r7]
 102              	.L3:
 103              	.LBE33:
 104              	.LBE34:
 105              		.loc 1 91 0
 106 003a 2560     		str	r5, [r4]
 107 003c EBE7     		b	.L2
 108              	.L8:
 109 003e 00BF     		.align	2
 110              	.L7:
 111 0040 00000000 		.word	ch
 112 0044 00000000 		.word	.LC0
 113 0048 00000000 		.word	.LANCHOR0
 114 004c 00000000 		.word	.LANCHOR1
ARM GAS  C:\Users\euanm\AppData\Local\Temp\ccCsOkpq.s 			page 3


 115              	.LBE35:
 116              		.cfi_endproc
 117              	.LFE221:
 118              		.size	tx_thread, .-tx_thread
 119              		.section	.text.nrf_driver_send_buffer,"ax",%progbits
 120              		.align	2
 121              		.p2align 4,,15
 122              		.global	nrf_driver_send_buffer
 123              		.thumb
 124              		.thumb_func
 125              		.type	nrf_driver_send_buffer, %function
 126              	nrf_driver_send_buffer:
 127              	.LFB223:
 128              		.loc 1 222 0
 129              		.cfi_startproc
 130              		@ args = 0, pretend = 0, frame = 40
 131              		@ frame_needed = 0, uses_anonymous_args = 0
 132              	.LVL6:
 133 0000 2DE9F04F 		push	{r4, r5, r6, r7, r8, r9, r10, fp, lr}
 134              		.cfi_def_cfa_offset 36
 135              		.cfi_offset 4, -36
 136              		.cfi_offset 5, -32
 137              		.cfi_offset 6, -28
 138              		.cfi_offset 7, -24
 139              		.cfi_offset 8, -20
 140              		.cfi_offset 9, -16
 141              		.cfi_offset 10, -12
 142              		.cfi_offset 11, -8
 143              		.cfi_offset 14, -4
 144              		.loc 1 225 0
 145 0004 1829     		cmp	r1, #24
 146              		.loc 1 222 0
 147 0006 8BB0     		sub	sp, sp, #44
 148              		.cfi_def_cfa_offset 80
 149              		.loc 1 222 0
 150 0008 8946     		mov	r9, r1
 151 000a 8346     		mov	fp, r0
 152              		.loc 1 225 0
 153 000c 40F2AC80 		bls	.L33
 154              	.LVL7:
 155              	.LBB36:
 156              		.loc 1 234 0
 157 0010 0027     		movs	r7, #0
 158 0012 DFF8A081 		ldr	r8, .L35+4
 159              		.loc 1 233 0
 160 0016 3C46     		mov	r4, r7
 161              		.loc 1 234 0
 162 0018 A1F11406 		sub	r6, r1, #20
 163              	.LVL8:
 164 001c 0546     		mov	r5, r0
 165              	.LBB37:
 166              	.LBB38:
 167              		.loc 1 244 0
 168 001e 4FF0030A 		mov	r10, #3
 169              	.LVL9:
 170              	.L13:
 171              		.loc 1 241 0
ARM GAS  C:\Users\euanm\AppData\Local\Temp\ccCsOkpq.s 			page 4


 172 0022 1734     		adds	r4, r4, #23
 173              	.LVL10:
 174              		.loc 1 245 0
 175 0024 FBB2     		uxtb	r3, r7
 176              		.loc 1 247 0
 177 0026 A642     		cmp	r6, r4
 178              		.loc 1 244 0
 179 0028 8DF80CA0 		strb	r10, [sp, #12]
 180              		.loc 1 245 0
 181 002c 8DF80D30 		strb	r3, [sp, #13]
 182              		.loc 1 247 0
 183 0030 C0F0B280 		bcc	.L15
 184              		.loc 1 248 0
 185 0034 2B68     		ldr	r3, [r5]	@ unaligned
 186 0036 6A68     		ldr	r2, [r5, #4]	@ unaligned
 187 0038 CDF80E30 		str	r3, [sp, #14]	@ unaligned
 188 003c AB68     		ldr	r3, [r5, #8]	@ unaligned
 189 003e CDF81220 		str	r2, [sp, #18]	@ unaligned
 190 0042 CDF81630 		str	r3, [sp, #22]	@ unaligned
 191 0046 EA68     		ldr	r2, [r5, #12]	@ unaligned
 192 0048 2B69     		ldr	r3, [r5, #16]	@ unaligned
 193 004a CDF81A20 		str	r2, [sp, #26]	@ unaligned
 194 004e CDF81E30 		str	r3, [sp, #30]	@ unaligned
 195 0052 AA8A     		ldrh	r2, [r5, #20]	@ unaligned
 196 0054 AB7D     		ldrb	r3, [r5, #22]	@ zero_extendqisi2
 197 0056 ADF82220 		strh	r2, [sp, #34]	@ unaligned
 198 005a 8DF82430 		strb	r3, [sp, #36]
 199 005e 1921     		movs	r1, #25
 200              	.LVL11:
 201              	.L16:
 202              	.LBB39:
 203              	.LBB40:
 204              		.loc 1 69 0 discriminator 2
 205 0060 03A8     		add	r0, sp, #12
 206              	.LVL12:
 207 0062 FFF7FEFF 		bl	rfhelp_send_data_crc
 208              	.LVL13:
 209 0066 1737     		adds	r7, r7, #23
 210              	.LBE40:
 211              	.LBE39:
 212              		.loc 1 255 0 discriminator 2
 213 0068 0023     		movs	r3, #0
 214 006a 1735     		adds	r5, r5, #23
 215              	.LBB42:
 216              	.LBB41:
 217              		.loc 1 71 0 discriminator 2
 218 006c 18B9     		cbnz	r0, .L17
 219              		.loc 1 72 0
 220 006e 5049     		ldr	r1, .L35
 221 0070 4FF4FA72 		mov	r2, #500
 222 0074 0A60     		str	r2, [r1]
 223              	.L17:
 224              	.LBE41:
 225              	.LBE42:
 226              	.LBE38:
 227              		.loc 1 236 0
 228 0076 A642     		cmp	r6, r4
ARM GAS  C:\Users\euanm\AppData\Local\Temp\ccCsOkpq.s 			page 5


 229              	.LBB43:
 230              		.loc 1 255 0
 231 0078 C8F80030 		str	r3, [r8]
 232              	.LBE43:
 233              		.loc 1 236 0
 234 007c 42D9     		bls	.L24
 235              	.LBB44:
 236              		.loc 1 237 0
 237 007e B4F58A7F 		cmp	r4, #276
 238 0082 CED1     		bne	.L13
 239 0084 A6F11403 		sub	r3, r6, #20
 240 0088 5FFA83FA 		uxtb	r10, r3
 241 008c 0BF58A75 		add	r5, fp, #276
 242              	.LBE44:
 243              	.LBE37:
 244              	.LBB46:
 245              	.LBB47:
 246              		.loc 1 260 0
 247 0090 0427     		movs	r7, #4
 248 0092 24E0     		b	.L23
 249              	.LVL14:
 250              	.L34:
 251              		.loc 1 265 0
 252 0094 2B68     		ldr	r3, [r5]	@ unaligned
 253 0096 6A68     		ldr	r2, [r5, #4]	@ unaligned
 254 0098 CDF80F30 		str	r3, [sp, #15]	@ unaligned
 255 009c CDF81320 		str	r2, [sp, #19]	@ unaligned
 256 00a0 AB68     		ldr	r3, [r5, #8]	@ unaligned
 257 00a2 EA68     		ldr	r2, [r5, #12]	@ unaligned
 258 00a4 CDF81730 		str	r3, [sp, #23]	@ unaligned
 259 00a8 CDF81B20 		str	r2, [sp, #27]	@ unaligned
 260 00ac 2B69     		ldr	r3, [r5, #16]	@ unaligned
 261 00ae AA8A     		ldrh	r2, [r5, #20]	@ unaligned
 262 00b0 CDF81F30 		str	r3, [sp, #31]	@ unaligned
 263 00b4 ADF82320 		strh	r2, [sp, #35]	@ unaligned
 264 00b8 1921     		movs	r1, #25
 265              	.L21:
 266              	.LVL15:
 267              	.LBB48:
 268              	.LBB49:
 269              		.loc 1 69 0 discriminator 2
 270 00ba 03A8     		add	r0, sp, #12
 271              	.LVL16:
 272 00bc FFF7FEFF 		bl	rfhelp_send_data_crc
 273              	.LVL17:
 274 00c0 AAF1160A 		sub	r10, r10, #22
 275              	.LBE49:
 276              	.LBE48:
 277              		.loc 1 272 0 discriminator 2
 278 00c4 0023     		movs	r3, #0
 279 00c6 1635     		adds	r5, r5, #22
 280 00c8 5FFA8AFA 		uxtb	r10, r10
 281              	.LBB51:
 282              	.LBB50:
 283              		.loc 1 71 0 discriminator 2
 284 00cc 18B9     		cbnz	r0, .L22
 285              		.loc 1 72 0
ARM GAS  C:\Users\euanm\AppData\Local\Temp\ccCsOkpq.s 			page 6


 286 00ce 3849     		ldr	r1, .L35
 287 00d0 4FF4FA72 		mov	r2, #500
 288 00d4 0A60     		str	r2, [r1]
 289              	.L22:
 290              	.LBE50:
 291              	.LBE51:
 292              	.LBE47:
 293              		.loc 1 258 0
 294 00d6 A642     		cmp	r6, r4
 295              	.LBB52:
 296              		.loc 1 272 0
 297 00d8 C8F80030 		str	r3, [r8]
 298              	.LVL18:
 299              	.LBE52:
 300              		.loc 1 258 0
 301 00dc 12D9     		bls	.L24
 302              	.LVL19:
 303              	.L23:
 304              	.LBB53:
 305              		.loc 1 261 0
 306 00de 230A     		lsrs	r3, r4, #8
 307              		.loc 1 262 0
 308 00e0 8DF80E40 		strb	r4, [sp, #14]
 309              		.loc 1 264 0
 310 00e4 1634     		adds	r4, r4, #22
 311              	.LVL20:
 312 00e6 A642     		cmp	r6, r4
 313              		.loc 1 260 0
 314 00e8 8DF80C70 		strb	r7, [sp, #12]
 315              		.loc 1 261 0
 316 00ec 8DF80D30 		strb	r3, [sp, #13]
 317              		.loc 1 264 0
 318 00f0 D0D2     		bcs	.L34
 319              		.loc 1 268 0
 320 00f2 2946     		mov	r1, r5
 321 00f4 5246     		mov	r2, r10
 322 00f6 0DF10F00 		add	r0, sp, #15
 323 00fa FFF7FEFF 		bl	memcpy
 324              	.LVL21:
 325 00fe 0AF10301 		add	r1, r10, #3
 326 0102 DAE7     		b	.L21
 327              	.LVL22:
 328              	.L24:
 329              	.LBE53:
 330              	.LBE46:
 331              		.loc 1 276 0
 332 0104 0522     		movs	r2, #5
 333              		.loc 1 277 0
 334 0106 4FEA1923 		lsr	r3, r9, #8
 335              		.loc 1 279 0
 336 010a 4946     		mov	r1, r9
 337 010c 5846     		mov	r0, fp
 338              		.loc 1 276 0
 339 010e 8DF80C20 		strb	r2, [sp, #12]
 340              	.LVL23:
 341              		.loc 1 277 0
 342 0112 8DF80D30 		strb	r3, [sp, #13]
ARM GAS  C:\Users\euanm\AppData\Local\Temp\ccCsOkpq.s 			page 7


 343              	.LVL24:
 344              		.loc 1 278 0
 345 0116 8DF80E90 		strb	r9, [sp, #14]
 346              		.loc 1 279 0
 347 011a FFF7FEFF 		bl	crc16
 348              	.LVL25:
 349              		.loc 1 282 0
 350 011e 5E44     		add	r6, r6, fp
 351              	.LVL26:
 352              		.loc 1 279 0
 353 0120 0246     		mov	r2, r0
 354              	.LVL27:
 355              		.loc 1 280 0
 356 0122 010A     		lsrs	r1, r0, #8
 357              		.loc 1 282 0
 358 0124 3368     		ldr	r3, [r6]	@ unaligned
 359 0126 CDF81130 		str	r3, [sp, #17]	@ unaligned
 360 012a 7568     		ldr	r5, [r6, #4]	@ unaligned
 361 012c B468     		ldr	r4, [r6, #8]	@ unaligned
 362              		.loc 1 281 0
 363 012e 8DF81020 		strb	r2, [sp, #16]
 364              		.loc 1 282 0
 365 0132 3369     		ldr	r3, [r6, #16]	@ unaligned
 366 0134 F268     		ldr	r2, [r6, #12]	@ unaligned
 367              		.loc 1 280 0
 368 0136 8DF80F10 		strb	r1, [sp, #15]
 369              	.LVL28:
 370              	.LBB54:
 371              	.LBB55:
 372              		.loc 1 69 0
 373 013a 03A8     		add	r0, sp, #12
 374              	.LVL29:
 375 013c 1921     		movs	r1, #25
 376              	.LBE55:
 377              	.LBE54:
 378              		.loc 1 282 0
 379 013e CDF81550 		str	r5, [sp, #21]	@ unaligned
 380 0142 CDF81940 		str	r4, [sp, #25]	@ unaligned
 381 0146 CDF81D20 		str	r2, [sp, #29]	@ unaligned
 382 014a CDF82130 		str	r3, [sp, #33]	@ unaligned
 383              	.LVL30:
 384              	.LBB57:
 385              	.LBB56:
 386              		.loc 1 69 0
 387 014e FFF7FEFF 		bl	rfhelp_send_data_crc
 388              	.LVL31:
 389              		.loc 1 71 0
 390 0152 18B9     		cbnz	r0, .L12
 391              	.LBE56:
 392              	.LBE57:
 393              	.LBE36:
 394              	.LBB59:
 395              	.LBB60:
 396              	.LBB61:
 397              		.loc 1 72 0
 398 0154 164B     		ldr	r3, .L35
 399 0156 4FF4FA72 		mov	r2, #500
ARM GAS  C:\Users\euanm\AppData\Local\Temp\ccCsOkpq.s 			page 8


 400 015a 1A60     		str	r2, [r3]
 401              	.LVL32:
 402              	.L12:
 403              	.LBE61:
 404              	.LBE60:
 405              		.loc 1 231 0
 406 015c 0023     		movs	r3, #0
 407 015e C8F80030 		str	r3, [r8]
 408              	.LBE59:
 409              		.loc 1 288 0
 410 0162 0BB0     		add	sp, sp, #44
 411              		.cfi_remember_state
 412              		.cfi_def_cfa_offset 36
 413              		@ sp needed
 414 0164 BDE8F08F 		pop	{r4, r5, r6, r7, r8, r9, r10, fp, pc}
 415              	.LVL33:
 416              	.L33:
 417              		.cfi_restore_state
 418              	.LBB64:
 419              		.loc 1 227 0
 420 0168 0AAC     		add	r4, sp, #40
 421 016a 0623     		movs	r3, #6
 422 016c 04F81C3D 		strb	r3, [r4, #-28]!
 423              		.loc 1 228 0
 424 0170 0146     		mov	r1, r0
 425              	.LVL34:
 426 0172 4A46     		mov	r2, r9
 427 0174 0DF10D00 		add	r0, sp, #13
 428              	.LVL35:
 429 0178 FFF7FEFF 		bl	memcpy
 430              	.LVL36:
 431              	.LBB63:
 432              	.LBB62:
 433              		.loc 1 69 0
 434 017c 2046     		mov	r0, r4
 435 017e 09F10101 		add	r1, r9, #1
 436              	.LVL37:
 437 0182 FFF7FEFF 		bl	rfhelp_send_data_crc
 438              	.LVL38:
 439 0186 DFF82C80 		ldr	r8, .L35+4
 440              		.loc 1 71 0
 441 018a 0028     		cmp	r0, #0
 442 018c E6D1     		bne	.L12
 443              		.loc 1 72 0
 444 018e 084B     		ldr	r3, .L35
 445 0190 4FF4FA72 		mov	r2, #500
 446 0194 1A60     		str	r2, [r3]
 447 0196 E1E7     		b	.L12
 448              	.LVL39:
 449              	.L15:
 450 0198 F31A     		subs	r3, r6, r3
 451 019a DBB2     		uxtb	r3, r3
 452              	.LVL40:
 453              	.LBE62:
 454              	.LBE63:
 455              	.LBE64:
 456              	.LBB65:
ARM GAS  C:\Users\euanm\AppData\Local\Temp\ccCsOkpq.s 			page 9


 457              	.LBB58:
 458              	.LBB45:
 459              		.loc 1 251 0
 460 019c 1A46     		mov	r2, r3
 461 019e 2946     		mov	r1, r5
 462 01a0 0DF10E00 		add	r0, sp, #14
 463 01a4 0193     		str	r3, [sp, #4]
 464 01a6 FFF7FEFF 		bl	memcpy
 465              	.LVL41:
 466 01aa 019B     		ldr	r3, [sp, #4]
 467 01ac 991C     		adds	r1, r3, #2
 468 01ae 57E7     		b	.L16
 469              	.L36:
 470              		.align	2
 471              	.L35:
 472 01b0 00000000 		.word	.LANCHOR1
 473 01b4 00000000 		.word	.LANCHOR0
 474              	.LBE45:
 475              	.LBE58:
 476              	.LBE65:
 477              		.cfi_endproc
 478              	.LFE223:
 479              		.size	nrf_driver_send_buffer, .-nrf_driver_send_buffer
 480              		.section	.text.rx_thread,"ax",%progbits
 481              		.align	2
 482              		.p2align 4,,15
 483              		.thumb
 484              		.thumb_func
 485              		.type	rx_thread, %function
 486              	rx_thread:
 487              	.LFB222:
 488              		.loc 1 99 0
 489              		.cfi_startproc
 490              		@ args = 0, pretend = 0, frame = 80
 491              		@ frame_needed = 0, uses_anonymous_args = 0
 492              	.LVL42:
 493 0000 2DE9F04F 		push	{r4, r5, r6, r7, r8, r9, r10, fp, lr}
 494              		.cfi_def_cfa_offset 36
 495              		.cfi_offset 4, -36
 496              		.cfi_offset 5, -32
 497              		.cfi_offset 6, -28
 498              		.cfi_offset 7, -24
 499              		.cfi_offset 8, -20
 500              		.cfi_offset 9, -16
 501              		.cfi_offset 10, -12
 502              		.cfi_offset 11, -8
 503              		.cfi_offset 14, -4
 504              	.LBB66:
 505              	.LBB67:
 506              		.loc 2 135 0
 507 0004 684B     		ldr	r3, .L57
 508 0006 694D     		ldr	r5, .L57+4
 509 0008 9B69     		ldr	r3, [r3, #24]
 510 000a DFF8B881 		ldr	r8, .L57+28
 511 000e 684A     		ldr	r2, .L57+8
 512 0010 684E     		ldr	r6, .L57+12
 513 0012 DFF8A8B1 		ldr	fp, .L57+20
ARM GAS  C:\Users\euanm\AppData\Local\Temp\ccCsOkpq.s 			page 10


 514              	.LBE67:
 515              	.LBE66:
 516              		.loc 1 99 0
 517 0016 2DED028B 		vpush.64	{d8}
 518              		.cfi_def_cfa_offset 44
 519              		.cfi_offset 80, -44
 520              		.cfi_offset 81, -40
 521              	.LBB69:
 522              	.LBB70:
 523              	.LBB71:
 524              		.loc 1 135 0
 525 001a 9FED678A 		vldr.32	s16, .L57+16
 526              	.LBE71:
 527              	.LBE70:
 528              	.LBE69:
 529              	.LBB80:
 530              	.LBB68:
 531              		.loc 2 135 0
 532 001e 9A61     		str	r2, [r3, #24]
 533              	.LBE68:
 534              	.LBE80:
 535              		.loc 1 99 0
 536 0020 95B0     		sub	sp, sp, #84
 537              		.cfi_def_cfa_offset 128
 538              	.LBB81:
 539              		.loc 1 210 0
 540 0022 AA46     		mov	r10, r5
 541 0024 C146     		mov	r9, r8
 542              	.LVL43:
 543              	.L38:
 544              	.LBB77:
 545              		.loc 1 110 0
 546 0026 04AA     		add	r2, sp, #16
 547 0028 03A9     		add	r1, sp, #12
 548 002a 0CA8     		add	r0, sp, #48
 549 002c FFF7FEFF 		bl	rfhelp_read_rx_data_crc
 550              	.LVL44:
 551              		.loc 1 113 0
 552 0030 0023     		movs	r3, #0
 553              		.loc 1 117 0
 554 0032 041E     		subs	r4, r0, #0
 555              		.loc 1 113 0
 556 0034 0593     		str	r3, [sp, #20]
 557              		.loc 1 117 0
 558 0036 55DB     		blt	.L39
 559              	.LBB74:
 560              		.loc 1 118 0
 561 0038 9DF83030 		ldrb	r3, [sp, #48]	@ zero_extendqisi2
 562              	.LVL45:
 563              		.loc 1 120 0
 564 003c 4FF4FA72 		mov	r2, #500
 565              		.loc 1 122 0
 566 0040 013B     		subs	r3, r3, #1
 567              	.LVL46:
 568              		.loc 1 120 0
 569 0042 2A60     		str	r2, [r5]
 570              		.loc 1 122 0
ARM GAS  C:\Users\euanm\AppData\Local\Temp\ccCsOkpq.s 			page 11


 571 0044 052B     		cmp	r3, #5
 572 0046 14D8     		bhi	.L40
 573 0048 DFE803F0 		tbb	[pc, r3]
 574              	.L42:
 575 004c 67       		.byte	(.L41-.L42)/2
 576 004d 13       		.byte	(.L40-.L42)/2
 577 004e 5D       		.byte	(.L43-.L42)/2
 578 004f 03       		.byte	(.L44-.L42)/2
 579 0050 19       		.byte	(.L45-.L42)/2
 580 0051 96       		.byte	(.L46-.L42)/2
 581              		.p2align 1
 582              	.L44:
 583              	.LBB72:
 584              		.loc 1 150 0
 585 0052 9DF83100 		ldrb	r0, [sp, #49]	@ zero_extendqisi2
 586              	.LVL47:
 587              		.loc 1 151 0
 588 0056 9DF83230 		ldrb	r3, [sp, #50]	@ zero_extendqisi2
 589              	.LVL48:
 590 005a 43EA0020 		orr	r0, r3, r0, lsl #8
 591              	.LVL49:
 592              		.loc 1 152 0
 593 005e B0F5806F 		cmp	r0, #1024
 594 0062 06DA     		bge	.L40
 595              		.loc 1 153 0
 596 0064 039A     		ldr	r2, [sp, #12]
 597 0066 5844     		add	r0, r0, fp
 598              	.LVL50:
 599 0068 033A     		subs	r2, r2, #3
 600 006a 0DF13301 		add	r1, sp, #51
 601 006e FFF7FEFF 		bl	memcpy
 602              	.LVL51:
 603              	.L40:
 604              	.LBE72:
 605              	.LBE74:
 606              		.loc 1 199 0
 607 0072 002C     		cmp	r4, #0
 608 0074 36D0     		beq	.L39
 609              	.L56:
 610              		.loc 1 203 0
 611 0076 0A20     		movs	r0, #10
 612 0078 FFF7FEFF 		bl	chThdSleep
 613              	.LVL52:
 614              	.LBE77:
 615              		.loc 1 205 0
 616 007c D3E7     		b	.L38
 617              	.LVL53:
 618              	.L45:
 619              	.LBB78:
 620              	.LBB75:
 621              	.LBB73:
 622              		.loc 1 161 0
 623 007e 9DF83230 		ldrb	r3, [sp, #50]	@ zero_extendqisi2
 624              	.LVL54:
 625              		.loc 1 160 0
 626 0082 9DF83170 		ldrb	r7, [sp, #49]	@ zero_extendqisi2
 627              	.LVL55:
ARM GAS  C:\Users\euanm\AppData\Local\Temp\ccCsOkpq.s 			page 12


 628              		.loc 1 161 0
 629 0086 43EA0727 		orr	r7, r3, r7, lsl #8
 630              	.LVL56:
 631              		.loc 1 163 0
 632 008a B7F5806F 		cmp	r7, #1024
 633              		.loc 1 161 0
 634 008e 4FF00303 		mov	r3, #3
 635 0092 0593     		str	r3, [sp, #20]
 636              		.loc 1 163 0
 637 0094 EDD8     		bhi	.L40
 638              	.LVL57:
 639              		.loc 1 170 0
 640 0096 039A     		ldr	r2, [sp, #12]
 641              		.loc 1 167 0
 642 0098 9DF83330 		ldrb	r3, [sp, #51]	@ zero_extendqisi2
 643              		.loc 1 168 0
 644 009c 9DF83410 		ldrb	r1, [sp, #52]	@ zero_extendqisi2
 645              		.loc 1 167 0
 646 00a0 0093     		str	r3, [sp]
 647              	.LVL58:
 648              		.loc 1 170 0
 649 00a2 053A     		subs	r2, r2, #5
 650 00a4 B81A     		subs	r0, r7, r2
 651              	.LVL59:
 652 00a6 0DF1350E 		add	lr, sp, #53
 653              		.loc 1 168 0
 654 00aa 0523     		movs	r3, #5
 655 00ac 0191     		str	r1, [sp, #4]
 656              	.LVL60:
 657              		.loc 1 170 0
 658 00ae 5844     		add	r0, r0, fp
 659 00b0 7146     		mov	r1, lr
 660              		.loc 1 168 0
 661 00b2 0593     		str	r3, [sp, #20]
 662              		.loc 1 170 0
 663 00b4 FFF7FEFF 		bl	memcpy
 664              	.LVL61:
 665              		.loc 1 172 0
 666 00b8 3946     		mov	r1, r7
 667 00ba 4048     		ldr	r0, .L57+20
 668 00bc FFF7FEFF 		bl	crc16
 669              	.LVL62:
 670 00c0 0199     		ldr	r1, [sp, #4]
 671 00c2 009B     		ldr	r3, [sp]
 672 00c4 41EA0323 		orr	r3, r1, r3, lsl #8
 673 00c8 9842     		cmp	r0, r3
 674 00ca D2D1     		bne	.L40
 675              		.loc 1 177 0
 676 00cc 1420     		movs	r0, #20
 677 00ce FFF7FEFF 		bl	chThdSleep
 678              	.LVL63:
 679              		.loc 1 179 0
 680 00d2 3B48     		ldr	r0, .L57+24
 681 00d4 FFF7FEFF 		bl	commands_set_send_func
 682              	.LVL64:
 683              		.loc 1 180 0
 684 00d8 3946     		mov	r1, r7
ARM GAS  C:\Users\euanm\AppData\Local\Temp\ccCsOkpq.s 			page 13


 685 00da 3848     		ldr	r0, .L57+20
 686 00dc FFF7FEFF 		bl	commands_process_packet
 687              	.LVL65:
 688              	.LBE73:
 689              	.LBE75:
 690              		.loc 1 199 0
 691 00e0 002C     		cmp	r4, #0
 692 00e2 C8D1     		bne	.L56
 693              	.LVL66:
 694              	.L39:
 695              	.LBE78:
 696              		.loc 1 207 0
 697 00e4 3220     		movs	r0, #50
 698 00e6 FFF7FEFF 		bl	chThdSleep
 699              	.LVL67:
 700              		.loc 1 210 0
 701 00ea 2B68     		ldr	r3, [r5]
 702 00ec 002B     		cmp	r3, #0
 703 00ee 50DD     		ble	.L50
 704              		.loc 1 210 0 is_stmt 0 discriminator 1
 705 00f0 D8F80020 		ldr	r2, [r8]
 706 00f4 002A     		cmp	r2, #0
 707 00f6 4CDD     		ble	.L50
 708              		.loc 1 211 0 is_stmt 1
 709 00f8 053B     		subs	r3, r3, #5
 710              		.loc 1 212 0
 711 00fa 053A     		subs	r2, r2, #5
 712              		.loc 1 211 0
 713 00fc CAF80030 		str	r3, [r10]
 714              		.loc 1 212 0
 715 0100 C9F80020 		str	r2, [r9]
 716 0104 8FE7     		b	.L38
 717              	.LVL68:
 718              	.L43:
 719              	.LBB79:
 720              	.LBB76:
 721              		.loc 1 146 0
 722 0106 9DF83100 		ldrb	r0, [sp, #49]	@ zero_extendqisi2
 723              	.LVL69:
 724 010a 039A     		ldr	r2, [sp, #12]
 725 010c 5844     		add	r0, r0, fp
 726 010e 023A     		subs	r2, r2, #2
 727 0110 0DF13201 		add	r1, sp, #50
 728 0114 FFF7FEFF 		bl	memcpy
 729              	.LVL70:
 730              		.loc 1 147 0
 731 0118 ABE7     		b	.L40
 732              	.LVL71:
 733              	.L41:
 734              		.loc 1 131 0
 735 011a 9DF83330 		ldrb	r3, [sp, #51]	@ zero_extendqisi2
 736              	.LVL72:
 737              		.loc 1 129 0
 738 011e 9DF83120 		ldrb	r2, [sp, #49]	@ zero_extendqisi2
 739              		.loc 1 130 0
 740 0122 9DF83200 		ldrb	r0, [sp, #50]	@ zero_extendqisi2
 741              	.LVL73:
ARM GAS  C:\Users\euanm\AppData\Local\Temp\ccCsOkpq.s 			page 14


 742              		.loc 1 129 0
 743 0126 3270     		strb	r2, [r6]
 744              		.loc 1 132 0
 745 0128 03F00101 		and	r1, r3, #1
 746              		.loc 1 133 0
 747 012c C3F34002 		ubfx	r2, r3, #1, #1
 748              		.loc 1 132 0
 749 0130 B170     		strb	r1, [r6, #2]
 750              		.loc 1 134 0
 751 0132 C3F38003 		ubfx	r3, r3, #2, #1
 752              	.LVL74:
 753              		.loc 1 133 0
 754 0136 F270     		strb	r2, [r6, #3]
 755              		.loc 1 135 0
 756 0138 05A9     		add	r1, sp, #20
 757              		.loc 1 131 0
 758 013a 0422     		movs	r2, #4
 759              		.loc 1 130 0
 760 013c 7070     		strb	r0, [r6, #1]
 761              		.loc 1 135 0
 762 013e 0CA8     		add	r0, sp, #48
 763              	.LVL75:
 764              		.loc 1 134 0
 765 0140 3371     		strb	r3, [r6, #4]
 766              		.loc 1 131 0
 767 0142 0592     		str	r2, [sp, #20]
 768              		.loc 1 135 0
 769 0144 FFF7FEFF 		bl	buffer_get_int16
 770              	.LVL76:
 771 0148 07EE900A 		vmov	s15, r0	@ int
 772 014c B8EEE77A 		vcvt.f32.s32	s14, s15
 773              		.loc 1 137 0
 774 0150 3378     		ldrb	r3, [r6]	@ zero_extendqisi2
 775              		.loc 1 138 0
 776 0152 7278     		ldrb	r2, [r6, #1]	@ zero_extendqisi2
 777 0154 0792     		str	r2, [sp, #28]
 778              		.loc 1 135 0
 779 0156 C7EE087A 		vdiv.f32	s15, s14, s16
 780              		.loc 1 137 0
 781 015a C3F1FF03 		rsb	r3, r3, #255
 782              		.loc 1 139 0
 783 015e B178     		ldrb	r1, [r6, #2]	@ zero_extendqisi2
 784              		.loc 1 140 0
 785 0160 F278     		ldrb	r2, [r6, #3]	@ zero_extendqisi2
 786              		.loc 1 137 0
 787 0162 0693     		str	r3, [sp, #24]
 788              		.loc 1 142 0
 789 0164 06A8     		add	r0, sp, #24
 790              		.loc 1 139 0
 791 0166 8DF82C10 		strb	r1, [sp, #44]
 792              		.loc 1 140 0
 793 016a 8DF82D20 		strb	r2, [sp, #45]
 794              		.loc 1 135 0
 795 016e C6ED027A 		vstr.32	s15, [r6, #8]
 796              		.loc 1 142 0
 797 0172 FFF7FEFF 		bl	app_nunchuk_update_output
 798              	.LVL77:
ARM GAS  C:\Users\euanm\AppData\Local\Temp\ccCsOkpq.s 			page 15


 799              		.loc 1 143 0
 800 0176 7CE7     		b	.L40
 801              	.LVL78:
 802              	.L46:
 803              		.loc 1 187 0
 804 0178 1420     		movs	r0, #20
 805              	.LVL79:
 806 017a FFF7FEFF 		bl	chThdSleep
 807              	.LVL80:
 808              		.loc 1 189 0
 809 017e 1048     		ldr	r0, .L57+24
 810 0180 FFF7FEFF 		bl	commands_set_send_func
 811              	.LVL81:
 812              		.loc 1 190 0
 813 0184 0399     		ldr	r1, [sp, #12]
 814 0186 0DF13100 		add	r0, sp, #49
 815 018a 0139     		subs	r1, r1, #1
 816 018c FFF7FEFF 		bl	commands_process_packet
 817              	.LVL82:
 818              		.loc 1 191 0
 819 0190 6FE7     		b	.L40
 820              	.L50:
 821              	.LBE76:
 822              	.LBE79:
 823              		.loc 1 214 0
 824 0192 FFF7FEFF 		bl	rfhelp_power_up
 825              	.LVL83:
 826              		.loc 1 215 0
 827 0196 FFF7FEFF 		bl	rfhelp_restart
 828              	.LVL84:
 829              		.loc 1 216 0
 830 019a 4FF4FA73 		mov	r3, #500
 831 019e 2B60     		str	r3, [r5]
 832              		.loc 1 217 0
 833 01a0 C8F80030 		str	r3, [r8]
 834              	.LBE81:
 835              		.loc 1 219 0
 836 01a4 3FE7     		b	.L38
 837              	.L58:
 838 01a6 00BF     		.align	2
 839              	.L57:
 840 01a8 00000000 		.word	ch
 841 01ac 00000000 		.word	.LANCHOR2
 842 01b0 08000000 		.word	.LC1
 843 01b4 00000000 		.word	.LANCHOR3
 844 01b8 00007A44 		.word	1148846080
 845 01bc 00000000 		.word	.LANCHOR4
 846 01c0 00000000 		.word	nrf_driver_send_buffer
 847 01c4 00000000 		.word	.LANCHOR1
 848              		.cfi_endproc
 849              	.LFE222:
 850              		.size	rx_thread, .-rx_thread
 851              		.section	.text.nrf_driver_init,"ax",%progbits
 852              		.align	2
 853              		.p2align 4,,15
 854              		.global	nrf_driver_init
 855              		.thumb
ARM GAS  C:\Users\euanm\AppData\Local\Temp\ccCsOkpq.s 			page 16


 856              		.thumb_func
 857              		.type	nrf_driver_init, %function
 858              	nrf_driver_init:
 859              	.LFB219:
 860              		.loc 1 57 0
 861              		.cfi_startproc
 862              		@ args = 0, pretend = 0, frame = 0
 863              		@ frame_needed = 0, uses_anonymous_args = 0
 864 0000 70B5     		push	{r4, r5, r6, lr}
 865              		.cfi_def_cfa_offset 16
 866              		.cfi_offset 4, -16
 867              		.cfi_offset 5, -12
 868              		.cfi_offset 6, -8
 869              		.cfi_offset 14, -4
 870 0002 82B0     		sub	sp, sp, #8
 871              		.cfi_def_cfa_offset 24
 872              		.loc 1 58 0
 873 0004 FFF7FEFF 		bl	rfhelp_init
 874              	.LVL85:
 875              		.loc 1 60 0
 876 0008 0C4A     		ldr	r2, .L61
 877              		.loc 1 61 0
 878 000a 0D4E     		ldr	r6, .L61+4
 879              		.loc 1 62 0
 880 000c 0D4D     		ldr	r5, .L61+8
 881              		.loc 1 64 0
 882 000e 0E4B     		ldr	r3, .L61+12
 883 0010 0E48     		ldr	r0, .L61+16
 884              		.loc 1 60 0
 885 0012 0024     		movs	r4, #0
 886              		.loc 1 64 0
 887 0014 0094     		str	r4, [sp]
 888 0016 40F69811 		movw	r1, #2456
 889              		.loc 1 60 0
 890 001a 1460     		str	r4, [r2]
 891              		.loc 1 64 0
 892 001c 3F22     		movs	r2, #63
 893              		.loc 1 61 0
 894 001e 3460     		str	r4, [r6]
 895              		.loc 1 62 0
 896 0020 2C60     		str	r4, [r5]
 897              		.loc 1 64 0
 898 0022 FFF7FEFF 		bl	chThdCreateStatic
 899              	.LVL86:
 900              		.loc 1 65 0
 901 0026 0094     		str	r4, [sp]
 902 0028 094B     		ldr	r3, .L61+20
 903 002a 0A48     		ldr	r0, .L61+24
 904 002c 3F22     		movs	r2, #63
 905 002e 4FF46671 		mov	r1, #920
 906 0032 FFF7FEFF 		bl	chThdCreateStatic
 907              	.LVL87:
 908              		.loc 1 66 0
 909 0036 02B0     		add	sp, sp, #8
 910              		.cfi_def_cfa_offset 16
 911              		@ sp needed
 912 0038 70BD     		pop	{r4, r5, r6, pc}
ARM GAS  C:\Users\euanm\AppData\Local\Temp\ccCsOkpq.s 			page 17


 913              	.L62:
 914 003a 00BF     		.align	2
 915              	.L61:
 916 003c 00000000 		.word	.LANCHOR0
 917 0040 00000000 		.word	.LANCHOR2
 918 0044 00000000 		.word	.LANCHOR1
 919 0048 00000000 		.word	rx_thread
 920 004c 00000000 		.word	.LANCHOR5
 921 0050 00000000 		.word	tx_thread
 922 0054 00000000 		.word	.LANCHOR6
 923              		.cfi_endproc
 924              	.LFE219:
 925              		.size	nrf_driver_init, .-nrf_driver_init
 926              		.section	.bss.nosend_cnt,"aw",%nobits
 927              		.align	2
 928              		.set	.LANCHOR0,. + 0
 929              		.type	nosend_cnt, %object
 930              		.size	nosend_cnt, 4
 931              	nosend_cnt:
 932 0000 00000000 		.space	4
 933              		.section	.bss.nrf_restart_tx_time,"aw",%nobits
 934              		.align	2
 935              		.set	.LANCHOR1,. + 0
 936              		.type	nrf_restart_tx_time, %object
 937              		.size	nrf_restart_tx_time, 4
 938              	nrf_restart_tx_time:
 939 0000 00000000 		.space	4
 940              		.section	.rodata.str1.4,"aMS",%progbits,1
 941              		.align	2
 942              	.LC0:
 943 0000 4E726620 		.ascii	"Nrf TX\000"
 943      545800
 944 0007 00       		.space	1
 945              	.LC1:
 946 0008 4E726620 		.ascii	"Nrf RX\000"
 946      525800
 947              		.section	.bss.rx_thread_wa,"aw",%nobits
 948              		.align	3
 949              		.set	.LANCHOR5,. + 0
 950              		.type	rx_thread_wa, %object
 951              		.size	rx_thread_wa, 2456
 952              	rx_thread_wa:
 953 0000 00000000 		.space	2456
 953      00000000 
 953      00000000 
 953      00000000 
 953      00000000 
 954              		.section	.bss.nrf_restart_rx_time,"aw",%nobits
 955              		.align	2
 956              		.set	.LANCHOR2,. + 0
 957              		.type	nrf_restart_rx_time, %object
 958              		.size	nrf_restart_rx_time, 4
 959              	nrf_restart_rx_time:
 960 0000 00000000 		.space	4
 961              		.section	.bss.rx_buffer,"aw",%nobits
 962              		.align	2
 963              		.set	.LANCHOR4,. + 0
ARM GAS  C:\Users\euanm\AppData\Local\Temp\ccCsOkpq.s 			page 18


 964              		.type	rx_buffer, %object
 965              		.size	rx_buffer, 1024
 966              	rx_buffer:
 967 0000 00000000 		.space	1024
 967      00000000 
 967      00000000 
 967      00000000 
 967      00000000 
 968              		.section	.bss.mstate,"aw",%nobits
 969              		.align	2
 970              		.set	.LANCHOR3,. + 0
 971              		.type	mstate, %object
 972              		.size	mstate, 12
 973              	mstate:
 974 0000 00000000 		.space	12
 974      00000000 
 974      00000000 
 975              		.section	.bss.tx_thread_wa,"aw",%nobits
 976              		.align	3
 977              		.set	.LANCHOR6,. + 0
 978              		.type	tx_thread_wa, %object
 979              		.size	tx_thread_wa, 920
 980              	tx_thread_wa:
 981 0000 00000000 		.space	920
 981      00000000 
 981      00000000 
 981      00000000 
 981      00000000 
 982              		.text
 983              	.Letext0:
 984              		.file 3 "c:\\program files (x86)\\gnu tools arm embedded\\5.4 2016q3\\lib\\gcc\\arm-none-eabi\\5.4
 985              		.file 4 "c:\\program files (x86)\\gnu tools arm embedded\\5.4 2016q3\\arm-none-eabi\\include\\mach
 986              		.file 5 "c:\\program files (x86)\\gnu tools arm embedded\\5.4 2016q3\\arm-none-eabi\\include\\sys\
 987              		.file 6 "ChibiOS_3.0.2/os/rt/ports/ARMCMx/compilers/GCC/chtypes.h"
 988              		.file 7 "ChibiOS_3.0.2/os/rt/include/chsystypes.h"
 989              		.file 8 "ChibiOS_3.0.2/os/rt/include/chschd.h"
 990              		.file 9 "ChibiOS_3.0.2/os/rt/ports/ARMCMx/chcore.h"
 991              		.file 10 "ChibiOS_3.0.2/os/rt/ports/ARMCMx/chcore_v7m.h"
 992              		.file 11 "ChibiOS_3.0.2/os/rt/include/chtm.h"
 993              		.file 12 "ChibiOS_3.0.2/os/rt/include/chsem.h"
 994              		.file 13 "ChibiOS_3.0.2/os/rt/include/chmtx.h"
 995              		.file 14 "./datatypes.h"
 996              		.file 15 "nrf/rfhelp.h"
 997              		.file 16 "ChibiOS_3.0.2/os/rt/include/chthreads.h"
 998              		.file 17 "./crc.h"
 999              		.file 18 "./commands.h"
 1000              		.file 19 "./buffer.h"
 1001              		.file 20 "applications/app.h"
 1002              		.file 21 "ChibiOS_3.0.2/os/ext/CMSIS/include/core_cm4.h"