ARM GAS  C:\Users\euanm\AppData\Local\Temp\ccCsOkpq.s 			page 1


   1              		.syntax unified
   2              		.cpu cortex-m4
   3              		.eabi_attribute 27, 1
   4              		.eabi_attribute 28, 1
   5              		.fpu fpv4-sp-d16
   6              		.eabi_attribute 20, 1
   7              		.eabi_attribute 21, 1
   8              		.eabi_attribute 23, 3
   9              		.eabi_attribute 24, 1
  10              		.eabi_attribute 25, 1
  11              		.eabi_attribute 26, 1
  12              		.eabi_attribute 30, 2
  13              		.eabi_attribute 34, 1
  14              		.eabi_attribute 18, 4
  15              		.thumb
  16              		.syntax unified
  17              		.file	"nrf_driver.c"
  18              		.text
  19              	.Ltext0:
  20              		.cfi_sections	.debug_frame
  21              		.section	.text.tx_thread,"ax",%progbits
  22              		.align	2
  23              		.p2align 4,,15
  24              		.thumb
  25              		.thumb_func
  26              		.type	tx_thread, %function
  27              	tx_thread:
  28              	.LFB221:
  29              		.file 1 "nrf/nrf_driver.c"
  30              		.loc 1 78 0
  31              		.cfi_startproc
  32              		@ args = 0, pretend = 0, frame = 8
  33              		@ frame_needed = 0, uses_anonymous_args = 0
  34              	.LVL0:
  35 0000 F0B5     		push	{r4, r5, r6, r7, lr}
  36              		.cfi_def_cfa_offset 20
  37              		.cfi_offset 4, -20
  38              		.cfi_offset 5, -16
  39              		.cfi_offset 6, -12
  40              		.cfi_offset 7, -8
  41              		.cfi_offset 14, -4
  42              	.LBB28:
  43              	.LBB29:
  44              		.file 2 "ChibiOS_3.0.2/os/rt/include/chregistry.h"
  45              		.loc 2 135 0
  46 0002 0F4B     		ldr	r3, .L7
  47 0004 0F4A     		ldr	r2, .L7+4
  48 0006 9B69     		ldr	r3, [r3, #24]
  49 0008 0F4C     		ldr	r4, .L7+8
  50 000a 104F     		ldr	r7, .L7+12
  51 000c 9A61     		str	r2, [r3, #24]
  52              	.LBE29:
  53              	.LBE28:
  54              		.loc 1 78 0
  55 000e 83B0     		sub	sp, sp, #12
  56              		.cfi_def_cfa_offset 32
  57              	.LBB30:
ARM GAS  C:\Users\euanm\AppData\Local\Temp\ccCsOkpq.s 			page 2


  58              		.loc 1 89 0
  59 0010 0226     		movs	r6, #2
  60              		.loc 1 91 0
  61 0012 0025     		movs	r5, #0
  62 0014 02E0     		b	.L4
  63              	.LVL1:
  64              	.L2:
  65              	.LBE30:
  66              		.loc 1 94 0
  67 0016 0A20     		movs	r0, #10
  68 0018 FFF7FEFF 		bl	chThdSleep
  69              	.LVL2:
  70              	.L4:
  71              		.loc 1 84 0
  72 001c 2368     		ldr	r3, [r4]
  73 001e 0133     		adds	r3, r3, #1
  74              		.loc 1 86 0
  75 0020 312B     		cmp	r3, #49
  76              		.loc 1 84 0
  77 0022 2360     		str	r3, [r4]
  78              		.loc 1 86 0
  79 0024 F7DD     		ble	.L2
  80              	.LVL3:
  81              	.LBB35:
  82              	.LBB31:
  83              	.LBB32:
  84              		.loc 1 69 0
  85 0026 0121     		movs	r1, #1
  86 0028 01A8     		add	r0, sp, #4
  87              	.LBE32:
  88              	.LBE31:
  89              		.loc 1 89 0
  90 002a 8DF80460 		strb	r6, [sp, #4]
  91              	.LVL4:
  92              	.LBB34:
  93              	.LBB33:
  94              		.loc 1 69 0
  95 002e FFF7FEFF 		bl	rfhelp_send_data_crc
  96              	.LVL5:
  97              		.loc 1 71 0
  98 0032 10B9     		cbnz	r0, .L3
  99              		.loc 1 72 0
 100 0034 4FF4FA73 		mov	r3, #500
 101 0038 3B60     		str	r3, [r7]
 102              	.L3:
 103              	.LBE33:
 104              	.LBE34:
 105              		.loc 1 91 0
 106 003a 2560     		str	r5, [r4]
 107 003c EBE7     		b	.L2
 108              	.L8:
 109 003e 00BF     		.align	2
 110              	.L7:
 111 0040 00000000 		.word	ch
 112 0044 00000000 		.word	.LC0
 113 0048 00000000 		.word	.LANCHOR0
 114 004c 00000000 		.word	.LANCHOR1
ARM GAS  C:\Users\euanm\AppData\Local\Temp\ccCsOkpq.s 			page 3


 115              	.LBE35:
 116              		.cfi_endproc
 117              	.LFE221:
 118              		.size	tx_thread, .-tx_thread
 119              		.section	.text.nrf_driver_send_buffer,"ax",%progbits
 120              		.align	2
 121              		.p2align 4,,15
 122              		.global	nrf_driver_send_buffer
 123              		.thumb
 124              		.thumb_func
 125              		.type	nrf_driver_send_buffer, %function
 126              	nrf_driver_send_buffer:
 127              	.LFB223:
 128              		.loc 1 222 0
 129              		.cfi_startproc
 130              		@ args = 0, pretend = 0, frame = 40
 131              		@ frame_needed = 0, uses_anonymous_args = 0
 132              	.LVL6:
 133 0000 2DE9F04F 		push	{r4, r5, r6, r7, r8, r9, r10, fp, lr}
 134              		.cfi_def_cfa_offset 36
 135              		.cfi_offset 4, -36
 136              		.cfi_offset 5, -32
 137              		.cfi_offset 6, -28
 138              		.cfi_offset 7, -24
 139              		.cfi_offset 8, -20
 140              		.cfi_offset 9, -16
 141              		.cfi_offset 10, -12
 142              		.cfi_offset 11, -8
 143              		.cfi_offset 14, -4
 144              		.loc 1 225 0
 145 0004 1829     		cmp	r1, #24
 146              		.loc 1 222 0
 147 0006 8BB0     		sub	sp, sp, #44
 148              		.cfi_def_cfa_offset 80
 149              		.loc 1 222 0
 150 0008 8946     		mov	r9, r1
 151 000a 8346     		mov	fp, r0
 152              		.loc 1 225 0
 153 000c 40F2AC80 		bls	.L33
 154              	.LVL7:
 155              	.LBB36:
 156              		.loc 1 234 0
 157 0010 0027     		movs	r7, #0
 158 0012 DFF8A081 		ldr	r8, .L35+4
 159              		.loc 1 233 0
 160 0016 3C46     		mov	r4, r7
 161              		.loc 1 234 0
 162 0018 A1F11406 		sub	r6, r1, #20
 163              	.LVL8:
 164 001c 0546     		mov	r5, r0
 165              	.LBB37:
 166              	.LBB38:
 167              		.loc 1 244 0
 168 001e 4FF0030A 		mov	r10, #3
 169              	.LVL9:
 170              	.L13:
 171              		.loc 1 241 0
ARM GAS  C:\Users\euanm\AppData\Local\Temp\ccCsOkpq.s 			page 4


 172 0022 1734     		adds	r4, r4, #23
 173              	.LVL10:
 174              		.loc 1 245 0
 175 0024 FBB2     		uxtb	r3, r7
 176              		.loc 1 247 0
 177 0026 A642     		cmp	r6, r4
 178              		.loc 1 244 0
 179 0028 8DF80CA0 		strb	r10, [sp, #12]
 180              		.loc 1 245 0
 181 002c 8DF80D30 		strb	r3, [sp, #13]
 182              		.loc 1 247 0
 183 0030 C0F0B280 		bcc	.L15
 184              		.loc 1 248 0
 185 0034 2B68     		ldr	r3, [r5]	@ unaligned
 186 0036 6A68     		ldr	r2, [r5, #4]	@ unaligned
 187 0038 CDF80E30 		str	r3, [sp, #14]	@ unaligned
 188 003c AB68     		ldr	r3, [r5, #8]	@ unaligned
 189 003e CDF81220 		str	r2, [sp, #18]	@ unaligned
 190 0042 CDF81630 		str	r3, [sp, #22]	@ unaligned
 191 0046 EA68     		ldr	r2, [r5, #12]	@ unaligned
 192 0048 2B69     		ldr	r3, [r5, #16]	@ unaligned
 193 004a CDF81A20 		str	r2, [sp, #26]	@ unaligned
 194 004e CDF81E30 		str	r3, [sp, #30]	@ unaligned
 195 0052 AA8A     		ldrh	r2, [r5, #20]	@ unaligned
 196 0054 AB7D     		ldrb	r3, [r5, #22]	@ zero_extendqisi2
 197 0056 ADF82220 		strh	r2, [sp, #34]	@ unaligned
 198 005a 8DF82430 		strb	r3, [sp, #36]
 199 005e 1921     		movs	r1, #25
 200              	.LVL11:
 201              	.L16:
 202              	.LBB39:
 203              	.LBB40:
 204              		.loc 1 69 0 discriminator 2
 205 0060 03A8     		add	r0, sp, #12
 206              	.LVL12:
 207 0062 FFF7FEFF 		bl	rfhelp_send_data_crc
 208              	.LVL13:
 209 0066 1737     		adds	r7, r7, #23
 210              	.LBE40:
 211              	.LBE39:
 212              		.loc 1 255 0 discriminator 2
 213 0068 0023     		movs	r3, #0
 214 006a 1735     		adds	r5, r5, #23
 215              	.LBB42:
 216              	.LBB41:
 217              		.loc 1 71 0 discriminator 2
 218 006c 18B9     		cbnz	r0, .L17
 219              		.loc 1 72 0
 220 006e 5049     		ldr	r1, .L35
 221 0070 4FF4FA72 		mov	r2, #500
 222 0074 0A60     		str	r2, [r1]
 223              	.L17:
 224              	.LBE41:
 225              	.LBE42:
 226              	.LBE38:
 227              		.loc 1 236 0
 228 0076 A642     		cmp	r6, r4
ARM GAS  C:\Users\euanm\AppData\Local\Temp\ccCsOkpq.s 			page 5


 229              	.LBB43:
 230              		.loc 1 255 0
 231 0078 C8F80030 		str	r3, [r8]
 232              	.LBE43:
 233              		.loc 1 236 0
 234 007c 42D9     		bls	.L24
 235              	.LBB44:
 236              		.loc 1 237 0
 237 007e B4F58A7F 		cmp	r4, #276
 238 0082 CED1     		bne	.L13
 239 0084 A6F11403 		sub	r3, r6, #20
 240 0088 5FFA83FA 		uxtb	r10, r3
 241 008c 0BF58A75 		add	r5, fp, #276
 242              	.LBE44:
 243              	.LBE37:
 244              	.LBB46:
 245              	.LBB47:
 246              		.loc 1 260 0
 247 0090 0427     		movs	r7, #4
 248 0092 24E0     		b	.L23
 249              	.LVL14:
 250              	.L34:
 251              		.loc 1 265 0
 252 0094 2B68     		ldr	r3, [r5]	@ unaligned
 253 0096 6A68     		ldr	r2, [r5, #4]	@ unaligned
 254 0098 CDF80F30 		str	r3, [sp, #15]	@ unaligned
 255 009c CDF81320 		str	r2, [sp, #19]	@ unaligned
 256 00a0 AB68     		ldr	r3, [r5, #8]	@ unaligned
 257 00a2 EA68     		ldr	r2, [r5, #12]	@ unaligned
 258 00a4 CDF81730 		str	r3, [sp, #23]	@ unaligned
 259 00a8 CDF81B20 		str	r2, [sp, #27]	@ unaligned
 260 00ac 2B69     		ldr	r3, [r5, #16]	@ unaligned
 261 00ae AA8A     		ldrh	r2, [r5, #20]	@ unaligned
 262 00b0 CDF81F30 		str	r3, [sp, #31]	@ unaligned
 263 00b4 ADF82320 		strh	r2, [sp, #35]	@ unaligned
 264 00b8 1921     		movs	r1, #25
 265              	.L21:
 266              	.LVL15:
 267              	.LBB48:
 268              	.LBB49:
 269              		.loc 1 69 0 discriminator 2
 270 00ba 03A8     		add	r0, sp, #12
 271              	.LVL16:
 272 00bc FFF7FEFF 		bl	rfhelp_send_data_crc
 273              	.LVL17:
 274 00c0 AAF1160A 		sub	r10, r10, #22
 275              	.LBE49:
 276              	.LBE48:
 277              		.loc 1 272 0 discriminator 2
 278 00c4 0023     		movs	r3, #0
 279 00c6 1635     		adds	r5, r5, #22
 280 00c8 5FFA8AFA 		uxtb	r10, r10
 281              	.LBB51:
 282              	.LBB50:
 283              		.loc 1 71 0 discriminator 2
 284 00cc 18B9     		cbnz	r0, .L22
 285              		.loc 1 72 0
ARM GAS  C:\Users\euanm\AppData\Local\Temp\ccCsOkpq.s 			page 6


 286 00ce 3849     		ldr	r1, .L35
 287 00d0 4FF4FA72 		mov	r2, #500
 288 00d4 0A60     		str	r2, [r1]
 289              	.L22:
 290              	.LBE50:
 291              	.LBE51:
 292              	.LBE47:
 293              		.loc 1 258 0
 294 00d6 A642     		cmp	r6, r4
 295              	.LBB52:
 296              		.loc 1 272 0
 297 00d8 C8F80030 		str	r3, [r8]
 298              	.LVL18:
 299              	.LBE52:
 300              		.loc 1 258 0
 301 00dc 12D9     		bls	.L24
 302              	.LVL19:
 303              	.L23:
 304              	.LBB53:
 305              		.loc 1 261 0
 306 00de 230A     		lsrs	r3, r4, #8
 307              		.loc 1 262 0
 308 00e0 8DF80E40 		strb	r4, [sp, #14]
 309              		.loc 1 264 0
 310 00e4 1634     		adds	r4, r4, #22
 311              	.LVL20:
 312 00e6 A642     		cmp	r6, r4
 313              		.loc 1 260 0
 314 00e8 8DF80C70 		strb	r7, [sp, #12]
 315              		.loc 1 261 0
 316 00ec 8DF80D30 		strb	r3, [sp, #13]
 317              		.loc 1 264 0
 318 00f0 D0D2     		bcs	.L34
 319              		.loc 1 268 0
 320 00f2 2946     		mov	r1, r5
 321 00f4 5246     		mov	r2, r10
 322 00f6 0DF10F00 		add	r0, sp, #15
 323 00fa FFF7FEFF 		bl	memcpy
 324              	.LVL21:
 325 00fe 0AF10301 		add	r1, r10, #3
 326 0102 DAE7     		b	.L21
 327              	.LVL22:
 328              	.L24:
 329              	.LBE53:
 330              	.LBE46:
 331              		.loc 1 276 0
 332 0104 0522     		movs	r2, #5
 333              		.loc 1 277 0
 334 0106 4FEA1923 		lsr	r3, r9, #8
 335              		.loc 1 279 0
 336 010a 4946     		mov	r1, r9
 337 010c 5846     		mov	r0, fp
 338              		.loc 1 276 0
 339 010e 8DF80C20 		strb	r2, [sp, #12]
 340              	.LVL23:
 341              		.loc 1 277 0
 342 0112 8DF80D30 		strb	r3, [sp, #13]
ARM GAS  C:\Users\euanm\AppData\Local\Temp\ccCsOkpq.s 			page 7


 343              	.LVL24:
 344              		.loc 1 278 0
 345 0116 8DF80E90 		strb	r9, [sp, #14]
 346              		.loc 1 279 0
 347 011a FFF7FEFF 		bl	crc16
 348              	.LVL25:
 349              		.loc 1 282 0
 350 011e 5E44     		add	r6, r6, fp
 351              	.LVL26:
 352              		.loc 1 279 0
 353 0120 0246     		mov	r2, r0
 354              	.LVL27:
 355              		.loc 1 280 0
 356 0122 010A     		lsrs	r1, r0, #8
 357              		.loc 1 282 0
 358 0124 3368     		ldr	r3, [r6]	@ unaligned
 359 0126 CDF81130 		str	r3, [sp, #17]	@ unaligned
 360 012a 7568     		ldr	r5, [r6, #4]	@ unaligned
 361 012c B468     		ldr	r4, [r6, #8]	@ unaligned
 362              		.loc 1 281 0
 363 012e 8DF81020 		strb	r2, [sp, #16]
 364              		.loc 1 282 0
 365 0132 3369     		ldr	r3, [r6, #16]	@ unaligned
 366 0134 F268     		ldr	r2, [r6, #12]	@ unaligned
 367              		.loc 1 280 0
 368 0136 8DF80F10 		strb	r1, [sp, #15]
 369              	.LVL28:
 370              	.LBB54:
 371              	.LBB55:
 372              		.loc 1 69 0
 373 013a 03A8     		add	r0, sp, #12
 374              	.LVL29:
 375 013c 1921     		movs	r1, #25
 376              	.LBE55:
 377              	.LBE54:
 378              		.loc 1 282 0
 379 013e CDF81550 		str	r5, [sp, #21]	@ unaligned
 380 0142 CDF81940 		str	r4, [sp, #25]	@ unaligned
 381 0146 CDF81D20 		str	r2, [sp, #29]	@ unaligned
 382 014a CDF82130 		str	r3, [sp, #33]	@ unaligned
 383              	.LVL30:
 384              	.LBB57:
 385              	.LBB56:
 386              		.loc 1 69 0
 387 014e FFF7FEFF 		bl	rfhelp_send_data_crc
 388              	.LVL31:
 389              		.loc 1 71 0
 390 0152 18B9     		cbnz	r0, .L12
 391              	.LBE56:
 392              	.LBE57:
 393              	.LBE36:
 394              	.LBB59:
 395              	.LBB60:
 396              	.LBB61:
 397              		.loc 1 72 0
 398 0154 164B     		ldr	r3, .L35
 399 0156 4FF4FA72 		mov	r2, #500
ARM GAS  C:\Users\euanm\AppData\Local\Temp\ccCsOkpq.s 			page 8


 400 015a 1A60     		str	r2, [r3]
 401              	.LVL32:
 402              	.L12:
 403              	.LBE61:
 404              	.LBE60:
 405              		.loc 1 231 0
 406 015c 0023     		movs	r3, #0
 407 015e C8F80030 		str	r3, [r8]
 408              	.LBE59:
 409              		.loc 1 288 0
 410 0162 0BB0     		add	sp, sp, #44
 411              		.cfi_remember_state
 412              		.cfi_def_cfa_offset 36
 413              		@ sp needed
 414 0164 BDE8F08F 		pop	{r4, r5, r6, r7, r8, r9, r10, fp, pc}
 415              	.LVL33:
 416              	.L33:
 417              		.cfi_restore_state
 418              	.LBB64:
 419              		.loc 1 227 0
 420 0168 0AAC     		add	r4, sp, #40
 421 016a 0623     		movs	r3, #6
 422 016c 04F81C3D 		strb	r3, [r4, #-28]!
 423              		.loc 1 228 0
 424 0170 0146     		mov	r1, r0
 425              	.LVL34:
 426 0172 4A46     		mov	r2, r9
 427 0174 0DF10D00 		add	r0, sp, #13
 428              	.LVL35:
 429 0178 FFF7FEFF 		bl	memcpy
 430              	.LVL36:
 431              	.LBB63:
 432              	.LBB62:
 433              		.loc 1 69 0
 434 017c 2046     		mov	r0, r4
 435 017e 09F10101 		add	r1, r9, #1
 436              	.LVL37:
 437 0182 FFF7FEFF 		bl	rfhelp_send_data_crc
 438              	.LVL38:
 439 0186 DFF82C80 		ldr	r8, .L35+4
 440              		.loc 1 71 0
 441 018a 0028     		cmp	r0, #0
 442 018c E6D1     		bne	.L12
 443              		.loc 1 72 0
 444 018e 084B     		ldr	r3, .L35
 445 0190 4FF4FA72 		mov	r2, #500
 446 0194 1A60     		str	r2, [r3]
 447 0196 E1E7     		b	.L12
 448              	.LVL39:
 449              	.L15:
 450 0198 F31A     		subs	r3, r6, r3
 451 019a DBB2     		uxtb	r3, r3
 452              	.LVL40:
 453              	.LBE62:
 454              	.LBE63:
 455              	.LBE64:
 456              	.LBB65:
ARM GAS  C:\Users\euanm\AppData\Local\Temp\ccCsOkpq.s 			page 9


 457              	.LBB58:
 458              	.LBB45:
 459              		.loc 1 251 0
 460 019c 1A46     		mov	r2, r3
 461 019e 2946     		mov	r1, r5
 462 01a0 0DF10E00 		add	r0, sp, #14
 463 01a4 0193     		str	r3, [sp, #4]
 464 01a6 FFF7FEFF 		bl	memcpy
 465              	.LVL41:
 466 01aa 019B     		ldr	r3, [sp, #4]
 467 01ac 991C     		adds	r1, r3, #2
 468 01ae 57E7     		b	.L16
 469              	.L36:
 470              		.align	2
 471              	.L35:
 472 01b0 00000000 		.word	.LANCHOR1
 473 01b4 00000000 		.word	.LANCHOR0
 474              	.LBE45:
 475              	.LBE58:
 476              	.LBE65:
 477              		.cfi_endproc
 478              	.LFE223:
 479              		.size	nrf_driver_send_buffer, .-nrf_driver_send_buffer
 480              		.section	.text.rx_thread,"ax",%progbits
 481              		.align	2
 482              		.p2align 4,,15
 483              		.thumb
 484              		.thumb_func
 485              		.type	rx_thread, %function
 486              	rx_thread:
 487              	.LFB222:
 488              		.loc 1 99 0
 489              		.cfi_startproc
 490              		@ args = 0, pretend = 0, frame = 80
 491              		@ frame_needed = 0, uses_anonymous_args = 0
 492              	.LVL42:
 493 0000 2DE9F04F 		push	{r4, r5, r6, r7, r8, r9, r10, fp, lr}
 494              		.cfi_def_cfa_offset 36
 495              		.cfi_offset 4, -36
 496              		.cfi_offset 5, -32
 497              		.cfi_offset 6, -28
 498              		.cfi_offset 7, -24
 499              		.cfi_offset 8, -20
 500              		.cfi_offset 9, -16
 501              		.cfi_offset 10, -12
 502              		.cfi_offset 11, -8
 503              		.cfi_offset 14, -4
 504              	.LBB66:
 505              	.LBB67:
 506              		.loc 2 135 0
 507 0004 684B     		ldr	r3, .L57
 508 0006 694D     		ldr	r5, .L57+4
 509 0008 9B69     		ldr	r3, [r3, #24]
 510 000a DFF8B881 		ldr	r8, .L57+28
 511 000e 684A     		ldr	r2, .L57+8
 512 0010 684E     		ldr	r6, .L57+12
 513 0012 DFF8A8B1 		ldr	fp, .L57+20
ARM GAS  C:\Users\euanm\AppData\Local\Temp\ccCsOkpq.s 			page 10


 514              	.LBE67:
 515              	.LBE66:
 516              		.loc 1 99 0
 517 0016 2DED028B 		vpush.64	{d8}
 518              		.cfi_def_cfa_offset 44
 519              		.cfi_offset 80, -44
 520              		.cfi_offset 81, -40
 521              	.LBB69:
 522              	.LBB70:
 523              	.LBB71:
 524              		.loc 1 135 0
 525 001a 9FED678A 		vldr.32	s16, .L57+16
 526              	.LBE71:
 527              	.LBE70:
 528              	.LBE69:
 529              	.LBB80:
 530              	.LBB68:
 531              		.loc 2 135 0
 532 001e 9A61     		str	r2, [r3, #24]
 533              	.LBE68:
 534              	.LBE80:
 535              		.loc 1 99 0
 536 0020 95B0     		sub	sp, sp, #84
 537              		.cfi_def_cfa_offset 128
 538              	.LBB81:
 539              		.loc 1 210 0
 540 0022 AA46     		mov	r10, r5
 541 0024 C146     		mov	r9, r8
 542              	.LVL43:
 543              	.L38:
 544              	.LBB77:
 545              		.loc 1 110 0
 546 0026 04AA     		add	r2, sp, #16
 547 0028 03A9     		add	r1, sp, #12
 548 002a 0CA8     		add	r0, sp, #48
 549 002c FFF7FEFF 		bl	rfhelp_read_rx_data_crc
 550              	.LVL44:
 551              		.loc 1 113 0
 552 0030 0023     		movs	r3, #0
 553              		.loc 1 117 0
 554 0032 041E     		subs	r4, r0, #0
 555              		.loc 1 113 0
 556 0034 0593     		str	r3, [sp, #20]
 557              		.loc 1 117 0
 558 0036 55DB     		blt	.L39
 559              	.LBB74:
 560              		.loc 1 118 0
 561 0038 9DF83030 		ldrb	r3, [sp, #48]	@ zero_extendqisi2
 562              	.LVL45:
 563              		.loc 1 120 0
 564 003c 4FF4FA72 		mov	r2, #500
 565              		.loc 1 122 0
 566 0040 013B     		subs	r3, r3, #1
 567              	.LVL46:
 568              		.loc 1 120 0
 569 0042 2A60     		str	r2, [r5]
 570              		.loc 1 122 0
ARM GAS  C:\Users\euanm\AppData\Local\Temp\ccCsOkpq.s 			page 11


 571 0044 052B     		cmp	r3, #5
 572 0046 14D8     		bhi	.L40
 573 0048 DFE803F0 		tbb	[pc, r3]
 574              	.L42:
 575 004c 67       		.byte	(.L41-.L42)/2
 576 004d 13       		.byte	(.L40-.L42)/2
 577 004e 5D       		.byte	(.L43-.L42)/2
 578 004f 03       		.byte	(.L44-.L42)/2
 579 0050 19       		.byte	(.L45-.L42)/2
 580 0051 96       		.byte	(.L46-.L42)/2
 581              		.p2align 1
 582              	.L44:
 583              	.LBB72:
 584              		.loc 1 150 0
 585 0052 9DF83100 		ldrb	r0, [sp, #49]	@ zero_extendqisi2
 586              	.LVL47:
 587              		.loc 1 151 0
 588 0056 9DF83230 		ldrb	r3, [sp, #50]	@ zero_extendqisi2
 589              	.LVL48:
 590 005a 43EA0020 		orr	r0, r3, r0, lsl #8
 591              	.LVL49:
 592              		.loc 1 152 0
 593 005e B0F5806F 		cmp	r0, #1024
 594 0062 06DA     		bge	.L40
 595              		.loc 1 153 0
 596 0064 039A     		ldr	r2, [sp, #12]
 597 0066 5844     		add	r0, r0, fp
 598              	.LVL50:
 599 0068 033A     		subs	r2, r2, #3
 600 006a 0DF13301 		add	r1, sp, #51
 601 006e FFF7FEFF 		bl	memcpy
 602              	.LVL51:
 603              	.L40:
 604              	.LBE72:
 605              	.LBE74:
 606              		.loc 1 199 0
 607 0072 002C     		cmp	r4, #0
 608 0074 36D0     		beq	.L39
 609              	.L56:
 610              		.loc 1 203 0
 611 0076 0A20     		movs	r0, #10
 612 0078 FFF7FEFF 		bl	chThdSleep
 613              	.LVL52:
 614              	.LBE77:
 615              		.loc 1 205 0
 616 007c D3E7     		b	.L38
 617              	.LVL53:
 618              	.L45:
 619              	.LBB78:
 620              	.LBB75:
 621              	.LBB73:
 622              		.loc 1 161 0
 623 007e 9DF83230 		ldrb	r3, [sp, #50]	@ zero_extendqisi2
 624              	.LVL54:
 625              		.loc 1 160 0
 626 0082 9DF83170 		ldrb	r7, [sp, #49]	@ zero_extendqisi2
 627              	.LVL55:
ARM GAS  C:\Users\euanm\AppData\Local\Temp\ccCsOkpq.s 			page 12


 628              		.loc 1 161 0
 629 0086 43EA0727 		orr	r7, r3, r7, lsl #8
 630              	.LVL56:
 631              		.loc 1 163 0
 632 008a B7F5806F 		cmp	r7, #1024
 633              		.loc 1 161 0
 634 008e 4FF00303 		mov	r3, #3
 635 0092 0593     		str	r3, [sp, #20]
 636              		.loc 1 163 0
 637 0094 EDD8     		bhi	.L40
 638              	.LVL57:
 639              		.loc 1 170 0
 640 0096 039A     		ldr	r2, [sp, #12]
 641              		.loc 1 167 0
 642 0098 9DF83330 		ldrb	r3, [sp, #51]	@ zero_extendqisi2
 643              		.loc 1 168 0
 644 009c 9DF83410 		ldrb	r1, [sp, #52]	@ zero_extendqisi2
 645              		.loc 1 167 0
 646 00a0 0093     		str	r3, [sp]
 647              	.LVL58:
 648              		.loc 1 170 0
 649 00a2 053A     		subs	r2, r2, #5
 650 00a4 B81A     		subs	r0, r7, r2
 651              	.LVL59:
 652 00a6 0DF1350E 		add	lr, sp, #53
 653              		.loc 1 168 0
 654 00aa 0523     		movs	r3, #5
 655 00ac 0191     		str	r1, [sp, #4]
 656              	.LVL60:
 657              		.loc 1 170 0
 658 00ae 5844     		add	r0, r0, fp
 659 00b0 7146     		mov	r1, lr
 660              		.loc 1 168 0
 661 00b2 0593     		str	r3, [sp, #20]
 662              		.loc 1 170 0
 663 00b4 FFF7FEFF 		bl	memcpy
 664              	.LVL61:
 665              		.loc 1 172 0
 666 00b8 3946     		mov	r1, r7
 667 00ba 4048     		ldr	r0, .L57+20
 668 00bc FFF7FEFF 		bl	crc16
 669              	.LVL62:
 670 00c0 0199     		ldr	r1, [sp, #4]
 671 00c2 009B     		ldr	r3, [sp]
 672 00c4 41EA0323 		orr	r3, r1, r3, lsl #8
 673 00c8 9842     		cmp	r0, r3
 674 00ca D2D1     		bne	.L40
 675              		.loc 1 177 0
 676 00cc 1420     		movs	r0, #20
 677 00ce FFF7FEFF 		bl	chThdSleep
 678              	.LVL63:
 679              		.loc 1 179 0
 680 00d2 3B48     		ldr	r0, .L57+24
 681 00d4 FFF7FEFF 		bl	commands_set_send_func
 682              	.LVL64:
 683              		.loc 1 180 0
 684 00d8 3946     		mov	r1, r7
ARM GAS  C:\Users\euanm\AppData\Local\Temp\ccCsOkpq.s 			page 13


 685 00da 3848     		ldr	r0, .L57+20
 686 00dc FFF7FEFF 		bl	commands_process_packet
 687              	.LVL65:
 688              	.LBE73:
 689              	.LBE75:
 690              		.loc 1 199 0
 691 00e0 002C     		cmp	r4, #0
 692 00e2 C8D1     		bne	.L56
 693              	.LVL66:
 694              	.L39:
 695              	.LBE78:
 696              		.loc 1 207 0
 697 00e4 3220     		movs	r0, #50
 698 00e6 FFF7FEFF 		bl	chThdSleep
 699              	.LVL67:
 700              		.loc 1 210 0
 701 00ea 2B68     		ldr	r3, [r5]
 702 00ec 002B     		cmp	r3, #0
 703 00ee 50DD     		ble	.L50
 704              		.loc 1 210 0 is_stmt 0 discriminator 1
 705 00f0 D8F80020 		ldr	r2, [r8]
 706 00f4 002A     		cmp	r2, #0
 707 00f6 4CDD     		ble	.L50
 708              		.loc 1 211 0 is_stmt 1
 709 00f8 053B     		subs	r3, r3, #5
 710              		.loc 1 212 0
 711 00fa 053A     		subs	r2, r2, #5
 712              		.loc 1 211 0
 713 00fc CAF80030 		str	r3, [r10]
 714              		.loc 1 212 0
 715 0100 C9F80020 		str	r2, [r9]
 716 0104 8FE7     		b	.L38
 717              	.LVL68:
 718              	.L43:
 719              	.LBB79:
 720              	.LBB76:
 721              		.loc 1 146 0
 722 0106 9DF83100 		ldrb	r0, [sp, #49]	@ zero_extendqisi2
 723              	.LVL69:
 724 010a 039A     		ldr	r2, [sp, #12]
 725 010c 5844     		add	r0, r0, fp
 726 010e 023A     		subs	r2, r2, #2
 727 0110 0DF13201 		add	r1, sp, #50
 728 0114 FFF7FEFF 		bl	memcpy
 729              	.LVL70:
 730              		.loc 1 147 0
 731 0118 ABE7     		b	.L40
 732              	.LVL71:
 733              	.L41:
 734              		.loc 1 131 0
 735 011a 9DF83330 		ldrb	r3, [sp, #51]	@ zero_extendqisi2
 736              	.LVL72:
 737              		.loc 1 129 0
 738 011e 9DF83120 		ldrb	r2, [sp, #49]	@ zero_extendqisi2
 739              		.loc 1 130 0
 740 0122 9DF83200 		ldrb	r0, [sp, #50]	@ zero_extendqisi2
 741              	.LVL73:
ARM GAS  C:\Users\euanm\AppData\Local\Temp\ccCsOkpq.s 			page 14


 742              		.loc 1 129 0
 743 0126 3270     		strb	r2, [r6]
 744              		.loc 1 132 0
 745 0128 03F00101 		and	r1, r3, #1
 746              		.loc 1 133 0
 747 012c C3F34002 		ubfx	r2, r3, #1, #1
 748              		.loc 1 132 0
 749 0130 B170     		strb	r1, [r6, #2]
 750              		.loc 1 134 0
 751 0132 C3F38003 		ubfx	r3, r3, #2, #1
 752              	.LVL74:
 753              		.loc 1 133 0
 754 0136 F270     		strb	r2, [r6, #3]
 755              		.loc 1 135 0
 756 0138 05A9     		add	r1, sp, #20
 757              		.loc 1 131 0
 758 013a 0422     		movs	r2, #4
 759              		.loc 1 130 0
 760 013c 7070     		strb	r0, [r6, #1]
 761              		.loc 1 135 0
 762 013e 0CA8     		add	r0, sp, #48
 763              	.LVL75:
 764              		.loc 1 134 0
 765 0140 3371     		strb	r3, [r6, #4]
 766              		.loc 1 131 0
 767 0142 0592     		str	r2, [sp, #20]
 768              		.loc 1 135 0
 769 0144 FFF7FEFF 		bl	buffer_get_int16
 770              	.LVL76:
 771 0148 07EE900A 		vmov	s15, r0	@ int
 772 014c B8EEE77A 		vcvt.f32.s32	s14, s15
 773              		.loc 1 137 0
 774 0150 3378     		ldrb	r3, [r6]	@ zero_extendqisi2
 775              		.loc 1 138 0
 776 0152 7278     		ldrb	r2, [r6, #1]	@ zero_extendqisi2
 777 0154 0792     		str	r2, [sp, #28]
 778              		.loc 1 135 0
 779 0156 C7EE087A 		vdiv.f32	s15, s14, s16
 780              		.loc 1 137 0
 781 015a C3F1FF03 		rsb	r3, r3, #255
 782              		.loc 1 139 0
 783 015e B178     		ldrb	r1, [r6, #2]	@ zero_extendqisi2
 784              		.loc 1 140 0
 785 0160 F278     		ldrb	r2, [r6, #3]	@ zero_extendqisi2
 786              		.loc 1 137 0
 787 0162 0693     		str	r3, [sp, #24]
 788              		.loc 1 142 0
 789 0164 06A8     		add	r0, sp, #24
 790              		.loc 1 139 0
 791 0166 8DF82C10 		strb	r1, [sp, #44]
 792              		.loc 1 140 0
 793 016a 8DF82D20 		strb	r2, [sp, #45]
 794              		.loc 1 135 0
 795 016e C6ED027A 		vstr.32	s15, [r6, #8]
 796              		.loc 1 142 0
 797 0172 FFF7FEFF 		bl	app_nunchuk_update_output
 798              	.LVL77:
ARM GAS  C:\Users\euanm\AppData\Local\Temp\ccCsOkpq.s 			page 15


 799              		.loc 1 143 0
 800 0176 7CE7     		b	.L40
 801              	.LVL78:
 802              	.L46:
 803              		.loc 1 187 0
 804 0178 1420     		movs	r0, #20
 805              	.LVL79:
 806 017a FFF7FEFF 		bl	chThdSleep
 807              	.LVL80:
 808              		.loc 1 189 0
 809 017e 1048     		ldr	r0, .L57+24
 810 0180 FFF7FEFF 		bl	commands_set_send_func
 811              	.LVL81:
 812              		.loc 1 190 0
 813 0184 0399     		ldr	r1, [sp, #12]
 814 0186 0DF13100 		add	r0, sp, #49
 815 018a 0139     		subs	r1, r1, #1
 816 018c FFF7FEFF 		bl	commands_process_packet
 817              	.LVL82:
 818              		.loc 1 191 0
 819 0190 6FE7     		b	.L40
 820              	.L50:
 821              	.LBE76:
 822              	.LBE79:
 823              		.loc 1 214 0
 824 0192 FFF7FEFF 		bl	rfhelp_power_up
 825              	.LVL83:
 826              		.loc 1 215 0
 827 0196 FFF7FEFF 		bl	rfhelp_restart
 828              	.LVL84:
 829              		.loc 1 216 0
 830 019a 4FF4FA73 		mov	r3, #500
 831 019e 2B60     		str	r3, [r5]
 832              		.loc 1 217 0
 833 01a0 C8F80030 		str	r3, [r8]
 834              	.LBE81:
 835              		.loc 1 219 0
 836 01a4 3FE7     		b	.L38
 837              	.L58:
 838 01a6 00BF     		.align	2
 839              	.L57:
 840 01a8 00000000 		.word	ch
 841 01ac 00000000 		.word	.LANCHOR2
 842 01b0 08000000 		.word	.LC1
 843 01b4 00000000 		.word	.LANCHOR3
 844 01b8 00007A44 		.word	1148846080
 845 01bc 00000000 		.word	.LANCHOR4
 846 01c0 00000000 		.word	nrf_driver_send_buffer
 847 01c4 00000000 		.word	.LANCHOR1
 848              		.cfi_endproc
 849              	.LFE222:
 850              		.size	rx_thread, .-rx_thread
 851              		.section	.text.nrf_driver_init,"ax",%progbits
 852              		.align	2
 853              		.p2align 4,,15
 854              		.global	nrf_driver_init
 855              		.thumb
ARM GAS  C:\Users\euanm\AppData\Local\Temp\ccCsOkpq.s 			page 16


 856              		.thumb_func
 857              		.type	nrf_driver_init, %function
 858              	nrf_driver_init:
 859              	.LFB219:
 860              		.loc 1 57 0
 861              		.cfi_startproc
 862              		@ args = 0, pretend = 0, frame = 0
 863              		@ frame_needed = 0, uses_anonymous_args = 0
 864 0000 70B5     		push	{r4, r5, r6, lr}
 865              		.cfi_def_cfa_offset 16
 866              		.cfi_offset 4, -16
 867              		.cfi_offset 5, -12
 868              		.cfi_offset 6, -8
 869              		.cfi_offset 14, -4
 870 0002 82B0     		sub	sp, sp, #8
 871              		.cfi_def_cfa_offset 24
 872              		.loc 1 58 0
 873 0004 FFF7FEFF 		bl	rfhelp_init
 874              	.LVL85:
 875              		.loc 1 60 0
 876 0008 0C4A     		ldr	r2, .L61
 877              		.loc 1 61 0
 878 000a 0D4E     		ldr	r6, .L61+4
 879              		.loc 1 62 0
 880 000c 0D4D     		ldr	r5, .L61+8
 881              		.loc 1 64 0
 882 000e 0E4B     		ldr	r3, .L61+12
 883 0010 0E48     		ldr	r0, .L61+16
 884              		.loc 1 60 0
 885 0012 0024     		movs	r4, #0
 886              		.loc 1 64 0
 887 0014 0094     		str	r4, [sp]
 888 0016 40F69811 		movw	r1, #2456
 889              		.loc 1 60 0
 890 001a 1460     		str	r4, [r2]
 891              		.loc 1 64 0
 892 001c 3F22     		movs	r2, #63
 893              		.loc 1 61 0
 894 001e 3460     		str	r4, [r6]
 895              		.loc 1 62 0
 896 0020 2C60     		str	r4, [r5]
 897              		.loc 1 64 0
 898 0022 FFF7FEFF 		bl	chThdCreateStatic
 899              	.LVL86:
 900              		.loc 1 65 0
 901 0026 0094     		str	r4, [sp]
 902 0028 094B     		ldr	r3, .L61+20
 903 002a 0A48     		ldr	r0, .L61+24
 904 002c 3F22     		movs	r2, #63
 905 002e 4FF46671 		mov	r1, #920
 906 0032 FFF7FEFF 		bl	chThdCreateStatic
 907              	.LVL87:
 908              		.loc 1 66 0
 909 0036 02B0     		add	sp, sp, #8
 910              		.cfi_def_cfa_offset 16
 911              		@ sp needed
 912 0038 70BD     		pop	{r4, r5, r6, pc}
ARM GAS  C:\Users\euanm\AppData\Local\Temp\ccCsOkpq.s 			page 17


 913              	.L62:
 914 003a 00BF     		.align	2
 915              	.L61:
 916 003c 00000000 		.word	.LANCHOR0
 917 0040 00000000 		.word	.LANCHOR2
 918 0044 00000000 		.word	.LANCHOR1
 919 0048 00000000 		.word	rx_thread
 920 004c 00000000 		.word	.LANCHOR5
 921 0050 00000000 		.word	tx_thread
 922 0054 00000000 		.word	.LANCHOR6
 923              		.cfi_endproc
 924              	.LFE219:
 925              		.size	nrf_driver_init, .-nrf_driver_init
 926              		.section	.bss.nosend_cnt,"aw",%nobits
 927              		.align	2
 928              		.set	.LANCHOR0,. + 0
 929              		.type	nosend_cnt, %object
 930              		.size	nosend_cnt, 4
 931              	nosend_cnt:
 932 0000 00000000 		.space	4
 933              		.section	.bss.nrf_restart_tx_time,"aw",%nobits
 934              		.align	2
 935              		.set	.LANCHOR1,. + 0
 936              		.type	nrf_restart_tx_time, %object
 937              		.size	nrf_restart_tx_time, 4
 938              	nrf_restart_tx_time:
 939 0000 00000000 		.space	4
 940              		.section	.rodata.str1.4,"aMS",%progbits,1
 941              		.align	2
 942              	.LC0:
 943 0000 4E726620 		.ascii	"Nrf TX\000"
 943      545800
 944 0007 00       		.space	1
 945              	.LC1:
 946 0008 4E726620 		.ascii	"Nrf RX\000"
 946      525800
 947              		.section	.bss.rx_thread_wa,"aw",%nobits
 948              		.align	3
 949              		.set	.LANCHOR5,. + 0
 950              		.type	rx_thread_wa, %object
 951              		.size	rx_thread_wa, 2456
 952              	rx_thread_wa:
 953 0000 00000000 		.space	2456
 953      00000000 
 953      00000000 
 953      00000000 
 953      00000000 
 954              		.section	.bss.nrf_restart_rx_time,"aw",%nobits
 955              		.align	2
 956              		.set	.LANCHOR2,. + 0
 957              		.type	nrf_restart_rx_time, %object
 958              		.size	nrf_restart_rx_time, 4
 959              	nrf_restart_rx_time:
 960 0000 00000000 		.space	4
 961              		.section	.bss.rx_buffer,"aw",%nobits
 962              		.align	2
 963              		.set	.LANCHOR4,. + 0
ARM GAS  C:\Users\euanm\AppData\Local\Temp\ccCsOkpq.s 			page 18


 964              		.type	rx_buffer, %object
 965              		.size	rx_buffer, 1024
 966              	rx_buffer:
 967 0000 00000000 		.space	1024
 967      00000000 
 967      00000000 
 967      00000000 
 967      00000000 
 968              		.section	.bss.mstate,"aw",%nobits
 969              		.align	2
 970              		.set	.LANCHOR3,. + 0
 971              		.type	mstate, %object
 972              		.size	mstate, 12
 973              	mstate:
 974 0000 00000000 		.space	12
 974      00000000 
 974      00000000 
 975              		.section	.bss.tx_thread_wa,"aw",%nobits
 976              		.align	3
 977              		.set	.LANCHOR6,. + 0
 978              		.type	tx_thread_wa, %object
 979              		.size	tx_thread_wa, 920
 980              	tx_thread_wa:
 981 0000 00000000 		.space	920
 981      00000000 
 981      00000000 
 981      00000000 
 981      00000000 
 982              		.text
 983              	.Letext0:
 984              		.file 3 "c:\\program files (x86)\\gnu tools arm embedded\\5.4 2016q3\\lib\\gcc\\arm-none-eabi\\5.4
 985              		.file 4 "c:\\program files (x86)\\gnu tools arm embedded\\5.4 2016q3\\arm-none-eabi\\include\\mach
 986              		.file 5 "c:\\program files (x86)\\gnu tools arm embedded\\5.4 2016q3\\arm-none-eabi\\include\\sys\
 987              		.file 6 "ChibiOS_3.0.2/os/rt/ports/ARMCMx/compilers/GCC/chtypes.h"
 988              		.file 7 "ChibiOS_3.0.2/os/rt/include/chsystypes.h"
 989              		.file 8 "ChibiOS_3.0.2/os/rt/include/chschd.h"
 990              		.file 9 "ChibiOS_3.0.2/os/rt/ports/ARMCMx/chcore.h"
 991              		.file 10 "ChibiOS_3.0.2/os/rt/ports/ARMCMx/chcore_v7m.h"
 992              		.file 11 "ChibiOS_3.0.2/os/rt/include/chtm.h"
 993              		.file 12 "ChibiOS_3.0.2/os/rt/include/chsem.h"
 994              		.file 13 "ChibiOS_3.0.2/os/rt/include/chmtx.h"
 995              		.file 14 "./datatypes.h"
 996              		.file 15 "nrf/rfhelp.h"
 997              		.file 16 "ChibiOS_3.0.2/os/rt/include/chthreads.h"
 998              		.file 17 "./crc.h"
 999              		.file 18 "./commands.h"
 1000              		.file 19 "./buffer.h"
 1001              		.file 20 "applications/app.h"
 1002              		.file 21 "ChibiOS_3.0.2/os/ext/CMSIS/include/core_cm4.h"
 1003              		.section	.debug_info,"",%progbits
 1004              	.Ldebug_info0:
 1005 0000 49100000 		.4byte	0x1049
 1006 0004 0400     		.2byte	0x4
 1007 0006 00000000 		.4byte	.Ldebug_abbrev0
 1008 000a 04       		.byte	0x4
 1009 000b 01       		.uleb128 0x1
 1010 000c E9060000 		.4byte	.LASF165
ARM GAS  C:\Users\euanm\AppData\Local\Temp\ccCsOkpq.s 			page 19


 1011 0010 0C       		.byte	0xc
 1012 0011 85080000 		.4byte	.LASF166
 1013 0015 BD030000 		.4byte	.LASF167
 1014 0019 A0010000 		.4byte	.Ldebug_ranges0+0x1a0
 1015 001d 00000000 		.4byte	0
 1016 0021 00000000 		.4byte	.Ldebug_line0
 1017 0025 02       		.uleb128 0x2
 1018 0026 04       		.byte	0x4
 1019 0027 05       		.byte	0x5
 1020 0028 696E7400 		.ascii	"int\000"
 1021 002c 03       		.uleb128 0x3
 1022 002d 0D000000 		.4byte	.LASF2
 1023 0031 03       		.byte	0x3
 1024 0032 D8       		.byte	0xd8
 1025 0033 37000000 		.4byte	0x37
 1026 0037 04       		.uleb128 0x4
 1027 0038 04       		.byte	0x4
 1028 0039 07       		.byte	0x7
 1029 003a EE010000 		.4byte	.LASF0
 1030 003e 04       		.uleb128 0x4
 1031 003f 01       		.byte	0x1
 1032 0040 06       		.byte	0x6
 1033 0041 A9000000 		.4byte	.LASF1
 1034 0045 03       		.uleb128 0x3
 1035 0046 24000000 		.4byte	.LASF3
 1036 004a 04       		.byte	0x4
 1037 004b 1D       		.byte	0x1d
 1038 004c 50000000 		.4byte	0x50
 1039 0050 04       		.uleb128 0x4
 1040 0051 01       		.byte	0x1
 1041 0052 08       		.byte	0x8
 1042 0053 DA040000 		.4byte	.LASF4
 1043 0057 04       		.uleb128 0x4
 1044 0058 02       		.byte	0x2
 1045 0059 05       		.byte	0x5
 1046 005a 07050000 		.4byte	.LASF5
 1047 005e 04       		.uleb128 0x4
 1048 005f 02       		.byte	0x2
 1049 0060 07       		.byte	0x7
 1050 0061 74060000 		.4byte	.LASF6
 1051 0065 03       		.uleb128 0x3
 1052 0066 1C030000 		.4byte	.LASF7
 1053 006a 04       		.byte	0x4
 1054 006b 3F       		.byte	0x3f
 1055 006c 70000000 		.4byte	0x70
 1056 0070 04       		.uleb128 0x4
 1057 0071 04       		.byte	0x4
 1058 0072 05       		.byte	0x5
 1059 0073 29010000 		.4byte	.LASF8
 1060 0077 03       		.uleb128 0x3
 1061 0078 58060000 		.4byte	.LASF9
 1062 007c 04       		.byte	0x4
 1063 007d 41       		.byte	0x41
 1064 007e 82000000 		.4byte	0x82
 1065 0082 04       		.uleb128 0x4
 1066 0083 04       		.byte	0x4
 1067 0084 07       		.byte	0x7
ARM GAS  C:\Users\euanm\AppData\Local\Temp\ccCsOkpq.s 			page 20


 1068 0085 DD050000 		.4byte	.LASF10
 1069 0089 04       		.uleb128 0x4
 1070 008a 08       		.byte	0x8
 1071 008b 05       		.byte	0x5
 1072 008c 9B000000 		.4byte	.LASF11
 1073 0090 03       		.uleb128 0x3
 1074 0091 54040000 		.4byte	.LASF12
 1075 0095 04       		.byte	0x4
 1076 0096 5B       		.byte	0x5b
 1077 0097 9B000000 		.4byte	0x9b
 1078 009b 04       		.uleb128 0x4
 1079 009c 08       		.byte	0x8
 1080 009d 07       		.byte	0x7
 1081 009e 46000000 		.4byte	.LASF13
 1082 00a2 04       		.uleb128 0x4
 1083 00a3 04       		.byte	0x4
 1084 00a4 07       		.byte	0x7
 1085 00a5 20080000 		.4byte	.LASF14
 1086 00a9 05       		.uleb128 0x5
 1087 00aa 04       		.byte	0x4
 1088 00ab 06       		.uleb128 0x6
 1089 00ac 04       		.byte	0x4
 1090 00ad B1000000 		.4byte	0xb1
 1091 00b1 04       		.uleb128 0x4
 1092 00b2 01       		.byte	0x1
 1093 00b3 08       		.byte	0x8
 1094 00b4 EF050000 		.4byte	.LASF15
 1095 00b8 06       		.uleb128 0x6
 1096 00b9 04       		.byte	0x4
 1097 00ba 50000000 		.4byte	0x50
 1098 00be 06       		.uleb128 0x6
 1099 00bf 04       		.byte	0x4
 1100 00c0 C4000000 		.4byte	0xc4
 1101 00c4 07       		.uleb128 0x7
 1102 00c5 B1000000 		.4byte	0xb1
 1103 00c9 03       		.uleb128 0x3
 1104 00ca 18080000 		.4byte	.LASF16
 1105 00ce 05       		.byte	0x5
 1106 00cf 18       		.byte	0x18
 1107 00d0 45000000 		.4byte	0x45
 1108 00d4 03       		.uleb128 0x3
 1109 00d5 D2040000 		.4byte	.LASF17
 1110 00d9 05       		.byte	0x5
 1111 00da 2C       		.byte	0x2c
 1112 00db 65000000 		.4byte	0x65
 1113 00df 03       		.uleb128 0x3
 1114 00e0 A0050000 		.4byte	.LASF18
 1115 00e4 05       		.byte	0x5
 1116 00e5 30       		.byte	0x30
 1117 00e6 77000000 		.4byte	0x77
 1118 00ea 03       		.uleb128 0x3
 1119 00eb 1B000000 		.4byte	.LASF19
 1120 00ef 05       		.byte	0x5
 1121 00f0 3C       		.byte	0x3c
 1122 00f1 90000000 		.4byte	0x90
 1123 00f5 08       		.uleb128 0x8
 1124 00f6 D4000000 		.4byte	0xd4
ARM GAS  C:\Users\euanm\AppData\Local\Temp\ccCsOkpq.s 			page 21


 1125 00fa 03       		.uleb128 0x3
 1126 00fb 74030000 		.4byte	.LASF20
 1127 00ff 06       		.byte	0x6
 1128 0100 45       		.byte	0x45
 1129 0101 DF000000 		.4byte	0xdf
 1130 0105 03       		.uleb128 0x3
 1131 0106 ED020000 		.4byte	.LASF21
 1132 010a 06       		.byte	0x6
 1133 010b 48       		.byte	0x48
 1134 010c C9000000 		.4byte	0xc9
 1135 0110 03       		.uleb128 0x3
 1136 0111 32010000 		.4byte	.LASF22
 1137 0115 06       		.byte	0x6
 1138 0116 49       		.byte	0x49
 1139 0117 C9000000 		.4byte	0xc9
 1140 011b 03       		.uleb128 0x3
 1141 011c 65040000 		.4byte	.LASF23
 1142 0120 06       		.byte	0x6
 1143 0121 4A       		.byte	0x4a
 1144 0122 C9000000 		.4byte	0xc9
 1145 0126 03       		.uleb128 0x3
 1146 0127 0B010000 		.4byte	.LASF24
 1147 012b 06       		.byte	0x6
 1148 012c 4B       		.byte	0x4b
 1149 012d C9000000 		.4byte	0xc9
 1150 0131 03       		.uleb128 0x3
 1151 0132 9C040000 		.4byte	.LASF25
 1152 0136 06       		.byte	0x6
 1153 0137 4C       		.byte	0x4c
 1154 0138 DF000000 		.4byte	0xdf
 1155 013c 03       		.uleb128 0x3
 1156 013d AD020000 		.4byte	.LASF26
 1157 0141 06       		.byte	0x6
 1158 0142 4D       		.byte	0x4d
 1159 0143 D4000000 		.4byte	0xd4
 1160 0147 03       		.uleb128 0x3
 1161 0148 10030000 		.4byte	.LASF27
 1162 014c 06       		.byte	0x6
 1163 014d 4F       		.byte	0x4f
 1164 014e DF000000 		.4byte	0xdf
 1165 0152 03       		.uleb128 0x3
 1166 0153 E8010000 		.4byte	.LASF28
 1167 0157 06       		.byte	0x6
 1168 0158 51       		.byte	0x51
 1169 0159 D4000000 		.4byte	0xd4
 1170 015d 03       		.uleb128 0x3
 1171 015e 3A060000 		.4byte	.LASF29
 1172 0162 07       		.byte	0x7
 1173 0163 33       		.byte	0x33
 1174 0164 DF000000 		.4byte	0xdf
 1175 0168 03       		.uleb128 0x3
 1176 0169 2A060000 		.4byte	.LASF30
 1177 016d 07       		.byte	0x7
 1178 016e 3F       		.byte	0x3f
 1179 016f 73010000 		.4byte	0x173
 1180 0173 09       		.uleb128 0x9
 1181 0174 99020000 		.4byte	.LASF52
ARM GAS  C:\Users\euanm\AppData\Local\Temp\ccCsOkpq.s 			page 22


 1182 0178 48       		.byte	0x48
 1183 0179 08       		.byte	0x8
 1184 017a C2       		.byte	0xc2
 1185 017b 78020000 		.4byte	0x278
 1186 017f 0A       		.uleb128 0xa
 1187 0180 31050000 		.4byte	.LASF31
 1188 0184 08       		.byte	0x8
 1189 0185 C3       		.byte	0xc3
 1190 0186 83020000 		.4byte	0x283
 1191 018a 00       		.byte	0
 1192 018b 0A       		.uleb128 0xa
 1193 018c 95040000 		.4byte	.LASF32
 1194 0190 08       		.byte	0x8
 1195 0191 C5       		.byte	0xc5
 1196 0192 83020000 		.4byte	0x283
 1197 0196 04       		.byte	0x4
 1198 0197 0A       		.uleb128 0xa
 1199 0198 94000000 		.4byte	.LASF33
 1200 019c 08       		.byte	0x8
 1201 019d C7       		.byte	0xc7
 1202 019e 31010000 		.4byte	0x131
 1203 01a2 08       		.byte	0x8
 1204 01a3 0A       		.uleb128 0xa
 1205 01a4 96080000 		.4byte	.LASF34
 1206 01a8 08       		.byte	0x8
 1207 01a9 C8       		.byte	0xc8
 1208 01aa AA040000 		.4byte	0x4aa
 1209 01ae 0C       		.byte	0xc
 1210 01af 0A       		.uleb128 0xa
 1211 01b0 79010000 		.4byte	.LASF35
 1212 01b4 08       		.byte	0x8
 1213 01b5 CA       		.byte	0xca
 1214 01b6 83020000 		.4byte	0x283
 1215 01ba 10       		.byte	0x10
 1216 01bb 0A       		.uleb128 0xa
 1217 01bc E9030000 		.4byte	.LASF36
 1218 01c0 08       		.byte	0x8
 1219 01c1 CB       		.byte	0xcb
 1220 01c2 83020000 		.4byte	0x283
 1221 01c6 14       		.byte	0x14
 1222 01c7 0A       		.uleb128 0xa
 1223 01c8 32080000 		.4byte	.LASF37
 1224 01cc 08       		.byte	0x8
 1225 01cd D2       		.byte	0xd2
 1226 01ce BE000000 		.4byte	0xbe
 1227 01d2 18       		.byte	0x18
 1228 01d3 0A       		.uleb128 0xa
 1229 01d4 11050000 		.4byte	.LASF38
 1230 01d8 08       		.byte	0x8
 1231 01d9 DD       		.byte	0xdd
 1232 01da 10010000 		.4byte	0x110
 1233 01de 1C       		.byte	0x1c
 1234 01df 0A       		.uleb128 0xa
 1235 01e0 38050000 		.4byte	.LASF39
 1236 01e4 08       		.byte	0x8
 1237 01e5 E1       		.byte	0xe1
 1238 01e6 05010000 		.4byte	0x105
ARM GAS  C:\Users\euanm\AppData\Local\Temp\ccCsOkpq.s 			page 23


 1239 01ea 1D       		.byte	0x1d
 1240 01eb 0A       		.uleb128 0xa
 1241 01ec CC060000 		.4byte	.LASF40
 1242 01f0 08       		.byte	0x8
 1243 01f1 E6       		.byte	0xe6
 1244 01f2 1B010000 		.4byte	0x11b
 1245 01f6 1E       		.byte	0x1e
 1246 01f7 0A       		.uleb128 0xa
 1247 01f8 19050000 		.4byte	.LASF41
 1248 01fc 08       		.byte	0x8
 1249 01fd EC       		.byte	0xec
 1250 01fe 26010000 		.4byte	0x126
 1251 0202 1F       		.byte	0x1f
 1252 0203 0A       		.uleb128 0xa
 1253 0204 03020000 		.4byte	.LASF42
 1254 0208 08       		.byte	0x8
 1255 0209 F3       		.byte	0xf3
 1256 020a EF060000 		.4byte	0x6ef
 1257 020e 20       		.byte	0x20
 1258 020f 0B       		.uleb128 0xb
 1259 0210 705F7500 		.ascii	"p_u\000"
 1260 0214 08       		.byte	0x8
 1261 0215 3101     		.2byte	0x131
 1262 0217 2A060000 		.4byte	0x62a
 1263 021b 24       		.byte	0x24
 1264 021c 0C       		.uleb128 0xc
 1265 021d 9C080000 		.4byte	.LASF43
 1266 0221 08       		.byte	0x8
 1267 0222 3601     		.2byte	0x136
 1268 0224 89020000 		.4byte	0x289
 1269 0228 28       		.byte	0x28
 1270 0229 0C       		.uleb128 0xc
 1271 022a AF060000 		.4byte	.LASF44
 1272 022e 08       		.byte	0x8
 1273 022f 3C01     		.2byte	0x13c
 1274 0231 AD020000 		.4byte	0x2ad
 1275 0235 2C       		.byte	0x2c
 1276 0236 0C       		.uleb128 0xc
 1277 0237 64080000 		.4byte	.LASF45
 1278 023b 08       		.byte	0x8
 1279 023c 4001     		.2byte	0x140
 1280 023e 3C010000 		.4byte	0x13c
 1281 0242 34       		.byte	0x34
 1282 0243 0C       		.uleb128 0xc
 1283 0244 D8030000 		.4byte	.LASF46
 1284 0248 08       		.byte	0x8
 1285 0249 4601     		.2byte	0x146
 1286 024b 47010000 		.4byte	0x147
 1287 024f 38       		.byte	0x38
 1288 0250 0C       		.uleb128 0xc
 1289 0251 FD040000 		.4byte	.LASF47
 1290 0255 08       		.byte	0x8
 1291 0256 4D01     		.2byte	0x14d
 1292 0258 E9060000 		.4byte	0x6e9
 1293 025c 3C       		.byte	0x3c
 1294 025d 0C       		.uleb128 0xc
 1295 025e 44060000 		.4byte	.LASF48
ARM GAS  C:\Users\euanm\AppData\Local\Temp\ccCsOkpq.s 			page 24


 1296 0262 08       		.byte	0x8
 1297 0263 5101     		.2byte	0x151
 1298 0265 31010000 		.4byte	0x131
 1299 0269 40       		.byte	0x40
 1300 026a 0C       		.uleb128 0xc
 1301 026b DA000000 		.4byte	.LASF49
 1302 026f 08       		.byte	0x8
 1303 0270 5801     		.2byte	0x158
 1304 0272 A9000000 		.4byte	0xa9
 1305 0276 44       		.byte	0x44
 1306 0277 00       		.byte	0
 1307 0278 03       		.uleb128 0x3
 1308 0279 7C030000 		.4byte	.LASF50
 1309 027d 07       		.byte	0x7
 1310 027e 44       		.byte	0x44
 1311 027f 83020000 		.4byte	0x283
 1312 0283 06       		.uleb128 0x6
 1313 0284 04       		.byte	0x4
 1314 0285 68010000 		.4byte	0x168
 1315 0289 03       		.uleb128 0x3
 1316 028a 40080000 		.4byte	.LASF51
 1317 028e 07       		.byte	0x7
 1318 028f 49       		.byte	0x49
 1319 0290 94020000 		.4byte	0x294
 1320 0294 09       		.uleb128 0x9
 1321 0295 C3050000 		.4byte	.LASF53
 1322 0299 04       		.byte	0x4
 1323 029a 08       		.byte	0x8
 1324 029b B0       		.byte	0xb0
 1325 029c AD020000 		.4byte	0x2ad
 1326 02a0 0A       		.uleb128 0xa
 1327 02a1 31050000 		.4byte	.LASF31
 1328 02a5 08       		.byte	0x8
 1329 02a6 B1       		.byte	0xb1
 1330 02a7 83020000 		.4byte	0x283
 1331 02ab 00       		.byte	0
 1332 02ac 00       		.byte	0
 1333 02ad 03       		.uleb128 0x3
 1334 02ae 4A050000 		.4byte	.LASF54
 1335 02b2 07       		.byte	0x7
 1336 02b3 50       		.byte	0x50
 1337 02b4 B8020000 		.4byte	0x2b8
 1338 02b8 09       		.uleb128 0x9
 1339 02b9 83000000 		.4byte	.LASF55
 1340 02bd 08       		.byte	0x8
 1341 02be 08       		.byte	0x8
 1342 02bf B7       		.byte	0xb7
 1343 02c0 DD020000 		.4byte	0x2dd
 1344 02c4 0A       		.uleb128 0xa
 1345 02c5 31050000 		.4byte	.LASF31
 1346 02c9 08       		.byte	0x8
 1347 02ca B8       		.byte	0xb8
 1348 02cb 83020000 		.4byte	0x283
 1349 02cf 00       		.byte	0
 1350 02d0 0A       		.uleb128 0xa
 1351 02d1 95040000 		.4byte	.LASF32
 1352 02d5 08       		.byte	0x8
ARM GAS  C:\Users\euanm\AppData\Local\Temp\ccCsOkpq.s 			page 25


 1353 02d6 B9       		.byte	0xb9
 1354 02d7 83020000 		.4byte	0x283
 1355 02db 04       		.byte	0x4
 1356 02dc 00       		.byte	0
 1357 02dd 03       		.uleb128 0x3
 1358 02de 00000000 		.4byte	.LASF56
 1359 02e2 07       		.byte	0x7
 1360 02e3 57       		.byte	0x57
 1361 02e4 E8020000 		.4byte	0x2e8
 1362 02e8 0D       		.uleb128 0xd
 1363 02e9 02030000 		.4byte	.LASF57
 1364 02ed 1C       		.byte	0x1c
 1365 02ee 08       		.byte	0x8
 1366 02ef 9001     		.2byte	0x190
 1367 02f1 44030000 		.4byte	0x344
 1368 02f5 0C       		.uleb128 0xc
 1369 02f6 B0050000 		.4byte	.LASF58
 1370 02fa 08       		.byte	0x8
 1371 02fb 9101     		.2byte	0x191
 1372 02fd AD020000 		.4byte	0x2ad
 1373 0301 00       		.byte	0
 1374 0302 0C       		.uleb128 0xc
 1375 0303 23050000 		.4byte	.LASF59
 1376 0307 08       		.byte	0x8
 1377 0308 9201     		.2byte	0x192
 1378 030a 31010000 		.4byte	0x131
 1379 030e 08       		.byte	0x8
 1380 030f 0C       		.uleb128 0xc
 1381 0310 F1030000 		.4byte	.LASF60
 1382 0314 08       		.byte	0x8
 1383 0315 9401     		.2byte	0x194
 1384 0317 AA040000 		.4byte	0x4aa
 1385 031b 0C       		.byte	0xc
 1386 031c 0C       		.uleb128 0xc
 1387 031d B0010000 		.4byte	.LASF61
 1388 0321 08       		.byte	0x8
 1389 0322 9701     		.2byte	0x197
 1390 0324 83020000 		.4byte	0x283
 1391 0328 10       		.byte	0x10
 1392 0329 0C       		.uleb128 0xc
 1393 032a 46040000 		.4byte	.LASF62
 1394 032e 08       		.byte	0x8
 1395 032f 9801     		.2byte	0x198
 1396 0331 83020000 		.4byte	0x283
 1397 0335 14       		.byte	0x14
 1398 0336 0C       		.uleb128 0xc
 1399 0337 3C040000 		.4byte	.LASF63
 1400 033b 08       		.byte	0x8
 1401 033c 9B01     		.2byte	0x19b
 1402 033e 83020000 		.4byte	0x283
 1403 0342 18       		.byte	0x18
 1404 0343 00       		.byte	0
 1405 0344 03       		.uleb128 0x3
 1406 0345 4F060000 		.4byte	.LASF64
 1407 0349 07       		.byte	0x7
 1408 034a 5C       		.byte	0x5c
 1409 034b 4F030000 		.4byte	0x34f
ARM GAS  C:\Users\euanm\AppData\Local\Temp\ccCsOkpq.s 			page 26


 1410 034f 06       		.uleb128 0x6
 1411 0350 04       		.byte	0x4
 1412 0351 55030000 		.4byte	0x355
 1413 0355 0E       		.uleb128 0xe
 1414 0356 60030000 		.4byte	0x360
 1415 035a 0F       		.uleb128 0xf
 1416 035b A9000000 		.4byte	0xa9
 1417 035f 00       		.byte	0
 1418 0360 03       		.uleb128 0x3
 1419 0361 85040000 		.4byte	.LASF65
 1420 0365 07       		.byte	0x7
 1421 0366 61       		.byte	0x61
 1422 0367 6B030000 		.4byte	0x36b
 1423 036b 0D       		.uleb128 0xd
 1424 036c 9E060000 		.4byte	.LASF66
 1425 0370 14       		.byte	0x14
 1426 0371 08       		.byte	0x8
 1427 0372 6B01     		.2byte	0x16b
 1428 0374 BA030000 		.4byte	0x3ba
 1429 0378 0C       		.uleb128 0xc
 1430 0379 FB010000 		.4byte	.LASF67
 1431 037d 08       		.byte	0x8
 1432 037e 6C01     		.2byte	0x16c
 1433 0380 F4060000 		.4byte	0x6f4
 1434 0384 00       		.byte	0
 1435 0385 0C       		.uleb128 0xc
 1436 0386 C1010000 		.4byte	.LASF68
 1437 038a 08       		.byte	0x8
 1438 038b 6D01     		.2byte	0x16d
 1439 038d F4060000 		.4byte	0x6f4
 1440 0391 04       		.byte	0x4
 1441 0392 0C       		.uleb128 0xc
 1442 0393 25020000 		.4byte	.LASF69
 1443 0397 08       		.byte	0x8
 1444 0398 6E01     		.2byte	0x16e
 1445 039a 5D010000 		.4byte	0x15d
 1446 039e 08       		.byte	0x8
 1447 039f 0C       		.uleb128 0xc
 1448 03a0 23040000 		.4byte	.LASF70
 1449 03a4 08       		.byte	0x8
 1450 03a5 6F01     		.2byte	0x16f
 1451 03a7 44030000 		.4byte	0x344
 1452 03ab 0C       		.byte	0xc
 1453 03ac 0C       		.uleb128 0xc
 1454 03ad BA060000 		.4byte	.LASF71
 1455 03b1 08       		.byte	0x8
 1456 03b2 7101     		.2byte	0x171
 1457 03b4 A9000000 		.4byte	0xa9
 1458 03b8 10       		.byte	0x10
 1459 03b9 00       		.byte	0
 1460 03ba 03       		.uleb128 0x3
 1461 03bb 2B030000 		.4byte	.LASF72
 1462 03bf 07       		.byte	0x7
 1463 03c0 66       		.byte	0x66
 1464 03c1 C5030000 		.4byte	0x3c5
 1465 03c5 0D       		.uleb128 0xd
 1466 03c6 A0030000 		.4byte	.LASF73
ARM GAS  C:\Users\euanm\AppData\Local\Temp\ccCsOkpq.s 			page 27


 1467 03ca 10       		.byte	0x10
 1468 03cb 08       		.byte	0x8
 1469 03cc 7B01     		.2byte	0x17b
 1470 03ce 07040000 		.4byte	0x407
 1471 03d2 0C       		.uleb128 0xc
 1472 03d3 FB010000 		.4byte	.LASF67
 1473 03d7 08       		.byte	0x8
 1474 03d8 7C01     		.2byte	0x17c
 1475 03da F4060000 		.4byte	0x6f4
 1476 03de 00       		.byte	0
 1477 03df 0C       		.uleb128 0xc
 1478 03e0 C1010000 		.4byte	.LASF68
 1479 03e4 08       		.byte	0x8
 1480 03e5 7E01     		.2byte	0x17e
 1481 03e7 F4060000 		.4byte	0x6f4
 1482 03eb 04       		.byte	0x4
 1483 03ec 0C       		.uleb128 0xc
 1484 03ed 25020000 		.4byte	.LASF69
 1485 03f1 08       		.byte	0x8
 1486 03f2 8001     		.2byte	0x180
 1487 03f4 5D010000 		.4byte	0x15d
 1488 03f8 08       		.byte	0x8
 1489 03f9 0C       		.uleb128 0xc
 1490 03fa B8050000 		.4byte	.LASF74
 1491 03fe 08       		.byte	0x8
 1492 03ff 8201     		.2byte	0x182
 1493 0401 EF060000 		.4byte	0x6ef
 1494 0405 0C       		.byte	0xc
 1495 0406 00       		.byte	0
 1496 0407 03       		.uleb128 0x3
 1497 0408 2E020000 		.4byte	.LASF75
 1498 040c 07       		.byte	0x7
 1499 040d 6B       		.byte	0x6b
 1500 040e 12040000 		.4byte	0x412
 1501 0412 0D       		.uleb128 0xd
 1502 0413 BC040000 		.4byte	.LASF76
 1503 0417 04       		.byte	0x4
 1504 0418 08       		.byte	0x8
 1505 0419 A201     		.2byte	0x1a2
 1506 041b 2D040000 		.4byte	0x42d
 1507 041f 0C       		.uleb128 0xc
 1508 0420 63060000 		.4byte	.LASF77
 1509 0424 08       		.byte	0x8
 1510 0425 AA01     		.2byte	0x1aa
 1511 0427 FA060000 		.4byte	0x6fa
 1512 042b 00       		.byte	0
 1513 042c 00       		.byte	0
 1514 042d 03       		.uleb128 0x3
 1515 042e E1020000 		.4byte	.LASF78
 1516 0432 07       		.byte	0x7
 1517 0433 70       		.byte	0x70
 1518 0434 38040000 		.4byte	0x438
 1519 0438 10       		.uleb128 0x10
 1520 0439 1F010000 		.4byte	.LASF79
 1521 043d 5802     		.2byte	0x258
 1522 043f 08       		.byte	0x8
 1523 0440 C201     		.2byte	0x1c2
ARM GAS  C:\Users\euanm\AppData\Local\Temp\ccCsOkpq.s 			page 28


 1524 0442 94040000 		.4byte	0x494
 1525 0446 0C       		.uleb128 0xc
 1526 0447 0D080000 		.4byte	.LASF80
 1527 044b 08       		.byte	0x8
 1528 044c C601     		.2byte	0x1c6
 1529 044e DD020000 		.4byte	0x2dd
 1530 0452 00       		.byte	0
 1531 0453 0C       		.uleb128 0xc
 1532 0454 3F000000 		.4byte	.LASF81
 1533 0458 08       		.byte	0x8
 1534 0459 CA01     		.2byte	0x1ca
 1535 045b BA030000 		.4byte	0x3ba
 1536 045f 1C       		.byte	0x1c
 1537 0460 0B       		.uleb128 0xb
 1538 0461 64626700 		.ascii	"dbg\000"
 1539 0465 08       		.byte	0x8
 1540 0466 CE01     		.2byte	0x1ce
 1541 0468 07040000 		.4byte	0x407
 1542 046c 2C       		.byte	0x2c
 1543 046d 0C       		.uleb128 0xc
 1544 046e 5D000000 		.4byte	.LASF82
 1545 0472 08       		.byte	0x8
 1546 0473 D201     		.2byte	0x1d2
 1547 0475 68010000 		.4byte	0x168
 1548 0479 30       		.byte	0x30
 1549 047a 0B       		.uleb128 0xb
 1550 047b 746D00   		.ascii	"tm\000"
 1551 047e 08       		.byte	0x8
 1552 047f D701     		.2byte	0x1d7
 1553 0481 1F060000 		.4byte	0x61f
 1554 0485 78       		.byte	0x78
 1555 0486 0C       		.uleb128 0xc
 1556 0487 D9010000 		.4byte	.LASF83
 1557 048b 08       		.byte	0x8
 1558 048c E301     		.2byte	0x1e3
 1559 048e FF060000 		.4byte	0x6ff
 1560 0492 80       		.byte	0x80
 1561 0493 00       		.byte	0
 1562 0494 03       		.uleb128 0x3
 1563 0495 B8010000 		.4byte	.LASF84
 1564 0499 09       		.byte	0x9
 1565 049a 65       		.byte	0x65
 1566 049b A9000000 		.4byte	0xa9
 1567 049f 03       		.uleb128 0x3
 1568 04a0 41030000 		.4byte	.LASF85
 1569 04a4 09       		.byte	0x9
 1570 04a5 6D       		.byte	0x6d
 1571 04a6 EA000000 		.4byte	0xea
 1572 04aa 09       		.uleb128 0x9
 1573 04ab 7F020000 		.4byte	.LASF86
 1574 04af 04       		.byte	0x4
 1575 04b0 09       		.byte	0x9
 1576 04b1 89       		.byte	0x89
 1577 04b2 C3040000 		.4byte	0x4c3
 1578 04b6 11       		.uleb128 0x11
 1579 04b7 72313300 		.ascii	"r13\000"
 1580 04bb 09       		.byte	0x9
ARM GAS  C:\Users\euanm\AppData\Local\Temp\ccCsOkpq.s 			page 29


 1581 04bc 8A       		.byte	0x8a
 1582 04bd 04060000 		.4byte	0x604
 1583 04c1 00       		.byte	0
 1584 04c2 00       		.byte	0
 1585 04c3 09       		.uleb128 0x9
 1586 04c4 2E000000 		.4byte	.LASF87
 1587 04c8 64       		.byte	0x64
 1588 04c9 0A       		.byte	0xa
 1589 04ca F4       		.byte	0xf4
 1590 04cb 04060000 		.4byte	0x604
 1591 04cf 11       		.uleb128 0x11
 1592 04d0 73313600 		.ascii	"s16\000"
 1593 04d4 0A       		.byte	0xa
 1594 04d5 F6       		.byte	0xf6
 1595 04d6 94040000 		.4byte	0x494
 1596 04da 00       		.byte	0
 1597 04db 11       		.uleb128 0x11
 1598 04dc 73313700 		.ascii	"s17\000"
 1599 04e0 0A       		.byte	0xa
 1600 04e1 F7       		.byte	0xf7
 1601 04e2 94040000 		.4byte	0x494
 1602 04e6 04       		.byte	0x4
 1603 04e7 11       		.uleb128 0x11
 1604 04e8 73313800 		.ascii	"s18\000"
 1605 04ec 0A       		.byte	0xa
 1606 04ed F8       		.byte	0xf8
 1607 04ee 94040000 		.4byte	0x494
 1608 04f2 08       		.byte	0x8
 1609 04f3 11       		.uleb128 0x11
 1610 04f4 73313900 		.ascii	"s19\000"
 1611 04f8 0A       		.byte	0xa
 1612 04f9 F9       		.byte	0xf9
 1613 04fa 94040000 		.4byte	0x494
 1614 04fe 0C       		.byte	0xc
 1615 04ff 11       		.uleb128 0x11
 1616 0500 73323000 		.ascii	"s20\000"
 1617 0504 0A       		.byte	0xa
 1618 0505 FA       		.byte	0xfa
 1619 0506 94040000 		.4byte	0x494
 1620 050a 10       		.byte	0x10
 1621 050b 11       		.uleb128 0x11
 1622 050c 73323100 		.ascii	"s21\000"
 1623 0510 0A       		.byte	0xa
 1624 0511 FB       		.byte	0xfb
 1625 0512 94040000 		.4byte	0x494
 1626 0516 14       		.byte	0x14
 1627 0517 11       		.uleb128 0x11
 1628 0518 73323200 		.ascii	"s22\000"
 1629 051c 0A       		.byte	0xa
 1630 051d FC       		.byte	0xfc
 1631 051e 94040000 		.4byte	0x494
 1632 0522 18       		.byte	0x18
 1633 0523 11       		.uleb128 0x11
 1634 0524 73323300 		.ascii	"s23\000"
 1635 0528 0A       		.byte	0xa
 1636 0529 FD       		.byte	0xfd
 1637 052a 94040000 		.4byte	0x494
ARM GAS  C:\Users\euanm\AppData\Local\Temp\ccCsOkpq.s 			page 30


 1638 052e 1C       		.byte	0x1c
 1639 052f 11       		.uleb128 0x11
 1640 0530 73323400 		.ascii	"s24\000"
 1641 0534 0A       		.byte	0xa
 1642 0535 FE       		.byte	0xfe
 1643 0536 94040000 		.4byte	0x494
 1644 053a 20       		.byte	0x20
 1645 053b 11       		.uleb128 0x11
 1646 053c 73323500 		.ascii	"s25\000"
 1647 0540 0A       		.byte	0xa
 1648 0541 FF       		.byte	0xff
 1649 0542 94040000 		.4byte	0x494
 1650 0546 24       		.byte	0x24
 1651 0547 0B       		.uleb128 0xb
 1652 0548 73323600 		.ascii	"s26\000"
 1653 054c 0A       		.byte	0xa
 1654 054d 0001     		.2byte	0x100
 1655 054f 94040000 		.4byte	0x494
 1656 0553 28       		.byte	0x28
 1657 0554 0B       		.uleb128 0xb
 1658 0555 73323700 		.ascii	"s27\000"
 1659 0559 0A       		.byte	0xa
 1660 055a 0101     		.2byte	0x101
 1661 055c 94040000 		.4byte	0x494
 1662 0560 2C       		.byte	0x2c
 1663 0561 0B       		.uleb128 0xb
 1664 0562 73323800 		.ascii	"s28\000"
 1665 0566 0A       		.byte	0xa
 1666 0567 0201     		.2byte	0x102
 1667 0569 94040000 		.4byte	0x494
 1668 056d 30       		.byte	0x30
 1669 056e 0B       		.uleb128 0xb
 1670 056f 73323900 		.ascii	"s29\000"
 1671 0573 0A       		.byte	0xa
 1672 0574 0301     		.2byte	0x103
 1673 0576 94040000 		.4byte	0x494
 1674 057a 34       		.byte	0x34
 1675 057b 0B       		.uleb128 0xb
 1676 057c 73333000 		.ascii	"s30\000"
 1677 0580 0A       		.byte	0xa
 1678 0581 0401     		.2byte	0x104
 1679 0583 94040000 		.4byte	0x494
 1680 0587 38       		.byte	0x38
 1681 0588 0B       		.uleb128 0xb
 1682 0589 73333100 		.ascii	"s31\000"
 1683 058d 0A       		.byte	0xa
 1684 058e 0501     		.2byte	0x105
 1685 0590 94040000 		.4byte	0x494
 1686 0594 3C       		.byte	0x3c
 1687 0595 0B       		.uleb128 0xb
 1688 0596 723400   		.ascii	"r4\000"
 1689 0599 0A       		.byte	0xa
 1690 059a 0701     		.2byte	0x107
 1691 059c 94040000 		.4byte	0x494
 1692 05a0 40       		.byte	0x40
 1693 05a1 0B       		.uleb128 0xb
 1694 05a2 723500   		.ascii	"r5\000"
ARM GAS  C:\Users\euanm\AppData\Local\Temp\ccCsOkpq.s 			page 31


 1695 05a5 0A       		.byte	0xa
 1696 05a6 0801     		.2byte	0x108
 1697 05a8 94040000 		.4byte	0x494
 1698 05ac 44       		.byte	0x44
 1699 05ad 0B       		.uleb128 0xb
 1700 05ae 723600   		.ascii	"r6\000"
 1701 05b1 0A       		.byte	0xa
 1702 05b2 0901     		.2byte	0x109
 1703 05b4 94040000 		.4byte	0x494
 1704 05b8 48       		.byte	0x48
 1705 05b9 0B       		.uleb128 0xb
 1706 05ba 723700   		.ascii	"r7\000"
 1707 05bd 0A       		.byte	0xa
 1708 05be 0A01     		.2byte	0x10a
 1709 05c0 94040000 		.4byte	0x494
 1710 05c4 4C       		.byte	0x4c
 1711 05c5 0B       		.uleb128 0xb
 1712 05c6 723800   		.ascii	"r8\000"
 1713 05c9 0A       		.byte	0xa
 1714 05ca 0B01     		.2byte	0x10b
 1715 05cc 94040000 		.4byte	0x494
 1716 05d0 50       		.byte	0x50
 1717 05d1 0B       		.uleb128 0xb
 1718 05d2 723900   		.ascii	"r9\000"
 1719 05d5 0A       		.byte	0xa
 1720 05d6 0C01     		.2byte	0x10c
 1721 05d8 94040000 		.4byte	0x494
 1722 05dc 54       		.byte	0x54
 1723 05dd 0B       		.uleb128 0xb
 1724 05de 72313000 		.ascii	"r10\000"
 1725 05e2 0A       		.byte	0xa
 1726 05e3 0D01     		.2byte	0x10d
 1727 05e5 94040000 		.4byte	0x494
 1728 05e9 58       		.byte	0x58
 1729 05ea 0B       		.uleb128 0xb
 1730 05eb 72313100 		.ascii	"r11\000"
 1731 05ef 0A       		.byte	0xa
 1732 05f0 0E01     		.2byte	0x10e
 1733 05f2 94040000 		.4byte	0x494
 1734 05f6 5C       		.byte	0x5c
 1735 05f7 0B       		.uleb128 0xb
 1736 05f8 6C7200   		.ascii	"lr\000"
 1737 05fb 0A       		.byte	0xa
 1738 05fc 0F01     		.2byte	0x10f
 1739 05fe 94040000 		.4byte	0x494
 1740 0602 60       		.byte	0x60
 1741 0603 00       		.byte	0
 1742 0604 06       		.uleb128 0x6
 1743 0605 04       		.byte	0x4
 1744 0606 C3040000 		.4byte	0x4c3
 1745 060a 12       		.uleb128 0x12
 1746 060b 04       		.byte	0x4
 1747 060c 0B       		.byte	0xb
 1748 060d 38       		.byte	0x38
 1749 060e 1F060000 		.4byte	0x61f
 1750 0612 0A       		.uleb128 0xa
 1751 0613 6D060000 		.4byte	.LASF88
ARM GAS  C:\Users\euanm\AppData\Local\Temp\ccCsOkpq.s 			page 32


 1752 0617 0B       		.byte	0xb
 1753 0618 3C       		.byte	0x3c
 1754 0619 FA000000 		.4byte	0xfa
 1755 061d 00       		.byte	0
 1756 061e 00       		.byte	0
 1757 061f 03       		.uleb128 0x3
 1758 0620 8F030000 		.4byte	.LASF89
 1759 0624 0B       		.byte	0xb
 1760 0625 3D       		.byte	0x3d
 1761 0626 0A060000 		.4byte	0x60a
 1762 062a 13       		.uleb128 0x13
 1763 062b 04       		.byte	0x4
 1764 062c 08       		.byte	0x8
 1765 062d FA       		.byte	0xfa
 1766 062e 87060000 		.4byte	0x687
 1767 0632 14       		.uleb128 0x14
 1768 0633 14000000 		.4byte	.LASF90
 1769 0637 08       		.byte	0x8
 1770 0638 0101     		.2byte	0x101
 1771 063a 3C010000 		.4byte	0x13c
 1772 063e 14       		.uleb128 0x14
 1773 063f A7010000 		.4byte	.LASF91
 1774 0643 08       		.byte	0x8
 1775 0644 0801     		.2byte	0x108
 1776 0646 3C010000 		.4byte	0x13c
 1777 064a 14       		.uleb128 0x14
 1778 064b 39080000 		.4byte	.LASF92
 1779 064f 08       		.byte	0x8
 1780 0650 0F01     		.2byte	0x10f
 1781 0652 A9000000 		.4byte	0xa9
 1782 0656 14       		.uleb128 0x14
 1783 0657 B7030000 		.4byte	.LASF93
 1784 065b 08       		.byte	0x8
 1785 065c 1601     		.2byte	0x116
 1786 065e 87060000 		.4byte	0x687
 1787 0662 14       		.uleb128 0x14
 1788 0663 0A020000 		.4byte	.LASF94
 1789 0667 08       		.byte	0x8
 1790 0668 1E01     		.2byte	0x11e
 1791 066a B2060000 		.4byte	0x6b2
 1792 066e 14       		.uleb128 0x14
 1793 066f A9050000 		.4byte	.LASF95
 1794 0673 08       		.byte	0x8
 1795 0674 2701     		.2byte	0x127
 1796 0676 E9060000 		.4byte	0x6e9
 1797 067a 14       		.uleb128 0x14
 1798 067b 2A050000 		.4byte	.LASF96
 1799 067f 08       		.byte	0x8
 1800 0680 2F01     		.2byte	0x12f
 1801 0682 47010000 		.4byte	0x147
 1802 0686 00       		.byte	0
 1803 0687 06       		.uleb128 0x6
 1804 0688 04       		.byte	0x4
 1805 0689 78020000 		.4byte	0x278
 1806 068d 09       		.uleb128 0x9
 1807 068e 73050000 		.4byte	.LASF97
 1808 0692 0C       		.byte	0xc
ARM GAS  C:\Users\euanm\AppData\Local\Temp\ccCsOkpq.s 			page 33


 1809 0693 0C       		.byte	0xc
 1810 0694 34       		.byte	0x34
 1811 0695 B2060000 		.4byte	0x6b2
 1812 0699 0A       		.uleb128 0xa
 1813 069a 81010000 		.4byte	.LASF98
 1814 069e 0C       		.byte	0xc
 1815 069f 35       		.byte	0x35
 1816 06a0 AD020000 		.4byte	0x2ad
 1817 06a4 00       		.byte	0
 1818 06a5 0A       		.uleb128 0xa
 1819 06a6 6D020000 		.4byte	.LASF99
 1820 06aa 0C       		.byte	0xc
 1821 06ab 37       		.byte	0x37
 1822 06ac 52010000 		.4byte	0x152
 1823 06b0 08       		.byte	0x8
 1824 06b1 00       		.byte	0
 1825 06b2 06       		.uleb128 0x6
 1826 06b3 04       		.byte	0x4
 1827 06b4 8D060000 		.4byte	0x68d
 1828 06b8 09       		.uleb128 0x9
 1829 06b9 29080000 		.4byte	.LASF100
 1830 06bd 10       		.byte	0x10
 1831 06be 0D       		.byte	0xd
 1832 06bf 39       		.byte	0x39
 1833 06c0 E9060000 		.4byte	0x6e9
 1834 06c4 0A       		.uleb128 0xa
 1835 06c5 EF000000 		.4byte	.LASF101
 1836 06c9 0D       		.byte	0xd
 1837 06ca 3A       		.byte	0x3a
 1838 06cb AD020000 		.4byte	0x2ad
 1839 06cf 00       		.byte	0
 1840 06d0 0A       		.uleb128 0xa
 1841 06d1 7D080000 		.4byte	.LASF102
 1842 06d5 0D       		.byte	0xd
 1843 06d6 3C       		.byte	0x3c
 1844 06d7 83020000 		.4byte	0x283
 1845 06db 08       		.byte	0x8
 1846 06dc 0A       		.uleb128 0xa
 1847 06dd 33060000 		.4byte	.LASF103
 1848 06e1 0D       		.byte	0xd
 1849 06e2 3E       		.byte	0x3e
 1850 06e3 1A070000 		.4byte	0x71a
 1851 06e7 0C       		.byte	0xc
 1852 06e8 00       		.byte	0
 1853 06e9 06       		.uleb128 0x6
 1854 06ea 04       		.byte	0x4
 1855 06eb B8060000 		.4byte	0x6b8
 1856 06ef 08       		.uleb128 0x8
 1857 06f0 5D010000 		.4byte	0x15d
 1858 06f4 06       		.uleb128 0x6
 1859 06f5 04       		.byte	0x4
 1860 06f6 60030000 		.4byte	0x360
 1861 06fa 08       		.uleb128 0x8
 1862 06fb BE000000 		.4byte	0xbe
 1863 06ff 15       		.uleb128 0x15
 1864 0700 9F040000 		.4byte	0x49f
 1865 0704 0F070000 		.4byte	0x70f
ARM GAS  C:\Users\euanm\AppData\Local\Temp\ccCsOkpq.s 			page 34


 1866 0708 16       		.uleb128 0x16
 1867 0709 A2000000 		.4byte	0xa2
 1868 070d 3A       		.byte	0x3a
 1869 070e 00       		.byte	0
 1870 070f 03       		.uleb128 0x3
 1871 0710 D1010000 		.4byte	.LASF104
 1872 0714 0D       		.byte	0xd
 1873 0715 34       		.byte	0x34
 1874 0716 B8060000 		.4byte	0x6b8
 1875 071a 06       		.uleb128 0x6
 1876 071b 04       		.byte	0x4
 1877 071c 0F070000 		.4byte	0x70f
 1878 0720 04       		.uleb128 0x4
 1879 0721 04       		.byte	0x4
 1880 0722 04       		.byte	0x4
 1881 0723 5F040000 		.4byte	.LASF105
 1882 0727 04       		.uleb128 0x4
 1883 0728 01       		.byte	0x1
 1884 0729 02       		.byte	0x2
 1885 072a CC040000 		.4byte	.LASF106
 1886 072e 17       		.uleb128 0x17
 1887 072f 18       		.byte	0x18
 1888 0730 0E       		.byte	0xe
 1889 0731 0302     		.2byte	0x203
 1890 0733 93070000 		.4byte	0x793
 1891 0737 0C       		.uleb128 0xc
 1892 0738 D3050000 		.4byte	.LASF107
 1893 073c 0E       		.byte	0xe
 1894 073d 0402     		.2byte	0x204
 1895 073f 25000000 		.4byte	0x25
 1896 0743 00       		.byte	0
 1897 0744 0C       		.uleb128 0xc
 1898 0745 D8050000 		.4byte	.LASF108
 1899 0749 0E       		.byte	0xe
 1900 074a 0502     		.2byte	0x205
 1901 074c 25000000 		.4byte	0x25
 1902 0750 04       		.byte	0x4
 1903 0751 0C       		.uleb128 0xc
 1904 0752 3D020000 		.4byte	.LASF109
 1905 0756 0E       		.byte	0xe
 1906 0757 0602     		.2byte	0x206
 1907 0759 25000000 		.4byte	0x25
 1908 075d 08       		.byte	0x8
 1909 075e 0C       		.uleb128 0xc
 1910 075f 43020000 		.4byte	.LASF110
 1911 0763 0E       		.byte	0xe
 1912 0764 0702     		.2byte	0x207
 1913 0766 25000000 		.4byte	0x25
 1914 076a 0C       		.byte	0xc
 1915 076b 0C       		.uleb128 0xc
 1916 076c 49020000 		.4byte	.LASF111
 1917 0770 0E       		.byte	0xe
 1918 0771 0802     		.2byte	0x208
 1919 0773 25000000 		.4byte	0x25
 1920 0777 10       		.byte	0x10
 1921 0778 0C       		.uleb128 0xc
 1922 0779 B3020000 		.4byte	.LASF112
ARM GAS  C:\Users\euanm\AppData\Local\Temp\ccCsOkpq.s 			page 35


 1923 077d 0E       		.byte	0xe
 1924 077e 0902     		.2byte	0x209
 1925 0780 27070000 		.4byte	0x727
 1926 0784 14       		.byte	0x14
 1927 0785 0C       		.uleb128 0xc
 1928 0786 26030000 		.4byte	.LASF113
 1929 078a 0E       		.byte	0xe
 1930 078b 0A02     		.2byte	0x20a
 1931 078d 27070000 		.4byte	0x727
 1932 0791 15       		.byte	0x15
 1933 0792 00       		.byte	0
 1934 0793 18       		.uleb128 0x18
 1935 0794 B5000000 		.4byte	.LASF114
 1936 0798 0E       		.byte	0xe
 1937 0799 0B02     		.2byte	0x20b
 1938 079b 2E070000 		.4byte	0x72e
 1939 079f 17       		.uleb128 0x17
 1940 07a0 0C       		.byte	0xc
 1941 07a1 0E       		.byte	0xe
 1942 07a2 1602     		.2byte	0x216
 1943 07a4 F7070000 		.4byte	0x7f7
 1944 07a8 0C       		.uleb128 0xc
 1945 07a9 D3050000 		.4byte	.LASF107
 1946 07ad 0E       		.byte	0xe
 1947 07ae 1702     		.2byte	0x217
 1948 07b0 C9000000 		.4byte	0xc9
 1949 07b4 00       		.byte	0
 1950 07b5 0C       		.uleb128 0xc
 1951 07b6 D8050000 		.4byte	.LASF108
 1952 07ba 0E       		.byte	0xe
 1953 07bb 1802     		.2byte	0x218
 1954 07bd C9000000 		.4byte	0xc9
 1955 07c1 01       		.byte	0x1
 1956 07c2 0C       		.uleb128 0xc
 1957 07c3 B3020000 		.4byte	.LASF112
 1958 07c7 0E       		.byte	0xe
 1959 07c8 1902     		.2byte	0x219
 1960 07ca 27070000 		.4byte	0x727
 1961 07ce 02       		.byte	0x2
 1962 07cf 0C       		.uleb128 0xc
 1963 07d0 26030000 		.4byte	.LASF113
 1964 07d4 0E       		.byte	0xe
 1965 07d5 1A02     		.2byte	0x21a
 1966 07d7 27070000 		.4byte	0x727
 1967 07db 03       		.byte	0x3
 1968 07dc 0C       		.uleb128 0xc
 1969 07dd F5040000 		.4byte	.LASF115
 1970 07e1 0E       		.byte	0xe
 1971 07e2 1B02     		.2byte	0x21b
 1972 07e4 27070000 		.4byte	0x727
 1973 07e8 04       		.byte	0x4
 1974 07e9 0C       		.uleb128 0xc
 1975 07ea 3A000000 		.4byte	.LASF116
 1976 07ee 0E       		.byte	0xe
 1977 07ef 1C02     		.2byte	0x21c
 1978 07f1 20070000 		.4byte	0x720
 1979 07f5 08       		.byte	0x8
ARM GAS  C:\Users\euanm\AppData\Local\Temp\ccCsOkpq.s 			page 36


 1980 07f6 00       		.byte	0
 1981 07f7 18       		.uleb128 0x18
 1982 07f8 D3060000 		.4byte	.LASF117
 1983 07fc 0E       		.byte	0xe
 1984 07fd 1D02     		.2byte	0x21d
 1985 07ff 9F070000 		.4byte	0x79f
 1986 0803 19       		.uleb128 0x19
 1987 0804 01       		.byte	0x1
 1988 0805 50000000 		.4byte	0x50
 1989 0809 0E       		.byte	0xe
 1990 080a 1F02     		.2byte	0x21f
 1991 080c 3B080000 		.4byte	0x83b
 1992 0810 1A       		.uleb128 0x1a
 1993 0811 87060000 		.4byte	.LASF118
 1994 0815 00       		.byte	0
 1995 0816 1A       		.uleb128 0x1a
 1996 0817 F7000000 		.4byte	.LASF119
 1997 081b 01       		.byte	0x1
 1998 081c 1A       		.uleb128 0x1a
 1999 081d 87020000 		.4byte	.LASF120
 2000 0821 02       		.byte	0x2
 2001 0822 1A       		.uleb128 0x1a
 2002 0823 08040000 		.4byte	.LASF121
 2003 0827 03       		.byte	0x3
 2004 0828 1A       		.uleb128 0x1a
 2005 0829 59010000 		.4byte	.LASF122
 2006 082d 04       		.byte	0x4
 2007 082e 1A       		.uleb128 0x1a
 2008 082f 89010000 		.4byte	.LASF123
 2009 0833 05       		.byte	0x5
 2010 0834 1A       		.uleb128 0x1a
 2011 0835 B8020000 		.4byte	.LASF124
 2012 0839 06       		.byte	0x6
 2013 083a 00       		.byte	0
 2014 083b 18       		.uleb128 0x18
 2015 083c 5E030000 		.4byte	.LASF125
 2016 0840 0E       		.byte	0xe
 2017 0841 2702     		.2byte	0x227
 2018 0843 03080000 		.4byte	0x803
 2019 0847 1B       		.uleb128 0x1b
 2020 0848 6A080000 		.4byte	.LASF168
 2021 084c 02       		.byte	0x2
 2022 084d 84       		.byte	0x84
 2023 084e 03       		.byte	0x3
 2024 084f 5F080000 		.4byte	0x85f
 2025 0853 1C       		.uleb128 0x1c
 2026 0854 4F020000 		.4byte	.LASF126
 2027 0858 02       		.byte	0x2
 2028 0859 84       		.byte	0x84
 2029 085a BE000000 		.4byte	0xbe
 2030 085e 00       		.byte	0
 2031 085f 1D       		.uleb128 0x1d
 2032 0860 16060000 		.4byte	.LASF169
 2033 0864 01       		.byte	0x1
 2034 0865 44       		.byte	0x44
 2035 0866 25000000 		.4byte	0x25
 2036 086a 01       		.byte	0x1
ARM GAS  C:\Users\euanm\AppData\Local\Temp\ccCsOkpq.s 			page 37


 2037 086b 91080000 		.4byte	0x891
 2038 086f 1C       		.uleb128 0x1c
 2039 0870 7A020000 		.4byte	.LASF127
 2040 0874 01       		.byte	0x1
 2041 0875 44       		.byte	0x44
 2042 0876 AB000000 		.4byte	0xab
 2043 087a 1E       		.uleb128 0x1e
 2044 087b 6C656E00 		.ascii	"len\000"
 2045 087f 01       		.byte	0x1
 2046 0880 44       		.byte	0x44
 2047 0881 25000000 		.4byte	0x25
 2048 0885 1F       		.uleb128 0x1f
 2049 0886 72657300 		.ascii	"res\000"
 2050 088a 01       		.byte	0x1
 2051 088b 45       		.byte	0x45
 2052 088c 25000000 		.4byte	0x25
 2053 0890 00       		.byte	0
 2054 0891 20       		.uleb128 0x20
 2055 0892 40050000 		.4byte	.LASF133
 2056 0896 01       		.byte	0x1
 2057 0897 4E       		.byte	0x4e
 2058 0898 00000000 		.4byte	.LFB221
 2059 089c 50000000 		.4byte	.LFE221-.LFB221
 2060 08a0 01       		.uleb128 0x1
 2061 08a1 9C       		.byte	0x9c
 2062 08a2 4A090000 		.4byte	0x94a
 2063 08a6 21       		.uleb128 0x21
 2064 08a7 61726700 		.ascii	"arg\000"
 2065 08ab 01       		.byte	0x1
 2066 08ac 4E       		.byte	0x4e
 2067 08ad A9000000 		.4byte	0xa9
 2068 08b1 00000000 		.4byte	.LLST0
 2069 08b5 22       		.uleb128 0x22
 2070 08b6 47080000 		.4byte	0x847
 2071 08ba 02000000 		.4byte	.LBB28
 2072 08be 0C000000 		.4byte	.LBE28-.LBB28
 2073 08c2 01       		.byte	0x1
 2074 08c3 51       		.byte	0x51
 2075 08c4 D5080000 		.4byte	0x8d5
 2076 08c8 23       		.uleb128 0x23
 2077 08c9 53080000 		.4byte	0x853
 2078 08cd 06       		.uleb128 0x6
 2079 08ce 03       		.byte	0x3
 2080 08cf 00000000 		.4byte	.LC0
 2081 08d3 9F       		.byte	0x9f
 2082 08d4 00       		.byte	0
 2083 08d5 24       		.uleb128 0x24
 2084 08d6 00000000 		.4byte	.Ldebug_ranges0+0
 2085 08da 3A090000 		.4byte	0x93a
 2086 08de 25       		.uleb128 0x25
 2087 08df 706C00   		.ascii	"pl\000"
 2088 08e2 01       		.byte	0x1
 2089 08e3 57       		.byte	0x57
 2090 08e4 4A090000 		.4byte	0x94a
 2091 08e8 02       		.uleb128 0x2
 2092 08e9 91       		.byte	0x91
 2093 08ea 64       		.sleb128 -28
ARM GAS  C:\Users\euanm\AppData\Local\Temp\ccCsOkpq.s 			page 38


 2094 08eb 26       		.uleb128 0x26
 2095 08ec 24060000 		.4byte	.LASF128
 2096 08f0 01       		.byte	0x1
 2097 08f1 58       		.byte	0x58
 2098 08f2 D4000000 		.4byte	0xd4
 2099 08f6 01       		.byte	0x1
 2100 08f7 27       		.uleb128 0x27
 2101 08f8 5F080000 		.4byte	0x85f
 2102 08fc 26000000 		.4byte	.LBB31
 2103 0900 18000000 		.4byte	.Ldebug_ranges0+0x18
 2104 0904 01       		.byte	0x1
 2105 0905 5A       		.byte	0x5a
 2106 0906 28       		.uleb128 0x28
 2107 0907 7A080000 		.4byte	0x87a
 2108 090b 21000000 		.4byte	.LLST1
 2109 090f 28       		.uleb128 0x28
 2110 0910 6F080000 		.4byte	0x86f
 2111 0914 35000000 		.4byte	.LLST2
 2112 0918 29       		.uleb128 0x29
 2113 0919 18000000 		.4byte	.Ldebug_ranges0+0x18
 2114 091d 2A       		.uleb128 0x2a
 2115 091e 85080000 		.4byte	0x885
 2116 0922 2B       		.uleb128 0x2b
 2117 0923 32000000 		.4byte	.LVL5
 2118 0927 BF0F0000 		.4byte	0xfbf
 2119 092b 2C       		.uleb128 0x2c
 2120 092c 01       		.uleb128 0x1
 2121 092d 50       		.byte	0x50
 2122 092e 02       		.uleb128 0x2
 2123 092f 91       		.byte	0x91
 2124 0930 64       		.sleb128 -28
 2125 0931 2C       		.uleb128 0x2c
 2126 0932 01       		.uleb128 0x1
 2127 0933 51       		.byte	0x51
 2128 0934 01       		.uleb128 0x1
 2129 0935 31       		.byte	0x31
 2130 0936 00       		.byte	0
 2131 0937 00       		.byte	0
 2132 0938 00       		.byte	0
 2133 0939 00       		.byte	0
 2134 093a 2B       		.uleb128 0x2b
 2135 093b 1C000000 		.4byte	.LVL2
 2136 093f CA0F0000 		.4byte	0xfca
 2137 0943 2C       		.uleb128 0x2c
 2138 0944 01       		.uleb128 0x1
 2139 0945 50       		.byte	0x50
 2140 0946 01       		.uleb128 0x1
 2141 0947 3A       		.byte	0x3a
 2142 0948 00       		.byte	0
 2143 0949 00       		.byte	0
 2144 094a 15       		.uleb128 0x15
 2145 094b C9000000 		.4byte	0xc9
 2146 094f 5A090000 		.4byte	0x95a
 2147 0953 16       		.uleb128 0x16
 2148 0954 A2000000 		.4byte	0xa2
 2149 0958 01       		.byte	0x1
 2150 0959 00       		.byte	0
ARM GAS  C:\Users\euanm\AppData\Local\Temp\ccCsOkpq.s 			page 39


 2151 095a 2D       		.uleb128 0x2d
 2152 095b F4050000 		.4byte	.LASF143
 2153 095f 01       		.byte	0x1
 2154 0960 DE       		.byte	0xde
 2155 0961 00000000 		.4byte	.LFB223
 2156 0965 B8010000 		.4byte	.LFE223-.LFB223
 2157 0969 01       		.uleb128 0x1
 2158 096a 9C       		.byte	0x9c
 2159 096b DB0B0000 		.4byte	0xbdb
 2160 096f 2E       		.uleb128 0x2e
 2161 0970 7A020000 		.4byte	.LASF127
 2162 0974 01       		.byte	0x1
 2163 0975 DE       		.byte	0xde
 2164 0976 B8000000 		.4byte	0xb8
 2165 097a 55000000 		.4byte	.LLST3
 2166 097e 21       		.uleb128 0x21
 2167 097f 6C656E00 		.ascii	"len\000"
 2168 0983 01       		.byte	0x1
 2169 0984 DE       		.byte	0xde
 2170 0985 37000000 		.4byte	0x37
 2171 0989 89000000 		.4byte	.LLST4
 2172 098d 2F       		.uleb128 0x2f
 2173 098e 94050000 		.4byte	.LASF129
 2174 0992 01       		.byte	0x1
 2175 0993 DF       		.byte	0xdf
 2176 0994 DB0B0000 		.4byte	0xbdb
 2177 0998 03       		.uleb128 0x3
 2178 0999 91       		.byte	0x91
 2179 099a BC7F     		.sleb128 -68
 2180 099c 24       		.uleb128 0x24
 2181 099d 30000000 		.4byte	.Ldebug_ranges0+0x30
 2182 09a1 5D0B0000 		.4byte	0xb5d
 2183 09a5 30       		.uleb128 0x30
 2184 09a6 E3030000 		.4byte	.LASF130
 2185 09aa 01       		.byte	0x1
 2186 09ab E9       		.byte	0xe9
 2187 09ac 37000000 		.4byte	0x37
 2188 09b0 BD000000 		.4byte	.LLST5
 2189 09b4 30       		.uleb128 0x30
 2190 09b5 13080000 		.4byte	.LASF131
 2191 09b9 01       		.byte	0x1
 2192 09ba EA       		.byte	0xea
 2193 09bb 37000000 		.4byte	0x37
 2194 09bf E7000000 		.4byte	.LLST6
 2195 09c3 31       		.uleb128 0x31
 2196 09c4 696E6400 		.ascii	"ind\000"
 2197 09c8 01       		.byte	0x1
 2198 09c9 1301     		.2byte	0x113
 2199 09cb DF000000 		.4byte	0xdf
 2200 09cf 12010000 		.4byte	.LLST7
 2201 09d3 31       		.uleb128 0x31
 2202 09d4 63726300 		.ascii	"crc\000"
 2203 09d8 01       		.byte	0x1
 2204 09d9 1701     		.2byte	0x117
 2205 09db 5E000000 		.4byte	0x5e
 2206 09df 62010000 		.4byte	.LLST8
 2207 09e3 24       		.uleb128 0x24
ARM GAS  C:\Users\euanm\AppData\Local\Temp\ccCsOkpq.s 			page 40


 2208 09e4 48000000 		.4byte	.Ldebug_ranges0+0x48
 2209 09e8 6C0A0000 		.4byte	0xa6c
 2210 09ec 32       		.uleb128 0x32
 2211 09ed 6900     		.ascii	"i\000"
 2212 09ef 01       		.byte	0x1
 2213 09f0 EC       		.byte	0xec
 2214 09f1 37000000 		.4byte	0x37
 2215 09f5 75010000 		.4byte	.LLST9
 2216 09f9 29       		.uleb128 0x29
 2217 09fa 60000000 		.4byte	.Ldebug_ranges0+0x60
 2218 09fe 30       		.uleb128 0x30
 2219 09ff 64020000 		.4byte	.LASF132
 2220 0a03 01       		.byte	0x1
 2221 0a04 F3       		.byte	0xf3
 2222 0a05 C9000000 		.4byte	0xc9
 2223 0a09 B9010000 		.4byte	.LLST10
 2224 0a0d 33       		.uleb128 0x33
 2225 0a0e 5F080000 		.4byte	0x85f
 2226 0a12 60000000 		.4byte	.LBB39
 2227 0a16 88000000 		.4byte	.Ldebug_ranges0+0x88
 2228 0a1a 01       		.byte	0x1
 2229 0a1b FE       		.byte	0xfe
 2230 0a1c 4B0A0000 		.4byte	0xa4b
 2231 0a20 34       		.uleb128 0x34
 2232 0a21 7A080000 		.4byte	0x87a
 2233 0a25 28       		.uleb128 0x28
 2234 0a26 6F080000 		.4byte	0x86f
 2235 0a2a F1010000 		.4byte	.LLST11
 2236 0a2e 29       		.uleb128 0x29
 2237 0a2f 88000000 		.4byte	.Ldebug_ranges0+0x88
 2238 0a33 2A       		.uleb128 0x2a
 2239 0a34 85080000 		.4byte	0x885
 2240 0a38 2B       		.uleb128 0x2b
 2241 0a39 66000000 		.4byte	.LVL13
 2242 0a3d BF0F0000 		.4byte	0xfbf
 2243 0a41 2C       		.uleb128 0x2c
 2244 0a42 01       		.uleb128 0x1
 2245 0a43 50       		.byte	0x50
 2246 0a44 03       		.uleb128 0x3
 2247 0a45 91       		.byte	0x91
 2248 0a46 BC7F     		.sleb128 -68
 2249 0a48 00       		.byte	0
 2250 0a49 00       		.byte	0
 2251 0a4a 00       		.byte	0
 2252 0a4b 2B       		.uleb128 0x2b
 2253 0a4c AA010000 		.4byte	.LVL41
 2254 0a50 D50F0000 		.4byte	0xfd5
 2255 0a54 2C       		.uleb128 0x2c
 2256 0a55 01       		.uleb128 0x1
 2257 0a56 50       		.byte	0x50
 2258 0a57 03       		.uleb128 0x3
 2259 0a58 91       		.byte	0x91
 2260 0a59 BE7F     		.sleb128 -66
 2261 0a5b 2C       		.uleb128 0x2c
 2262 0a5c 01       		.uleb128 0x1
 2263 0a5d 51       		.byte	0x51
 2264 0a5e 02       		.uleb128 0x2
ARM GAS  C:\Users\euanm\AppData\Local\Temp\ccCsOkpq.s 			page 41


 2265 0a5f 75       		.byte	0x75
 2266 0a60 00       		.sleb128 0
 2267 0a61 2C       		.uleb128 0x2c
 2268 0a62 01       		.uleb128 0x1
 2269 0a63 52       		.byte	0x52
 2270 0a64 04       		.uleb128 0x4
 2271 0a65 91       		.byte	0x91
 2272 0a66 B47F     		.sleb128 -76
 2273 0a68 06       		.byte	0x6
 2274 0a69 00       		.byte	0
 2275 0a6a 00       		.byte	0
 2276 0a6b 00       		.byte	0
 2277 0a6c 35       		.uleb128 0x35
 2278 0a6d 90000000 		.4byte	.LBB46
 2279 0a71 74000000 		.4byte	.LBE46-.LBB46
 2280 0a75 FA0A0000 		.4byte	0xafa
 2281 0a79 31       		.uleb128 0x31
 2282 0a7a 6900     		.ascii	"i\000"
 2283 0a7c 01       		.byte	0x1
 2284 0a7d 0201     		.2byte	0x102
 2285 0a7f 37000000 		.4byte	0x37
 2286 0a83 20020000 		.4byte	.LLST12
 2287 0a87 29       		.uleb128 0x29
 2288 0a88 A0000000 		.4byte	.Ldebug_ranges0+0xa0
 2289 0a8c 36       		.uleb128 0x36
 2290 0a8d 64020000 		.4byte	.LASF132
 2291 0a91 01       		.byte	0x1
 2292 0a92 0301     		.2byte	0x103
 2293 0a94 C9000000 		.4byte	0xc9
 2294 0a98 4D020000 		.4byte	.LLST13
 2295 0a9c 37       		.uleb128 0x37
 2296 0a9d 5F080000 		.4byte	0x85f
 2297 0aa1 BA000000 		.4byte	.LBB48
 2298 0aa5 C0000000 		.4byte	.Ldebug_ranges0+0xc0
 2299 0aa9 01       		.byte	0x1
 2300 0aaa 0F01     		.2byte	0x10f
 2301 0aac DB0A0000 		.4byte	0xadb
 2302 0ab0 34       		.uleb128 0x34
 2303 0ab1 7A080000 		.4byte	0x87a
 2304 0ab5 28       		.uleb128 0x28
 2305 0ab6 6F080000 		.4byte	0x86f
 2306 0aba 6B020000 		.4byte	.LLST14
 2307 0abe 29       		.uleb128 0x29
 2308 0abf C0000000 		.4byte	.Ldebug_ranges0+0xc0
 2309 0ac3 2A       		.uleb128 0x2a
 2310 0ac4 85080000 		.4byte	0x885
 2311 0ac8 2B       		.uleb128 0x2b
 2312 0ac9 C0000000 		.4byte	.LVL17
 2313 0acd BF0F0000 		.4byte	0xfbf
 2314 0ad1 2C       		.uleb128 0x2c
 2315 0ad2 01       		.uleb128 0x1
 2316 0ad3 50       		.byte	0x50
 2317 0ad4 03       		.uleb128 0x3
 2318 0ad5 91       		.byte	0x91
 2319 0ad6 BC7F     		.sleb128 -68
 2320 0ad8 00       		.byte	0
 2321 0ad9 00       		.byte	0
ARM GAS  C:\Users\euanm\AppData\Local\Temp\ccCsOkpq.s 			page 42


 2322 0ada 00       		.byte	0
 2323 0adb 2B       		.uleb128 0x2b
 2324 0adc FE000000 		.4byte	.LVL21
 2325 0ae0 D50F0000 		.4byte	0xfd5
 2326 0ae4 2C       		.uleb128 0x2c
 2327 0ae5 01       		.uleb128 0x1
 2328 0ae6 50       		.byte	0x50
 2329 0ae7 03       		.uleb128 0x3
 2330 0ae8 91       		.byte	0x91
 2331 0ae9 BF7F     		.sleb128 -65
 2332 0aeb 2C       		.uleb128 0x2c
 2333 0aec 01       		.uleb128 0x1
 2334 0aed 51       		.byte	0x51
 2335 0aee 02       		.uleb128 0x2
 2336 0aef 75       		.byte	0x75
 2337 0af0 00       		.sleb128 0
 2338 0af1 2C       		.uleb128 0x2c
 2339 0af2 01       		.uleb128 0x1
 2340 0af3 52       		.byte	0x52
 2341 0af4 02       		.uleb128 0x2
 2342 0af5 7A       		.byte	0x7a
 2343 0af6 00       		.sleb128 0
 2344 0af7 00       		.byte	0
 2345 0af8 00       		.byte	0
 2346 0af9 00       		.byte	0
 2347 0afa 37       		.uleb128 0x37
 2348 0afb 5F080000 		.4byte	0x85f
 2349 0aff 3A010000 		.4byte	.LBB54
 2350 0b03 D8000000 		.4byte	.Ldebug_ranges0+0xd8
 2351 0b07 01       		.byte	0x1
 2352 0b08 1D01     		.2byte	0x11d
 2353 0b0a 460B0000 		.4byte	0xb46
 2354 0b0e 28       		.uleb128 0x28
 2355 0b0f 7A080000 		.4byte	0x87a
 2356 0b13 9A020000 		.4byte	.LLST15
 2357 0b17 28       		.uleb128 0x28
 2358 0b18 6F080000 		.4byte	0x86f
 2359 0b1c AE020000 		.4byte	.LLST16
 2360 0b20 29       		.uleb128 0x29
 2361 0b21 D8000000 		.4byte	.Ldebug_ranges0+0xd8
 2362 0b25 38       		.uleb128 0x38
 2363 0b26 85080000 		.4byte	0x885
 2364 0b2a CF020000 		.4byte	.LLST17
 2365 0b2e 2B       		.uleb128 0x2b
 2366 0b2f 52010000 		.4byte	.LVL31
 2367 0b33 BF0F0000 		.4byte	0xfbf
 2368 0b37 2C       		.uleb128 0x2c
 2369 0b38 01       		.uleb128 0x1
 2370 0b39 50       		.byte	0x50
 2371 0b3a 03       		.uleb128 0x3
 2372 0b3b 91       		.byte	0x91
 2373 0b3c BC7F     		.sleb128 -68
 2374 0b3e 2C       		.uleb128 0x2c
 2375 0b3f 01       		.uleb128 0x1
 2376 0b40 51       		.byte	0x51
 2377 0b41 01       		.uleb128 0x1
 2378 0b42 49       		.byte	0x49
ARM GAS  C:\Users\euanm\AppData\Local\Temp\ccCsOkpq.s 			page 43


 2379 0b43 00       		.byte	0
 2380 0b44 00       		.byte	0
 2381 0b45 00       		.byte	0
 2382 0b46 2B       		.uleb128 0x2b
 2383 0b47 1E010000 		.4byte	.LVL25
 2384 0b4b DE0F0000 		.4byte	0xfde
 2385 0b4f 2C       		.uleb128 0x2c
 2386 0b50 01       		.uleb128 0x1
 2387 0b51 50       		.byte	0x50
 2388 0b52 02       		.uleb128 0x2
 2389 0b53 7B       		.byte	0x7b
 2390 0b54 00       		.sleb128 0
 2391 0b55 2C       		.uleb128 0x2c
 2392 0b56 01       		.uleb128 0x1
 2393 0b57 51       		.byte	0x51
 2394 0b58 02       		.uleb128 0x2
 2395 0b59 79       		.byte	0x79
 2396 0b5a 00       		.sleb128 0
 2397 0b5b 00       		.byte	0
 2398 0b5c 00       		.byte	0
 2399 0b5d 29       		.uleb128 0x29
 2400 0b5e F0000000 		.4byte	.Ldebug_ranges0+0xf0
 2401 0b62 32       		.uleb128 0x32
 2402 0b63 696E6400 		.ascii	"ind\000"
 2403 0b67 01       		.byte	0x1
 2404 0b68 E2       		.byte	0xe2
 2405 0b69 DF000000 		.4byte	0xdf
 2406 0b6d E2020000 		.4byte	.LLST18
 2407 0b71 33       		.uleb128 0x33
 2408 0b72 5F080000 		.4byte	0x85f
 2409 0b76 54010000 		.4byte	.LBB60
 2410 0b7a 08010000 		.4byte	.Ldebug_ranges0+0x108
 2411 0b7e 01       		.byte	0x1
 2412 0b7f E6       		.byte	0xe6
 2413 0b80 BC0B0000 		.4byte	0xbbc
 2414 0b84 28       		.uleb128 0x28
 2415 0b85 7A080000 		.4byte	0x87a
 2416 0b89 1B030000 		.4byte	.LLST19
 2417 0b8d 28       		.uleb128 0x28
 2418 0b8e 6F080000 		.4byte	0x86f
 2419 0b92 48030000 		.4byte	.LLST20
 2420 0b96 29       		.uleb128 0x29
 2421 0b97 08010000 		.4byte	.Ldebug_ranges0+0x108
 2422 0b9b 38       		.uleb128 0x38
 2423 0b9c 85080000 		.4byte	0x885
 2424 0ba0 5E030000 		.4byte	.LLST21
 2425 0ba4 2B       		.uleb128 0x2b
 2426 0ba5 86010000 		.4byte	.LVL38
 2427 0ba9 BF0F0000 		.4byte	0xfbf
 2428 0bad 2C       		.uleb128 0x2c
 2429 0bae 01       		.uleb128 0x1
 2430 0baf 50       		.byte	0x50
 2431 0bb0 02       		.uleb128 0x2
 2432 0bb1 74       		.byte	0x74
 2433 0bb2 00       		.sleb128 0
 2434 0bb3 2C       		.uleb128 0x2c
 2435 0bb4 01       		.uleb128 0x1
ARM GAS  C:\Users\euanm\AppData\Local\Temp\ccCsOkpq.s 			page 44


 2436 0bb5 51       		.byte	0x51
 2437 0bb6 02       		.uleb128 0x2
 2438 0bb7 79       		.byte	0x79
 2439 0bb8 01       		.sleb128 1
 2440 0bb9 00       		.byte	0
 2441 0bba 00       		.byte	0
 2442 0bbb 00       		.byte	0
 2443 0bbc 2B       		.uleb128 0x2b
 2444 0bbd 7C010000 		.4byte	.LVL36
 2445 0bc1 D50F0000 		.4byte	0xfd5
 2446 0bc5 2C       		.uleb128 0x2c
 2447 0bc6 01       		.uleb128 0x1
 2448 0bc7 50       		.byte	0x50
 2449 0bc8 03       		.uleb128 0x3
 2450 0bc9 91       		.byte	0x91
 2451 0bca BD7F     		.sleb128 -67
 2452 0bcc 2C       		.uleb128 0x2c
 2453 0bcd 01       		.uleb128 0x1
 2454 0bce 51       		.byte	0x51
 2455 0bcf 02       		.uleb128 0x2
 2456 0bd0 7B       		.byte	0x7b
 2457 0bd1 00       		.sleb128 0
 2458 0bd2 2C       		.uleb128 0x2c
 2459 0bd3 01       		.uleb128 0x1
 2460 0bd4 52       		.byte	0x52
 2461 0bd5 02       		.uleb128 0x2
 2462 0bd6 79       		.byte	0x79
 2463 0bd7 00       		.sleb128 0
 2464 0bd8 00       		.byte	0
 2465 0bd9 00       		.byte	0
 2466 0bda 00       		.byte	0
 2467 0bdb 15       		.uleb128 0x15
 2468 0bdc C9000000 		.4byte	0xc9
 2469 0be0 EB0B0000 		.4byte	0xbeb
 2470 0be4 16       		.uleb128 0x16
 2471 0be5 A2000000 		.4byte	0xa2
 2472 0be9 18       		.byte	0x18
 2473 0bea 00       		.byte	0
 2474 0beb 20       		.uleb128 0x20
 2475 0bec A3020000 		.4byte	.LASF134
 2476 0bf0 01       		.byte	0x1
 2477 0bf1 63       		.byte	0x63
 2478 0bf2 00000000 		.4byte	.LFB222
 2479 0bf6 C8010000 		.4byte	.LFE222-.LFB222
 2480 0bfa 01       		.uleb128 0x1
 2481 0bfb 9C       		.byte	0x9c
 2482 0bfc 730E0000 		.4byte	0xe73
 2483 0c00 21       		.uleb128 0x21
 2484 0c01 61726700 		.ascii	"arg\000"
 2485 0c05 01       		.byte	0x1
 2486 0c06 63       		.byte	0x63
 2487 0c07 A9000000 		.4byte	0xa9
 2488 0c0b 71030000 		.4byte	.LLST22
 2489 0c0f 33       		.uleb128 0x33
 2490 0c10 47080000 		.4byte	0x847
 2491 0c14 04000000 		.4byte	.LBB66
 2492 0c18 20010000 		.4byte	.Ldebug_ranges0+0x120
ARM GAS  C:\Users\euanm\AppData\Local\Temp\ccCsOkpq.s 			page 45


 2493 0c1c 01       		.byte	0x1
 2494 0c1d 66       		.byte	0x66
 2495 0c1e 2F0C0000 		.4byte	0xc2f
 2496 0c22 23       		.uleb128 0x23
 2497 0c23 53080000 		.4byte	0x853
 2498 0c27 06       		.uleb128 0x6
 2499 0c28 03       		.byte	0x3
 2500 0c29 08000000 		.4byte	.LC1
 2501 0c2d 9F       		.byte	0x9f
 2502 0c2e 00       		.byte	0
 2503 0c2f 29       		.uleb128 0x29
 2504 0c30 38010000 		.4byte	.Ldebug_ranges0+0x138
 2505 0c34 25       		.uleb128 0x25
 2506 0c35 62756600 		.ascii	"buf\000"
 2507 0c39 01       		.byte	0x1
 2508 0c3a 69       		.byte	0x69
 2509 0c3b 730E0000 		.4byte	0xe73
 2510 0c3f 03       		.uleb128 0x3
 2511 0c40 91       		.byte	0x91
 2512 0c41 B07F     		.sleb128 -80
 2513 0c43 25       		.uleb128 0x25
 2514 0c44 6C656E00 		.ascii	"len\000"
 2515 0c48 01       		.byte	0x1
 2516 0c49 6A       		.byte	0x6a
 2517 0c4a 25000000 		.4byte	0x25
 2518 0c4e 03       		.uleb128 0x3
 2519 0c4f 91       		.byte	0x91
 2520 0c50 8C7F     		.sleb128 -116
 2521 0c52 2F       		.uleb128 0x2f
 2522 0c53 11060000 		.4byte	.LASF135
 2523 0c57 01       		.byte	0x1
 2524 0c58 6B       		.byte	0x6b
 2525 0c59 25000000 		.4byte	0x25
 2526 0c5d 03       		.uleb128 0x3
 2527 0c5e 91       		.byte	0x91
 2528 0c5f 907F     		.sleb128 -112
 2529 0c61 24       		.uleb128 0x24
 2530 0c62 50010000 		.4byte	.Ldebug_ranges0+0x150
 2531 0c66 4B0E0000 		.4byte	0xe4b
 2532 0c6a 32       		.uleb128 0x32
 2533 0c6b 72657300 		.ascii	"res\000"
 2534 0c6f 01       		.byte	0x1
 2535 0c70 6E       		.byte	0x6e
 2536 0c71 25000000 		.4byte	0x25
 2537 0c75 92030000 		.4byte	.LLST23
 2538 0c79 2F       		.uleb128 0x2f
 2539 0c7a 4E040000 		.4byte	.LASF136
 2540 0c7e 01       		.byte	0x1
 2541 0c7f 70       		.byte	0x70
 2542 0c80 93070000 		.4byte	0x793
 2543 0c84 03       		.uleb128 0x3
 2544 0c85 91       		.byte	0x91
 2545 0c86 987F     		.sleb128 -104
 2546 0c88 25       		.uleb128 0x25
 2547 0c89 696E6400 		.ascii	"ind\000"
 2548 0c8d 01       		.byte	0x1
 2549 0c8e 71       		.byte	0x71
ARM GAS  C:\Users\euanm\AppData\Local\Temp\ccCsOkpq.s 			page 46


 2550 0c8f D4000000 		.4byte	0xd4
 2551 0c93 03       		.uleb128 0x3
 2552 0c94 91       		.byte	0x91
 2553 0c95 947F     		.sleb128 -108
 2554 0c97 30       		.uleb128 0x30
 2555 0c98 C9010000 		.4byte	.LASF137
 2556 0c9c 01       		.byte	0x1
 2557 0c9d 72       		.byte	0x72
 2558 0c9e 25000000 		.4byte	0x25
 2559 0ca2 08040000 		.4byte	.LLST24
 2560 0ca6 24       		.uleb128 0x24
 2561 0ca7 78010000 		.4byte	.Ldebug_ranges0+0x178
 2562 0cab 180E0000 		.4byte	0xe18
 2563 0caf 30       		.uleb128 0x30
 2564 0cb0 35040000 		.4byte	.LASF138
 2565 0cb4 01       		.byte	0x1
 2566 0cb5 76       		.byte	0x76
 2567 0cb6 3B080000 		.4byte	0x83b
 2568 0cba 33040000 		.4byte	.LLST25
 2569 0cbe 35       		.uleb128 0x35
 2570 0cbf 52000000 		.4byte	.LBB72
 2571 0cc3 20000000 		.4byte	.LBE72-.LBB72
 2572 0cc7 EC0C0000 		.4byte	0xcec
 2573 0ccb 30       		.uleb128 0x30
 2574 0ccc 15010000 		.4byte	.LASF139
 2575 0cd0 01       		.byte	0x1
 2576 0cd1 96       		.byte	0x96
 2577 0cd2 25000000 		.4byte	0x25
 2578 0cd6 BA040000 		.4byte	.LLST26
 2579 0cda 2B       		.uleb128 0x2b
 2580 0cdb 72000000 		.4byte	.LVL51
 2581 0cdf D50F0000 		.4byte	0xfd5
 2582 0ce3 2C       		.uleb128 0x2c
 2583 0ce4 01       		.uleb128 0x1
 2584 0ce5 51       		.byte	0x51
 2585 0ce6 03       		.uleb128 0x3
 2586 0ce7 91       		.byte	0x91
 2587 0ce8 B37F     		.sleb128 -77
 2588 0cea 00       		.byte	0
 2589 0ceb 00       		.byte	0
 2590 0cec 35       		.uleb128 0x35
 2591 0ced 7E000000 		.4byte	.LBB73
 2592 0cf1 62000000 		.4byte	.LBE73-.LBB73
 2593 0cf5 960D0000 		.4byte	0xd96
 2594 0cf9 30       		.uleb128 0x30
 2595 0cfa 6A030000 		.4byte	.LASF140
 2596 0cfe 01       		.byte	0x1
 2597 0cff A0       		.byte	0xa0
 2598 0d00 25000000 		.4byte	0x25
 2599 0d04 F4040000 		.4byte	.LLST27
 2600 0d08 30       		.uleb128 0x30
 2601 0d09 5A050000 		.4byte	.LASF141
 2602 0d0d 01       		.byte	0x1
 2603 0d0e A7       		.byte	0xa7
 2604 0d0f C9000000 		.4byte	0xc9
 2605 0d13 16050000 		.4byte	.LLST28
 2606 0d17 30       		.uleb128 0x30
ARM GAS  C:\Users\euanm\AppData\Local\Temp\ccCsOkpq.s 			page 47


 2607 0d18 D9020000 		.4byte	.LASF142
 2608 0d1c 01       		.byte	0x1
 2609 0d1d A8       		.byte	0xa8
 2610 0d1e C9000000 		.4byte	0xc9
 2611 0d22 2A050000 		.4byte	.LLST29
 2612 0d26 39       		.uleb128 0x39
 2613 0d27 B8000000 		.4byte	.LVL61
 2614 0d2b D50F0000 		.4byte	0xfd5
 2615 0d2f 3B0D0000 		.4byte	0xd3b
 2616 0d33 2C       		.uleb128 0x2c
 2617 0d34 01       		.uleb128 0x1
 2618 0d35 51       		.byte	0x51
 2619 0d36 03       		.uleb128 0x3
 2620 0d37 91       		.byte	0x91
 2621 0d38 B57F     		.sleb128 -75
 2622 0d3a 00       		.byte	0
 2623 0d3b 39       		.uleb128 0x39
 2624 0d3c C0000000 		.4byte	.LVL62
 2625 0d40 DE0F0000 		.4byte	0xfde
 2626 0d44 550D0000 		.4byte	0xd55
 2627 0d48 2C       		.uleb128 0x2c
 2628 0d49 01       		.uleb128 0x1
 2629 0d4a 50       		.byte	0x50
 2630 0d4b 02       		.uleb128 0x2
 2631 0d4c 7B       		.byte	0x7b
 2632 0d4d 00       		.sleb128 0
 2633 0d4e 2C       		.uleb128 0x2c
 2634 0d4f 01       		.uleb128 0x1
 2635 0d50 51       		.byte	0x51
 2636 0d51 02       		.uleb128 0x2
 2637 0d52 77       		.byte	0x77
 2638 0d53 00       		.sleb128 0
 2639 0d54 00       		.byte	0
 2640 0d55 39       		.uleb128 0x39
 2641 0d56 D2000000 		.4byte	.LVL63
 2642 0d5a CA0F0000 		.4byte	0xfca
 2643 0d5e 680D0000 		.4byte	0xd68
 2644 0d62 2C       		.uleb128 0x2c
 2645 0d63 01       		.uleb128 0x1
 2646 0d64 50       		.byte	0x50
 2647 0d65 01       		.uleb128 0x1
 2648 0d66 44       		.byte	0x44
 2649 0d67 00       		.byte	0
 2650 0d68 39       		.uleb128 0x39
 2651 0d69 D8000000 		.4byte	.LVL64
 2652 0d6d E90F0000 		.4byte	0xfe9
 2653 0d71 7F0D0000 		.4byte	0xd7f
 2654 0d75 2C       		.uleb128 0x2c
 2655 0d76 01       		.uleb128 0x1
 2656 0d77 50       		.byte	0x50
 2657 0d78 05       		.uleb128 0x5
 2658 0d79 03       		.byte	0x3
 2659 0d7a 00000000 		.4byte	nrf_driver_send_buffer
 2660 0d7e 00       		.byte	0
 2661 0d7f 2B       		.uleb128 0x2b
 2662 0d80 E0000000 		.4byte	.LVL65
 2663 0d84 F40F0000 		.4byte	0xff4
ARM GAS  C:\Users\euanm\AppData\Local\Temp\ccCsOkpq.s 			page 48


 2664 0d88 2C       		.uleb128 0x2c
 2665 0d89 01       		.uleb128 0x1
 2666 0d8a 50       		.byte	0x50
 2667 0d8b 02       		.uleb128 0x2
 2668 0d8c 7B       		.byte	0x7b
 2669 0d8d 00       		.sleb128 0
 2670 0d8e 2C       		.uleb128 0x2c
 2671 0d8f 01       		.uleb128 0x1
 2672 0d90 51       		.byte	0x51
 2673 0d91 02       		.uleb128 0x2
 2674 0d92 77       		.byte	0x77
 2675 0d93 00       		.sleb128 0
 2676 0d94 00       		.byte	0
 2677 0d95 00       		.byte	0
 2678 0d96 39       		.uleb128 0x39
 2679 0d97 18010000 		.4byte	.LVL70
 2680 0d9b D50F0000 		.4byte	0xfd5
 2681 0d9f AB0D0000 		.4byte	0xdab
 2682 0da3 2C       		.uleb128 0x2c
 2683 0da4 01       		.uleb128 0x1
 2684 0da5 51       		.byte	0x51
 2685 0da6 03       		.uleb128 0x3
 2686 0da7 91       		.byte	0x91
 2687 0da8 B27F     		.sleb128 -78
 2688 0daa 00       		.byte	0
 2689 0dab 39       		.uleb128 0x39
 2690 0dac 48010000 		.4byte	.LVL76
 2691 0db0 FF0F0000 		.4byte	0xfff
 2692 0db4 C70D0000 		.4byte	0xdc7
 2693 0db8 2C       		.uleb128 0x2c
 2694 0db9 01       		.uleb128 0x1
 2695 0dba 50       		.byte	0x50
 2696 0dbb 03       		.uleb128 0x3
 2697 0dbc 91       		.byte	0x91
 2698 0dbd B07F     		.sleb128 -80
 2699 0dbf 2C       		.uleb128 0x2c
 2700 0dc0 01       		.uleb128 0x1
 2701 0dc1 51       		.byte	0x51
 2702 0dc2 03       		.uleb128 0x3
 2703 0dc3 91       		.byte	0x91
 2704 0dc4 947F     		.sleb128 -108
 2705 0dc6 00       		.byte	0
 2706 0dc7 39       		.uleb128 0x39
 2707 0dc8 76010000 		.4byte	.LVL77
 2708 0dcc 0A100000 		.4byte	0x100a
 2709 0dd0 DC0D0000 		.4byte	0xddc
 2710 0dd4 2C       		.uleb128 0x2c
 2711 0dd5 01       		.uleb128 0x1
 2712 0dd6 50       		.byte	0x50
 2713 0dd7 03       		.uleb128 0x3
 2714 0dd8 91       		.byte	0x91
 2715 0dd9 987F     		.sleb128 -104
 2716 0ddb 00       		.byte	0
 2717 0ddc 39       		.uleb128 0x39
 2718 0ddd 7E010000 		.4byte	.LVL80
 2719 0de1 CA0F0000 		.4byte	0xfca
 2720 0de5 EF0D0000 		.4byte	0xdef
ARM GAS  C:\Users\euanm\AppData\Local\Temp\ccCsOkpq.s 			page 49


 2721 0de9 2C       		.uleb128 0x2c
 2722 0dea 01       		.uleb128 0x1
 2723 0deb 50       		.byte	0x50
 2724 0dec 01       		.uleb128 0x1
 2725 0ded 44       		.byte	0x44
 2726 0dee 00       		.byte	0
 2727 0def 39       		.uleb128 0x39
 2728 0df0 84010000 		.4byte	.LVL81
 2729 0df4 E90F0000 		.4byte	0xfe9
 2730 0df8 060E0000 		.4byte	0xe06
 2731 0dfc 2C       		.uleb128 0x2c
 2732 0dfd 01       		.uleb128 0x1
 2733 0dfe 50       		.byte	0x50
 2734 0dff 05       		.uleb128 0x5
 2735 0e00 03       		.byte	0x3
 2736 0e01 00000000 		.4byte	nrf_driver_send_buffer
 2737 0e05 00       		.byte	0
 2738 0e06 2B       		.uleb128 0x2b
 2739 0e07 90010000 		.4byte	.LVL82
 2740 0e0b F40F0000 		.4byte	0xff4
 2741 0e0f 2C       		.uleb128 0x2c
 2742 0e10 01       		.uleb128 0x1
 2743 0e11 50       		.byte	0x50
 2744 0e12 03       		.uleb128 0x3
 2745 0e13 91       		.byte	0x91
 2746 0e14 B17F     		.sleb128 -79
 2747 0e16 00       		.byte	0
 2748 0e17 00       		.byte	0
 2749 0e18 39       		.uleb128 0x39
 2750 0e19 30000000 		.4byte	.LVL44
 2751 0e1d 15100000 		.4byte	0x1015
 2752 0e21 3B0E0000 		.4byte	0xe3b
 2753 0e25 2C       		.uleb128 0x2c
 2754 0e26 01       		.uleb128 0x1
 2755 0e27 50       		.byte	0x50
 2756 0e28 03       		.uleb128 0x3
 2757 0e29 91       		.byte	0x91
 2758 0e2a B07F     		.sleb128 -80
 2759 0e2c 2C       		.uleb128 0x2c
 2760 0e2d 01       		.uleb128 0x1
 2761 0e2e 51       		.byte	0x51
 2762 0e2f 03       		.uleb128 0x3
 2763 0e30 91       		.byte	0x91
 2764 0e31 8C7F     		.sleb128 -116
 2765 0e33 2C       		.uleb128 0x2c
 2766 0e34 01       		.uleb128 0x1
 2767 0e35 52       		.byte	0x52
 2768 0e36 03       		.uleb128 0x3
 2769 0e37 91       		.byte	0x91
 2770 0e38 907F     		.sleb128 -112
 2771 0e3a 00       		.byte	0
 2772 0e3b 2B       		.uleb128 0x2b
 2773 0e3c 7C000000 		.4byte	.LVL52
 2774 0e40 CA0F0000 		.4byte	0xfca
 2775 0e44 2C       		.uleb128 0x2c
 2776 0e45 01       		.uleb128 0x1
 2777 0e46 50       		.byte	0x50
ARM GAS  C:\Users\euanm\AppData\Local\Temp\ccCsOkpq.s 			page 50


 2778 0e47 01       		.uleb128 0x1
 2779 0e48 3A       		.byte	0x3a
 2780 0e49 00       		.byte	0
 2781 0e4a 00       		.byte	0
 2782 0e4b 39       		.uleb128 0x39
 2783 0e4c EA000000 		.4byte	.LVL67
 2784 0e50 CA0F0000 		.4byte	0xfca
 2785 0e54 5F0E0000 		.4byte	0xe5f
 2786 0e58 2C       		.uleb128 0x2c
 2787 0e59 01       		.uleb128 0x1
 2788 0e5a 50       		.byte	0x50
 2789 0e5b 02       		.uleb128 0x2
 2790 0e5c 08       		.byte	0x8
 2791 0e5d 32       		.byte	0x32
 2792 0e5e 00       		.byte	0
 2793 0e5f 3A       		.uleb128 0x3a
 2794 0e60 96010000 		.4byte	.LVL83
 2795 0e64 20100000 		.4byte	0x1020
 2796 0e68 3A       		.uleb128 0x3a
 2797 0e69 9A010000 		.4byte	.LVL84
 2798 0e6d 2B100000 		.4byte	0x102b
 2799 0e71 00       		.byte	0
 2800 0e72 00       		.byte	0
 2801 0e73 15       		.uleb128 0x15
 2802 0e74 C9000000 		.4byte	0xc9
 2803 0e78 830E0000 		.4byte	0xe83
 2804 0e7c 16       		.uleb128 0x16
 2805 0e7d A2000000 		.4byte	0xa2
 2806 0e81 1F       		.byte	0x1f
 2807 0e82 00       		.byte	0
 2808 0e83 2D       		.uleb128 0x2d
 2809 0e84 63050000 		.4byte	.LASF144
 2810 0e88 01       		.byte	0x1
 2811 0e89 39       		.byte	0x39
 2812 0e8a 00000000 		.4byte	.LFB219
 2813 0e8e 58000000 		.4byte	.LFE219-.LFB219
 2814 0e92 01       		.uleb128 0x1
 2815 0e93 9C       		.byte	0x9c
 2816 0e94 FF0E0000 		.4byte	0xeff
 2817 0e98 3A       		.uleb128 0x3a
 2818 0e99 08000000 		.4byte	.LVL85
 2819 0e9d 36100000 		.4byte	0x1036
 2820 0ea1 39       		.uleb128 0x39
 2821 0ea2 26000000 		.4byte	.LVL86
 2822 0ea6 41100000 		.4byte	0x1041
 2823 0eaa CE0E0000 		.4byte	0xece
 2824 0eae 2C       		.uleb128 0x2c
 2825 0eaf 01       		.uleb128 0x1
 2826 0eb0 50       		.byte	0x50
 2827 0eb1 05       		.uleb128 0x5
 2828 0eb2 03       		.byte	0x3
 2829 0eb3 00000000 		.4byte	.LANCHOR5
 2830 0eb7 2C       		.uleb128 0x2c
 2831 0eb8 01       		.uleb128 0x1
 2832 0eb9 51       		.byte	0x51
 2833 0eba 03       		.uleb128 0x3
 2834 0ebb 0A       		.byte	0xa
ARM GAS  C:\Users\euanm\AppData\Local\Temp\ccCsOkpq.s 			page 51


 2835 0ebc 9809     		.2byte	0x998
 2836 0ebe 2C       		.uleb128 0x2c
 2837 0ebf 01       		.uleb128 0x1
 2838 0ec0 52       		.byte	0x52
 2839 0ec1 02       		.uleb128 0x2
 2840 0ec2 08       		.byte	0x8
 2841 0ec3 3F       		.byte	0x3f
 2842 0ec4 2C       		.uleb128 0x2c
 2843 0ec5 01       		.uleb128 0x1
 2844 0ec6 53       		.byte	0x53
 2845 0ec7 05       		.uleb128 0x5
 2846 0ec8 03       		.byte	0x3
 2847 0ec9 00000000 		.4byte	rx_thread
 2848 0ecd 00       		.byte	0
 2849 0ece 2B       		.uleb128 0x2b
 2850 0ecf 36000000 		.4byte	.LVL87
 2851 0ed3 41100000 		.4byte	0x1041
 2852 0ed7 2C       		.uleb128 0x2c
 2853 0ed8 01       		.uleb128 0x1
 2854 0ed9 50       		.byte	0x50
 2855 0eda 05       		.uleb128 0x5
 2856 0edb 03       		.byte	0x3
 2857 0edc 00000000 		.4byte	.LANCHOR6
 2858 0ee0 2C       		.uleb128 0x2c
 2859 0ee1 01       		.uleb128 0x1
 2860 0ee2 51       		.byte	0x51
 2861 0ee3 03       		.uleb128 0x3
 2862 0ee4 0A       		.byte	0xa
 2863 0ee5 9803     		.2byte	0x398
 2864 0ee7 2C       		.uleb128 0x2c
 2865 0ee8 01       		.uleb128 0x1
 2866 0ee9 52       		.byte	0x52
 2867 0eea 02       		.uleb128 0x2
 2868 0eeb 08       		.byte	0x8
 2869 0eec 3F       		.byte	0x3f
 2870 0eed 2C       		.uleb128 0x2c
 2871 0eee 01       		.uleb128 0x1
 2872 0eef 53       		.byte	0x53
 2873 0ef0 05       		.uleb128 0x5
 2874 0ef1 03       		.byte	0x3
 2875 0ef2 00000000 		.4byte	tx_thread
 2876 0ef6 2C       		.uleb128 0x2c
 2877 0ef7 02       		.uleb128 0x2
 2878 0ef8 7D       		.byte	0x7d
 2879 0ef9 00       		.sleb128 0
 2880 0efa 02       		.uleb128 0x2
 2881 0efb 74       		.byte	0x74
 2882 0efc 00       		.sleb128 0
 2883 0efd 00       		.byte	0
 2884 0efe 00       		.byte	0
 2885 0eff 15       		.uleb128 0x15
 2886 0f00 9F040000 		.4byte	0x49f
 2887 0f04 100F0000 		.4byte	0xf10
 2888 0f08 3B       		.uleb128 0x3b
 2889 0f09 A2000000 		.4byte	0xa2
 2890 0f0d 3201     		.2byte	0x132
 2891 0f0f 00       		.byte	0
ARM GAS  C:\Users\euanm\AppData\Local\Temp\ccCsOkpq.s 			page 52


 2892 0f10 2F       		.uleb128 0x2f
 2893 0f11 F5020000 		.4byte	.LASF145
 2894 0f15 01       		.byte	0x1
 2895 0f16 2C       		.byte	0x2c
 2896 0f17 FF0E0000 		.4byte	0xeff
 2897 0f1b 05       		.uleb128 0x5
 2898 0f1c 03       		.byte	0x3
 2899 0f1d 00000000 		.4byte	rx_thread_wa
 2900 0f21 15       		.uleb128 0x15
 2901 0f22 9F040000 		.4byte	0x49f
 2902 0f26 310F0000 		.4byte	0xf31
 2903 0f2a 16       		.uleb128 0x16
 2904 0f2b A2000000 		.4byte	0xa2
 2905 0f2f 72       		.byte	0x72
 2906 0f30 00       		.byte	0
 2907 0f31 2F       		.uleb128 0x2f
 2908 0f32 E2000000 		.4byte	.LASF146
 2909 0f36 01       		.byte	0x1
 2910 0f37 2D       		.byte	0x2d
 2911 0f38 210F0000 		.4byte	0xf21
 2912 0f3c 05       		.uleb128 0x5
 2913 0f3d 03       		.byte	0x3
 2914 0f3e 00000000 		.4byte	tx_thread_wa
 2915 0f42 2F       		.uleb128 0x2f
 2916 0f43 73020000 		.4byte	.LASF147
 2917 0f47 01       		.byte	0x1
 2918 0f48 2E       		.byte	0x2e
 2919 0f49 F7070000 		.4byte	0x7f7
 2920 0f4d 05       		.uleb128 0x5
 2921 0f4e 03       		.byte	0x3
 2922 0f4f 00000000 		.4byte	mstate
 2923 0f53 15       		.uleb128 0x15
 2924 0f54 C9000000 		.4byte	0xc9
 2925 0f58 640F0000 		.4byte	0xf64
 2926 0f5c 3B       		.uleb128 0x3b
 2927 0f5d A2000000 		.4byte	0xa2
 2928 0f61 FF03     		.2byte	0x3ff
 2929 0f63 00       		.byte	0
 2930 0f64 2F       		.uleb128 0x2f
 2931 0f65 2B040000 		.4byte	.LASF148
 2932 0f69 01       		.byte	0x1
 2933 0f6a 2F       		.byte	0x2f
 2934 0f6b 530F0000 		.4byte	0xf53
 2935 0f6f 05       		.uleb128 0x5
 2936 0f70 03       		.byte	0x3
 2937 0f71 00000000 		.4byte	rx_buffer
 2938 0f75 2F       		.uleb128 0x2f
 2939 0f76 DE060000 		.4byte	.LASF149
 2940 0f7a 01       		.byte	0x1
 2941 0f7b 30       		.byte	0x30
 2942 0f7c 25000000 		.4byte	0x25
 2943 0f80 05       		.uleb128 0x5
 2944 0f81 03       		.byte	0x3
 2945 0f82 00000000 		.4byte	nosend_cnt
 2946 0f86 2F       		.uleb128 0x2f
 2947 0f87 11020000 		.4byte	.LASF150
 2948 0f8b 01       		.byte	0x1
ARM GAS  C:\Users\euanm\AppData\Local\Temp\ccCsOkpq.s 			page 53


 2949 0f8c 31       		.byte	0x31
 2950 0f8d 25000000 		.4byte	0x25
 2951 0f91 05       		.uleb128 0x5
 2952 0f92 03       		.byte	0x3
 2953 0f93 00000000 		.4byte	nrf_restart_rx_time
 2954 0f97 2F       		.uleb128 0x2f
 2955 0f98 80050000 		.4byte	.LASF151
 2956 0f9c 01       		.byte	0x1
 2957 0f9d 32       		.byte	0x32
 2958 0f9e 25000000 		.4byte	0x25
 2959 0fa2 05       		.uleb128 0x5
 2960 0fa3 03       		.byte	0x3
 2961 0fa4 00000000 		.4byte	nrf_restart_tx_time
 2962 0fa8 3C       		.uleb128 0x3c
 2963 0fa9 E8040000 		.4byte	.LASF152
 2964 0fad 15       		.byte	0x15
 2965 0fae A706     		.2byte	0x6a7
 2966 0fb0 F5000000 		.4byte	0xf5
 2967 0fb4 3D       		.uleb128 0x3d
 2968 0fb5 636800   		.ascii	"ch\000"
 2969 0fb8 08       		.byte	0x8
 2970 0fb9 0902     		.2byte	0x209
 2971 0fbb 2D040000 		.4byte	0x42d
 2972 0fbf 3E       		.uleb128 0x3e
 2973 0fc0 4F080000 		.4byte	.LASF153
 2974 0fc4 4F080000 		.4byte	.LASF153
 2975 0fc8 0F       		.byte	0xf
 2976 0fc9 1D       		.byte	0x1d
 2977 0fca 3E       		.uleb128 0x3e
 2978 0fcb C1060000 		.4byte	.LASF154
 2979 0fcf C1060000 		.4byte	.LASF154
 2980 0fd3 10       		.byte	0x10
 2981 0fd4 96       		.byte	0x96
 2982 0fd5 3F       		.uleb128 0x3f
 2983 0fd6 3B010000 		.4byte	.LASF170
 2984 0fda 3B010000 		.4byte	.LASF170
 2985 0fde 3E       		.uleb128 0x3e
 2986 0fdf 0B060000 		.4byte	.LASF155
 2987 0fe3 0B060000 		.4byte	.LASF155
 2988 0fe7 11       		.byte	0x11
 2989 0fe8 1F       		.byte	0x1f
 2990 0fe9 3E       		.uleb128 0x3e
 2991 0fea 42010000 		.4byte	.LASF156
 2992 0fee 42010000 		.4byte	.LASF156
 2993 0ff2 12       		.byte	0x12
 2994 0ff3 20       		.byte	0x20
 2995 0ff4 3E       		.uleb128 0x3e
 2996 0ff5 6D040000 		.4byte	.LASF157
 2997 0ff9 6D040000 		.4byte	.LASF157
 2998 0ffd 12       		.byte	0x12
 2999 0ffe 22       		.byte	0x22
 3000 0fff 3E       		.uleb128 0x3e
 3001 1000 F7030000 		.4byte	.LASF158
 3002 1004 F7030000 		.4byte	.LASF158
 3003 1008 13       		.byte	0x13
 3004 1009 24       		.byte	0x24
 3005 100a 3E       		.uleb128 0x3e
ARM GAS  C:\Users\euanm\AppData\Local\Temp\ccCsOkpq.s 			page 54


 3006 100b C0000000 		.4byte	.LASF159
 3007 100f C0000000 		.4byte	.LASF159
 3008 1013 14       		.byte	0x14
 3009 1014 31       		.byte	0x31
 3010 1015 3E       		.uleb128 0x3e
 3011 1016 A4040000 		.4byte	.LASF160
 3012 101a A4040000 		.4byte	.LASF160
 3013 101e 0F       		.byte	0xf
 3014 101f 1F       		.byte	0x1f
 3015 1020 3E       		.uleb128 0x3e
 3016 1021 54020000 		.4byte	.LASF161
 3017 1025 54020000 		.4byte	.LASF161
 3018 1029 0F       		.byte	0xf
 3019 102a 24       		.byte	0x24
 3020 102b 3E       		.uleb128 0x3e
 3021 102c 74000000 		.4byte	.LASF162
 3022 1030 74000000 		.4byte	.LASF162
 3023 1034 0F       		.byte	0xf
 3024 1035 1B       		.byte	0x1b
 3025 1036 3E       		.uleb128 0x3e
 3026 1037 68000000 		.4byte	.LASF163
 3027 103b 68000000 		.4byte	.LASF163
 3028 103f 0F       		.byte	0xf
 3029 1040 19       		.byte	0x19
 3030 1041 3E       		.uleb128 0x3e
 3031 1042 4C030000 		.4byte	.LASF164
 3032 1046 4C030000 		.4byte	.LASF164
 3033 104a 10       		.byte	0x10
 3034 104b 89       		.byte	0x89
 3035 104c 00       		.byte	0
 3036              		.section	.debug_abbrev,"",%progbits
 3037              	.Ldebug_abbrev0:
 3038 0000 01       		.uleb128 0x1
 3039 0001 11       		.uleb128 0x11
 3040 0002 01       		.byte	0x1
 3041 0003 25       		.uleb128 0x25
 3042 0004 0E       		.uleb128 0xe
 3043 0005 13       		.uleb128 0x13
 3044 0006 0B       		.uleb128 0xb
 3045 0007 03       		.uleb128 0x3
 3046 0008 0E       		.uleb128 0xe
 3047 0009 1B       		.uleb128 0x1b
 3048 000a 0E       		.uleb128 0xe
 3049 000b 55       		.uleb128 0x55
 3050 000c 17       		.uleb128 0x17
 3051 000d 11       		.uleb128 0x11
 3052 000e 01       		.uleb128 0x1
 3053 000f 10       		.uleb128 0x10
 3054 0010 17       		.uleb128 0x17
 3055 0011 00       		.byte	0
 3056 0012 00       		.byte	0
 3057 0013 02       		.uleb128 0x2
 3058 0014 24       		.uleb128 0x24
 3059 0015 00       		.byte	0
 3060 0016 0B       		.uleb128 0xb
 3061 0017 0B       		.uleb128 0xb
 3062 0018 3E       		.uleb128 0x3e
ARM GAS  C:\Users\euanm\AppData\Local\Temp\ccCsOkpq.s 			page 55


 3063 0019 0B       		.uleb128 0xb
 3064 001a 03       		.uleb128 0x3
 3065 001b 08       		.uleb128 0x8
 3066 001c 00       		.byte	0
 3067 001d 00       		.byte	0
 3068 001e 03       		.uleb128 0x3
 3069 001f 16       		.uleb128 0x16
 3070 0020 00       		.byte	0
 3071 0021 03       		.uleb128 0x3
 3072 0022 0E       		.uleb128 0xe
 3073 0023 3A       		.uleb128 0x3a
 3074 0024 0B       		.uleb128 0xb
 3075 0025 3B       		.uleb128 0x3b
 3076 0026 0B       		.uleb128 0xb
 3077 0027 49       		.uleb128 0x49
 3078 0028 13       		.uleb128 0x13
 3079 0029 00       		.byte	0
 3080 002a 00       		.byte	0
 3081 002b 04       		.uleb128 0x4
 3082 002c 24       		.uleb128 0x24
 3083 002d 00       		.byte	0
 3084 002e 0B       		.uleb128 0xb
 3085 002f 0B       		.uleb128 0xb
 3086 0030 3E       		.uleb128 0x3e
 3087 0031 0B       		.uleb128 0xb
 3088 0032 03       		.uleb128 0x3
 3089 0033 0E       		.uleb128 0xe
 3090 0034 00       		.byte	0
 3091 0035 00       		.byte	0
 3092 0036 05       		.uleb128 0x5
 3093 0037 0F       		.uleb128 0xf
 3094 0038 00       		.byte	0
 3095 0039 0B       		.uleb128 0xb
 3096 003a 0B       		.uleb128 0xb
 3097 003b 00       		.byte	0
 3098 003c 00       		.byte	0
 3099 003d 06       		.uleb128 0x6
 3100 003e 0F       		.uleb128 0xf
 3101 003f 00       		.byte	0
 3102 0040 0B       		.uleb128 0xb
 3103 0041 0B       		.uleb128 0xb
 3104 0042 49       		.uleb128 0x49
 3105 0043 13       		.uleb128 0x13
 3106 0044 00       		.byte	0
 3107 0045 00       		.byte	0
 3108 0046 07       		.uleb128 0x7
 3109 0047 26       		.uleb128 0x26
 3110 0048 00       		.byte	0
 3111 0049 49       		.uleb128 0x49
 3112 004a 13       		.uleb128 0x13
 3113 004b 00       		.byte	0
 3114 004c 00       		.byte	0
 3115 004d 08       		.uleb128 0x8
 3116 004e 35       		.uleb128 0x35
 3117 004f 00       		.byte	0
 3118 0050 49       		.uleb128 0x49
 3119 0051 13       		.uleb128 0x13
ARM GAS  C:\Users\euanm\AppData\Local\Temp\ccCsOkpq.s 			page 56


 3120 0052 00       		.byte	0
 3121 0053 00       		.byte	0
 3122 0054 09       		.uleb128 0x9
 3123 0055 13       		.uleb128 0x13
 3124 0056 01       		.byte	0x1
 3125 0057 03       		.uleb128 0x3
 3126 0058 0E       		.uleb128 0xe
 3127 0059 0B       		.uleb128 0xb
 3128 005a 0B       		.uleb128 0xb
 3129 005b 3A       		.uleb128 0x3a
 3130 005c 0B       		.uleb128 0xb
 3131 005d 3B       		.uleb128 0x3b
 3132 005e 0B       		.uleb128 0xb
 3133 005f 01       		.uleb128 0x1
 3134 0060 13       		.uleb128 0x13
 3135 0061 00       		.byte	0
 3136 0062 00       		.byte	0
 3137 0063 0A       		.uleb128 0xa
 3138 0064 0D       		.uleb128 0xd
 3139 0065 00       		.byte	0
 3140 0066 03       		.uleb128 0x3
 3141 0067 0E       		.uleb128 0xe
 3142 0068 3A       		.uleb128 0x3a
 3143 0069 0B       		.uleb128 0xb
 3144 006a 3B       		.uleb128 0x3b
 3145 006b 0B       		.uleb128 0xb
 3146 006c 49       		.uleb128 0x49
 3147 006d 13       		.uleb128 0x13
 3148 006e 38       		.uleb128 0x38
 3149 006f 0B       		.uleb128 0xb
 3150 0070 00       		.byte	0
 3151 0071 00       		.byte	0
 3152 0072 0B       		.uleb128 0xb
 3153 0073 0D       		.uleb128 0xd
 3154 0074 00       		.byte	0
 3155 0075 03       		.uleb128 0x3
 3156 0076 08       		.uleb128 0x8
 3157 0077 3A       		.uleb128 0x3a
 3158 0078 0B       		.uleb128 0xb
 3159 0079 3B       		.uleb128 0x3b
 3160 007a 05       		.uleb128 0x5
 3161 007b 49       		.uleb128 0x49
 3162 007c 13       		.uleb128 0x13
 3163 007d 38       		.uleb128 0x38
 3164 007e 0B       		.uleb128 0xb
 3165 007f 00       		.byte	0
 3166 0080 00       		.byte	0
 3167 0081 0C       		.uleb128 0xc
 3168 0082 0D       		.uleb128 0xd
 3169 0083 00       		.byte	0
 3170 0084 03       		.uleb128 0x3
 3171 0085 0E       		.uleb128 0xe
 3172 0086 3A       		.uleb128 0x3a
 3173 0087 0B       		.uleb128 0xb
 3174 0088 3B       		.uleb128 0x3b
 3175 0089 05       		.uleb128 0x5
 3176 008a 49       		.uleb128 0x49
ARM GAS  C:\Users\euanm\AppData\Local\Temp\ccCsOkpq.s 			page 57


 3177 008b 13       		.uleb128 0x13
 3178 008c 38       		.uleb128 0x38
 3179 008d 0B       		.uleb128 0xb
 3180 008e 00       		.byte	0
 3181 008f 00       		.byte	0
 3182 0090 0D       		.uleb128 0xd
 3183 0091 13       		.uleb128 0x13
 3184 0092 01       		.byte	0x1
 3185 0093 03       		.uleb128 0x3
 3186 0094 0E       		.uleb128 0xe
 3187 0095 0B       		.uleb128 0xb
 3188 0096 0B       		.uleb128 0xb
 3189 0097 3A       		.uleb128 0x3a
 3190 0098 0B       		.uleb128 0xb
 3191 0099 3B       		.uleb128 0x3b
 3192 009a 05       		.uleb128 0x5
 3193 009b 01       		.uleb128 0x1
 3194 009c 13       		.uleb128 0x13
 3195 009d 00       		.byte	0
 3196 009e 00       		.byte	0
 3197 009f 0E       		.uleb128 0xe
 3198 00a0 15       		.uleb128 0x15
 3199 00a1 01       		.byte	0x1
 3200 00a2 27       		.uleb128 0x27
 3201 00a3 19       		.uleb128 0x19
 3202 00a4 01       		.uleb128 0x1
 3203 00a5 13       		.uleb128 0x13
 3204 00a6 00       		.byte	0
 3205 00a7 00       		.byte	0
 3206 00a8 0F       		.uleb128 0xf
 3207 00a9 05       		.uleb128 0x5
 3208 00aa 00       		.byte	0
 3209 00ab 49       		.uleb128 0x49
 3210 00ac 13       		.uleb128 0x13
 3211 00ad 00       		.byte	0
 3212 00ae 00       		.byte	0
 3213 00af 10       		.uleb128 0x10
 3214 00b0 13       		.uleb128 0x13
 3215 00b1 01       		.byte	0x1
 3216 00b2 03       		.uleb128 0x3
 3217 00b3 0E       		.uleb128 0xe
 3218 00b4 0B       		.uleb128 0xb
 3219 00b5 05       		.uleb128 0x5
 3220 00b6 3A       		.uleb128 0x3a
 3221 00b7 0B       		.uleb128 0xb
 3222 00b8 3B       		.uleb128 0x3b
 3223 00b9 05       		.uleb128 0x5
 3224 00ba 01       		.uleb128 0x1
 3225 00bb 13       		.uleb128 0x13
 3226 00bc 00       		.byte	0
 3227 00bd 00       		.byte	0
 3228 00be 11       		.uleb128 0x11
 3229 00bf 0D       		.uleb128 0xd
 3230 00c0 00       		.byte	0
 3231 00c1 03       		.uleb128 0x3
 3232 00c2 08       		.uleb128 0x8
 3233 00c3 3A       		.uleb128 0x3a
ARM GAS  C:\Users\euanm\AppData\Local\Temp\ccCsOkpq.s 			page 58


 3234 00c4 0B       		.uleb128 0xb
 3235 00c5 3B       		.uleb128 0x3b
 3236 00c6 0B       		.uleb128 0xb
 3237 00c7 49       		.uleb128 0x49
 3238 00c8 13       		.uleb128 0x13
 3239 00c9 38       		.uleb128 0x38
 3240 00ca 0B       		.uleb128 0xb
 3241 00cb 00       		.byte	0
 3242 00cc 00       		.byte	0
 3243 00cd 12       		.uleb128 0x12
 3244 00ce 13       		.uleb128 0x13
 3245 00cf 01       		.byte	0x1
 3246 00d0 0B       		.uleb128 0xb
 3247 00d1 0B       		.uleb128 0xb
 3248 00d2 3A       		.uleb128 0x3a
 3249 00d3 0B       		.uleb128 0xb
 3250 00d4 3B       		.uleb128 0x3b
 3251 00d5 0B       		.uleb128 0xb
 3252 00d6 01       		.uleb128 0x1
 3253 00d7 13       		.uleb128 0x13
 3254 00d8 00       		.byte	0
 3255 00d9 00       		.byte	0
 3256 00da 13       		.uleb128 0x13
 3257 00db 17       		.uleb128 0x17
 3258 00dc 01       		.byte	0x1
 3259 00dd 0B       		.uleb128 0xb
 3260 00de 0B       		.uleb128 0xb
 3261 00df 3A       		.uleb128 0x3a
 3262 00e0 0B       		.uleb128 0xb
 3263 00e1 3B       		.uleb128 0x3b
 3264 00e2 0B       		.uleb128 0xb
 3265 00e3 01       		.uleb128 0x1
 3266 00e4 13       		.uleb128 0x13
 3267 00e5 00       		.byte	0
 3268 00e6 00       		.byte	0
 3269 00e7 14       		.uleb128 0x14
 3270 00e8 0D       		.uleb128 0xd
 3271 00e9 00       		.byte	0
 3272 00ea 03       		.uleb128 0x3
 3273 00eb 0E       		.uleb128 0xe
 3274 00ec 3A       		.uleb128 0x3a
 3275 00ed 0B       		.uleb128 0xb
 3276 00ee 3B       		.uleb128 0x3b
 3277 00ef 05       		.uleb128 0x5
 3278 00f0 49       		.uleb128 0x49
 3279 00f1 13       		.uleb128 0x13
 3280 00f2 00       		.byte	0
 3281 00f3 00       		.byte	0
 3282 00f4 15       		.uleb128 0x15
 3283 00f5 01       		.uleb128 0x1
 3284 00f6 01       		.byte	0x1
 3285 00f7 49       		.uleb128 0x49
 3286 00f8 13       		.uleb128 0x13
 3287 00f9 01       		.uleb128 0x1
 3288 00fa 13       		.uleb128 0x13
 3289 00fb 00       		.byte	0
 3290 00fc 00       		.byte	0
ARM GAS  C:\Users\euanm\AppData\Local\Temp\ccCsOkpq.s 			page 59


 3291 00fd 16       		.uleb128 0x16
 3292 00fe 21       		.uleb128 0x21
 3293 00ff 00       		.byte	0
 3294 0100 49       		.uleb128 0x49
 3295 0101 13       		.uleb128 0x13
 3296 0102 2F       		.uleb128 0x2f
 3297 0103 0B       		.uleb128 0xb
 3298 0104 00       		.byte	0
 3299 0105 00       		.byte	0
 3300 0106 17       		.uleb128 0x17
 3301 0107 13       		.uleb128 0x13
 3302 0108 01       		.byte	0x1
 3303 0109 0B       		.uleb128 0xb
 3304 010a 0B       		.uleb128 0xb
 3305 010b 3A       		.uleb128 0x3a
 3306 010c 0B       		.uleb128 0xb
 3307 010d 3B       		.uleb128 0x3b
 3308 010e 05       		.uleb128 0x5
 3309 010f 01       		.uleb128 0x1
 3310 0110 13       		.uleb128 0x13
 3311 0111 00       		.byte	0
 3312 0112 00       		.byte	0
 3313 0113 18       		.uleb128 0x18
 3314 0114 16       		.uleb128 0x16
 3315 0115 00       		.byte	0
 3316 0116 03       		.uleb128 0x3
 3317 0117 0E       		.uleb128 0xe
 3318 0118 3A       		.uleb128 0x3a
 3319 0119 0B       		.uleb128 0xb
 3320 011a 3B       		.uleb128 0x3b
 3321 011b 05       		.uleb128 0x5
 3322 011c 49       		.uleb128 0x49
 3323 011d 13       		.uleb128 0x13
 3324 011e 00       		.byte	0
 3325 011f 00       		.byte	0
 3326 0120 19       		.uleb128 0x19
 3327 0121 04       		.uleb128 0x4
 3328 0122 01       		.byte	0x1
 3329 0123 0B       		.uleb128 0xb
 3330 0124 0B       		.uleb128 0xb
 3331 0125 49       		.uleb128 0x49
 3332 0126 13       		.uleb128 0x13
 3333 0127 3A       		.uleb128 0x3a
 3334 0128 0B       		.uleb128 0xb
 3335 0129 3B       		.uleb128 0x3b
 3336 012a 05       		.uleb128 0x5
 3337 012b 01       		.uleb128 0x1
 3338 012c 13       		.uleb128 0x13
 3339 012d 00       		.byte	0
 3340 012e 00       		.byte	0
 3341 012f 1A       		.uleb128 0x1a
 3342 0130 28       		.uleb128 0x28
 3343 0131 00       		.byte	0
 3344 0132 03       		.uleb128 0x3
 3345 0133 0E       		.uleb128 0xe
 3346 0134 1C       		.uleb128 0x1c
 3347 0135 0B       		.uleb128 0xb
ARM GAS  C:\Users\euanm\AppData\Local\Temp\ccCsOkpq.s 			page 60


 3348 0136 00       		.byte	0
 3349 0137 00       		.byte	0
 3350 0138 1B       		.uleb128 0x1b
 3351 0139 2E       		.uleb128 0x2e
 3352 013a 01       		.byte	0x1
 3353 013b 03       		.uleb128 0x3
 3354 013c 0E       		.uleb128 0xe
 3355 013d 3A       		.uleb128 0x3a
 3356 013e 0B       		.uleb128 0xb
 3357 013f 3B       		.uleb128 0x3b
 3358 0140 0B       		.uleb128 0xb
 3359 0141 27       		.uleb128 0x27
 3360 0142 19       		.uleb128 0x19
 3361 0143 20       		.uleb128 0x20
 3362 0144 0B       		.uleb128 0xb
 3363 0145 01       		.uleb128 0x1
 3364 0146 13       		.uleb128 0x13
 3365 0147 00       		.byte	0
 3366 0148 00       		.byte	0
 3367 0149 1C       		.uleb128 0x1c
 3368 014a 05       		.uleb128 0x5
 3369 014b 00       		.byte	0
 3370 014c 03       		.uleb128 0x3
 3371 014d 0E       		.uleb128 0xe
 3372 014e 3A       		.uleb128 0x3a
 3373 014f 0B       		.uleb128 0xb
 3374 0150 3B       		.uleb128 0x3b
 3375 0151 0B       		.uleb128 0xb
 3376 0152 49       		.uleb128 0x49
 3377 0153 13       		.uleb128 0x13
 3378 0154 00       		.byte	0
 3379 0155 00       		.byte	0
 3380 0156 1D       		.uleb128 0x1d
 3381 0157 2E       		.uleb128 0x2e
 3382 0158 01       		.byte	0x1
 3383 0159 03       		.uleb128 0x3
 3384 015a 0E       		.uleb128 0xe
 3385 015b 3A       		.uleb128 0x3a
 3386 015c 0B       		.uleb128 0xb
 3387 015d 3B       		.uleb128 0x3b
 3388 015e 0B       		.uleb128 0xb
 3389 015f 27       		.uleb128 0x27
 3390 0160 19       		.uleb128 0x19
 3391 0161 49       		.uleb128 0x49
 3392 0162 13       		.uleb128 0x13
 3393 0163 20       		.uleb128 0x20
 3394 0164 0B       		.uleb128 0xb
 3395 0165 01       		.uleb128 0x1
 3396 0166 13       		.uleb128 0x13
 3397 0167 00       		.byte	0
 3398 0168 00       		.byte	0
 3399 0169 1E       		.uleb128 0x1e
 3400 016a 05       		.uleb128 0x5
 3401 016b 00       		.byte	0
 3402 016c 03       		.uleb128 0x3
 3403 016d 08       		.uleb128 0x8
 3404 016e 3A       		.uleb128 0x3a
ARM GAS  C:\Users\euanm\AppData\Local\Temp\ccCsOkpq.s 			page 61


 3405 016f 0B       		.uleb128 0xb
 3406 0170 3B       		.uleb128 0x3b
 3407 0171 0B       		.uleb128 0xb
 3408 0172 49       		.uleb128 0x49
 3409 0173 13       		.uleb128 0x13
 3410 0174 00       		.byte	0
 3411 0175 00       		.byte	0
 3412 0176 1F       		.uleb128 0x1f
 3413 0177 34       		.uleb128 0x34
 3414 0178 00       		.byte	0
 3415 0179 03       		.uleb128 0x3
 3416 017a 08       		.uleb128 0x8
 3417 017b 3A       		.uleb128 0x3a
 3418 017c 0B       		.uleb128 0xb
 3419 017d 3B       		.uleb128 0x3b
 3420 017e 0B       		.uleb128 0xb
 3421 017f 49       		.uleb128 0x49
 3422 0180 13       		.uleb128 0x13
 3423 0181 00       		.byte	0
 3424 0182 00       		.byte	0
 3425 0183 20       		.uleb128 0x20
 3426 0184 2E       		.uleb128 0x2e
 3427 0185 01       		.byte	0x1
 3428 0186 03       		.uleb128 0x3
 3429 0187 0E       		.uleb128 0xe
 3430 0188 3A       		.uleb128 0x3a
 3431 0189 0B       		.uleb128 0xb
 3432 018a 3B       		.uleb128 0x3b
 3433 018b 0B       		.uleb128 0xb
 3434 018c 27       		.uleb128 0x27
 3435 018d 19       		.uleb128 0x19
 3436 018e 8701     		.uleb128 0x87
 3437 0190 19       		.uleb128 0x19
 3438 0191 11       		.uleb128 0x11
 3439 0192 01       		.uleb128 0x1
 3440 0193 12       		.uleb128 0x12
 3441 0194 06       		.uleb128 0x6
 3442 0195 40       		.uleb128 0x40
 3443 0196 18       		.uleb128 0x18
 3444 0197 9742     		.uleb128 0x2117
 3445 0199 19       		.uleb128 0x19
 3446 019a 01       		.uleb128 0x1
 3447 019b 13       		.uleb128 0x13
 3448 019c 00       		.byte	0
 3449 019d 00       		.byte	0
 3450 019e 21       		.uleb128 0x21
 3451 019f 05       		.uleb128 0x5
 3452 01a0 00       		.byte	0
 3453 01a1 03       		.uleb128 0x3
 3454 01a2 08       		.uleb128 0x8
 3455 01a3 3A       		.uleb128 0x3a
 3456 01a4 0B       		.uleb128 0xb
 3457 01a5 3B       		.uleb128 0x3b
 3458 01a6 0B       		.uleb128 0xb
 3459 01a7 49       		.uleb128 0x49
 3460 01a8 13       		.uleb128 0x13
 3461 01a9 02       		.uleb128 0x2
ARM GAS  C:\Users\euanm\AppData\Local\Temp\ccCsOkpq.s 			page 62


 3462 01aa 17       		.uleb128 0x17
 3463 01ab 00       		.byte	0
 3464 01ac 00       		.byte	0
 3465 01ad 22       		.uleb128 0x22
 3466 01ae 1D       		.uleb128 0x1d
 3467 01af 01       		.byte	0x1
 3468 01b0 31       		.uleb128 0x31
 3469 01b1 13       		.uleb128 0x13
 3470 01b2 11       		.uleb128 0x11
 3471 01b3 01       		.uleb128 0x1
 3472 01b4 12       		.uleb128 0x12
 3473 01b5 06       		.uleb128 0x6
 3474 01b6 58       		.uleb128 0x58
 3475 01b7 0B       		.uleb128 0xb
 3476 01b8 59       		.uleb128 0x59
 3477 01b9 0B       		.uleb128 0xb
 3478 01ba 01       		.uleb128 0x1
 3479 01bb 13       		.uleb128 0x13
 3480 01bc 00       		.byte	0
 3481 01bd 00       		.byte	0
 3482 01be 23       		.uleb128 0x23
 3483 01bf 05       		.uleb128 0x5
 3484 01c0 00       		.byte	0
 3485 01c1 31       		.uleb128 0x31
 3486 01c2 13       		.uleb128 0x13
 3487 01c3 02       		.uleb128 0x2
 3488 01c4 18       		.uleb128 0x18
 3489 01c5 00       		.byte	0
 3490 01c6 00       		.byte	0
 3491 01c7 24       		.uleb128 0x24
 3492 01c8 0B       		.uleb128 0xb
 3493 01c9 01       		.byte	0x1
 3494 01ca 55       		.uleb128 0x55
 3495 01cb 17       		.uleb128 0x17
 3496 01cc 01       		.uleb128 0x1
 3497 01cd 13       		.uleb128 0x13
 3498 01ce 00       		.byte	0
 3499 01cf 00       		.byte	0
 3500 01d0 25       		.uleb128 0x25
 3501 01d1 34       		.uleb128 0x34
 3502 01d2 00       		.byte	0
 3503 01d3 03       		.uleb128 0x3
 3504 01d4 08       		.uleb128 0x8
 3505 01d5 3A       		.uleb128 0x3a
 3506 01d6 0B       		.uleb128 0xb
 3507 01d7 3B       		.uleb128 0x3b
 3508 01d8 0B       		.uleb128 0xb
 3509 01d9 49       		.uleb128 0x49
 3510 01da 13       		.uleb128 0x13
 3511 01db 02       		.uleb128 0x2
 3512 01dc 18       		.uleb128 0x18
 3513 01dd 00       		.byte	0
 3514 01de 00       		.byte	0
 3515 01df 26       		.uleb128 0x26
 3516 01e0 34       		.uleb128 0x34
 3517 01e1 00       		.byte	0
 3518 01e2 03       		.uleb128 0x3
ARM GAS  C:\Users\euanm\AppData\Local\Temp\ccCsOkpq.s 			page 63


 3519 01e3 0E       		.uleb128 0xe
 3520 01e4 3A       		.uleb128 0x3a
 3521 01e5 0B       		.uleb128 0xb
 3522 01e6 3B       		.uleb128 0x3b
 3523 01e7 0B       		.uleb128 0xb
 3524 01e8 49       		.uleb128 0x49
 3525 01e9 13       		.uleb128 0x13
 3526 01ea 1C       		.uleb128 0x1c
 3527 01eb 0B       		.uleb128 0xb
 3528 01ec 00       		.byte	0
 3529 01ed 00       		.byte	0
 3530 01ee 27       		.uleb128 0x27
 3531 01ef 1D       		.uleb128 0x1d
 3532 01f0 01       		.byte	0x1
 3533 01f1 31       		.uleb128 0x31
 3534 01f2 13       		.uleb128 0x13
 3535 01f3 52       		.uleb128 0x52
 3536 01f4 01       		.uleb128 0x1
 3537 01f5 55       		.uleb128 0x55
 3538 01f6 17       		.uleb128 0x17
 3539 01f7 58       		.uleb128 0x58
 3540 01f8 0B       		.uleb128 0xb
 3541 01f9 59       		.uleb128 0x59
 3542 01fa 0B       		.uleb128 0xb
 3543 01fb 00       		.byte	0
 3544 01fc 00       		.byte	0
 3545 01fd 28       		.uleb128 0x28
 3546 01fe 05       		.uleb128 0x5
 3547 01ff 00       		.byte	0
 3548 0200 31       		.uleb128 0x31
 3549 0201 13       		.uleb128 0x13
 3550 0202 02       		.uleb128 0x2
 3551 0203 17       		.uleb128 0x17
 3552 0204 00       		.byte	0
 3553 0205 00       		.byte	0
 3554 0206 29       		.uleb128 0x29
 3555 0207 0B       		.uleb128 0xb
 3556 0208 01       		.byte	0x1
 3557 0209 55       		.uleb128 0x55
 3558 020a 17       		.uleb128 0x17
 3559 020b 00       		.byte	0
 3560 020c 00       		.byte	0
 3561 020d 2A       		.uleb128 0x2a
 3562 020e 34       		.uleb128 0x34
 3563 020f 00       		.byte	0
 3564 0210 31       		.uleb128 0x31
 3565 0211 13       		.uleb128 0x13
 3566 0212 00       		.byte	0
 3567 0213 00       		.byte	0
 3568 0214 2B       		.uleb128 0x2b
 3569 0215 898201   		.uleb128 0x4109
 3570 0218 01       		.byte	0x1
 3571 0219 11       		.uleb128 0x11
 3572 021a 01       		.uleb128 0x1
 3573 021b 31       		.uleb128 0x31
 3574 021c 13       		.uleb128 0x13
 3575 021d 00       		.byte	0
ARM GAS  C:\Users\euanm\AppData\Local\Temp\ccCsOkpq.s 			page 64


 3576 021e 00       		.byte	0
 3577 021f 2C       		.uleb128 0x2c
 3578 0220 8A8201   		.uleb128 0x410a
 3579 0223 00       		.byte	0
 3580 0224 02       		.uleb128 0x2
 3581 0225 18       		.uleb128 0x18
 3582 0226 9142     		.uleb128 0x2111
 3583 0228 18       		.uleb128 0x18
 3584 0229 00       		.byte	0
 3585 022a 00       		.byte	0
 3586 022b 2D       		.uleb128 0x2d
 3587 022c 2E       		.uleb128 0x2e
 3588 022d 01       		.byte	0x1
 3589 022e 3F       		.uleb128 0x3f
 3590 022f 19       		.uleb128 0x19
 3591 0230 03       		.uleb128 0x3
 3592 0231 0E       		.uleb128 0xe
 3593 0232 3A       		.uleb128 0x3a
 3594 0233 0B       		.uleb128 0xb
 3595 0234 3B       		.uleb128 0x3b
 3596 0235 0B       		.uleb128 0xb
 3597 0236 27       		.uleb128 0x27
 3598 0237 19       		.uleb128 0x19
 3599 0238 11       		.uleb128 0x11
 3600 0239 01       		.uleb128 0x1
 3601 023a 12       		.uleb128 0x12
 3602 023b 06       		.uleb128 0x6
 3603 023c 40       		.uleb128 0x40
 3604 023d 18       		.uleb128 0x18
 3605 023e 9742     		.uleb128 0x2117
 3606 0240 19       		.uleb128 0x19
 3607 0241 01       		.uleb128 0x1
 3608 0242 13       		.uleb128 0x13
 3609 0243 00       		.byte	0
 3610 0244 00       		.byte	0
 3611 0245 2E       		.uleb128 0x2e
 3612 0246 05       		.uleb128 0x5
 3613 0247 00       		.byte	0
 3614 0248 03       		.uleb128 0x3
 3615 0249 0E       		.uleb128 0xe
 3616 024a 3A       		.uleb128 0x3a
 3617 024b 0B       		.uleb128 0xb
 3618 024c 3B       		.uleb128 0x3b
 3619 024d 0B       		.uleb128 0xb
 3620 024e 49       		.uleb128 0x49
 3621 024f 13       		.uleb128 0x13
 3622 0250 02       		.uleb128 0x2
 3623 0251 17       		.uleb128 0x17
 3624 0252 00       		.byte	0
 3625 0253 00       		.byte	0
 3626 0254 2F       		.uleb128 0x2f
 3627 0255 34       		.uleb128 0x34
 3628 0256 00       		.byte	0
 3629 0257 03       		.uleb128 0x3
 3630 0258 0E       		.uleb128 0xe
 3631 0259 3A       		.uleb128 0x3a
 3632 025a 0B       		.uleb128 0xb
ARM GAS  C:\Users\euanm\AppData\Local\Temp\ccCsOkpq.s 			page 65


 3633 025b 3B       		.uleb128 0x3b
 3634 025c 0B       		.uleb128 0xb
 3635 025d 49       		.uleb128 0x49
 3636 025e 13       		.uleb128 0x13
 3637 025f 02       		.uleb128 0x2
 3638 0260 18       		.uleb128 0x18
 3639 0261 00       		.byte	0
 3640 0262 00       		.byte	0
 3641 0263 30       		.uleb128 0x30
 3642 0264 34       		.uleb128 0x34
 3643 0265 00       		.byte	0
 3644 0266 03       		.uleb128 0x3
 3645 0267 0E       		.uleb128 0xe
 3646 0268 3A       		.uleb128 0x3a
 3647 0269 0B       		.uleb128 0xb
 3648 026a 3B       		.uleb128 0x3b
 3649 026b 0B       		.uleb128 0xb
 3650 026c 49       		.uleb128 0x49
 3651 026d 13       		.uleb128 0x13
 3652 026e 02       		.uleb128 0x2
 3653 026f 17       		.uleb128 0x17
 3654 0270 00       		.byte	0
 3655 0271 00       		.byte	0
 3656 0272 31       		.uleb128 0x31
 3657 0273 34       		.uleb128 0x34
 3658 0274 00       		.byte	0
 3659 0275 03       		.uleb128 0x3
 3660 0276 08       		.uleb128 0x8
 3661 0277 3A       		.uleb128 0x3a
 3662 0278 0B       		.uleb128 0xb
 3663 0279 3B       		.uleb128 0x3b
 3664 027a 05       		.uleb128 0x5
 3665 027b 49       		.uleb128 0x49
 3666 027c 13       		.uleb128 0x13
 3667 027d 02       		.uleb128 0x2
 3668 027e 17       		.uleb128 0x17
 3669 027f 00       		.byte	0
 3670 0280 00       		.byte	0
 3671 0281 32       		.uleb128 0x32
 3672 0282 34       		.uleb128 0x34
 3673 0283 00       		.byte	0
 3674 0284 03       		.uleb128 0x3
 3675 0285 08       		.uleb128 0x8
 3676 0286 3A       		.uleb128 0x3a
 3677 0287 0B       		.uleb128 0xb
 3678 0288 3B       		.uleb128 0x3b
 3679 0289 0B       		.uleb128 0xb
 3680 028a 49       		.uleb128 0x49
 3681 028b 13       		.uleb128 0x13
 3682 028c 02       		.uleb128 0x2
 3683 028d 17       		.uleb128 0x17
 3684 028e 00       		.byte	0
 3685 028f 00       		.byte	0
 3686 0290 33       		.uleb128 0x33
 3687 0291 1D       		.uleb128 0x1d
 3688 0292 01       		.byte	0x1
 3689 0293 31       		.uleb128 0x31
ARM GAS  C:\Users\euanm\AppData\Local\Temp\ccCsOkpq.s 			page 66


 3690 0294 13       		.uleb128 0x13
 3691 0295 52       		.uleb128 0x52
 3692 0296 01       		.uleb128 0x1
 3693 0297 55       		.uleb128 0x55
 3694 0298 17       		.uleb128 0x17
 3695 0299 58       		.uleb128 0x58
 3696 029a 0B       		.uleb128 0xb
 3697 029b 59       		.uleb128 0x59
 3698 029c 0B       		.uleb128 0xb
 3699 029d 01       		.uleb128 0x1
 3700 029e 13       		.uleb128 0x13
 3701 029f 00       		.byte	0
 3702 02a0 00       		.byte	0
 3703 02a1 34       		.uleb128 0x34
 3704 02a2 05       		.uleb128 0x5
 3705 02a3 00       		.byte	0
 3706 02a4 31       		.uleb128 0x31
 3707 02a5 13       		.uleb128 0x13
 3708 02a6 00       		.byte	0
 3709 02a7 00       		.byte	0
 3710 02a8 35       		.uleb128 0x35
 3711 02a9 0B       		.uleb128 0xb
 3712 02aa 01       		.byte	0x1
 3713 02ab 11       		.uleb128 0x11
 3714 02ac 01       		.uleb128 0x1
 3715 02ad 12       		.uleb128 0x12
 3716 02ae 06       		.uleb128 0x6
 3717 02af 01       		.uleb128 0x1
 3718 02b0 13       		.uleb128 0x13
 3719 02b1 00       		.byte	0
 3720 02b2 00       		.byte	0
 3721 02b3 36       		.uleb128 0x36
 3722 02b4 34       		.uleb128 0x34
 3723 02b5 00       		.byte	0
 3724 02b6 03       		.uleb128 0x3
 3725 02b7 0E       		.uleb128 0xe
 3726 02b8 3A       		.uleb128 0x3a
 3727 02b9 0B       		.uleb128 0xb
 3728 02ba 3B       		.uleb128 0x3b
 3729 02bb 05       		.uleb128 0x5
 3730 02bc 49       		.uleb128 0x49
 3731 02bd 13       		.uleb128 0x13
 3732 02be 02       		.uleb128 0x2
 3733 02bf 17       		.uleb128 0x17
 3734 02c0 00       		.byte	0
 3735 02c1 00       		.byte	0
 3736 02c2 37       		.uleb128 0x37
 3737 02c3 1D       		.uleb128 0x1d
 3738 02c4 01       		.byte	0x1
 3739 02c5 31       		.uleb128 0x31
 3740 02c6 13       		.uleb128 0x13
 3741 02c7 52       		.uleb128 0x52
 3742 02c8 01       		.uleb128 0x1
 3743 02c9 55       		.uleb128 0x55
 3744 02ca 17       		.uleb128 0x17
 3745 02cb 58       		.uleb128 0x58
 3746 02cc 0B       		.uleb128 0xb
ARM GAS  C:\Users\euanm\AppData\Local\Temp\ccCsOkpq.s 			page 67


 3747 02cd 59       		.uleb128 0x59
 3748 02ce 05       		.uleb128 0x5
 3749 02cf 01       		.uleb128 0x1
 3750 02d0 13       		.uleb128 0x13
 3751 02d1 00       		.byte	0
 3752 02d2 00       		.byte	0
 3753 02d3 38       		.uleb128 0x38
 3754 02d4 34       		.uleb128 0x34
 3755 02d5 00       		.byte	0
 3756 02d6 31       		.uleb128 0x31
 3757 02d7 13       		.uleb128 0x13
 3758 02d8 02       		.uleb128 0x2
 3759 02d9 17       		.uleb128 0x17
 3760 02da 00       		.byte	0
 3761 02db 00       		.byte	0
 3762 02dc 39       		.uleb128 0x39
 3763 02dd 898201   		.uleb128 0x4109
 3764 02e0 01       		.byte	0x1
 3765 02e1 11       		.uleb128 0x11
 3766 02e2 01       		.uleb128 0x1
 3767 02e3 31       		.uleb128 0x31
 3768 02e4 13       		.uleb128 0x13
 3769 02e5 01       		.uleb128 0x1
 3770 02e6 13       		.uleb128 0x13
 3771 02e7 00       		.byte	0
 3772 02e8 00       		.byte	0
 3773 02e9 3A       		.uleb128 0x3a
 3774 02ea 898201   		.uleb128 0x4109
 3775 02ed 00       		.byte	0
 3776 02ee 11       		.uleb128 0x11
 3777 02ef 01       		.uleb128 0x1
 3778 02f0 31       		.uleb128 0x31
 3779 02f1 13       		.uleb128 0x13
 3780 02f2 00       		.byte	0
 3781 02f3 00       		.byte	0
 3782 02f4 3B       		.uleb128 0x3b
 3783 02f5 21       		.uleb128 0x21
 3784 02f6 00       		.byte	0
 3785 02f7 49       		.uleb128 0x49
 3786 02f8 13       		.uleb128 0x13
 3787 02f9 2F       		.uleb128 0x2f
 3788 02fa 05       		.uleb128 0x5
 3789 02fb 00       		.byte	0
 3790 02fc 00       		.byte	0
 3791 02fd 3C       		.uleb128 0x3c
 3792 02fe 34       		.uleb128 0x34
 3793 02ff 00       		.byte	0
 3794 0300 03       		.uleb128 0x3
 3795 0301 0E       		.uleb128 0xe
 3796 0302 3A       		.uleb128 0x3a
 3797 0303 0B       		.uleb128 0xb
 3798 0304 3B       		.uleb128 0x3b
 3799 0305 05       		.uleb128 0x5
 3800 0306 49       		.uleb128 0x49
 3801 0307 13       		.uleb128 0x13
 3802 0308 3F       		.uleb128 0x3f
 3803 0309 19       		.uleb128 0x19
ARM GAS  C:\Users\euanm\AppData\Local\Temp\ccCsOkpq.s 			page 68


 3804 030a 3C       		.uleb128 0x3c
 3805 030b 19       		.uleb128 0x19
 3806 030c 00       		.byte	0
 3807 030d 00       		.byte	0
 3808 030e 3D       		.uleb128 0x3d
 3809 030f 34       		.uleb128 0x34
 3810 0310 00       		.byte	0
 3811 0311 03       		.uleb128 0x3
 3812 0312 08       		.uleb128 0x8
 3813 0313 3A       		.uleb128 0x3a
 3814 0314 0B       		.uleb128 0xb
 3815 0315 3B       		.uleb128 0x3b
 3816 0316 05       		.uleb128 0x5
 3817 0317 49       		.uleb128 0x49
 3818 0318 13       		.uleb128 0x13
 3819 0319 3F       		.uleb128 0x3f
 3820 031a 19       		.uleb128 0x19
 3821 031b 3C       		.uleb128 0x3c
 3822 031c 19       		.uleb128 0x19
 3823 031d 00       		.byte	0
 3824 031e 00       		.byte	0
 3825 031f 3E       		.uleb128 0x3e
 3826 0320 2E       		.uleb128 0x2e
 3827 0321 00       		.byte	0
 3828 0322 3F       		.uleb128 0x3f
 3829 0323 19       		.uleb128 0x19
 3830 0324 3C       		.uleb128 0x3c
 3831 0325 19       		.uleb128 0x19
 3832 0326 6E       		.uleb128 0x6e
 3833 0327 0E       		.uleb128 0xe
 3834 0328 03       		.uleb128 0x3
 3835 0329 0E       		.uleb128 0xe
 3836 032a 3A       		.uleb128 0x3a
 3837 032b 0B       		.uleb128 0xb
 3838 032c 3B       		.uleb128 0x3b
 3839 032d 0B       		.uleb128 0xb
 3840 032e 00       		.byte	0
 3841 032f 00       		.byte	0
 3842 0330 3F       		.uleb128 0x3f
 3843 0331 2E       		.uleb128 0x2e
 3844 0332 00       		.byte	0
 3845 0333 3F       		.uleb128 0x3f
 3846 0334 19       		.uleb128 0x19
 3847 0335 3C       		.uleb128 0x3c
 3848 0336 19       		.uleb128 0x19
 3849 0337 6E       		.uleb128 0x6e
 3850 0338 0E       		.uleb128 0xe
 3851 0339 03       		.uleb128 0x3
 3852 033a 0E       		.uleb128 0xe
 3853 033b 00       		.byte	0
 3854 033c 00       		.byte	0
 3855 033d 00       		.byte	0
 3856              		.section	.debug_loc,"",%progbits
 3857              	.Ldebug_loc0:
 3858              	.LLST0:
 3859 0000 00000000 		.4byte	.LVL0
 3860 0004 16000000 		.4byte	.LVL1
ARM GAS  C:\Users\euanm\AppData\Local\Temp\ccCsOkpq.s 			page 69


 3861 0008 0100     		.2byte	0x1
 3862 000a 50       		.byte	0x50
 3863 000b 16000000 		.4byte	.LVL1
 3864 000f 50000000 		.4byte	.LFE221
 3865 0013 0400     		.2byte	0x4
 3866 0015 F3       		.byte	0xf3
 3867 0016 01       		.uleb128 0x1
 3868 0017 50       		.byte	0x50
 3869 0018 9F       		.byte	0x9f
 3870 0019 00000000 		.4byte	0
 3871 001d 00000000 		.4byte	0
 3872              	.LLST1:
 3873 0021 2E000000 		.4byte	.LVL4
 3874 0025 32000000 		.4byte	.LVL5
 3875 0029 0200     		.2byte	0x2
 3876 002b 31       		.byte	0x31
 3877 002c 9F       		.byte	0x9f
 3878 002d 00000000 		.4byte	0
 3879 0031 00000000 		.4byte	0
 3880              	.LLST2:
 3881 0035 2E000000 		.4byte	.LVL4
 3882 0039 31000000 		.4byte	.LVL5-1
 3883 003d 0100     		.2byte	0x1
 3884 003f 50       		.byte	0x50
 3885 0040 31000000 		.4byte	.LVL5-1
 3886 0044 32000000 		.4byte	.LVL5
 3887 0048 0300     		.2byte	0x3
 3888 004a 91       		.byte	0x91
 3889 004b 64       		.sleb128 -28
 3890 004c 9F       		.byte	0x9f
 3891 004d 00000000 		.4byte	0
 3892 0051 00000000 		.4byte	0
 3893              	.LLST3:
 3894 0055 00000000 		.4byte	.LVL6
 3895 0059 22000000 		.4byte	.LVL9
 3896 005d 0100     		.2byte	0x1
 3897 005f 50       		.byte	0x50
 3898 0060 22000000 		.4byte	.LVL9
 3899 0064 68010000 		.4byte	.LVL33
 3900 0068 0100     		.2byte	0x1
 3901 006a 5B       		.byte	0x5b
 3902 006b 68010000 		.4byte	.LVL33
 3903 006f 78010000 		.4byte	.LVL35
 3904 0073 0100     		.2byte	0x1
 3905 0075 50       		.byte	0x50
 3906 0076 78010000 		.4byte	.LVL35
 3907 007a B8010000 		.4byte	.LFE223
 3908 007e 0100     		.2byte	0x1
 3909 0080 5B       		.byte	0x5b
 3910 0081 00000000 		.4byte	0
 3911 0085 00000000 		.4byte	0
 3912              	.LLST4:
 3913 0089 00000000 		.4byte	.LVL6
 3914 008d 22000000 		.4byte	.LVL9
 3915 0091 0100     		.2byte	0x1
 3916 0093 51       		.byte	0x51
 3917 0094 22000000 		.4byte	.LVL9
ARM GAS  C:\Users\euanm\AppData\Local\Temp\ccCsOkpq.s 			page 70


 3918 0098 68010000 		.4byte	.LVL33
 3919 009c 0100     		.2byte	0x1
 3920 009e 59       		.byte	0x59
 3921 009f 68010000 		.4byte	.LVL33
 3922 00a3 72010000 		.4byte	.LVL34
 3923 00a7 0100     		.2byte	0x1
 3924 00a9 51       		.byte	0x51
 3925 00aa 72010000 		.4byte	.LVL34
 3926 00ae B8010000 		.4byte	.LFE223
 3927 00b2 0100     		.2byte	0x1
 3928 00b4 59       		.byte	0x59
 3929 00b5 00000000 		.4byte	0
 3930 00b9 00000000 		.4byte	0
 3931              	.LLST5:
 3932 00bd 10000000 		.4byte	.LVL7
 3933 00c1 22000000 		.4byte	.LVL9
 3934 00c5 0200     		.2byte	0x2
 3935 00c7 30       		.byte	0x30
 3936 00c8 9F       		.byte	0x9f
 3937 00c9 22000000 		.4byte	.LVL9
 3938 00cd 94000000 		.4byte	.LVL14
 3939 00d1 0100     		.2byte	0x1
 3940 00d3 54       		.byte	0x54
 3941 00d4 98010000 		.4byte	.LVL39
 3942 00d8 B8010000 		.4byte	.LFE223
 3943 00dc 0100     		.2byte	0x1
 3944 00de 54       		.byte	0x54
 3945 00df 00000000 		.4byte	0
 3946 00e3 00000000 		.4byte	0
 3947              	.LLST6:
 3948 00e7 1C000000 		.4byte	.LVL8
 3949 00eb 20010000 		.4byte	.LVL26
 3950 00ef 0100     		.2byte	0x1
 3951 00f1 56       		.byte	0x56
 3952 00f2 20010000 		.4byte	.LVL26
 3953 00f6 5C010000 		.4byte	.LVL32
 3954 00fa 0300     		.2byte	0x3
 3955 00fc 79       		.byte	0x79
 3956 00fd 6C       		.sleb128 -20
 3957 00fe 9F       		.byte	0x9f
 3958 00ff 98010000 		.4byte	.LVL39
 3959 0103 B8010000 		.4byte	.LFE223
 3960 0107 0100     		.2byte	0x1
 3961 0109 56       		.byte	0x56
 3962 010a 00000000 		.4byte	0
 3963 010e 00000000 		.4byte	0
 3964              	.LLST7:
 3965 0112 04010000 		.4byte	.LVL22
 3966 0116 12010000 		.4byte	.LVL23
 3967 011a 0200     		.2byte	0x2
 3968 011c 31       		.byte	0x31
 3969 011d 9F       		.byte	0x9f
 3970 011e 12010000 		.4byte	.LVL23
 3971 0122 16010000 		.4byte	.LVL24
 3972 0126 0200     		.2byte	0x2
 3973 0128 32       		.byte	0x32
 3974 0129 9F       		.byte	0x9f
ARM GAS  C:\Users\euanm\AppData\Local\Temp\ccCsOkpq.s 			page 71


 3975 012a 16010000 		.4byte	.LVL24
 3976 012e 22010000 		.4byte	.LVL27
 3977 0132 0200     		.2byte	0x2
 3978 0134 33       		.byte	0x33
 3979 0135 9F       		.byte	0x9f
 3980 0136 22010000 		.4byte	.LVL27
 3981 013a 3A010000 		.4byte	.LVL28
 3982 013e 0200     		.2byte	0x2
 3983 0140 34       		.byte	0x34
 3984 0141 9F       		.byte	0x9f
 3985 0142 3A010000 		.4byte	.LVL28
 3986 0146 4E010000 		.4byte	.LVL30
 3987 014a 0200     		.2byte	0x2
 3988 014c 35       		.byte	0x35
 3989 014d 9F       		.byte	0x9f
 3990 014e 4E010000 		.4byte	.LVL30
 3991 0152 5C010000 		.4byte	.LVL32
 3992 0156 0200     		.2byte	0x2
 3993 0158 49       		.byte	0x49
 3994 0159 9F       		.byte	0x9f
 3995 015a 00000000 		.4byte	0
 3996 015e 00000000 		.4byte	0
 3997              	.LLST8:
 3998 0162 22010000 		.4byte	.LVL27
 3999 0166 3C010000 		.4byte	.LVL29
 4000 016a 0100     		.2byte	0x1
 4001 016c 50       		.byte	0x50
 4002 016d 00000000 		.4byte	0
 4003 0171 00000000 		.4byte	0
 4004              	.LLST9:
 4005 0175 1C000000 		.4byte	.LVL8
 4006 0179 22000000 		.4byte	.LVL9
 4007 017d 0200     		.2byte	0x2
 4008 017f 30       		.byte	0x30
 4009 0180 9F       		.byte	0x9f
 4010 0181 22000000 		.4byte	.LVL9
 4011 0185 24000000 		.4byte	.LVL10
 4012 0189 0100     		.2byte	0x1
 4013 018b 54       		.byte	0x54
 4014 018c 24000000 		.4byte	.LVL10
 4015 0190 66000000 		.4byte	.LVL13
 4016 0194 0300     		.2byte	0x3
 4017 0196 74       		.byte	0x74
 4018 0197 69       		.sleb128 -23
 4019 0198 9F       		.byte	0x9f
 4020 0199 66000000 		.4byte	.LVL13
 4021 019d 94000000 		.4byte	.LVL14
 4022 01a1 0100     		.2byte	0x1
 4023 01a3 54       		.byte	0x54
 4024 01a4 98010000 		.4byte	.LVL39
 4025 01a8 B8010000 		.4byte	.LFE223
 4026 01ac 0300     		.2byte	0x3
 4027 01ae 74       		.byte	0x74
 4028 01af 69       		.sleb128 -23
 4029 01b0 9F       		.byte	0x9f
 4030 01b1 00000000 		.4byte	0
 4031 01b5 00000000 		.4byte	0
ARM GAS  C:\Users\euanm\AppData\Local\Temp\ccCsOkpq.s 			page 72


 4032              	.LLST10:
 4033 01b9 24000000 		.4byte	.LVL10
 4034 01bd 60000000 		.4byte	.LVL11
 4035 01c1 0200     		.2byte	0x2
 4036 01c3 47       		.byte	0x47
 4037 01c4 9F       		.byte	0x9f
 4038 01c5 98010000 		.4byte	.LVL39
 4039 01c9 9C010000 		.4byte	.LVL40
 4040 01cd 0200     		.2byte	0x2
 4041 01cf 47       		.byte	0x47
 4042 01d0 9F       		.byte	0x9f
 4043 01d1 9C010000 		.4byte	.LVL40
 4044 01d5 A9010000 		.4byte	.LVL41-1
 4045 01d9 0100     		.2byte	0x1
 4046 01db 53       		.byte	0x53
 4047 01dc A9010000 		.4byte	.LVL41-1
 4048 01e0 B8010000 		.4byte	.LFE223
 4049 01e4 0300     		.2byte	0x3
 4050 01e6 91       		.byte	0x91
 4051 01e7 B47F     		.sleb128 -76
 4052 01e9 00000000 		.4byte	0
 4053 01ed 00000000 		.4byte	0
 4054              	.LLST11:
 4055 01f1 60000000 		.4byte	.LVL11
 4056 01f5 62000000 		.4byte	.LVL12
 4057 01f9 0400     		.2byte	0x4
 4058 01fb 91       		.byte	0x91
 4059 01fc BC7F     		.sleb128 -68
 4060 01fe 9F       		.byte	0x9f
 4061 01ff 62000000 		.4byte	.LVL12
 4062 0203 65000000 		.4byte	.LVL13-1
 4063 0207 0100     		.2byte	0x1
 4064 0209 50       		.byte	0x50
 4065 020a 65000000 		.4byte	.LVL13-1
 4066 020e 66000000 		.4byte	.LVL13
 4067 0212 0400     		.2byte	0x4
 4068 0214 91       		.byte	0x91
 4069 0215 BC7F     		.sleb128 -68
 4070 0217 9F       		.byte	0x9f
 4071 0218 00000000 		.4byte	0
 4072 021c 00000000 		.4byte	0
 4073              	.LLST12:
 4074 0220 94000000 		.4byte	.LVL14
 4075 0224 DC000000 		.4byte	.LVL18
 4076 0228 0300     		.2byte	0x3
 4077 022a 74       		.byte	0x74
 4078 022b 6A       		.sleb128 -22
 4079 022c 9F       		.byte	0x9f
 4080 022d DC000000 		.4byte	.LVL18
 4081 0231 E6000000 		.4byte	.LVL20
 4082 0235 0100     		.2byte	0x1
 4083 0237 54       		.byte	0x54
 4084 0238 E6000000 		.4byte	.LVL20
 4085 023c 04010000 		.4byte	.LVL22
 4086 0240 0300     		.2byte	0x3
 4087 0242 74       		.byte	0x74
 4088 0243 6A       		.sleb128 -22
ARM GAS  C:\Users\euanm\AppData\Local\Temp\ccCsOkpq.s 			page 73


 4089 0244 9F       		.byte	0x9f
 4090 0245 00000000 		.4byte	0
 4091 0249 00000000 		.4byte	0
 4092              	.LLST13:
 4093 024d 94000000 		.4byte	.LVL14
 4094 0251 BA000000 		.4byte	.LVL15
 4095 0255 0100     		.2byte	0x1
 4096 0257 5A       		.byte	0x5a
 4097 0258 DE000000 		.4byte	.LVL19
 4098 025c 04010000 		.4byte	.LVL22
 4099 0260 0100     		.2byte	0x1
 4100 0262 5A       		.byte	0x5a
 4101 0263 00000000 		.4byte	0
 4102 0267 00000000 		.4byte	0
 4103              	.LLST14:
 4104 026b BA000000 		.4byte	.LVL15
 4105 026f BC000000 		.4byte	.LVL16
 4106 0273 0400     		.2byte	0x4
 4107 0275 91       		.byte	0x91
 4108 0276 BC7F     		.sleb128 -68
 4109 0278 9F       		.byte	0x9f
 4110 0279 BC000000 		.4byte	.LVL16
 4111 027d BF000000 		.4byte	.LVL17-1
 4112 0281 0100     		.2byte	0x1
 4113 0283 50       		.byte	0x50
 4114 0284 BF000000 		.4byte	.LVL17-1
 4115 0288 C0000000 		.4byte	.LVL17
 4116 028c 0400     		.2byte	0x4
 4117 028e 91       		.byte	0x91
 4118 028f BC7F     		.sleb128 -68
 4119 0291 9F       		.byte	0x9f
 4120 0292 00000000 		.4byte	0
 4121 0296 00000000 		.4byte	0
 4122              	.LLST15:
 4123 029a 4E010000 		.4byte	.LVL30
 4124 029e 5C010000 		.4byte	.LVL32
 4125 02a2 0200     		.2byte	0x2
 4126 02a4 49       		.byte	0x49
 4127 02a5 9F       		.byte	0x9f
 4128 02a6 00000000 		.4byte	0
 4129 02aa 00000000 		.4byte	0
 4130              	.LLST16:
 4131 02ae 4E010000 		.4byte	.LVL30
 4132 02b2 51010000 		.4byte	.LVL31-1
 4133 02b6 0100     		.2byte	0x1
 4134 02b8 50       		.byte	0x50
 4135 02b9 51010000 		.4byte	.LVL31-1
 4136 02bd 5C010000 		.4byte	.LVL32
 4137 02c1 0400     		.2byte	0x4
 4138 02c3 91       		.byte	0x91
 4139 02c4 BC7F     		.sleb128 -68
 4140 02c6 9F       		.byte	0x9f
 4141 02c7 00000000 		.4byte	0
 4142 02cb 00000000 		.4byte	0
 4143              	.LLST17:
 4144 02cf 52010000 		.4byte	.LVL31
 4145 02d3 5C010000 		.4byte	.LVL32
ARM GAS  C:\Users\euanm\AppData\Local\Temp\ccCsOkpq.s 			page 74


 4146 02d7 0100     		.2byte	0x1
 4147 02d9 50       		.byte	0x50
 4148 02da 00000000 		.4byte	0
 4149 02de 00000000 		.4byte	0
 4150              	.LLST18:
 4151 02e2 68010000 		.4byte	.LVL33
 4152 02e6 7C010000 		.4byte	.LVL36
 4153 02ea 0200     		.2byte	0x2
 4154 02ec 31       		.byte	0x31
 4155 02ed 9F       		.byte	0x9f
 4156 02ee 7C010000 		.4byte	.LVL36
 4157 02f2 82010000 		.4byte	.LVL37
 4158 02f6 0300     		.2byte	0x3
 4159 02f8 79       		.byte	0x79
 4160 02f9 01       		.sleb128 1
 4161 02fa 9F       		.byte	0x9f
 4162 02fb 82010000 		.4byte	.LVL37
 4163 02ff 85010000 		.4byte	.LVL38-1
 4164 0303 0100     		.2byte	0x1
 4165 0305 51       		.byte	0x51
 4166 0306 85010000 		.4byte	.LVL38-1
 4167 030a 98010000 		.4byte	.LVL39
 4168 030e 0300     		.2byte	0x3
 4169 0310 79       		.byte	0x79
 4170 0311 01       		.sleb128 1
 4171 0312 9F       		.byte	0x9f
 4172 0313 00000000 		.4byte	0
 4173 0317 00000000 		.4byte	0
 4174              	.LLST19:
 4175 031b 7C010000 		.4byte	.LVL36
 4176 031f 82010000 		.4byte	.LVL37
 4177 0323 0300     		.2byte	0x3
 4178 0325 79       		.byte	0x79
 4179 0326 01       		.sleb128 1
 4180 0327 9F       		.byte	0x9f
 4181 0328 82010000 		.4byte	.LVL37
 4182 032c 85010000 		.4byte	.LVL38-1
 4183 0330 0100     		.2byte	0x1
 4184 0332 51       		.byte	0x51
 4185 0333 85010000 		.4byte	.LVL38-1
 4186 0337 98010000 		.4byte	.LVL39
 4187 033b 0300     		.2byte	0x3
 4188 033d 79       		.byte	0x79
 4189 033e 01       		.sleb128 1
 4190 033f 9F       		.byte	0x9f
 4191 0340 00000000 		.4byte	0
 4192 0344 00000000 		.4byte	0
 4193              	.LLST20:
 4194 0348 7C010000 		.4byte	.LVL36
 4195 034c 98010000 		.4byte	.LVL39
 4196 0350 0400     		.2byte	0x4
 4197 0352 91       		.byte	0x91
 4198 0353 BC7F     		.sleb128 -68
 4199 0355 9F       		.byte	0x9f
 4200 0356 00000000 		.4byte	0
 4201 035a 00000000 		.4byte	0
 4202              	.LLST21:
ARM GAS  C:\Users\euanm\AppData\Local\Temp\ccCsOkpq.s 			page 75


 4203 035e 86010000 		.4byte	.LVL38
 4204 0362 98010000 		.4byte	.LVL39
 4205 0366 0100     		.2byte	0x1
 4206 0368 50       		.byte	0x50
 4207 0369 00000000 		.4byte	0
 4208 036d 00000000 		.4byte	0
 4209              	.LLST22:
 4210 0371 00000000 		.4byte	.LVL42
 4211 0375 26000000 		.4byte	.LVL43
 4212 0379 0100     		.2byte	0x1
 4213 037b 50       		.byte	0x50
 4214 037c 26000000 		.4byte	.LVL43
 4215 0380 C8010000 		.4byte	.LFE222
 4216 0384 0400     		.2byte	0x4
 4217 0386 F3       		.byte	0xf3
 4218 0387 01       		.uleb128 0x1
 4219 0388 50       		.byte	0x50
 4220 0389 9F       		.byte	0x9f
 4221 038a 00000000 		.4byte	0
 4222 038e 00000000 		.4byte	0
 4223              	.LLST23:
 4224 0392 30000000 		.4byte	.LVL44
 4225 0396 56000000 		.4byte	.LVL47
 4226 039a 0100     		.2byte	0x1
 4227 039c 50       		.byte	0x50
 4228 039d 56000000 		.4byte	.LVL47
 4229 03a1 7E000000 		.4byte	.LVL53
 4230 03a5 0100     		.2byte	0x1
 4231 03a7 54       		.byte	0x54
 4232 03a8 7E000000 		.4byte	.LVL53
 4233 03ac A6000000 		.4byte	.LVL59
 4234 03b0 0100     		.2byte	0x1
 4235 03b2 50       		.byte	0x50
 4236 03b3 A6000000 		.4byte	.LVL59
 4237 03b7 06010000 		.4byte	.LVL68
 4238 03bb 0100     		.2byte	0x1
 4239 03bd 54       		.byte	0x54
 4240 03be 06010000 		.4byte	.LVL68
 4241 03c2 0A010000 		.4byte	.LVL69
 4242 03c6 0100     		.2byte	0x1
 4243 03c8 50       		.byte	0x50
 4244 03c9 0A010000 		.4byte	.LVL69
 4245 03cd 1A010000 		.4byte	.LVL71
 4246 03d1 0100     		.2byte	0x1
 4247 03d3 54       		.byte	0x54
 4248 03d4 1A010000 		.4byte	.LVL71
 4249 03d8 26010000 		.4byte	.LVL73
 4250 03dc 0100     		.2byte	0x1
 4251 03de 50       		.byte	0x50
 4252 03df 26010000 		.4byte	.LVL73
 4253 03e3 78010000 		.4byte	.LVL78
 4254 03e7 0100     		.2byte	0x1
 4255 03e9 54       		.byte	0x54
 4256 03ea 78010000 		.4byte	.LVL78
 4257 03ee 7A010000 		.4byte	.LVL79
 4258 03f2 0100     		.2byte	0x1
 4259 03f4 50       		.byte	0x50
ARM GAS  C:\Users\euanm\AppData\Local\Temp\ccCsOkpq.s 			page 76


 4260 03f5 7A010000 		.4byte	.LVL79
 4261 03f9 C8010000 		.4byte	.LFE222
 4262 03fd 0100     		.2byte	0x1
 4263 03ff 54       		.byte	0x54
 4264 0400 00000000 		.4byte	0
 4265 0404 00000000 		.4byte	0
 4266              	.LLST24:
 4267 0408 1E010000 		.4byte	.LVL72
 4268 040c 36010000 		.4byte	.LVL74
 4269 0410 0600     		.2byte	0x6
 4270 0412 73       		.byte	0x73
 4271 0413 00       		.sleb128 0
 4272 0414 08       		.byte	0x8
 4273 0415 FF       		.byte	0xff
 4274 0416 1A       		.byte	0x1a
 4275 0417 9F       		.byte	0x9f
 4276 0418 36010000 		.4byte	.LVL74
 4277 041c 47010000 		.4byte	.LVL76-1
 4278 0420 0900     		.2byte	0x9
 4279 0422 91       		.byte	0x91
 4280 0423 B37F     		.sleb128 -77
 4281 0425 94       		.byte	0x94
 4282 0426 01       		.byte	0x1
 4283 0427 08       		.byte	0x8
 4284 0428 FF       		.byte	0xff
 4285 0429 1A       		.byte	0x1a
 4286 042a 9F       		.byte	0x9f
 4287 042b 00000000 		.4byte	0
 4288 042f 00000000 		.4byte	0
 4289              	.LLST25:
 4290 0433 3C000000 		.4byte	.LVL45
 4291 0437 42000000 		.4byte	.LVL46
 4292 043b 0100     		.2byte	0x1
 4293 043d 53       		.byte	0x53
 4294 043e 42000000 		.4byte	.LVL46
 4295 0442 5A000000 		.4byte	.LVL48
 4296 0446 0300     		.2byte	0x3
 4297 0448 73       		.byte	0x73
 4298 0449 01       		.sleb128 1
 4299 044a 9F       		.byte	0x9f
 4300 044b 5A000000 		.4byte	.LVL48
 4301 044f 71000000 		.4byte	.LVL51-1
 4302 0453 0300     		.2byte	0x3
 4303 0455 91       		.byte	0x91
 4304 0456 B07F     		.sleb128 -80
 4305 0458 7E000000 		.4byte	.LVL53
 4306 045c 82000000 		.4byte	.LVL54
 4307 0460 0300     		.2byte	0x3
 4308 0462 73       		.byte	0x73
 4309 0463 01       		.sleb128 1
 4310 0464 9F       		.byte	0x9f
 4311 0465 82000000 		.4byte	.LVL54
 4312 0469 B7000000 		.4byte	.LVL61-1
 4313 046d 0300     		.2byte	0x3
 4314 046f 91       		.byte	0x91
 4315 0470 B07F     		.sleb128 -80
 4316 0472 06010000 		.4byte	.LVL68
ARM GAS  C:\Users\euanm\AppData\Local\Temp\ccCsOkpq.s 			page 77


 4317 0476 17010000 		.4byte	.LVL70-1
 4318 047a 0300     		.2byte	0x3
 4319 047c 73       		.byte	0x73
 4320 047d 01       		.sleb128 1
 4321 047e 9F       		.byte	0x9f
 4322 047f 1A010000 		.4byte	.LVL71
 4323 0483 1E010000 		.4byte	.LVL72
 4324 0487 0300     		.2byte	0x3
 4325 0489 73       		.byte	0x73
 4326 048a 01       		.sleb128 1
 4327 048b 9F       		.byte	0x9f
 4328 048c 1E010000 		.4byte	.LVL72
 4329 0490 40010000 		.4byte	.LVL75
 4330 0494 0300     		.2byte	0x3
 4331 0496 91       		.byte	0x91
 4332 0497 B07F     		.sleb128 -80
 4333 0499 40010000 		.4byte	.LVL75
 4334 049d 47010000 		.4byte	.LVL76-1
 4335 04a1 0200     		.2byte	0x2
 4336 04a3 70       		.byte	0x70
 4337 04a4 00       		.sleb128 0
 4338 04a5 78010000 		.4byte	.LVL78
 4339 04a9 7D010000 		.4byte	.LVL80-1
 4340 04ad 0300     		.2byte	0x3
 4341 04af 73       		.byte	0x73
 4342 04b0 01       		.sleb128 1
 4343 04b1 9F       		.byte	0x9f
 4344 04b2 00000000 		.4byte	0
 4345 04b6 00000000 		.4byte	0
 4346              	.LLST26:
 4347 04ba 56000000 		.4byte	.LVL47
 4348 04be 5E000000 		.4byte	.LVL49
 4349 04c2 0500     		.2byte	0x5
 4350 04c4 70       		.byte	0x70
 4351 04c5 00       		.sleb128 0
 4352 04c6 38       		.byte	0x38
 4353 04c7 24       		.byte	0x24
 4354 04c8 9F       		.byte	0x9f
 4355 04c9 5E000000 		.4byte	.LVL49
 4356 04cd 68000000 		.4byte	.LVL50
 4357 04d1 0100     		.2byte	0x1
 4358 04d3 50       		.byte	0x50
 4359 04d4 68000000 		.4byte	.LVL50
 4360 04d8 71000000 		.4byte	.LVL51-1
 4361 04dc 0E00     		.2byte	0xe
 4362 04de 91       		.byte	0x91
 4363 04df B17F     		.sleb128 -79
 4364 04e1 94       		.byte	0x94
 4365 04e2 01       		.byte	0x1
 4366 04e3 08       		.byte	0x8
 4367 04e4 FF       		.byte	0xff
 4368 04e5 1A       		.byte	0x1a
 4369 04e6 38       		.byte	0x38
 4370 04e7 24       		.byte	0x24
 4371 04e8 73       		.byte	0x73
 4372 04e9 00       		.sleb128 0
 4373 04ea 21       		.byte	0x21
ARM GAS  C:\Users\euanm\AppData\Local\Temp\ccCsOkpq.s 			page 78


 4374 04eb 9F       		.byte	0x9f
 4375 04ec 00000000 		.4byte	0
 4376 04f0 00000000 		.4byte	0
 4377              	.LLST27:
 4378 04f4 86000000 		.4byte	.LVL55
 4379 04f8 8A000000 		.4byte	.LVL56
 4380 04fc 0500     		.2byte	0x5
 4381 04fe 77       		.byte	0x77
 4382 04ff 00       		.sleb128 0
 4383 0500 38       		.byte	0x38
 4384 0501 24       		.byte	0x24
 4385 0502 9F       		.byte	0x9f
 4386 0503 8A000000 		.4byte	.LVL56
 4387 0507 E4000000 		.4byte	.LVL66
 4388 050b 0100     		.2byte	0x1
 4389 050d 57       		.byte	0x57
 4390 050e 00000000 		.4byte	0
 4391 0512 00000000 		.4byte	0
 4392              	.LLST28:
 4393 0516 96000000 		.4byte	.LVL57
 4394 051a A2000000 		.4byte	.LVL58
 4395 051e 0200     		.2byte	0x2
 4396 0520 7D       		.byte	0x7d
 4397 0521 00       		.sleb128 0
 4398 0522 00000000 		.4byte	0
 4399 0526 00000000 		.4byte	0
 4400              	.LLST29:
 4401 052a 96000000 		.4byte	.LVL57
 4402 052e AE000000 		.4byte	.LVL60
 4403 0532 0300     		.2byte	0x3
 4404 0534 91       		.byte	0x91
 4405 0535 847F     		.sleb128 -124
 4406 0537 00000000 		.4byte	0
 4407 053b 00000000 		.4byte	0
 4408              		.section	.debug_aranges,"",%progbits
 4409 0000 34000000 		.4byte	0x34
 4410 0004 0200     		.2byte	0x2
 4411 0006 00000000 		.4byte	.Ldebug_info0
 4412 000a 04       		.byte	0x4
 4413 000b 00       		.byte	0
 4414 000c 0000     		.2byte	0
 4415 000e 0000     		.2byte	0
 4416 0010 00000000 		.4byte	.LFB221
 4417 0014 50000000 		.4byte	.LFE221-.LFB221
 4418 0018 00000000 		.4byte	.LFB223
 4419 001c B8010000 		.4byte	.LFE223-.LFB223
 4420 0020 00000000 		.4byte	.LFB222
 4421 0024 C8010000 		.4byte	.LFE222-.LFB222
 4422 0028 00000000 		.4byte	.LFB219
 4423 002c 58000000 		.4byte	.LFE219-.LFB219
 4424 0030 00000000 		.4byte	0
 4425 0034 00000000 		.4byte	0
 4426              		.section	.debug_ranges,"",%progbits
 4427              	.Ldebug_ranges0:
 4428 0000 10000000 		.4byte	.LBB30
 4429 0004 16000000 		.4byte	.LBE30
 4430 0008 26000000 		.4byte	.LBB35
ARM GAS  C:\Users\euanm\AppData\Local\Temp\ccCsOkpq.s 			page 79


 4431 000c 50000000 		.4byte	.LBE35
 4432 0010 00000000 		.4byte	0
 4433 0014 00000000 		.4byte	0
 4434 0018 26000000 		.4byte	.LBB31
 4435 001c 2A000000 		.4byte	.LBE31
 4436 0020 2E000000 		.4byte	.LBB34
 4437 0024 3A000000 		.4byte	.LBE34
 4438 0028 00000000 		.4byte	0
 4439 002c 00000000 		.4byte	0
 4440 0030 10000000 		.4byte	.LBB36
 4441 0034 54010000 		.4byte	.LBE36
 4442 0038 9C010000 		.4byte	.LBB65
 4443 003c B8010000 		.4byte	.LBE65
 4444 0040 00000000 		.4byte	0
 4445 0044 00000000 		.4byte	0
 4446 0048 1E000000 		.4byte	.LBB37
 4447 004c 90000000 		.4byte	.LBE37
 4448 0050 9C010000 		.4byte	.LBB58
 4449 0054 B8010000 		.4byte	.LBE58
 4450 0058 00000000 		.4byte	0
 4451 005c 00000000 		.4byte	0
 4452 0060 1E000000 		.4byte	.LBB38
 4453 0064 76000000 		.4byte	.LBE38
 4454 0068 78000000 		.4byte	.LBB43
 4455 006c 7C000000 		.4byte	.LBE43
 4456 0070 7E000000 		.4byte	.LBB44
 4457 0074 90000000 		.4byte	.LBE44
 4458 0078 9C010000 		.4byte	.LBB45
 4459 007c B8010000 		.4byte	.LBE45
 4460 0080 00000000 		.4byte	0
 4461 0084 00000000 		.4byte	0
 4462 0088 60000000 		.4byte	.LBB39
 4463 008c 68000000 		.4byte	.LBE39
 4464 0090 6C000000 		.4byte	.LBB42
 4465 0094 76000000 		.4byte	.LBE42
 4466 0098 00000000 		.4byte	0
 4467 009c 00000000 		.4byte	0
 4468 00a0 90000000 		.4byte	.LBB47
 4469 00a4 D6000000 		.4byte	.LBE47
 4470 00a8 D8000000 		.4byte	.LBB52
 4471 00ac DC000000 		.4byte	.LBE52
 4472 00b0 DE000000 		.4byte	.LBB53
 4473 00b4 04010000 		.4byte	.LBE53
 4474 00b8 00000000 		.4byte	0
 4475 00bc 00000000 		.4byte	0
 4476 00c0 BA000000 		.4byte	.LBB48
 4477 00c4 C4000000 		.4byte	.LBE48
 4478 00c8 CC000000 		.4byte	.LBB51
 4479 00cc D6000000 		.4byte	.LBE51
 4480 00d0 00000000 		.4byte	0
 4481 00d4 00000000 		.4byte	0
 4482 00d8 3A010000 		.4byte	.LBB54
 4483 00dc 3E010000 		.4byte	.LBE54
 4484 00e0 4E010000 		.4byte	.LBB57
 4485 00e4 54010000 		.4byte	.LBE57
 4486 00e8 00000000 		.4byte	0
 4487 00ec 00000000 		.4byte	0
ARM GAS  C:\Users\euanm\AppData\Local\Temp\ccCsOkpq.s 			page 80


 4488 00f0 54010000 		.4byte	.LBB59
 4489 00f4 62010000 		.4byte	.LBE59
 4490 00f8 68010000 		.4byte	.LBB64
 4491 00fc 9C010000 		.4byte	.LBE64
 4492 0100 00000000 		.4byte	0
 4493 0104 00000000 		.4byte	0
 4494 0108 54010000 		.4byte	.LBB60
 4495 010c 5C010000 		.4byte	.LBE60
 4496 0110 7C010000 		.4byte	.LBB63
 4497 0114 9C010000 		.4byte	.LBE63
 4498 0118 00000000 		.4byte	0
 4499 011c 00000000 		.4byte	0
 4500 0120 04000000 		.4byte	.LBB66
 4501 0124 16000000 		.4byte	.LBE66
 4502 0128 1E000000 		.4byte	.LBB80
 4503 012c 20000000 		.4byte	.LBE80
 4504 0130 00000000 		.4byte	0
 4505 0134 00000000 		.4byte	0
 4506 0138 1A000000 		.4byte	.LBB69
 4507 013c 1E000000 		.4byte	.LBE69
 4508 0140 22000000 		.4byte	.LBB81
 4509 0144 A4010000 		.4byte	.LBE81
 4510 0148 00000000 		.4byte	0
 4511 014c 00000000 		.4byte	0
 4512 0150 1A000000 		.4byte	.LBB70
 4513 0154 1E000000 		.4byte	.LBE70
 4514 0158 26000000 		.4byte	.LBB77
 4515 015c 7C000000 		.4byte	.LBE77
 4516 0160 7E000000 		.4byte	.LBB78
 4517 0164 E4000000 		.4byte	.LBE78
 4518 0168 06010000 		.4byte	.LBB79
 4519 016c 92010000 		.4byte	.LBE79
 4520 0170 00000000 		.4byte	0
 4521 0174 00000000 		.4byte	0
 4522 0178 1A000000 		.4byte	.LBB71
 4523 017c 1E000000 		.4byte	.LBE71
 4524 0180 38000000 		.4byte	.LBB74
 4525 0184 72000000 		.4byte	.LBE74
 4526 0188 7E000000 		.4byte	.LBB75
 4527 018c E0000000 		.4byte	.LBE75
 4528 0190 06010000 		.4byte	.LBB76
 4529 0194 92010000 		.4byte	.LBE76
 4530 0198 00000000 		.4byte	0
 4531 019c 00000000 		.4byte	0
 4532 01a0 00000000 		.4byte	.LFB221
 4533 01a4 50000000 		.4byte	.LFE221
 4534 01a8 00000000 		.4byte	.LFB223
 4535 01ac B8010000 		.4byte	.LFE223
 4536 01b0 00000000 		.4byte	.LFB222
 4537 01b4 C8010000 		.4byte	.LFE222
 4538 01b8 00000000 		.4byte	.LFB219
 4539 01bc 58000000 		.4byte	.LFE219
 4540 01c0 00000000 		.4byte	0
 4541 01c4 00000000 		.4byte	0
 4542              		.section	.debug_line,"",%progbits
 4543              	.Ldebug_line0:
 4544 0000 6C040000 		.section	.debug_str,"MS",%progbits,1
ARM GAS  C:\Users\euanm\AppData\Local\Temp\ccCsOkpq.s 			page 81


 4544      0200D802 
 4544      00000201 
 4544      FB0E0D00 
 4544      01010101 
 4545              	.LASF56:
 4546 0000 72656164 		.ascii	"ready_list_t\000"
 4546      795F6C69 
 4546      73745F74 
 4546      00
 4547              	.LASF2:
 4548 000d 73697A65 		.ascii	"size_t\000"
 4548      5F7400
 4549              	.LASF90:
 4550 0014 7264796D 		.ascii	"rdymsg\000"
 4550      736700
 4551              	.LASF19:
 4552 001b 75696E74 		.ascii	"uint64_t\000"
 4552      36345F74 
 4552      00
 4553              	.LASF3:
 4554 0024 5F5F7569 		.ascii	"__uint8_t\000"
 4554      6E74385F 
 4554      7400
 4555              	.LASF87:
 4556 002e 706F7274 		.ascii	"port_intctx\000"
 4556      5F696E74 
 4556      63747800 
 4557              	.LASF116:
 4558 003a 76626174 		.ascii	"vbat\000"
 4558      00
 4559              	.LASF81:
 4560 003f 76746C69 		.ascii	"vtlist\000"
 4560      737400
 4561              	.LASF13:
 4562 0046 6C6F6E67 		.ascii	"long long unsigned int\000"
 4562      206C6F6E 
 4562      6720756E 
 4562      7369676E 
 4562      65642069 
 4563              	.LASF82:
 4564 005d 6D61696E 		.ascii	"mainthread\000"
 4564      74687265 
 4564      616400
 4565              	.LASF163:
 4566 0068 72666865 		.ascii	"rfhelp_init\000"
 4566      6C705F69 
 4566      6E697400 
 4567              	.LASF162:
 4568 0074 72666865 		.ascii	"rfhelp_restart\000"
 4568      6C705F72 
 4568      65737461 
 4568      727400
 4569              	.LASF55:
 4570 0083 63685F74 		.ascii	"ch_threads_queue\000"
 4570      68726561 
 4570      64735F71 
 4570      75657565 
ARM GAS  C:\Users\euanm\AppData\Local\Temp\ccCsOkpq.s 			page 82


 4570      00
 4571              	.LASF33:
 4572 0094 705F7072 		.ascii	"p_prio\000"
 4572      696F00
 4573              	.LASF11:
 4574 009b 6C6F6E67 		.ascii	"long long int\000"
 4574      206C6F6E 
 4574      6720696E 
 4574      7400
 4575              	.LASF1:
 4576 00a9 7369676E 		.ascii	"signed char\000"
 4576      65642063 
 4576      68617200 
 4577              	.LASF114:
 4578 00b5 63687563 		.ascii	"chuck_data\000"
 4578      6B5F6461 
 4578      746100
 4579              	.LASF159:
 4580 00c0 6170705F 		.ascii	"app_nunchuk_update_output\000"
 4580      6E756E63 
 4580      68756B5F 
 4580      75706461 
 4580      74655F6F 
 4581              	.LASF49:
 4582 00da 705F6D70 		.ascii	"p_mpool\000"
 4582      6F6F6C00 
 4583              	.LASF146:
 4584 00e2 74785F74 		.ascii	"tx_thread_wa\000"
 4584      68726561 
 4584      645F7761 
 4584      00
 4585              	.LASF101:
 4586 00ef 6D5F7175 		.ascii	"m_queue\000"
 4586      65756500 
 4587              	.LASF119:
 4588 00f7 4D4F5445 		.ascii	"MOTE_PACKET_BUTTONS\000"
 4588      5F504143 
 4588      4B45545F 
 4588      42555454 
 4588      4F4E5300 
 4589              	.LASF24:
 4590 010b 74736C69 		.ascii	"tslices_t\000"
 4590      6365735F 
 4590      7400
 4591              	.LASF139:
 4592 0115 72786275 		.ascii	"rxbuf_ind\000"
 4592      665F696E 
 4592      6400
 4593              	.LASF79:
 4594 011f 63685F73 		.ascii	"ch_system\000"
 4594      79737465 
 4594      6D00
 4595              	.LASF8:
 4596 0129 6C6F6E67 		.ascii	"long int\000"
 4596      20696E74 
 4596      00
 4597              	.LASF22:
ARM GAS  C:\Users\euanm\AppData\Local\Temp\ccCsOkpq.s 			page 83


 4598 0132 74737461 		.ascii	"tstate_t\000"
 4598      74655F74 
 4598      00
 4599              	.LASF170:
 4600 013b 6D656D63 		.ascii	"memcpy\000"
 4600      707900
 4601              	.LASF156:
 4602 0142 636F6D6D 		.ascii	"commands_set_send_func\000"
 4602      616E6473 
 4602      5F736574 
 4602      5F73656E 
 4602      645F6675 
 4603              	.LASF122:
 4604 0159 4D4F5445 		.ascii	"MOTE_PACKET_FILL_RX_BUFFER_LONG\000"
 4604      5F504143 
 4604      4B45545F 
 4604      46494C4C 
 4604      5F52585F 
 4605              	.LASF35:
 4606 0179 705F6E65 		.ascii	"p_newer\000"
 4606      77657200 
 4607              	.LASF98:
 4608 0181 735F7175 		.ascii	"s_queue\000"
 4608      65756500 
 4609              	.LASF123:
 4610 0189 4D4F5445 		.ascii	"MOTE_PACKET_PROCESS_RX_BUFFER\000"
 4610      5F504143 
 4610      4B45545F 
 4610      50524F43 
 4610      4553535F 
 4611              	.LASF91:
 4612 01a7 65786974 		.ascii	"exitcode\000"
 4612      636F6465 
 4612      00
 4613              	.LASF61:
 4614 01b0 725F6E65 		.ascii	"r_newer\000"
 4614      77657200 
 4615              	.LASF84:
 4616 01b8 72656761 		.ascii	"regarm_t\000"
 4616      726D5F74 
 4616      00
 4617              	.LASF68:
 4618 01c1 76745F70 		.ascii	"vt_prev\000"
 4618      72657600 
 4619              	.LASF137:
 4620 01c9 62757474 		.ascii	"buttons\000"
 4620      6F6E7300 
 4621              	.LASF104:
 4622 01d1 6D757465 		.ascii	"mutex_t\000"
 4622      785F7400 
 4623              	.LASF83:
 4624 01d9 69646C65 		.ascii	"idle_thread_wa\000"
 4624      5F746872 
 4624      6561645F 
 4624      776100
 4625              	.LASF28:
 4626 01e8 636E745F 		.ascii	"cnt_t\000"
ARM GAS  C:\Users\euanm\AppData\Local\Temp\ccCsOkpq.s 			page 84


 4626      7400
 4627              	.LASF0:
 4628 01ee 756E7369 		.ascii	"unsigned int\000"
 4628      676E6564 
 4628      20696E74 
 4628      00
 4629              	.LASF67:
 4630 01fb 76745F6E 		.ascii	"vt_next\000"
 4630      65787400 
 4631              	.LASF42:
 4632 0203 705F7469 		.ascii	"p_time\000"
 4632      6D6500
 4633              	.LASF94:
 4634 020a 77747365 		.ascii	"wtsemp\000"
 4634      6D7000
 4635              	.LASF150:
 4636 0211 6E72665F 		.ascii	"nrf_restart_rx_time\000"
 4636      72657374 
 4636      6172745F 
 4636      72785F74 
 4636      696D6500 
 4637              	.LASF69:
 4638 0225 76745F64 		.ascii	"vt_delta\000"
 4638      656C7461 
 4638      00
 4639              	.LASF75:
 4640 022e 73797374 		.ascii	"system_debug_t\000"
 4640      656D5F64 
 4640      65627567 
 4640      5F7400
 4641              	.LASF109:
 4642 023d 6163635F 		.ascii	"acc_x\000"
 4642      7800
 4643              	.LASF110:
 4644 0243 6163635F 		.ascii	"acc_y\000"
 4644      7900
 4645              	.LASF111:
 4646 0249 6163635F 		.ascii	"acc_z\000"
 4646      7A00
 4647              	.LASF126:
 4648 024f 6E616D65 		.ascii	"name\000"
 4648      00
 4649              	.LASF161:
 4650 0254 72666865 		.ascii	"rfhelp_power_up\000"
 4650      6C705F70 
 4650      6F776572 
 4650      5F757000 
 4651              	.LASF132:
 4652 0264 73656E64 		.ascii	"send_len\000"
 4652      5F6C656E 
 4652      00
 4653              	.LASF99:
 4654 026d 735F636E 		.ascii	"s_cnt\000"
 4654      7400
 4655              	.LASF147:
 4656 0273 6D737461 		.ascii	"mstate\000"
 4656      746500
ARM GAS  C:\Users\euanm\AppData\Local\Temp\ccCsOkpq.s 			page 85


 4657              	.LASF127:
 4658 027a 64617461 		.ascii	"data\000"
 4658      00
 4659              	.LASF86:
 4660 027f 636F6E74 		.ascii	"context\000"
 4660      65787400 
 4661              	.LASF120:
 4662 0287 4D4F5445 		.ascii	"MOTE_PACKET_ALIVE\000"
 4662      5F504143 
 4662      4B45545F 
 4662      414C4956 
 4662      4500
 4663              	.LASF52:
 4664 0299 63685F74 		.ascii	"ch_thread\000"
 4664      68726561 
 4664      6400
 4665              	.LASF134:
 4666 02a3 72785F74 		.ascii	"rx_thread\000"
 4666      68726561 
 4666      6400
 4667              	.LASF26:
 4668 02ad 6D73675F 		.ascii	"msg_t\000"
 4668      7400
 4669              	.LASF112:
 4670 02b3 62745F63 		.ascii	"bt_c\000"
 4670      00
 4671              	.LASF124:
 4672 02b8 4D4F5445 		.ascii	"MOTE_PACKET_PROCESS_SHORT_BUFFER\000"
 4672      5F504143 
 4672      4B45545F 
 4672      50524F43 
 4672      4553535F 
 4673              	.LASF142:
 4674 02d9 6372635F 		.ascii	"crc_low\000"
 4674      6C6F7700 
 4675              	.LASF78:
 4676 02e1 63685F73 		.ascii	"ch_system_t\000"
 4676      79737465 
 4676      6D5F7400 
 4677              	.LASF21:
 4678 02ed 746D6F64 		.ascii	"tmode_t\000"
 4678      655F7400 
 4679              	.LASF145:
 4680 02f5 72785F74 		.ascii	"rx_thread_wa\000"
 4680      68726561 
 4680      645F7761 
 4680      00
 4681              	.LASF57:
 4682 0302 63685F72 		.ascii	"ch_ready_list\000"
 4682      65616479 
 4682      5F6C6973 
 4682      7400
 4683              	.LASF27:
 4684 0310 6576656E 		.ascii	"eventmask_t\000"
 4684      746D6173 
 4684      6B5F7400 
 4685              	.LASF7:
ARM GAS  C:\Users\euanm\AppData\Local\Temp\ccCsOkpq.s 			page 86


 4686 031c 5F5F696E 		.ascii	"__int32_t\000"
 4686      7433325F 
 4686      7400
 4687              	.LASF113:
 4688 0326 62745F7A 		.ascii	"bt_z\000"
 4688      00
 4689              	.LASF72:
 4690 032b 76697274 		.ascii	"virtual_timers_list_t\000"
 4690      75616C5F 
 4690      74696D65 
 4690      72735F6C 
 4690      6973745F 
 4691              	.LASF85:
 4692 0341 73746B61 		.ascii	"stkalign_t\000"
 4692      6C69676E 
 4692      5F7400
 4693              	.LASF164:
 4694 034c 63685468 		.ascii	"chThdCreateStatic\000"
 4694      64437265 
 4694      61746553 
 4694      74617469 
 4694      6300
 4695              	.LASF125:
 4696 035e 4D4F5445 		.ascii	"MOTE_PACKET\000"
 4696      5F504143 
 4696      4B455400 
 4697              	.LASF140:
 4698 036a 72786275 		.ascii	"rxbuf_len\000"
 4698      665F6C65 
 4698      6E00
 4699              	.LASF20:
 4700 0374 7274636E 		.ascii	"rtcnt_t\000"
 4700      745F7400 
 4701              	.LASF50:
 4702 037c 74687265 		.ascii	"thread_reference_t\000"
 4702      61645F72 
 4702      65666572 
 4702      656E6365 
 4702      5F7400
 4703              	.LASF89:
 4704 038f 746D5F63 		.ascii	"tm_calibration_t\000"
 4704      616C6962 
 4704      72617469 
 4704      6F6E5F74 
 4704      00
 4705              	.LASF73:
 4706 03a0 63685F76 		.ascii	"ch_virtual_timers_list\000"
 4706      69727475 
 4706      616C5F74 
 4706      696D6572 
 4706      735F6C69 
 4707              	.LASF93:
 4708 03b7 77747472 		.ascii	"wttrp\000"
 4708      7000
 4709              	.LASF167:
 4710 03bd 643A5C47 		.ascii	"d:\\Git\\A450S\\bldc-firmware\000"
 4710      69745C41 
ARM GAS  C:\Users\euanm\AppData\Local\Temp\ccCsOkpq.s 			page 87


 4710      34353053 
 4710      5C626C64 
 4710      632D6669 
 4711              	.LASF46:
 4712 03d8 705F6570 		.ascii	"p_epending\000"
 4712      656E6469 
 4712      6E6700
 4713              	.LASF130:
 4714 03e3 656E645F 		.ascii	"end_a\000"
 4714      6100
 4715              	.LASF36:
 4716 03e9 705F6F6C 		.ascii	"p_older\000"
 4716      64657200 
 4717              	.LASF60:
 4718 03f1 725F6374 		.ascii	"r_ctx\000"
 4718      7800
 4719              	.LASF158:
 4720 03f7 62756666 		.ascii	"buffer_get_int16\000"
 4720      65725F67 
 4720      65745F69 
 4720      6E743136 
 4720      00
 4721              	.LASF121:
 4722 0408 4D4F5445 		.ascii	"MOTE_PACKET_FILL_RX_BUFFER\000"
 4722      5F504143 
 4722      4B45545F 
 4722      46494C4C 
 4722      5F52585F 
 4723              	.LASF70:
 4724 0423 76745F66 		.ascii	"vt_func\000"
 4724      756E6300 
 4725              	.LASF148:
 4726 042b 72785F62 		.ascii	"rx_buffer\000"
 4726      75666665 
 4726      7200
 4727              	.LASF138:
 4728 0435 7061636B 		.ascii	"packet\000"
 4728      657400
 4729              	.LASF63:
 4730 043c 725F6375 		.ascii	"r_current\000"
 4730      7272656E 
 4730      7400
 4731              	.LASF62:
 4732 0446 725F6F6C 		.ascii	"r_older\000"
 4732      64657200 
 4733              	.LASF136:
 4734 044e 63646174 		.ascii	"cdata\000"
 4734      6100
 4735              	.LASF12:
 4736 0454 5F5F7569 		.ascii	"__uint64_t\000"
 4736      6E743634 
 4736      5F7400
 4737              	.LASF105:
 4738 045f 666C6F61 		.ascii	"float\000"
 4738      7400
 4739              	.LASF23:
 4740 0465 74726566 		.ascii	"trefs_t\000"
ARM GAS  C:\Users\euanm\AppData\Local\Temp\ccCsOkpq.s 			page 88


 4740      735F7400 
 4741              	.LASF157:
 4742 046d 636F6D6D 		.ascii	"commands_process_packet\000"
 4742      616E6473 
 4742      5F70726F 
 4742      63657373 
 4742      5F706163 
 4743              	.LASF65:
 4744 0485 76697274 		.ascii	"virtual_timer_t\000"
 4744      75616C5F 
 4744      74696D65 
 4744      725F7400 
 4745              	.LASF32:
 4746 0495 705F7072 		.ascii	"p_prev\000"
 4746      657600
 4747              	.LASF25:
 4748 049c 74707269 		.ascii	"tprio_t\000"
 4748      6F5F7400 
 4749              	.LASF160:
 4750 04a4 72666865 		.ascii	"rfhelp_read_rx_data_crc\000"
 4750      6C705F72 
 4750      6561645F 
 4750      72785F64 
 4750      6174615F 
 4751              	.LASF76:
 4752 04bc 63685F73 		.ascii	"ch_system_debug\000"
 4752      79737465 
 4752      6D5F6465 
 4752      62756700 
 4753              	.LASF106:
 4754 04cc 5F426F6F 		.ascii	"_Bool\000"
 4754      6C00
 4755              	.LASF17:
 4756 04d2 696E7433 		.ascii	"int32_t\000"
 4756      325F7400 
 4757              	.LASF4:
 4758 04da 756E7369 		.ascii	"unsigned char\000"
 4758      676E6564 
 4758      20636861 
 4758      7200
 4759              	.LASF152:
 4760 04e8 49544D5F 		.ascii	"ITM_RxBuffer\000"
 4760      52784275 
 4760      66666572 
 4760      00
 4761              	.LASF115:
 4762 04f5 62745F70 		.ascii	"bt_push\000"
 4762      75736800 
 4763              	.LASF47:
 4764 04fd 705F6D74 		.ascii	"p_mtxlist\000"
 4764      786C6973 
 4764      7400
 4765              	.LASF5:
 4766 0507 73686F72 		.ascii	"short int\000"
 4766      7420696E 
 4766      7400
 4767              	.LASF38:
ARM GAS  C:\Users\euanm\AppData\Local\Temp\ccCsOkpq.s 			page 89


 4768 0511 705F7374 		.ascii	"p_state\000"
 4768      61746500 
 4769              	.LASF41:
 4770 0519 705F7072 		.ascii	"p_preempt\000"
 4770      65656D70 
 4770      7400
 4771              	.LASF59:
 4772 0523 725F7072 		.ascii	"r_prio\000"
 4772      696F00
 4773              	.LASF96:
 4774 052a 65776D61 		.ascii	"ewmask\000"
 4774      736B00
 4775              	.LASF31:
 4776 0531 705F6E65 		.ascii	"p_next\000"
 4776      787400
 4777              	.LASF39:
 4778 0538 705F666C 		.ascii	"p_flags\000"
 4778      61677300 
 4779              	.LASF133:
 4780 0540 74785F74 		.ascii	"tx_thread\000"
 4780      68726561 
 4780      6400
 4781              	.LASF54:
 4782 054a 74687265 		.ascii	"threads_queue_t\000"
 4782      6164735F 
 4782      71756575 
 4782      655F7400 
 4783              	.LASF141:
 4784 055a 6372635F 		.ascii	"crc_high\000"
 4784      68696768 
 4784      00
 4785              	.LASF144:
 4786 0563 6E72665F 		.ascii	"nrf_driver_init\000"
 4786      64726976 
 4786      65725F69 
 4786      6E697400 
 4787              	.LASF97:
 4788 0573 63685F73 		.ascii	"ch_semaphore\000"
 4788      656D6170 
 4788      686F7265 
 4788      00
 4789              	.LASF151:
 4790 0580 6E72665F 		.ascii	"nrf_restart_tx_time\000"
 4790      72657374 
 4790      6172745F 
 4790      74785F74 
 4790      696D6500 
 4791              	.LASF129:
 4792 0594 73656E64 		.ascii	"send_buffer\000"
 4792      5F627566 
 4792      66657200 
 4793              	.LASF18:
 4794 05a0 75696E74 		.ascii	"uint32_t\000"
 4794      33325F74 
 4794      00
 4795              	.LASF95:
 4796 05a9 77746D74 		.ascii	"wtmtxp\000"
ARM GAS  C:\Users\euanm\AppData\Local\Temp\ccCsOkpq.s 			page 90


 4796      787000
 4797              	.LASF58:
 4798 05b0 725F7175 		.ascii	"r_queue\000"
 4798      65756500 
 4799              	.LASF74:
 4800 05b8 76745F73 		.ascii	"vt_systime\000"
 4800      79737469 
 4800      6D6500
 4801              	.LASF53:
 4802 05c3 63685F74 		.ascii	"ch_threads_list\000"
 4802      68726561 
 4802      64735F6C 
 4802      69737400 
 4803              	.LASF107:
 4804 05d3 6A735F78 		.ascii	"js_x\000"
 4804      00
 4805              	.LASF108:
 4806 05d8 6A735F79 		.ascii	"js_y\000"
 4806      00
 4807              	.LASF10:
 4808 05dd 6C6F6E67 		.ascii	"long unsigned int\000"
 4808      20756E73 
 4808      69676E65 
 4808      6420696E 
 4808      7400
 4809              	.LASF15:
 4810 05ef 63686172 		.ascii	"char\000"
 4810      00
 4811              	.LASF143:
 4812 05f4 6E72665F 		.ascii	"nrf_driver_send_buffer\000"
 4812      64726976 
 4812      65725F73 
 4812      656E645F 
 4812      62756666 
 4813              	.LASF155:
 4814 060b 63726331 		.ascii	"crc16\000"
 4814      3600
 4815              	.LASF135:
 4816 0611 70697065 		.ascii	"pipe\000"
 4816      00
 4817              	.LASF169:
 4818 0616 72665F74 		.ascii	"rf_tx_wrapper\000"
 4818      785F7772 
 4818      61707065 
 4818      7200
 4819              	.LASF128:
 4820 0624 696E6465 		.ascii	"index\000"
 4820      7800
 4821              	.LASF30:
 4822 062a 74687265 		.ascii	"thread_t\000"
 4822      61645F74 
 4822      00
 4823              	.LASF103:
 4824 0633 6D5F6E65 		.ascii	"m_next\000"
 4824      787400
 4825              	.LASF29:
 4826 063a 73797374 		.ascii	"systime_t\000"
ARM GAS  C:\Users\euanm\AppData\Local\Temp\ccCsOkpq.s 			page 91


 4826      696D655F 
 4826      7400
 4827              	.LASF48:
 4828 0644 705F7265 		.ascii	"p_realprio\000"
 4828      616C7072 
 4828      696F00
 4829              	.LASF64:
 4830 064f 76746675 		.ascii	"vtfunc_t\000"
 4830      6E635F74 
 4830      00
 4831              	.LASF9:
 4832 0658 5F5F7569 		.ascii	"__uint32_t\000"
 4832      6E743332 
 4832      5F7400
 4833              	.LASF77:
 4834 0663 70616E69 		.ascii	"panic_msg\000"
 4834      635F6D73 
 4834      6700
 4835              	.LASF88:
 4836 066d 6F666673 		.ascii	"offset\000"
 4836      657400
 4837              	.LASF6:
 4838 0674 73686F72 		.ascii	"short unsigned int\000"
 4838      7420756E 
 4838      7369676E 
 4838      65642069 
 4838      6E7400
 4839              	.LASF118:
 4840 0687 4D4F5445 		.ascii	"MOTE_PACKET_BATT_LEVEL\000"
 4840      5F504143 
 4840      4B45545F 
 4840      42415454 
 4840      5F4C4556 
 4841              	.LASF66:
 4842 069e 63685F76 		.ascii	"ch_virtual_timer\000"
 4842      69727475 
 4842      616C5F74 
 4842      696D6572 
 4842      00
 4843              	.LASF44:
 4844 06af 705F6D73 		.ascii	"p_msgqueue\000"
 4844      67717565 
 4844      756500
 4845              	.LASF71:
 4846 06ba 76745F70 		.ascii	"vt_par\000"
 4846      617200
 4847              	.LASF154:
 4848 06c1 63685468 		.ascii	"chThdSleep\000"
 4848      64536C65 
 4848      657000
 4849              	.LASF40:
 4850 06cc 705F7265 		.ascii	"p_refs\000"
 4850      667300
 4851              	.LASF117:
 4852 06d3 6D6F7465 		.ascii	"mote_state\000"
 4852      5F737461 
 4852      746500
ARM GAS  C:\Users\euanm\AppData\Local\Temp\ccCsOkpq.s 			page 92


 4853              	.LASF149:
 4854 06de 6E6F7365 		.ascii	"nosend_cnt\000"
 4854      6E645F63 
 4854      6E7400
 4855              	.LASF165:
 4856 06e9 474E5520 		.ascii	"GNU C99 5.4.1 20160919 (release) [ARM/embedded-5-br"
 4856      43393920 
 4856      352E342E 
 4856      31203230 
 4856      31363039 
 4857 071c 616E6368 		.ascii	"anch revision 240496] -mcpu=cortex-m4 -mfloat-abi=h"
 4857      20726576 
 4857      6973696F 
 4857      6E203234 
 4857      30343936 
 4858 074f 61726420 		.ascii	"ard -mfpu=fpv4-sp-d16 -mno-thumb-interwork -mthumb "
 4858      2D6D6670 
 4858      753D6670 
 4858      76342D73 
 4858      702D6431 
 4859 0782 2D676764 		.ascii	"-ggdb -O2 -std=gnu99 -fomit-frame-pointer -falign-f"
 4859      62202D4F 
 4859      32202D73 
 4859      74643D67 
 4859      6E753939 
 4860 07b5 756E6374 		.ascii	"unctions=16 -ffunction-sections -fdata-sections -fn"
 4860      696F6E73 
 4860      3D313620 
 4860      2D666675 
 4860      6E637469 
 4861 07e8 6F2D636F 		.ascii	"o-common -fsingle-precision-constant\000"
 4861      6D6D6F6E 
 4861      202D6673 
 4861      696E676C 
 4861      652D7072 
 4862              	.LASF80:
 4863 080d 726C6973 		.ascii	"rlist\000"
 4863      7400
 4864              	.LASF131:
 4865 0813 6C656E32 		.ascii	"len2\000"
 4865      00
 4866              	.LASF16:
 4867 0818 75696E74 		.ascii	"uint8_t\000"
 4867      385F7400 
 4868              	.LASF14:
 4869 0820 73697A65 		.ascii	"sizetype\000"
 4869      74797065 
 4869      00
 4870              	.LASF100:
 4871 0829 63685F6D 		.ascii	"ch_mutex\000"
 4871      75746578 
 4871      00
 4872              	.LASF37:
 4873 0832 705F6E61 		.ascii	"p_name\000"
 4873      6D6500
 4874              	.LASF92:
 4875 0839 77746F62 		.ascii	"wtobjp\000"
ARM GAS  C:\Users\euanm\AppData\Local\Temp\ccCsOkpq.s 			page 93


 4875      6A7000
 4876              	.LASF51:
 4877 0840 74687265 		.ascii	"threads_list_t\000"
 4877      6164735F 
 4877      6C697374 
 4877      5F7400
 4878              	.LASF153:
 4879 084f 72666865 		.ascii	"rfhelp_send_data_crc\000"
 4879      6C705F73 
 4879      656E645F 
 4879      64617461 
 4879      5F637263 
 4880              	.LASF45:
 4881 0864 705F6D73 		.ascii	"p_msg\000"
 4881      6700
 4882              	.LASF168:
 4883 086a 63685265 		.ascii	"chRegSetThreadName\000"
 4883      67536574 
 4883      54687265 
 4883      61644E61 
 4883      6D6500
 4884              	.LASF102:
 4885 087d 6D5F6F77 		.ascii	"m_owner\000"
 4885      6E657200 
 4886              	.LASF166:
 4887 0885 6E72662F 		.ascii	"nrf/nrf_driver.c\000"
 4887      6E72665F 
 4887      64726976 
 4887      65722E63 
 4887      00
 4888              	.LASF34:
 4889 0896 705F6374 		.ascii	"p_ctx\000"
 4889      7800
 4890              	.LASF43:
 4891 089c 705F7761 		.ascii	"p_waiting\000"
 4891      6974696E 
 4891      6700
 4892              		.ident	"GCC: (GNU Tools for ARM Embedded Processors) 5.4.1 20160919 (release) [ARM/embedded-5-bran
ARM GAS  C:\Users\euanm\AppData\Local\Temp\ccCsOkpq.s 			page 94


DEFINED SYMBOLS
                            *ABS*:00000000 nrf_driver.c
C:\Users\euanm\AppData\Local\Temp\ccCsOkpq.s:22     .text.tx_thread:00000000 $t
C:\Users\euanm\AppData\Local\Temp\ccCsOkpq.s:27     .text.tx_thread:00000000 tx_thread
C:\Users\euanm\AppData\Local\Temp\ccCsOkpq.s:111    .text.tx_thread:00000040 $d
C:\Users\euanm\AppData\Local\Temp\ccCsOkpq.s:120    .text.nrf_driver_send_buffer:00000000 $t
C:\Users\euanm\AppData\Local\Temp\ccCsOkpq.s:126    .text.nrf_driver_send_buffer:00000000 nrf_driver_send_buffer
C:\Users\euanm\AppData\Local\Temp\ccCsOkpq.s:472    .text.nrf_driver_send_buffer:000001b0 $d
C:\Users\euanm\AppData\Local\Temp\ccCsOkpq.s:481    .text.rx_thread:00000000 $t
C:\Users\euanm\AppData\Local\Temp\ccCsOkpq.s:486    .text.rx_thread:00000000 rx_thread
C:\Users\euanm\AppData\Local\Temp\ccCsOkpq.s:575    .text.rx_thread:0000004c $d
C:\Users\euanm\AppData\Local\Temp\ccCsOkpq.s:581    .text.rx_thread:00000052 $t
C:\Users\euanm\AppData\Local\Temp\ccCsOkpq.s:840    .text.rx_thread:000001a8 $d
C:\Users\euanm\AppData\Local\Temp\ccCsOkpq.s:852    .text.nrf_driver_init:00000000 $t
C:\Users\euanm\AppData\Local\Temp\ccCsOkpq.s:858    .text.nrf_driver_init:00000000 nrf_driver_init
C:\Users\euanm\AppData\Local\Temp\ccCsOkpq.s:916    .text.nrf_driver_init:0000003c $d
C:\Users\euanm\AppData\Local\Temp\ccCsOkpq.s:927    .bss.nosend_cnt:00000000 $d
C:\Users\euanm\AppData\Local\Temp\ccCsOkpq.s:931    .bss.nosend_cnt:00000000 nosend_cnt
C:\Users\euanm\AppData\Local\Temp\ccCsOkpq.s:934    .bss.nrf_restart_tx_time:00000000 $d
C:\Users\euanm\AppData\Local\Temp\ccCsOkpq.s:938    .bss.nrf_restart_tx_time:00000000 nrf_restart_tx_time
C:\Users\euanm\AppData\Local\Temp\ccCsOkpq.s:941    .rodata.str1.4:00000000 $d
C:\Users\euanm\AppData\Local\Temp\ccCsOkpq.s:948    .bss.rx_thread_wa:00000000 $d
C:\Users\euanm\AppData\Local\Temp\ccCsOkpq.s:952    .bss.rx_thread_wa:00000000 rx_thread_wa
C:\Users\euanm\AppData\Local\Temp\ccCsOkpq.s:955    .bss.nrf_restart_rx_time:00000000 $d
C:\Users\euanm\AppData\Local\Temp\ccCsOkpq.s:959    .bss.nrf_restart_rx_time:00000000 nrf_restart_rx_time
C:\Users\euanm\AppData\Local\Temp\ccCsOkpq.s:962    .bss.rx_buffer:00000000 $d
C:\Users\euanm\AppData\Local\Temp\ccCsOkpq.s:966    .bss.rx_buffer:00000000 rx_buffer
C:\Users\euanm\AppData\Local\Temp\ccCsOkpq.s:969    .bss.mstate:00000000 $d
C:\Users\euanm\AppData\Local\Temp\ccCsOkpq.s:973    .bss.mstate:00000000 mstate
C:\Users\euanm\AppData\Local\Temp\ccCsOkpq.s:976    .bss.tx_thread_wa:00000000 $d
C:\Users\euanm\AppData\Local\Temp\ccCsOkpq.s:980    .bss.tx_thread_wa:00000000 tx_thread_wa
                     .debug_frame:00000010 $d

UNDEFINED SYMBOLS
chThdSleep
rfhelp_send_data_crc
ch
memcpy
crc16
rfhelp_read_rx_data_crc
commands_set_send_func
commands_process_packet
buffer_get_int16
app_nunchuk_update_output
rfhelp_power_up
rfhelp_restart
rfhelp_init
chThdCreateStatic
