ARM GAS  C:\Users\euanm\AppData\Local\Temp\cclZ30xz.s 			page 1


   1              		.syntax unified
   2              		.cpu cortex-m4
   3              		.eabi_attribute 27, 1
   4              		.eabi_attribute 28, 1
   5              		.fpu fpv4-sp-d16
   6              		.eabi_attribute 20, 1
   7              		.eabi_attribute 21, 1
   8              		.eabi_attribute 23, 3
   9              		.eabi_attribute 24, 1
  10              		.eabi_attribute 25, 1
  11              		.eabi_attribute 26, 1
  12              		.eabi_attribute 30, 2
  13              		.eabi_attribute 34, 1
  14              		.eabi_attribute 18, 4
  15              		.thumb
  16              		.syntax unified
  17              		.file	"rf.c"
  18              		.text
  19              	.Ltext0:
  20              		.cfi_sections	.debug_frame
  21              		.section	.text.rf_init,"ax",%progbits
  22              		.align	2
  23              		.p2align 4,,15
  24              		.global	rf_init
  25              		.thumb
  26              		.thumb_func
  27              		.type	rf_init, %function
  28              	rf_init:
  29              	.LFB219:
  30              		.file 1 "nrf/rf.c"
  31              		.loc 1 23 0
  32              		.cfi_startproc
  33              		@ args = 0, pretend = 0, frame = 0
  34              		@ frame_needed = 0, uses_anonymous_args = 0
  35              		@ link register save eliminated.
  36              		.loc 1 24 0
  37 0000 FFF7FEBF 		b	spi_sw_init
  38              	.LVL0:
  39              		.cfi_endproc
  40              	.LFE219:
  41              		.size	rf_init, .-rf_init
  42              		.section	.text.rf_write_tx_payload,"ax",%progbits
  43              		.align	2
  44              		.p2align 4,,15
  45              		.global	rf_write_tx_payload
  46              		.thumb
  47              		.thumb_func
  48              		.type	rf_write_tx_payload, %function
  49              	rf_write_tx_payload:
  50              	.LFB228:
  51              		.loc 1 135 0
  52              		.cfi_startproc
  53              		@ args = 0, pretend = 0, frame = 8
  54              		@ frame_needed = 0, uses_anonymous_args = 0
  55              	.LVL1:
  56 0000 70B5     		push	{r4, r5, r6, lr}
  57              		.cfi_def_cfa_offset 16
ARM GAS  C:\Users\euanm\AppData\Local\Temp\cclZ30xz.s 			page 2


  58              		.cfi_offset 4, -16
  59              		.cfi_offset 5, -12
  60              		.cfi_offset 6, -8
  61              		.cfi_offset 14, -4
  62 0002 82B0     		sub	sp, sp, #8
  63              		.cfi_def_cfa_offset 24
  64              		.loc 1 136 0
  65 0004 02AC     		add	r4, sp, #8
  66 0006 A023     		movs	r3, #160
  67 0008 04F8013D 		strb	r3, [r4, #-1]!
  68              		.loc 1 135 0
  69 000c 0546     		mov	r5, r0
  70 000e 0E46     		mov	r6, r1
  71              		.loc 1 137 0
  72 0010 FFF7FEFF 		bl	spi_sw_begin
  73              	.LVL2:
  74              		.loc 1 138 0
  75 0014 2146     		mov	r1, r4
  76 0016 0122     		movs	r2, #1
  77 0018 0020     		movs	r0, #0
  78 001a FFF7FEFF 		bl	spi_sw_transfer
  79              	.LVL3:
  80              		.loc 1 139 0
  81 001e 3246     		mov	r2, r6
  82 0020 2946     		mov	r1, r5
  83 0022 0020     		movs	r0, #0
  84 0024 FFF7FEFF 		bl	spi_sw_transfer
  85              	.LVL4:
  86              		.loc 1 140 0
  87 0028 FFF7FEFF 		bl	spi_sw_end
  88              	.LVL5:
  89              		.loc 1 142 0
  90 002c 02B0     		add	sp, sp, #8
  91              		.cfi_def_cfa_offset 16
  92              		@ sp needed
  93 002e 70BD     		pop	{r4, r5, r6, pc}
  94              		.cfi_endproc
  95              	.LFE228:
  96              		.size	rf_write_tx_payload, .-rf_write_tx_payload
  97              		.section	.text.rf_write_tx_payload_no_ack,"ax",%progbits
  98              		.align	2
  99              		.p2align 4,,15
 100              		.global	rf_write_tx_payload_no_ack
 101              		.thumb
 102              		.thumb_func
 103              		.type	rf_write_tx_payload_no_ack, %function
 104              	rf_write_tx_payload_no_ack:
 105              	.LFB229:
 106              		.loc 1 145 0
 107              		.cfi_startproc
 108              		@ args = 0, pretend = 0, frame = 8
 109              		@ frame_needed = 0, uses_anonymous_args = 0
 110              	.LVL6:
 111 0000 70B5     		push	{r4, r5, r6, lr}
 112              		.cfi_def_cfa_offset 16
 113              		.cfi_offset 4, -16
 114              		.cfi_offset 5, -12
ARM GAS  C:\Users\euanm\AppData\Local\Temp\cclZ30xz.s 			page 3


 115              		.cfi_offset 6, -8
 116              		.cfi_offset 14, -4
 117 0002 82B0     		sub	sp, sp, #8
 118              		.cfi_def_cfa_offset 24
 119              		.loc 1 146 0
 120 0004 02AC     		add	r4, sp, #8
 121 0006 B023     		movs	r3, #176
 122 0008 04F8013D 		strb	r3, [r4, #-1]!
 123              		.loc 1 145 0
 124 000c 0546     		mov	r5, r0
 125 000e 0E46     		mov	r6, r1
 126              		.loc 1 147 0
 127 0010 FFF7FEFF 		bl	spi_sw_begin
 128              	.LVL7:
 129              		.loc 1 148 0
 130 0014 2146     		mov	r1, r4
 131 0016 0122     		movs	r2, #1
 132 0018 0020     		movs	r0, #0
 133 001a FFF7FEFF 		bl	spi_sw_transfer
 134              	.LVL8:
 135              		.loc 1 149 0
 136 001e 3246     		mov	r2, r6
 137 0020 2946     		mov	r1, r5
 138 0022 0020     		movs	r0, #0
 139 0024 FFF7FEFF 		bl	spi_sw_transfer
 140              	.LVL9:
 141              		.loc 1 150 0
 142 0028 FFF7FEFF 		bl	spi_sw_end
 143              	.LVL10:
 144              		.loc 1 152 0
 145 002c 02B0     		add	sp, sp, #8
 146              		.cfi_def_cfa_offset 16
 147              		@ sp needed
 148 002e 70BD     		pop	{r4, r5, r6, pc}
 149              		.cfi_endproc
 150              	.LFE229:
 151              		.size	rf_write_tx_payload_no_ack, .-rf_write_tx_payload_no_ack
 152              		.section	.text.rf_write_ack_payload,"ax",%progbits
 153              		.align	2
 154              		.p2align 4,,15
 155              		.global	rf_write_ack_payload
 156              		.thumb
 157              		.thumb_func
 158              		.type	rf_write_ack_payload, %function
 159              	rf_write_ack_payload:
 160              	.LFB230:
 161              		.loc 1 155 0
 162              		.cfi_startproc
 163              		@ args = 0, pretend = 0, frame = 8
 164              		@ frame_needed = 0, uses_anonymous_args = 0
 165              	.LVL11:
 166 0000 70B5     		push	{r4, r5, r6, lr}
 167              		.cfi_def_cfa_offset 16
 168              		.cfi_offset 4, -16
 169              		.cfi_offset 5, -12
 170              		.cfi_offset 6, -8
 171              		.cfi_offset 14, -4
ARM GAS  C:\Users\euanm\AppData\Local\Temp\cclZ30xz.s 			page 4


 172 0002 82B0     		sub	sp, sp, #8
 173              		.cfi_def_cfa_offset 24
 174              		.loc 1 156 0
 175 0004 02AC     		add	r4, sp, #8
 176 0006 00F00700 		and	r0, r0, #7
 177              	.LVL12:
 178 000a 60F05700 		orn	r0, r0, #87
 179 000e 04F8010D 		strb	r0, [r4, #-1]!
 180              		.loc 1 155 0
 181 0012 0D46     		mov	r5, r1
 182 0014 1646     		mov	r6, r2
 183              		.loc 1 157 0
 184 0016 FFF7FEFF 		bl	spi_sw_begin
 185              	.LVL13:
 186              		.loc 1 158 0
 187 001a 2146     		mov	r1, r4
 188 001c 0122     		movs	r2, #1
 189 001e 0020     		movs	r0, #0
 190 0020 FFF7FEFF 		bl	spi_sw_transfer
 191              	.LVL14:
 192              		.loc 1 159 0
 193 0024 3246     		mov	r2, r6
 194 0026 2946     		mov	r1, r5
 195 0028 0020     		movs	r0, #0
 196 002a FFF7FEFF 		bl	spi_sw_transfer
 197              	.LVL15:
 198              		.loc 1 160 0
 199 002e FFF7FEFF 		bl	spi_sw_end
 200              	.LVL16:
 201              		.loc 1 162 0
 202 0032 02B0     		add	sp, sp, #8
 203              		.cfi_def_cfa_offset 16
 204              		@ sp needed
 205 0034 70BD     		pop	{r4, r5, r6, pc}
 206              		.cfi_endproc
 207              	.LFE230:
 208              		.size	rf_write_ack_payload, .-rf_write_ack_payload
 209 0036 00BF     		.section	.text.rf_read_rx_payload,"ax",%progbits
 210              		.align	2
 211              		.p2align 4,,15
 212              		.global	rf_read_rx_payload
 213              		.thumb
 214              		.thumb_func
 215              		.type	rf_read_rx_payload, %function
 216              	rf_read_rx_payload:
 217              	.LFB231:
 218              		.loc 1 165 0
 219              		.cfi_startproc
 220              		@ args = 0, pretend = 0, frame = 8
 221              		@ frame_needed = 0, uses_anonymous_args = 0
 222              	.LVL17:
 223 0000 70B5     		push	{r4, r5, r6, lr}
 224              		.cfi_def_cfa_offset 16
 225              		.cfi_offset 4, -16
 226              		.cfi_offset 5, -12
 227              		.cfi_offset 6, -8
 228              		.cfi_offset 14, -4
ARM GAS  C:\Users\euanm\AppData\Local\Temp\cclZ30xz.s 			page 5


 229 0002 82B0     		sub	sp, sp, #8
 230              		.cfi_def_cfa_offset 24
 231              		.loc 1 166 0
 232 0004 02AC     		add	r4, sp, #8
 233 0006 6123     		movs	r3, #97
 234 0008 04F8013D 		strb	r3, [r4, #-1]!
 235              		.loc 1 165 0
 236 000c 0546     		mov	r5, r0
 237 000e 0E46     		mov	r6, r1
 238              		.loc 1 167 0
 239 0010 FFF7FEFF 		bl	spi_sw_begin
 240              	.LVL18:
 241              		.loc 1 168 0
 242 0014 2146     		mov	r1, r4
 243 0016 0122     		movs	r2, #1
 244 0018 0020     		movs	r0, #0
 245 001a FFF7FEFF 		bl	spi_sw_transfer
 246              	.LVL19:
 247              		.loc 1 169 0
 248 001e 3246     		mov	r2, r6
 249 0020 2846     		mov	r0, r5
 250 0022 0021     		movs	r1, #0
 251 0024 FFF7FEFF 		bl	spi_sw_transfer
 252              	.LVL20:
 253              		.loc 1 170 0
 254 0028 FFF7FEFF 		bl	spi_sw_end
 255              	.LVL21:
 256              		.loc 1 172 0
 257 002c 02B0     		add	sp, sp, #8
 258              		.cfi_def_cfa_offset 16
 259              		@ sp needed
 260 002e 70BD     		pop	{r4, r5, r6, pc}
 261              		.cfi_endproc
 262              	.LFE231:
 263              		.size	rf_read_rx_payload, .-rf_read_rx_payload
 264              		.section	.text.rf_flush_tx,"ax",%progbits
 265              		.align	2
 266              		.p2align 4,,15
 267              		.global	rf_flush_tx
 268              		.thumb
 269              		.thumb_func
 270              		.type	rf_flush_tx, %function
 271              	rf_flush_tx:
 272              	.LFB243:
 273              		.loc 1 262 0
 274              		.cfi_startproc
 275              		@ args = 0, pretend = 0, frame = 8
 276              		@ frame_needed = 0, uses_anonymous_args = 0
 277 0000 10B5     		push	{r4, lr}
 278              		.cfi_def_cfa_offset 8
 279              		.cfi_offset 4, -8
 280              		.cfi_offset 14, -4
 281 0002 82B0     		sub	sp, sp, #8
 282              		.cfi_def_cfa_offset 16
 283              		.loc 1 263 0
 284 0004 02AC     		add	r4, sp, #8
 285 0006 E123     		movs	r3, #225
ARM GAS  C:\Users\euanm\AppData\Local\Temp\cclZ30xz.s 			page 6


 286 0008 04F8013D 		strb	r3, [r4, #-1]!
 287              		.loc 1 264 0
 288 000c FFF7FEFF 		bl	spi_sw_begin
 289              	.LVL22:
 290              		.loc 1 265 0
 291 0010 2146     		mov	r1, r4
 292 0012 0122     		movs	r2, #1
 293 0014 0020     		movs	r0, #0
 294 0016 FFF7FEFF 		bl	spi_sw_transfer
 295              	.LVL23:
 296              		.loc 1 266 0
 297 001a FFF7FEFF 		bl	spi_sw_end
 298              	.LVL24:
 299              		.loc 1 267 0
 300 001e 02B0     		add	sp, sp, #8
 301              		.cfi_def_cfa_offset 8
 302              		@ sp needed
 303 0020 10BD     		pop	{r4, pc}
 304              		.cfi_endproc
 305              	.LFE243:
 306              		.size	rf_flush_tx, .-rf_flush_tx
 307 0022 00BF     		.section	.text.rf_flush_rx,"ax",%progbits
 308              		.align	2
 309              		.p2align 4,,15
 310              		.global	rf_flush_rx
 311              		.thumb
 312              		.thumb_func
 313              		.type	rf_flush_rx, %function
 314              	rf_flush_rx:
 315              	.LFB244:
 316              		.loc 1 269 0
 317              		.cfi_startproc
 318              		@ args = 0, pretend = 0, frame = 8
 319              		@ frame_needed = 0, uses_anonymous_args = 0
 320 0000 10B5     		push	{r4, lr}
 321              		.cfi_def_cfa_offset 8
 322              		.cfi_offset 4, -8
 323              		.cfi_offset 14, -4
 324 0002 82B0     		sub	sp, sp, #8
 325              		.cfi_def_cfa_offset 16
 326              		.loc 1 270 0
 327 0004 02AC     		add	r4, sp, #8
 328 0006 E223     		movs	r3, #226
 329 0008 04F8013D 		strb	r3, [r4, #-1]!
 330              		.loc 1 271 0
 331 000c FFF7FEFF 		bl	spi_sw_begin
 332              	.LVL25:
 333              		.loc 1 272 0
 334 0010 2146     		mov	r1, r4
 335 0012 0122     		movs	r2, #1
 336 0014 0020     		movs	r0, #0
 337 0016 FFF7FEFF 		bl	spi_sw_transfer
 338              	.LVL26:
 339              		.loc 1 273 0
 340 001a FFF7FEFF 		bl	spi_sw_end
 341              	.LVL27:
 342              		.loc 1 274 0
ARM GAS  C:\Users\euanm\AppData\Local\Temp\cclZ30xz.s 			page 7


 343 001e 02B0     		add	sp, sp, #8
 344              		.cfi_def_cfa_offset 8
 345              		@ sp needed
 346 0020 10BD     		pop	{r4, pc}
 347              		.cfi_endproc
 348              	.LFE244:
 349              		.size	rf_flush_rx, .-rf_flush_rx
 350 0022 00BF     		.section	.text.rf_flush_all,"ax",%progbits
 351              		.align	2
 352              		.p2align 4,,15
 353              		.global	rf_flush_all
 354              		.thumb
 355              		.thumb_func
 356              		.type	rf_flush_all, %function
 357              	rf_flush_all:
 358              	.LFB245:
 359              		.loc 1 276 0
 360              		.cfi_startproc
 361              		@ args = 0, pretend = 0, frame = 0
 362              		@ frame_needed = 0, uses_anonymous_args = 0
 363 0000 08B5     		push	{r3, lr}
 364              		.cfi_def_cfa_offset 8
 365              		.cfi_offset 3, -8
 366              		.cfi_offset 14, -4
 367              		.loc 1 277 0
 368 0002 FFF7FEFF 		bl	rf_flush_rx
 369              	.LVL28:
 370              		.loc 1 279 0
 371 0006 BDE80840 		pop	{r3, lr}
 372              		.cfi_restore 14
 373              		.cfi_restore 3
 374              		.cfi_def_cfa_offset 0
 375              		.loc 1 278 0
 376 000a FFF7FEBF 		b	rf_flush_tx
 377              	.LVL29:
 378              		.cfi_endproc
 379              	.LFE245:
 380              		.size	rf_flush_all, .-rf_flush_all
 381 000e 00BF     		.section	.text.rf_get_payload_width,"ax",%progbits
 382              		.align	2
 383              		.p2align 4,,15
 384              		.global	rf_get_payload_width
 385              		.thumb
 386              		.thumb_func
 387              		.type	rf_get_payload_width, %function
 388              	rf_get_payload_width:
 389              	.LFB250:
 390              		.loc 1 297 0
 391              		.cfi_startproc
 392              		@ args = 0, pretend = 0, frame = 8
 393              		@ frame_needed = 0, uses_anonymous_args = 0
 394 0000 10B5     		push	{r4, lr}
 395              		.cfi_def_cfa_offset 8
 396              		.cfi_offset 4, -8
 397              		.cfi_offset 14, -4
 398 0002 82B0     		sub	sp, sp, #8
 399              		.cfi_def_cfa_offset 16
ARM GAS  C:\Users\euanm\AppData\Local\Temp\cclZ30xz.s 			page 8


 400              		.loc 1 299 0
 401 0004 02AC     		add	r4, sp, #8
 402 0006 6023     		movs	r3, #96
 403 0008 04F8013D 		strb	r3, [r4, #-1]!
 404              		.loc 1 300 0
 405 000c FFF7FEFF 		bl	spi_sw_begin
 406              	.LVL30:
 407              		.loc 1 301 0
 408 0010 2146     		mov	r1, r4
 409 0012 0122     		movs	r2, #1
 410 0014 0020     		movs	r0, #0
 411 0016 FFF7FEFF 		bl	spi_sw_transfer
 412              	.LVL31:
 413              		.loc 1 302 0
 414 001a 0DF10600 		add	r0, sp, #6
 415 001e 0122     		movs	r2, #1
 416 0020 0021     		movs	r1, #0
 417 0022 FFF7FEFF 		bl	spi_sw_transfer
 418              	.LVL32:
 419              		.loc 1 303 0
 420 0026 FFF7FEFF 		bl	spi_sw_end
 421              	.LVL33:
 422              		.loc 1 305 0
 423 002a 9DF80600 		ldrb	r0, [sp, #6]	@ zero_extendqisi2
 424 002e 02B0     		add	sp, sp, #8
 425              		.cfi_def_cfa_offset 8
 426              		@ sp needed
 427 0030 10BD     		pop	{r4, pc}
 428              		.cfi_endproc
 429              	.LFE250:
 430              		.size	rf_get_payload_width, .-rf_get_payload_width
 431 0032 00BF     		.section	.text.rf_status,"ax",%progbits
 432              		.align	2
 433              		.p2align 4,,15
 434              		.global	rf_status
 435              		.thumb
 436              		.thumb_func
 437              		.type	rf_status, %function
 438              	rf_status:
 439              	.LFB251:
 440              		.loc 1 307 0
 441              		.cfi_startproc
 442              		@ args = 0, pretend = 0, frame = 8
 443              		@ frame_needed = 0, uses_anonymous_args = 0
 444 0000 10B5     		push	{r4, lr}
 445              		.cfi_def_cfa_offset 8
 446              		.cfi_offset 4, -8
 447              		.cfi_offset 14, -4
 448 0002 82B0     		sub	sp, sp, #8
 449              		.cfi_def_cfa_offset 16
 450              		.loc 1 308 0
 451 0004 02AC     		add	r4, sp, #8
 452 0006 FF23     		movs	r3, #255
 453 0008 04F8013D 		strb	r3, [r4, #-1]!
 454              		.loc 1 309 0
 455 000c FFF7FEFF 		bl	spi_sw_begin
 456              	.LVL34:
ARM GAS  C:\Users\euanm\AppData\Local\Temp\cclZ30xz.s 			page 9


 457              		.loc 1 310 0
 458 0010 2046     		mov	r0, r4
 459 0012 2146     		mov	r1, r4
 460 0014 0122     		movs	r2, #1
 461 0016 FFF7FEFF 		bl	spi_sw_transfer
 462              	.LVL35:
 463              		.loc 1 311 0
 464 001a FFF7FEFF 		bl	spi_sw_end
 465              	.LVL36:
 466              		.loc 1 313 0
 467 001e 9DF80700 		ldrb	r0, [sp, #7]	@ zero_extendqisi2
 468 0022 02B0     		add	sp, sp, #8
 469              		.cfi_def_cfa_offset 8
 470              		@ sp needed
 471 0024 10BD     		pop	{r4, pc}
 472              		.cfi_endproc
 473              	.LFE251:
 474              		.size	rf_status, .-rf_status
 475 0026 00BF     		.section	.text.rf_write_reg,"ax",%progbits
 476              		.align	2
 477              		.p2align 4,,15
 478              		.global	rf_write_reg
 479              		.thumb
 480              		.thumb_func
 481              		.type	rf_write_reg, %function
 482              	rf_write_reg:
 483              	.LFB254:
 484              		.loc 1 323 0
 485              		.cfi_startproc
 486              		@ args = 0, pretend = 0, frame = 8
 487              		@ frame_needed = 0, uses_anonymous_args = 0
 488              	.LVL37:
 489 0000 70B5     		push	{r4, r5, r6, lr}
 490              		.cfi_def_cfa_offset 16
 491              		.cfi_offset 4, -16
 492              		.cfi_offset 5, -12
 493              		.cfi_offset 6, -8
 494              		.cfi_offset 14, -4
 495 0002 82B0     		sub	sp, sp, #8
 496              		.cfi_def_cfa_offset 24
 497              		.loc 1 324 0
 498 0004 02AC     		add	r4, sp, #8
 499 0006 40F02000 		orr	r0, r0, #32
 500              	.LVL38:
 501 000a 04F8010D 		strb	r0, [r4, #-1]!
 502              		.loc 1 323 0
 503 000e 0D46     		mov	r5, r1
 504 0010 1646     		mov	r6, r2
 505              		.loc 1 326 0
 506 0012 FFF7FEFF 		bl	spi_sw_begin
 507              	.LVL39:
 508              		.loc 1 327 0
 509 0016 2146     		mov	r1, r4
 510 0018 0122     		movs	r2, #1
 511 001a 0020     		movs	r0, #0
 512 001c FFF7FEFF 		bl	spi_sw_transfer
 513              	.LVL40:
ARM GAS  C:\Users\euanm\AppData\Local\Temp\cclZ30xz.s 			page 10


 514              		.loc 1 328 0
 515 0020 3246     		mov	r2, r6
 516 0022 2946     		mov	r1, r5
 517 0024 0020     		movs	r0, #0
 518 0026 FFF7FEFF 		bl	spi_sw_transfer
 519              	.LVL41:
 520              		.loc 1 329 0
 521 002a FFF7FEFF 		bl	spi_sw_end
 522              	.LVL42:
 523              		.loc 1 330 0
 524 002e 02B0     		add	sp, sp, #8
 525              		.cfi_def_cfa_offset 16
 526              		@ sp needed
 527 0030 70BD     		pop	{r4, r5, r6, pc}
 528              		.cfi_endproc
 529              	.LFE254:
 530              		.size	rf_write_reg, .-rf_write_reg
 531 0032 00BF     		.section	.text.rf_set_rx_addr,"ax",%progbits
 532              		.align	2
 533              		.p2align 4,,15
 534              		.global	rf_set_rx_addr
 535              		.thumb
 536              		.thumb_func
 537              		.type	rf_set_rx_addr, %function
 538              	rf_set_rx_addr:
 539              	.LFB226:
 540              		.loc 1 127 0
 541              		.cfi_startproc
 542              		@ args = 0, pretend = 0, frame = 0
 543              		@ frame_needed = 0, uses_anonymous_args = 0
 544              		@ link register save eliminated.
 545              	.LVL43:
 546              		.loc 1 128 0
 547 0000 0A30     		adds	r0, r0, #10
 548              	.LVL44:
 549 0002 FFF7FEBF 		b	rf_write_reg
 550              	.LVL45:
 551              		.cfi_endproc
 552              	.LFE226:
 553              		.size	rf_set_rx_addr, .-rf_set_rx_addr
 554 0006 00BF     		.section	.text.rf_set_tx_addr,"ax",%progbits
 555              		.align	2
 556              		.p2align 4,,15
 557              		.global	rf_set_tx_addr
 558              		.thumb
 559              		.thumb_func
 560              		.type	rf_set_tx_addr, %function
 561              	rf_set_tx_addr:
 562              	.LFB227:
 563              		.loc 1 131 0
 564              		.cfi_startproc
 565              		@ args = 0, pretend = 0, frame = 0
 566              		@ frame_needed = 0, uses_anonymous_args = 0
 567              		@ link register save eliminated.
 568              	.LVL46:
 569              		.loc 1 132 0
 570 0000 0A46     		mov	r2, r1
ARM GAS  C:\Users\euanm\AppData\Local\Temp\cclZ30xz.s 			page 11


 571 0002 0146     		mov	r1, r0
 572              	.LVL47:
 573 0004 1020     		movs	r0, #16
 574              	.LVL48:
 575 0006 FFF7FEBF 		b	rf_write_reg
 576              	.LVL49:
 577              		.cfi_endproc
 578              	.LFE227:
 579              		.size	rf_set_tx_addr, .-rf_set_tx_addr
 580 000a 00BF     		.section	.text.rf_set_address_width,"ax",%progbits
 581              		.align	2
 582              		.p2align 4,,15
 583              		.global	rf_set_address_width
 584              		.thumb
 585              		.thumb_func
 586              		.type	rf_set_address_width, %function
 587              	rf_set_address_width:
 588              	.LFB222:
 589              		.loc 1 72 0
 590              		.cfi_startproc
 591              		@ args = 0, pretend = 0, frame = 8
 592              		@ frame_needed = 0, uses_anonymous_args = 0
 593              	.LVL50:
 594 0000 00B5     		push	{lr}
 595              		.cfi_def_cfa_offset 4
 596              		.cfi_offset 14, -4
 597 0002 83B0     		sub	sp, sp, #12
 598              		.cfi_def_cfa_offset 16
 599 0004 02A9     		add	r1, sp, #8
 600 0006 0130     		adds	r0, r0, #1
 601              	.LVL51:
 602 0008 01F8010D 		strb	r0, [r1, #-1]!
 603              	.LVL52:
 604              	.LBB74:
 605              	.LBB75:
 606              		.loc 1 333 0
 607 000c 0122     		movs	r2, #1
 608 000e 0320     		movs	r0, #3
 609 0010 FFF7FEFF 		bl	rf_write_reg
 610              	.LVL53:
 611              	.LBE75:
 612              	.LBE74:
 613              		.loc 1 74 0
 614 0014 03B0     		add	sp, sp, #12
 615              		.cfi_def_cfa_offset 4
 616              		@ sp needed
 617 0016 5DF804FB 		ldr	pc, [sp], #4
 618              		.cfi_endproc
 619              	.LFE222:
 620              		.size	rf_set_address_width, .-rf_set_address_width
 621 001a 00BF     		.section	.text.rf_set_frequency,"ax",%progbits
 622              		.align	2
 623              		.p2align 4,,15
 624              		.global	rf_set_frequency
 625              		.thumb
 626              		.thumb_func
 627              		.type	rf_set_frequency, %function
ARM GAS  C:\Users\euanm\AppData\Local\Temp\cclZ30xz.s 			page 12


 628              	rf_set_frequency:
 629              	.LFB232:
 630              		.loc 1 175 0
 631              		.cfi_startproc
 632              		@ args = 0, pretend = 0, frame = 8
 633              		@ frame_needed = 0, uses_anonymous_args = 0
 634              	.LVL54:
 635 0000 00B5     		push	{lr}
 636              		.cfi_def_cfa_offset 4
 637              		.cfi_offset 14, -4
 638 0002 83B0     		sub	sp, sp, #12
 639              		.cfi_def_cfa_offset 16
 640 0004 02A9     		add	r1, sp, #8
 641 0006 6038     		subs	r0, r0, #96
 642              	.LVL55:
 643 0008 00F07F00 		and	r0, r0, #127
 644              	.LVL56:
 645 000c 01F8010D 		strb	r0, [r1, #-1]!
 646              	.LVL57:
 647              	.LBB76:
 648              	.LBB77:
 649              		.loc 1 333 0
 650 0010 0122     		movs	r2, #1
 651 0012 0520     		movs	r0, #5
 652 0014 FFF7FEFF 		bl	rf_write_reg
 653              	.LVL58:
 654              	.LBE77:
 655              	.LBE76:
 656              		.loc 1 178 0
 657 0018 03B0     		add	sp, sp, #12
 658              		.cfi_def_cfa_offset 4
 659              		@ sp needed
 660 001a 5DF804FB 		ldr	pc, [sp], #4
 661              		.cfi_endproc
 662              	.LFE232:
 663              		.size	rf_set_frequency, .-rf_set_frequency
 664 001e 00BF     		.section	.text.rf_clear_irq,"ax",%progbits
 665              		.align	2
 666              		.p2align 4,,15
 667              		.global	rf_clear_irq
 668              		.thumb
 669              		.thumb_func
 670              		.type	rf_clear_irq, %function
 671              	rf_clear_irq:
 672              	.LFB246:
 673              		.loc 1 281 0
 674              		.cfi_startproc
 675              		@ args = 0, pretend = 0, frame = 8
 676              		@ frame_needed = 0, uses_anonymous_args = 0
 677              	.LVL59:
 678 0000 00B5     		push	{lr}
 679              		.cfi_def_cfa_offset 4
 680              		.cfi_offset 14, -4
 681 0002 83B0     		sub	sp, sp, #12
 682              		.cfi_def_cfa_offset 16
 683 0004 02A9     		add	r1, sp, #8
 684 0006 7023     		movs	r3, #112
ARM GAS  C:\Users\euanm\AppData\Local\Temp\cclZ30xz.s 			page 13


 685 0008 01F8013D 		strb	r3, [r1, #-1]!
 686              	.LVL60:
 687              	.LBB78:
 688              	.LBB79:
 689              		.loc 1 333 0
 690 000c 0122     		movs	r2, #1
 691 000e 0720     		movs	r0, #7
 692 0010 FFF7FEFF 		bl	rf_write_reg
 693              	.LVL61:
 694              	.LBE79:
 695              	.LBE78:
 696              		.loc 1 283 0
 697 0014 03B0     		add	sp, sp, #12
 698              		.cfi_def_cfa_offset 4
 699              		@ sp needed
 700 0016 5DF804FB 		ldr	pc, [sp], #4
 701              		.cfi_endproc
 702              	.LFE246:
 703              		.size	rf_clear_irq, .-rf_clear_irq
 704 001a 00BF     		.section	.text.rf_clear_rx_irq,"ax",%progbits
 705              		.align	2
 706              		.p2align 4,,15
 707              		.global	rf_clear_rx_irq
 708              		.thumb
 709              		.thumb_func
 710              		.type	rf_clear_rx_irq, %function
 711              	rf_clear_rx_irq:
 712              	.LFB247:
 713              		.loc 1 285 0
 714              		.cfi_startproc
 715              		@ args = 0, pretend = 0, frame = 8
 716              		@ frame_needed = 0, uses_anonymous_args = 0
 717              	.LVL62:
 718 0000 00B5     		push	{lr}
 719              		.cfi_def_cfa_offset 4
 720              		.cfi_offset 14, -4
 721 0002 83B0     		sub	sp, sp, #12
 722              		.cfi_def_cfa_offset 16
 723 0004 02A9     		add	r1, sp, #8
 724 0006 4023     		movs	r3, #64
 725 0008 01F8013D 		strb	r3, [r1, #-1]!
 726              	.LVL63:
 727              	.LBB80:
 728              	.LBB81:
 729              		.loc 1 333 0
 730 000c 0122     		movs	r2, #1
 731 000e 0720     		movs	r0, #7
 732 0010 FFF7FEFF 		bl	rf_write_reg
 733              	.LVL64:
 734              	.LBE81:
 735              	.LBE80:
 736              		.loc 1 287 0
 737 0014 03B0     		add	sp, sp, #12
 738              		.cfi_def_cfa_offset 4
 739              		@ sp needed
 740 0016 5DF804FB 		ldr	pc, [sp], #4
 741              		.cfi_endproc
ARM GAS  C:\Users\euanm\AppData\Local\Temp\cclZ30xz.s 			page 14


 742              	.LFE247:
 743              		.size	rf_clear_rx_irq, .-rf_clear_rx_irq
 744 001a 00BF     		.section	.text.rf_clear_tx_irq,"ax",%progbits
 745              		.align	2
 746              		.p2align 4,,15
 747              		.global	rf_clear_tx_irq
 748              		.thumb
 749              		.thumb_func
 750              		.type	rf_clear_tx_irq, %function
 751              	rf_clear_tx_irq:
 752              	.LFB248:
 753              		.loc 1 289 0
 754              		.cfi_startproc
 755              		@ args = 0, pretend = 0, frame = 8
 756              		@ frame_needed = 0, uses_anonymous_args = 0
 757              	.LVL65:
 758 0000 00B5     		push	{lr}
 759              		.cfi_def_cfa_offset 4
 760              		.cfi_offset 14, -4
 761 0002 83B0     		sub	sp, sp, #12
 762              		.cfi_def_cfa_offset 16
 763 0004 02A9     		add	r1, sp, #8
 764 0006 2023     		movs	r3, #32
 765 0008 01F8013D 		strb	r3, [r1, #-1]!
 766              	.LVL66:
 767              	.LBB82:
 768              	.LBB83:
 769              		.loc 1 333 0
 770 000c 0122     		movs	r2, #1
 771 000e 0720     		movs	r0, #7
 772 0010 FFF7FEFF 		bl	rf_write_reg
 773              	.LVL67:
 774              	.LBE83:
 775              	.LBE82:
 776              		.loc 1 291 0
 777 0014 03B0     		add	sp, sp, #12
 778              		.cfi_def_cfa_offset 4
 779              		@ sp needed
 780 0016 5DF804FB 		ldr	pc, [sp], #4
 781              		.cfi_endproc
 782              	.LFE248:
 783              		.size	rf_clear_tx_irq, .-rf_clear_tx_irq
 784 001a 00BF     		.section	.text.rf_clear_maxrt_irq,"ax",%progbits
 785              		.align	2
 786              		.p2align 4,,15
 787              		.global	rf_clear_maxrt_irq
 788              		.thumb
 789              		.thumb_func
 790              		.type	rf_clear_maxrt_irq, %function
 791              	rf_clear_maxrt_irq:
 792              	.LFB249:
 793              		.loc 1 293 0
 794              		.cfi_startproc
 795              		@ args = 0, pretend = 0, frame = 8
 796              		@ frame_needed = 0, uses_anonymous_args = 0
 797              	.LVL68:
 798 0000 00B5     		push	{lr}
ARM GAS  C:\Users\euanm\AppData\Local\Temp\cclZ30xz.s 			page 15


 799              		.cfi_def_cfa_offset 4
 800              		.cfi_offset 14, -4
 801 0002 83B0     		sub	sp, sp, #12
 802              		.cfi_def_cfa_offset 16
 803 0004 02A9     		add	r1, sp, #8
 804 0006 1023     		movs	r3, #16
 805 0008 01F8013D 		strb	r3, [r1, #-1]!
 806              	.LVL69:
 807              	.LBB84:
 808              	.LBB85:
 809              		.loc 1 333 0
 810 000c 0122     		movs	r2, #1
 811 000e 0720     		movs	r0, #7
 812 0010 FFF7FEFF 		bl	rf_write_reg
 813              	.LVL70:
 814              	.LBE85:
 815              	.LBE84:
 816              		.loc 1 295 0
 817 0014 03B0     		add	sp, sp, #12
 818              		.cfi_def_cfa_offset 4
 819              		@ sp needed
 820 0016 5DF804FB 		ldr	pc, [sp], #4
 821              		.cfi_endproc
 822              	.LFE249:
 823              		.size	rf_clear_maxrt_irq, .-rf_clear_maxrt_irq
 824 001a 00BF     		.section	.text.rf_write_reg_byte,"ax",%progbits
 825              		.align	2
 826              		.p2align 4,,15
 827              		.global	rf_write_reg_byte
 828              		.thumb
 829              		.thumb_func
 830              		.type	rf_write_reg_byte, %function
 831              	rf_write_reg_byte:
 832              	.LFB255:
 833              		.loc 1 332 0
 834              		.cfi_startproc
 835              		@ args = 0, pretend = 0, frame = 8
 836              		@ frame_needed = 0, uses_anonymous_args = 0
 837              	.LVL71:
 838 0000 00B5     		push	{lr}
 839              		.cfi_def_cfa_offset 4
 840              		.cfi_offset 14, -4
 841 0002 83B0     		sub	sp, sp, #12
 842              		.cfi_def_cfa_offset 16
 843              		.loc 1 332 0
 844 0004 02AB     		add	r3, sp, #8
 845              		.loc 1 333 0
 846 0006 0122     		movs	r2, #1
 847              		.loc 1 332 0
 848 0008 03F8011D 		strb	r1, [r3, #-1]!
 849              		.loc 1 333 0
 850 000c 1946     		mov	r1, r3
 851              	.LVL72:
 852 000e FFF7FEFF 		bl	rf_write_reg
 853              	.LVL73:
 854              		.loc 1 334 0
 855 0012 03B0     		add	sp, sp, #12
ARM GAS  C:\Users\euanm\AppData\Local\Temp\cclZ30xz.s 			page 16


 856              		.cfi_def_cfa_offset 4
 857              		@ sp needed
 858 0014 5DF804FB 		ldr	pc, [sp], #4
 859              		.cfi_endproc
 860              	.LFE255:
 861              		.size	rf_write_reg_byte, .-rf_write_reg_byte
 862              		.section	.text.rf_read_reg,"ax",%progbits
 863              		.align	2
 864              		.p2align 4,,15
 865              		.global	rf_read_reg
 866              		.thumb
 867              		.thumb_func
 868              		.type	rf_read_reg, %function
 869              	rf_read_reg:
 870              	.LFB256:
 871              		.loc 1 336 0
 872              		.cfi_startproc
 873              		@ args = 0, pretend = 0, frame = 8
 874              		@ frame_needed = 0, uses_anonymous_args = 0
 875              	.LVL74:
 876 0000 70B5     		push	{r4, r5, r6, lr}
 877              		.cfi_def_cfa_offset 16
 878              		.cfi_offset 4, -16
 879              		.cfi_offset 5, -12
 880              		.cfi_offset 6, -8
 881              		.cfi_offset 14, -4
 882 0002 82B0     		sub	sp, sp, #8
 883              		.cfi_def_cfa_offset 24
 884              		.loc 1 337 0
 885 0004 02AC     		add	r4, sp, #8
 886              		.loc 1 336 0
 887 0006 0D46     		mov	r5, r1
 888              		.loc 1 337 0
 889 0008 04F8010D 		strb	r0, [r4, #-1]!
 890              		.loc 1 336 0
 891 000c 1646     		mov	r6, r2
 892              		.loc 1 339 0
 893 000e FFF7FEFF 		bl	spi_sw_begin
 894              	.LVL75:
 895              		.loc 1 340 0
 896 0012 2146     		mov	r1, r4
 897 0014 0122     		movs	r2, #1
 898 0016 0020     		movs	r0, #0
 899 0018 FFF7FEFF 		bl	spi_sw_transfer
 900              	.LVL76:
 901              		.loc 1 341 0
 902 001c 3246     		mov	r2, r6
 903 001e 2846     		mov	r0, r5
 904 0020 0021     		movs	r1, #0
 905 0022 FFF7FEFF 		bl	spi_sw_transfer
 906              	.LVL77:
 907              		.loc 1 342 0
 908 0026 FFF7FEFF 		bl	spi_sw_end
 909              	.LVL78:
 910              		.loc 1 343 0
 911 002a 02B0     		add	sp, sp, #8
 912              		.cfi_def_cfa_offset 16
ARM GAS  C:\Users\euanm\AppData\Local\Temp\cclZ30xz.s 			page 17


 913              		@ sp needed
 914 002c 70BD     		pop	{r4, r5, r6, pc}
 915              		.cfi_endproc
 916              	.LFE256:
 917              		.size	rf_read_reg, .-rf_read_reg
 918 002e 00BF     		.section	.text.rf_set_speed,"ax",%progbits
 919              		.align	2
 920              		.p2align 4,,15
 921              		.global	rf_set_speed
 922              		.thumb
 923              		.thumb_func
 924              		.type	rf_set_speed, %function
 925              	rf_set_speed:
 926              	.LFB220:
 927              		.loc 1 27 0
 928              		.cfi_startproc
 929              		@ args = 0, pretend = 0, frame = 8
 930              		@ frame_needed = 0, uses_anonymous_args = 0
 931              	.LVL79:
 932 0000 10B5     		push	{r4, lr}
 933              		.cfi_def_cfa_offset 8
 934              		.cfi_offset 4, -8
 935              		.cfi_offset 14, -4
 936 0002 82B0     		sub	sp, sp, #8
 937              		.cfi_def_cfa_offset 16
 938              	.LBB86:
 939              	.LBB87:
 940              		.loc 1 347 0
 941 0004 0122     		movs	r2, #1
 942              	.LBE87:
 943              	.LBE86:
 944              		.loc 1 27 0
 945 0006 0446     		mov	r4, r0
 946              	.LBB89:
 947              	.LBB88:
 948              		.loc 1 347 0
 949 0008 0DF10701 		add	r1, sp, #7
 950 000c 0620     		movs	r0, #6
 951              	.LVL80:
 952 000e FFF7FEFF 		bl	rf_read_reg
 953              	.LVL81:
 954              		.loc 1 348 0
 955 0012 9DF80720 		ldrb	r2, [sp, #7]	@ zero_extendqisi2
 956              	.LVL82:
 957              	.LBE88:
 958              	.LBE89:
 959              		.loc 1 31 0
 960 0016 02F0D703 		and	r3, r2, #215
 961              	.LVL83:
 962              		.loc 1 33 0
 963 001a 84B1     		cbz	r4, .L42
 964 001c 022C     		cmp	r4, #2
 965 001e 0BD0     		beq	.L43
 966              	.L41:
 967              		.loc 1 49 0
 968 0020 9342     		cmp	r3, r2
 969 0022 07D0     		beq	.L40
ARM GAS  C:\Users\euanm\AppData\Local\Temp\cclZ30xz.s 			page 18


 970              	.LVL84:
 971              	.LBB90:
 972              	.LBB91:
 973              		.loc 1 333 0
 974 0024 0DF10701 		add	r1, sp, #7
 975 0028 0122     		movs	r2, #1
 976 002a 0620     		movs	r0, #6
 977 002c 8DF80730 		strb	r3, [sp, #7]
 978              	.LVL85:
 979 0030 FFF7FEFF 		bl	rf_write_reg
 980              	.LVL86:
 981              	.L40:
 982              	.LBE91:
 983              	.LBE90:
 984              		.loc 1 52 0
 985 0034 02B0     		add	sp, sp, #8
 986              		.cfi_remember_state
 987              		.cfi_def_cfa_offset 8
 988              		@ sp needed
 989 0036 10BD     		pop	{r4, pc}
 990              	.LVL87:
 991              	.L43:
 992              		.cfi_restore_state
 993              		.loc 1 42 0
 994 0038 43F00803 		orr	r3, r3, #8
 995              	.LVL88:
 996              		.loc 1 43 0
 997 003c F0E7     		b	.L41
 998              	.L42:
 999              		.loc 1 35 0
 1000 003e 43F02003 		orr	r3, r3, #32
 1001              	.LVL89:
 1002              		.loc 1 36 0
 1003 0042 EDE7     		b	.L41
 1004              		.cfi_endproc
 1005              	.LFE220:
 1006              		.size	rf_set_speed, .-rf_set_speed
 1007              		.section	.text.rf_set_power,"ax",%progbits
 1008              		.align	2
 1009              		.p2align 4,,15
 1010              		.global	rf_set_power
 1011              		.thumb
 1012              		.thumb_func
 1013              		.type	rf_set_power, %function
 1014              	rf_set_power:
 1015              	.LFB221:
 1016              		.loc 1 54 0
 1017              		.cfi_startproc
 1018              		@ args = 0, pretend = 0, frame = 8
 1019              		@ frame_needed = 0, uses_anonymous_args = 0
 1020              	.LVL90:
 1021 0000 10B5     		push	{r4, lr}
 1022              		.cfi_def_cfa_offset 8
 1023              		.cfi_offset 4, -8
 1024              		.cfi_offset 14, -4
 1025 0002 82B0     		sub	sp, sp, #8
 1026              		.cfi_def_cfa_offset 16
ARM GAS  C:\Users\euanm\AppData\Local\Temp\cclZ30xz.s 			page 19


 1027              		.loc 1 54 0
 1028 0004 0446     		mov	r4, r0
 1029              	.LBB92:
 1030              	.LBB93:
 1031              		.loc 1 347 0
 1032 0006 0122     		movs	r2, #1
 1033 0008 0DF10701 		add	r1, sp, #7
 1034 000c 0620     		movs	r0, #6
 1035              	.LVL91:
 1036 000e FFF7FEFF 		bl	rf_read_reg
 1037              	.LVL92:
 1038              		.loc 1 348 0
 1039 0012 9DF80720 		ldrb	r2, [sp, #7]	@ zero_extendqisi2
 1040              	.LVL93:
 1041              	.LBE93:
 1042              	.LBE92:
 1043              		.loc 1 59 0
 1044 0016 22F00703 		bic	r3, r2, #7
 1045 001a 43EA4403 		orr	r3, r3, r4, lsl #1
 1046 001e 03F0FE03 		and	r3, r3, #254
 1047              	.LVL94:
 1048              		.loc 1 63 0
 1049 0022 032C     		cmp	r4, #3
 1050              		.loc 1 64 0
 1051 0024 08BF     		it	eq
 1052 0026 43F00103 		orreq	r3, r3, #1
 1053              	.LVL95:
 1054              		.loc 1 67 0
 1055 002a 9342     		cmp	r3, r2
 1056 002c 07D0     		beq	.L47
 1057              	.LVL96:
 1058              	.LBB94:
 1059              	.LBB95:
 1060              		.loc 1 333 0
 1061 002e 0DF10701 		add	r1, sp, #7
 1062 0032 0122     		movs	r2, #1
 1063 0034 0620     		movs	r0, #6
 1064 0036 8DF80730 		strb	r3, [sp, #7]
 1065              	.LVL97:
 1066 003a FFF7FEFF 		bl	rf_write_reg
 1067              	.LVL98:
 1068              	.L47:
 1069              	.LBE95:
 1070              	.LBE94:
 1071              		.loc 1 70 0
 1072 003e 02B0     		add	sp, sp, #8
 1073              		.cfi_def_cfa_offset 8
 1074              		@ sp needed
 1075 0040 10BD     		pop	{r4, pc}
 1076              		.cfi_endproc
 1077              	.LFE221:
 1078              		.size	rf_set_power, .-rf_set_power
 1079 0042 00BF     		.section	.text.rf_set_crc_type,"ax",%progbits
 1080              		.align	2
 1081              		.p2align 4,,15
 1082              		.global	rf_set_crc_type
 1083              		.thumb
ARM GAS  C:\Users\euanm\AppData\Local\Temp\cclZ30xz.s 			page 20


 1084              		.thumb_func
 1085              		.type	rf_set_crc_type, %function
 1086              	rf_set_crc_type:
 1087              	.LFB223:
 1088              		.loc 1 76 0
 1089              		.cfi_startproc
 1090              		@ args = 0, pretend = 0, frame = 8
 1091              		@ frame_needed = 0, uses_anonymous_args = 0
 1092              	.LVL99:
 1093 0000 10B5     		push	{r4, lr}
 1094              		.cfi_def_cfa_offset 8
 1095              		.cfi_offset 4, -8
 1096              		.cfi_offset 14, -4
 1097 0002 82B0     		sub	sp, sp, #8
 1098              		.cfi_def_cfa_offset 16
 1099              		.loc 1 76 0
 1100 0004 0446     		mov	r4, r0
 1101              	.LBB96:
 1102              	.LBB97:
 1103              		.loc 1 347 0
 1104 0006 0122     		movs	r2, #1
 1105 0008 0DF10701 		add	r1, sp, #7
 1106 000c 0020     		movs	r0, #0
 1107              	.LVL100:
 1108 000e FFF7FEFF 		bl	rf_read_reg
 1109              	.LVL101:
 1110              		.loc 1 348 0
 1111 0012 9DF80720 		ldrb	r2, [sp, #7]	@ zero_extendqisi2
 1112              	.LVL102:
 1113              	.LBE97:
 1114              	.LBE96:
 1115              		.loc 1 82 0
 1116 0016 012C     		cmp	r4, #1
 1117              		.loc 1 80 0
 1118 0018 02F0F303 		and	r3, r2, #243
 1119              	.LVL103:
 1120              		.loc 1 82 0
 1121 001c 10D0     		beq	.L53
 1122 001e 022C     		cmp	r4, #2
 1123 0020 0BD0     		beq	.L54
 1124              	.L52:
 1125              		.loc 1 98 0
 1126 0022 9342     		cmp	r3, r2
 1127 0024 07D0     		beq	.L51
 1128              	.LVL104:
 1129              	.LBB98:
 1130              	.LBB99:
 1131              		.loc 1 333 0
 1132 0026 0DF10701 		add	r1, sp, #7
 1133 002a 0122     		movs	r2, #1
 1134 002c 0020     		movs	r0, #0
 1135 002e 8DF80730 		strb	r3, [sp, #7]
 1136              	.LVL105:
 1137 0032 FFF7FEFF 		bl	rf_write_reg
 1138              	.LVL106:
 1139              	.L51:
 1140              	.LBE99:
ARM GAS  C:\Users\euanm\AppData\Local\Temp\cclZ30xz.s 			page 21


 1141              	.LBE98:
 1142              		.loc 1 101 0
 1143 0036 02B0     		add	sp, sp, #8
 1144              		.cfi_remember_state
 1145              		.cfi_def_cfa_offset 8
 1146              		@ sp needed
 1147 0038 10BD     		pop	{r4, pc}
 1148              	.LVL107:
 1149              	.L54:
 1150              		.cfi_restore_state
 1151              		.loc 1 91 0
 1152 003a 43F00C03 		orr	r3, r3, #12
 1153              	.LVL108:
 1154              		.loc 1 92 0
 1155 003e F0E7     		b	.L52
 1156              	.L53:
 1157              		.loc 1 87 0
 1158 0040 43F00803 		orr	r3, r3, #8
 1159              	.LVL109:
 1160              		.loc 1 88 0
 1161 0044 EDE7     		b	.L52
 1162              		.cfi_endproc
 1163              	.LFE223:
 1164              		.size	rf_set_crc_type, .-rf_set_crc_type
 1165 0046 00BF     		.section	.text.rf_set_retr_retries,"ax",%progbits
 1166              		.align	2
 1167              		.p2align 4,,15
 1168              		.global	rf_set_retr_retries
 1169              		.thumb
 1170              		.thumb_func
 1171              		.type	rf_set_retr_retries, %function
 1172              	rf_set_retr_retries:
 1173              	.LFB224:
 1174              		.loc 1 103 0
 1175              		.cfi_startproc
 1176              		@ args = 0, pretend = 0, frame = 8
 1177              		@ frame_needed = 0, uses_anonymous_args = 0
 1178              	.LVL110:
 1179 0000 10B5     		push	{r4, lr}
 1180              		.cfi_def_cfa_offset 8
 1181              		.cfi_offset 4, -8
 1182              		.cfi_offset 14, -4
 1183 0002 82B0     		sub	sp, sp, #8
 1184              		.cfi_def_cfa_offset 16
 1185              		.loc 1 103 0
 1186 0004 0446     		mov	r4, r0
 1187              	.LBB100:
 1188              	.LBB101:
 1189              		.loc 1 347 0
 1190 0006 0122     		movs	r2, #1
 1191 0008 0DF10701 		add	r1, sp, #7
 1192 000c 0420     		movs	r0, #4
 1193              	.LVL111:
 1194 000e FFF7FEFF 		bl	rf_read_reg
 1195              	.LVL112:
 1196              		.loc 1 348 0
 1197 0012 9DF80720 		ldrb	r2, [sp, #7]	@ zero_extendqisi2
ARM GAS  C:\Users\euanm\AppData\Local\Temp\cclZ30xz.s 			page 22


 1198              	.LVL113:
 1199              	.LBE101:
 1200              	.LBE100:
 1201              		.loc 1 108 0
 1202 0016 04F00F04 		and	r4, r4, #15
 1203              	.LVL114:
 1204 001a 22F00F03 		bic	r3, r2, #15
 1205 001e 2343     		orrs	r3, r3, r4
 1206              	.LVL115:
 1207              		.loc 1 110 0
 1208 0020 9342     		cmp	r3, r2
 1209 0022 07D0     		beq	.L57
 1210              	.LVL116:
 1211              	.LBB102:
 1212              	.LBB103:
 1213              		.loc 1 333 0
 1214 0024 0DF10701 		add	r1, sp, #7
 1215 0028 0122     		movs	r2, #1
 1216 002a 0420     		movs	r0, #4
 1217 002c 8DF80730 		strb	r3, [sp, #7]
 1218              	.LVL117:
 1219 0030 FFF7FEFF 		bl	rf_write_reg
 1220              	.LVL118:
 1221              	.L57:
 1222              	.LBE103:
 1223              	.LBE102:
 1224              		.loc 1 113 0
 1225 0034 02B0     		add	sp, sp, #8
 1226              		.cfi_def_cfa_offset 8
 1227              		@ sp needed
 1228 0036 10BD     		pop	{r4, pc}
 1229              		.cfi_endproc
 1230              	.LFE224:
 1231              		.size	rf_set_retr_retries, .-rf_set_retr_retries
 1232              		.section	.text.rf_set_retr_delay,"ax",%progbits
 1233              		.align	2
 1234              		.p2align 4,,15
 1235              		.global	rf_set_retr_delay
 1236              		.thumb
 1237              		.thumb_func
 1238              		.type	rf_set_retr_delay, %function
 1239              	rf_set_retr_delay:
 1240              	.LFB225:
 1241              		.loc 1 115 0
 1242              		.cfi_startproc
 1243              		@ args = 0, pretend = 0, frame = 8
 1244              		@ frame_needed = 0, uses_anonymous_args = 0
 1245              	.LVL119:
 1246 0000 10B5     		push	{r4, lr}
 1247              		.cfi_def_cfa_offset 8
 1248              		.cfi_offset 4, -8
 1249              		.cfi_offset 14, -4
 1250 0002 82B0     		sub	sp, sp, #8
 1251              		.cfi_def_cfa_offset 16
 1252              		.loc 1 115 0
 1253 0004 0446     		mov	r4, r0
 1254              	.LBB104:
ARM GAS  C:\Users\euanm\AppData\Local\Temp\cclZ30xz.s 			page 23


 1255              	.LBB105:
 1256              		.loc 1 347 0
 1257 0006 0122     		movs	r2, #1
 1258 0008 0DF10701 		add	r1, sp, #7
 1259 000c 0420     		movs	r0, #4
 1260              	.LVL120:
 1261 000e FFF7FEFF 		bl	rf_read_reg
 1262              	.LVL121:
 1263              		.loc 1 348 0
 1264 0012 9DF80720 		ldrb	r2, [sp, #7]	@ zero_extendqisi2
 1265              	.LVL122:
 1266              	.LBE105:
 1267              	.LBE104:
 1268              		.loc 1 120 0
 1269 0016 02F00F03 		and	r3, r2, #15
 1270 001a 43EA0413 		orr	r3, r3, r4, lsl #4
 1271 001e DBB2     		uxtb	r3, r3
 1272              	.LVL123:
 1273              		.loc 1 122 0
 1274 0020 9342     		cmp	r3, r2
 1275 0022 07D0     		beq	.L60
 1276              	.LVL124:
 1277              	.LBB106:
 1278              	.LBB107:
 1279              		.loc 1 333 0
 1280 0024 0DF10701 		add	r1, sp, #7
 1281 0028 0122     		movs	r2, #1
 1282 002a 0420     		movs	r0, #4
 1283 002c 8DF80730 		strb	r3, [sp, #7]
 1284              	.LVL125:
 1285 0030 FFF7FEFF 		bl	rf_write_reg
 1286              	.LVL126:
 1287              	.L60:
 1288              	.LBE107:
 1289              	.LBE106:
 1290              		.loc 1 125 0
 1291 0034 02B0     		add	sp, sp, #8
 1292              		.cfi_def_cfa_offset 8
 1293              		@ sp needed
 1294 0036 10BD     		pop	{r4, pc}
 1295              		.cfi_endproc
 1296              	.LFE225:
 1297              		.size	rf_set_retr_delay, .-rf_set_retr_delay
 1298              		.section	.text.rf_get_frequency,"ax",%progbits
 1299              		.align	2
 1300              		.p2align 4,,15
 1301              		.global	rf_get_frequency
 1302              		.thumb
 1303              		.thumb_func
 1304              		.type	rf_get_frequency, %function
 1305              	rf_get_frequency:
 1306              	.LFB233:
 1307              		.loc 1 181 0
 1308              		.cfi_startproc
 1309              		@ args = 0, pretend = 0, frame = 8
 1310              		@ frame_needed = 0, uses_anonymous_args = 0
 1311              	.LVL127:
ARM GAS  C:\Users\euanm\AppData\Local\Temp\cclZ30xz.s 			page 24


 1312 0000 00B5     		push	{lr}
 1313              		.cfi_def_cfa_offset 4
 1314              		.cfi_offset 14, -4
 1315 0002 83B0     		sub	sp, sp, #12
 1316              		.cfi_def_cfa_offset 16
 1317              	.LBB108:
 1318              	.LBB109:
 1319              		.loc 1 347 0
 1320 0004 0122     		movs	r2, #1
 1321 0006 0DF10701 		add	r1, sp, #7
 1322 000a 0520     		movs	r0, #5
 1323 000c FFF7FEFF 		bl	rf_read_reg
 1324              	.LVL128:
 1325              		.loc 1 348 0
 1326 0010 9DF80700 		ldrb	r0, [sp, #7]	@ zero_extendqisi2
 1327              	.LVL129:
 1328              	.LBE109:
 1329              	.LBE108:
 1330              		.loc 1 184 0
 1331 0014 00F51660 		add	r0, r0, #2400
 1332 0018 03B0     		add	sp, sp, #12
 1333              		.cfi_def_cfa_offset 4
 1334              		@ sp needed
 1335 001a 5DF804FB 		ldr	pc, [sp], #4
 1336              		.cfi_endproc
 1337              	.LFE233:
 1338              		.size	rf_get_frequency, .-rf_get_frequency
 1339 001e 00BF     		.section	.text.rf_get_address_width,"ax",%progbits
 1340              		.align	2
 1341              		.p2align 4,,15
 1342              		.global	rf_get_address_width
 1343              		.thumb
 1344              		.thumb_func
 1345              		.type	rf_get_address_width, %function
 1346              	rf_get_address_width:
 1347              	.LFB234:
 1348              		.loc 1 186 0
 1349              		.cfi_startproc
 1350              		@ args = 0, pretend = 0, frame = 8
 1351              		@ frame_needed = 0, uses_anonymous_args = 0
 1352              	.LVL130:
 1353 0000 00B5     		push	{lr}
 1354              		.cfi_def_cfa_offset 4
 1355              		.cfi_offset 14, -4
 1356 0002 83B0     		sub	sp, sp, #12
 1357              		.cfi_def_cfa_offset 16
 1358              	.LBB110:
 1359              	.LBB111:
 1360              		.loc 1 347 0
 1361 0004 0122     		movs	r2, #1
 1362 0006 0DF10701 		add	r1, sp, #7
 1363 000a 0320     		movs	r0, #3
 1364 000c FFF7FEFF 		bl	rf_read_reg
 1365              	.LVL131:
 1366              		.loc 1 348 0
 1367 0010 9DF80700 		ldrb	r0, [sp, #7]	@ zero_extendqisi2
 1368              	.LVL132:
ARM GAS  C:\Users\euanm\AppData\Local\Temp\cclZ30xz.s 			page 25


 1369              	.LBE111:
 1370              	.LBE110:
 1371              		.loc 1 188 0
 1372 0014 0230     		adds	r0, r0, #2
 1373 0016 03B0     		add	sp, sp, #12
 1374              		.cfi_def_cfa_offset 4
 1375              		@ sp needed
 1376 0018 5DF804FB 		ldr	pc, [sp], #4
 1377              		.cfi_endproc
 1378              	.LFE234:
 1379              		.size	rf_get_address_width, .-rf_get_address_width
 1380              		.section	.text.rf_power_up,"ax",%progbits
 1381              		.align	2
 1382              		.p2align 4,,15
 1383              		.global	rf_power_up
 1384              		.thumb
 1385              		.thumb_func
 1386              		.type	rf_power_up, %function
 1387              	rf_power_up:
 1388              	.LFB235:
 1389              		.loc 1 191 0
 1390              		.cfi_startproc
 1391              		@ args = 0, pretend = 0, frame = 8
 1392              		@ frame_needed = 0, uses_anonymous_args = 0
 1393              	.LVL133:
 1394 0000 00B5     		push	{lr}
 1395              		.cfi_def_cfa_offset 4
 1396              		.cfi_offset 14, -4
 1397 0002 83B0     		sub	sp, sp, #12
 1398              		.cfi_def_cfa_offset 16
 1399              	.LBB112:
 1400              	.LBB113:
 1401              		.loc 1 347 0
 1402 0004 0122     		movs	r2, #1
 1403 0006 0DF10701 		add	r1, sp, #7
 1404 000a 0020     		movs	r0, #0
 1405 000c FFF7FEFF 		bl	rf_read_reg
 1406              	.LVL134:
 1407              		.loc 1 348 0
 1408 0010 9DF80730 		ldrb	r3, [sp, #7]	@ zero_extendqisi2
 1409              	.LVL135:
 1410              	.LBE113:
 1411              	.LBE112:
 1412              		.loc 1 193 0
 1413 0014 03F00202 		and	r2, r3, #2
 1414 0018 52B9     		cbnz	r2, .L67
 1415 001a 02F0FF00 		and	r0, r2, #255
 1416              	.LVL136:
 1417 001e 43F00203 		orr	r3, r3, #2
 1418              	.LVL137:
 1419              	.LBB114:
 1420              	.LBB115:
 1421              		.loc 1 333 0
 1422 0022 0DF10701 		add	r1, sp, #7
 1423              	.LVL138:
 1424 0026 0122     		movs	r2, #1
 1425 0028 8DF80730 		strb	r3, [sp, #7]
ARM GAS  C:\Users\euanm\AppData\Local\Temp\cclZ30xz.s 			page 26


 1426              	.LVL139:
 1427 002c FFF7FEFF 		bl	rf_write_reg
 1428              	.LVL140:
 1429              	.L67:
 1430              	.LBE115:
 1431              	.LBE114:
 1432              		.loc 1 197 0
 1433 0030 03B0     		add	sp, sp, #12
 1434              		.cfi_def_cfa_offset 4
 1435              		@ sp needed
 1436 0032 5DF804FB 		ldr	pc, [sp], #4
 1437              		.cfi_endproc
 1438              	.LFE235:
 1439              		.size	rf_power_up, .-rf_power_up
 1440 0036 00BF     		.section	.text.rf_power_down,"ax",%progbits
 1441              		.align	2
 1442              		.p2align 4,,15
 1443              		.global	rf_power_down
 1444              		.thumb
 1445              		.thumb_func
 1446              		.type	rf_power_down, %function
 1447              	rf_power_down:
 1448              	.LFB236:
 1449              		.loc 1 200 0
 1450              		.cfi_startproc
 1451              		@ args = 0, pretend = 0, frame = 8
 1452              		@ frame_needed = 0, uses_anonymous_args = 0
 1453              	.LVL141:
 1454 0000 00B5     		push	{lr}
 1455              		.cfi_def_cfa_offset 4
 1456              		.cfi_offset 14, -4
 1457 0002 83B0     		sub	sp, sp, #12
 1458              		.cfi_def_cfa_offset 16
 1459              	.LBB116:
 1460              	.LBB117:
 1461              		.loc 1 347 0
 1462 0004 0122     		movs	r2, #1
 1463 0006 0DF10701 		add	r1, sp, #7
 1464 000a 0020     		movs	r0, #0
 1465 000c FFF7FEFF 		bl	rf_read_reg
 1466              	.LVL142:
 1467              		.loc 1 348 0
 1468 0010 9DF80730 		ldrb	r3, [sp, #7]	@ zero_extendqisi2
 1469              	.LVL143:
 1470              	.LBE117:
 1471              	.LBE116:
 1472              		.loc 1 202 0
 1473 0014 9A07     		lsls	r2, r3, #30
 1474 0016 09D5     		bpl	.L70
 1475              	.LVL144:
 1476 0018 23F00203 		bic	r3, r3, #2
 1477              	.LVL145:
 1478              	.LBB118:
 1479              	.LBB119:
 1480              		.loc 1 333 0
 1481 001c 0DF10701 		add	r1, sp, #7
 1482 0020 0122     		movs	r2, #1
ARM GAS  C:\Users\euanm\AppData\Local\Temp\cclZ30xz.s 			page 27


 1483 0022 0020     		movs	r0, #0
 1484 0024 8DF80730 		strb	r3, [sp, #7]
 1485              	.LVL146:
 1486 0028 FFF7FEFF 		bl	rf_write_reg
 1487              	.LVL147:
 1488              	.L70:
 1489              	.LBE119:
 1490              	.LBE118:
 1491              		.loc 1 206 0
 1492 002c 03B0     		add	sp, sp, #12
 1493              		.cfi_def_cfa_offset 4
 1494              		@ sp needed
 1495 002e 5DF804FB 		ldr	pc, [sp], #4
 1496              		.cfi_endproc
 1497              	.LFE236:
 1498              		.size	rf_power_down, .-rf_power_down
 1499 0032 00BF     		.section	.text.rf_mode_tx,"ax",%progbits
 1500              		.align	2
 1501              		.p2align 4,,15
 1502              		.global	rf_mode_tx
 1503              		.thumb
 1504              		.thumb_func
 1505              		.type	rf_mode_tx, %function
 1506              	rf_mode_tx:
 1507              	.LFB237:
 1508              		.loc 1 209 0
 1509              		.cfi_startproc
 1510              		@ args = 0, pretend = 0, frame = 8
 1511              		@ frame_needed = 0, uses_anonymous_args = 0
 1512              	.LVL148:
 1513 0000 00B5     		push	{lr}
 1514              		.cfi_def_cfa_offset 4
 1515              		.cfi_offset 14, -4
 1516 0002 83B0     		sub	sp, sp, #12
 1517              		.cfi_def_cfa_offset 16
 1518              	.LBB120:
 1519              	.LBB121:
 1520              		.loc 1 347 0
 1521 0004 0122     		movs	r2, #1
 1522 0006 0DF10701 		add	r1, sp, #7
 1523 000a 0020     		movs	r0, #0
 1524 000c FFF7FEFF 		bl	rf_read_reg
 1525              	.LVL149:
 1526              		.loc 1 348 0
 1527 0010 9DF80730 		ldrb	r3, [sp, #7]	@ zero_extendqisi2
 1528              	.LVL150:
 1529              	.LBE121:
 1530              	.LBE120:
 1531              		.loc 1 211 0
 1532 0014 DA07     		lsls	r2, r3, #31
 1533 0016 09D5     		bpl	.L76
 1534              	.LVL151:
 1535 0018 23F00103 		bic	r3, r3, #1
 1536              	.LVL152:
 1537              	.LBB122:
 1538              	.LBB123:
 1539              		.loc 1 333 0
ARM GAS  C:\Users\euanm\AppData\Local\Temp\cclZ30xz.s 			page 28


 1540 001c 0DF10701 		add	r1, sp, #7
 1541 0020 0122     		movs	r2, #1
 1542 0022 0020     		movs	r0, #0
 1543 0024 8DF80730 		strb	r3, [sp, #7]
 1544              	.LVL153:
 1545 0028 FFF7FEFF 		bl	rf_write_reg
 1546              	.LVL154:
 1547              	.L76:
 1548              	.LBE123:
 1549              	.LBE122:
 1550              		.loc 1 215 0
 1551 002c 03B0     		add	sp, sp, #12
 1552              		.cfi_def_cfa_offset 4
 1553              		@ sp needed
 1554 002e 5DF804FB 		ldr	pc, [sp], #4
 1555              		.cfi_endproc
 1556              	.LFE237:
 1557              		.size	rf_mode_tx, .-rf_mode_tx
 1558 0032 00BF     		.section	.text.rf_mode_rx,"ax",%progbits
 1559              		.align	2
 1560              		.p2align 4,,15
 1561              		.global	rf_mode_rx
 1562              		.thumb
 1563              		.thumb_func
 1564              		.type	rf_mode_rx, %function
 1565              	rf_mode_rx:
 1566              	.LFB238:
 1567              		.loc 1 218 0
 1568              		.cfi_startproc
 1569              		@ args = 0, pretend = 0, frame = 8
 1570              		@ frame_needed = 0, uses_anonymous_args = 0
 1571              	.LVL155:
 1572 0000 00B5     		push	{lr}
 1573              		.cfi_def_cfa_offset 4
 1574              		.cfi_offset 14, -4
 1575 0002 83B0     		sub	sp, sp, #12
 1576              		.cfi_def_cfa_offset 16
 1577              	.LBB124:
 1578              	.LBB125:
 1579              		.loc 1 347 0
 1580 0004 0020     		movs	r0, #0
 1581 0006 0DF10701 		add	r1, sp, #7
 1582 000a 0122     		movs	r2, #1
 1583 000c FFF7FEFF 		bl	rf_read_reg
 1584              	.LVL156:
 1585              		.loc 1 348 0
 1586 0010 9DF80730 		ldrb	r3, [sp, #7]	@ zero_extendqisi2
 1587              	.LVL157:
 1588              	.LBE125:
 1589              	.LBE124:
 1590              		.loc 1 220 0
 1591 0014 13F00100 		ands	r0, r3, #1
 1592 0018 08D1     		bne	.L82
 1593              	.LVL158:
 1594 001a 43F00103 		orr	r3, r3, #1
 1595              	.LVL159:
 1596              	.LBB126:
ARM GAS  C:\Users\euanm\AppData\Local\Temp\cclZ30xz.s 			page 29


 1597              	.LBB127:
 1598              		.loc 1 333 0
 1599 001e 0DF10701 		add	r1, sp, #7
 1600              	.LVL160:
 1601 0022 0122     		movs	r2, #1
 1602 0024 8DF80730 		strb	r3, [sp, #7]
 1603              	.LVL161:
 1604 0028 FFF7FEFF 		bl	rf_write_reg
 1605              	.LVL162:
 1606              	.L82:
 1607              	.LBE127:
 1608              	.LBE126:
 1609              		.loc 1 224 0
 1610 002c 03B0     		add	sp, sp, #12
 1611              		.cfi_def_cfa_offset 4
 1612              		@ sp needed
 1613 002e 5DF804FB 		ldr	pc, [sp], #4
 1614              		.cfi_endproc
 1615              	.LFE238:
 1616              		.size	rf_mode_rx, .-rf_mode_rx
 1617 0032 00BF     		.section	.text.rf_enable_pipe_autoack,"ax",%progbits
 1618              		.align	2
 1619              		.p2align 4,,15
 1620              		.global	rf_enable_pipe_autoack
 1621              		.thumb
 1622              		.thumb_func
 1623              		.type	rf_enable_pipe_autoack, %function
 1624              	rf_enable_pipe_autoack:
 1625              	.LFB239:
 1626              		.loc 1 227 0
 1627              		.cfi_startproc
 1628              		@ args = 0, pretend = 0, frame = 8
 1629              		@ frame_needed = 0, uses_anonymous_args = 0
 1630              	.LVL163:
 1631 0000 10B5     		push	{r4, lr}
 1632              		.cfi_def_cfa_offset 8
 1633              		.cfi_offset 4, -8
 1634              		.cfi_offset 14, -4
 1635              	.LBB128:
 1636              	.LBB129:
 1637              		.loc 1 347 0
 1638 0002 0122     		movs	r2, #1
 1639              	.LBE129:
 1640              	.LBE128:
 1641              		.loc 1 227 0
 1642 0004 82B0     		sub	sp, sp, #8
 1643              		.cfi_def_cfa_offset 16
 1644              		.loc 1 227 0
 1645 0006 0446     		mov	r4, r0
 1646              	.LBB131:
 1647              	.LBB130:
 1648              		.loc 1 347 0
 1649 0008 0DF10701 		add	r1, sp, #7
 1650 000c 1046     		mov	r0, r2
 1651              	.LVL164:
 1652 000e FFF7FEFF 		bl	rf_read_reg
 1653              	.LVL165:
ARM GAS  C:\Users\euanm\AppData\Local\Temp\cclZ30xz.s 			page 30


 1654              		.loc 1 348 0
 1655 0012 9DF80730 		ldrb	r3, [sp, #7]	@ zero_extendqisi2
 1656              	.LVL166:
 1657              	.LBE130:
 1658              	.LBE131:
 1659              		.loc 1 229 0
 1660 0016 34EA0302 		bics	r2, r4, r3
 1661 001a 08D0     		beq	.L85
 1662              	.LVL167:
 1663              	.LBB132:
 1664              	.LBB133:
 1665              		.loc 1 333 0
 1666 001c 0122     		movs	r2, #1
 1667 001e 1C43     		orrs	r4, r4, r3
 1668              	.LVL168:
 1669 0020 0DF10701 		add	r1, sp, #7
 1670 0024 1046     		mov	r0, r2
 1671 0026 8DF80740 		strb	r4, [sp, #7]
 1672              	.LVL169:
 1673 002a FFF7FEFF 		bl	rf_write_reg
 1674              	.LVL170:
 1675              	.L85:
 1676              	.LBE133:
 1677              	.LBE132:
 1678              		.loc 1 233 0
 1679 002e 02B0     		add	sp, sp, #8
 1680              		.cfi_def_cfa_offset 8
 1681              		@ sp needed
 1682 0030 10BD     		pop	{r4, pc}
 1683              		.cfi_endproc
 1684              	.LFE239:
 1685              		.size	rf_enable_pipe_autoack, .-rf_enable_pipe_autoack
 1686 0032 00BF     		.section	.text.rf_enable_pipe_address,"ax",%progbits
 1687              		.align	2
 1688              		.p2align 4,,15
 1689              		.global	rf_enable_pipe_address
 1690              		.thumb
 1691              		.thumb_func
 1692              		.type	rf_enable_pipe_address, %function
 1693              	rf_enable_pipe_address:
 1694              	.LFB240:
 1695              		.loc 1 236 0
 1696              		.cfi_startproc
 1697              		@ args = 0, pretend = 0, frame = 8
 1698              		@ frame_needed = 0, uses_anonymous_args = 0
 1699              	.LVL171:
 1700 0000 10B5     		push	{r4, lr}
 1701              		.cfi_def_cfa_offset 8
 1702              		.cfi_offset 4, -8
 1703              		.cfi_offset 14, -4
 1704 0002 82B0     		sub	sp, sp, #8
 1705              		.cfi_def_cfa_offset 16
 1706              		.loc 1 236 0
 1707 0004 0446     		mov	r4, r0
 1708              	.LBB134:
 1709              	.LBB135:
 1710              		.loc 1 347 0
ARM GAS  C:\Users\euanm\AppData\Local\Temp\cclZ30xz.s 			page 31


 1711 0006 0122     		movs	r2, #1
 1712 0008 0DF10701 		add	r1, sp, #7
 1713 000c 0220     		movs	r0, #2
 1714              	.LVL172:
 1715 000e FFF7FEFF 		bl	rf_read_reg
 1716              	.LVL173:
 1717              		.loc 1 348 0
 1718 0012 9DF80730 		ldrb	r3, [sp, #7]	@ zero_extendqisi2
 1719              	.LVL174:
 1720              	.LBE135:
 1721              	.LBE134:
 1722              		.loc 1 238 0
 1723 0016 34EA0302 		bics	r2, r4, r3
 1724 001a 08D0     		beq	.L88
 1725              	.LVL175:
 1726 001c 1C43     		orrs	r4, r4, r3
 1727              	.LVL176:
 1728              	.LBB136:
 1729              	.LBB137:
 1730              		.loc 1 333 0
 1731 001e 0DF10701 		add	r1, sp, #7
 1732 0022 0122     		movs	r2, #1
 1733 0024 0220     		movs	r0, #2
 1734 0026 8DF80740 		strb	r4, [sp, #7]
 1735              	.LVL177:
 1736 002a FFF7FEFF 		bl	rf_write_reg
 1737              	.LVL178:
 1738              	.L88:
 1739              	.LBE137:
 1740              	.LBE136:
 1741              		.loc 1 242 0
 1742 002e 02B0     		add	sp, sp, #8
 1743              		.cfi_def_cfa_offset 8
 1744              		@ sp needed
 1745 0030 10BD     		pop	{r4, pc}
 1746              		.cfi_endproc
 1747              	.LFE240:
 1748              		.size	rf_enable_pipe_address, .-rf_enable_pipe_address
 1749 0032 00BF     		.section	.text.rf_enable_pipe_dlp,"ax",%progbits
 1750              		.align	2
 1751              		.p2align 4,,15
 1752              		.global	rf_enable_pipe_dlp
 1753              		.thumb
 1754              		.thumb_func
 1755              		.type	rf_enable_pipe_dlp, %function
 1756              	rf_enable_pipe_dlp:
 1757              	.LFB241:
 1758              		.loc 1 245 0
 1759              		.cfi_startproc
 1760              		@ args = 0, pretend = 0, frame = 8
 1761              		@ frame_needed = 0, uses_anonymous_args = 0
 1762              	.LVL179:
 1763 0000 10B5     		push	{r4, lr}
 1764              		.cfi_def_cfa_offset 8
 1765              		.cfi_offset 4, -8
 1766              		.cfi_offset 14, -4
 1767 0002 82B0     		sub	sp, sp, #8
ARM GAS  C:\Users\euanm\AppData\Local\Temp\cclZ30xz.s 			page 32


 1768              		.cfi_def_cfa_offset 16
 1769              		.loc 1 245 0
 1770 0004 0446     		mov	r4, r0
 1771              	.LBB138:
 1772              	.LBB139:
 1773              		.loc 1 347 0
 1774 0006 0122     		movs	r2, #1
 1775 0008 0DF10701 		add	r1, sp, #7
 1776 000c 1C20     		movs	r0, #28
 1777              	.LVL180:
 1778 000e FFF7FEFF 		bl	rf_read_reg
 1779              	.LVL181:
 1780              		.loc 1 348 0
 1781 0012 9DF80730 		ldrb	r3, [sp, #7]	@ zero_extendqisi2
 1782              	.LVL182:
 1783              	.LBE139:
 1784              	.LBE138:
 1785              		.loc 1 247 0
 1786 0016 34EA0302 		bics	r2, r4, r3
 1787 001a 08D0     		beq	.L91
 1788              	.LVL183:
 1789 001c 1C43     		orrs	r4, r4, r3
 1790              	.LVL184:
 1791              	.LBB140:
 1792              	.LBB141:
 1793              		.loc 1 333 0
 1794 001e 0DF10701 		add	r1, sp, #7
 1795 0022 0122     		movs	r2, #1
 1796 0024 1C20     		movs	r0, #28
 1797 0026 8DF80740 		strb	r4, [sp, #7]
 1798              	.LVL185:
 1799 002a FFF7FEFF 		bl	rf_write_reg
 1800              	.LVL186:
 1801              	.L91:
 1802              	.LBE141:
 1803              	.LBE140:
 1804              		.loc 1 251 0
 1805 002e 02B0     		add	sp, sp, #8
 1806              		.cfi_def_cfa_offset 8
 1807              		@ sp needed
 1808 0030 10BD     		pop	{r4, pc}
 1809              		.cfi_endproc
 1810              	.LFE241:
 1811              		.size	rf_enable_pipe_dlp, .-rf_enable_pipe_dlp
 1812 0032 00BF     		.section	.text.rf_enable_features,"ax",%progbits
 1813              		.align	2
 1814              		.p2align 4,,15
 1815              		.global	rf_enable_features
 1816              		.thumb
 1817              		.thumb_func
 1818              		.type	rf_enable_features, %function
 1819              	rf_enable_features:
 1820              	.LFB242:
 1821              		.loc 1 254 0
 1822              		.cfi_startproc
 1823              		@ args = 0, pretend = 0, frame = 8
 1824              		@ frame_needed = 0, uses_anonymous_args = 0
ARM GAS  C:\Users\euanm\AppData\Local\Temp\cclZ30xz.s 			page 33


 1825              	.LVL187:
 1826 0000 10B5     		push	{r4, lr}
 1827              		.cfi_def_cfa_offset 8
 1828              		.cfi_offset 4, -8
 1829              		.cfi_offset 14, -4
 1830 0002 82B0     		sub	sp, sp, #8
 1831              		.cfi_def_cfa_offset 16
 1832              		.loc 1 254 0
 1833 0004 0446     		mov	r4, r0
 1834              	.LBB142:
 1835              	.LBB143:
 1836              		.loc 1 347 0
 1837 0006 0122     		movs	r2, #1
 1838 0008 0DF10701 		add	r1, sp, #7
 1839 000c 1D20     		movs	r0, #29
 1840              	.LVL188:
 1841 000e FFF7FEFF 		bl	rf_read_reg
 1842              	.LVL189:
 1843              		.loc 1 348 0
 1844 0012 9DF80730 		ldrb	r3, [sp, #7]	@ zero_extendqisi2
 1845              	.LVL190:
 1846              	.LBE143:
 1847              	.LBE142:
 1848              		.loc 1 256 0
 1849 0016 34EA0302 		bics	r2, r4, r3
 1850 001a 08D0     		beq	.L94
 1851              	.LVL191:
 1852 001c 1C43     		orrs	r4, r4, r3
 1853              	.LVL192:
 1854              	.LBB144:
 1855              	.LBB145:
 1856              		.loc 1 333 0
 1857 001e 0DF10701 		add	r1, sp, #7
 1858 0022 0122     		movs	r2, #1
 1859 0024 1D20     		movs	r0, #29
 1860 0026 8DF80740 		strb	r4, [sp, #7]
 1861              	.LVL193:
 1862 002a FFF7FEFF 		bl	rf_write_reg
 1863              	.LVL194:
 1864              	.L94:
 1865              	.LBE145:
 1866              	.LBE144:
 1867              		.loc 1 260 0
 1868 002e 02B0     		add	sp, sp, #8
 1869              		.cfi_def_cfa_offset 8
 1870              		@ sp needed
 1871 0030 10BD     		pop	{r4, pc}
 1872              		.cfi_endproc
 1873              	.LFE242:
 1874              		.size	rf_enable_features, .-rf_enable_features
 1875 0032 00BF     		.section	.text.rf_fifo_status,"ax",%progbits
 1876              		.align	2
 1877              		.p2align 4,,15
 1878              		.global	rf_fifo_status
 1879              		.thumb
 1880              		.thumb_func
 1881              		.type	rf_fifo_status, %function
ARM GAS  C:\Users\euanm\AppData\Local\Temp\cclZ30xz.s 			page 34


 1882              	rf_fifo_status:
 1883              	.LFB252:
 1884              		.loc 1 315 0
 1885              		.cfi_startproc
 1886              		@ args = 0, pretend = 0, frame = 8
 1887              		@ frame_needed = 0, uses_anonymous_args = 0
 1888              	.LVL195:
 1889 0000 00B5     		push	{lr}
 1890              		.cfi_def_cfa_offset 4
 1891              		.cfi_offset 14, -4
 1892 0002 83B0     		sub	sp, sp, #12
 1893              		.cfi_def_cfa_offset 16
 1894              	.LBB146:
 1895              	.LBB147:
 1896              		.loc 1 347 0
 1897 0004 0122     		movs	r2, #1
 1898 0006 0DF10701 		add	r1, sp, #7
 1899 000a 1720     		movs	r0, #23
 1900 000c FFF7FEFF 		bl	rf_read_reg
 1901              	.LVL196:
 1902              	.LBE147:
 1903              	.LBE146:
 1904              		.loc 1 317 0
 1905 0010 9DF80700 		ldrb	r0, [sp, #7]	@ zero_extendqisi2
 1906 0014 03B0     		add	sp, sp, #12
 1907              		.cfi_def_cfa_offset 4
 1908              		@ sp needed
 1909 0016 5DF804FB 		ldr	pc, [sp], #4
 1910              		.cfi_endproc
 1911              	.LFE252:
 1912              		.size	rf_fifo_status, .-rf_fifo_status
 1913 001a 00BF     		.section	.text.rf_rx_power_detect,"ax",%progbits
 1914              		.align	2
 1915              		.p2align 4,,15
 1916              		.global	rf_rx_power_detect
 1917              		.thumb
 1918              		.thumb_func
 1919              		.type	rf_rx_power_detect, %function
 1920              	rf_rx_power_detect:
 1921              	.LFB253:
 1922              		.loc 1 319 0
 1923              		.cfi_startproc
 1924              		@ args = 0, pretend = 0, frame = 8
 1925              		@ frame_needed = 0, uses_anonymous_args = 0
 1926              	.LVL197:
 1927 0000 00B5     		push	{lr}
 1928              		.cfi_def_cfa_offset 4
 1929              		.cfi_offset 14, -4
 1930 0002 83B0     		sub	sp, sp, #12
 1931              		.cfi_def_cfa_offset 16
 1932              	.LBB148:
 1933              	.LBB149:
 1934              		.loc 1 347 0
 1935 0004 0122     		movs	r2, #1
 1936 0006 0DF10701 		add	r1, sp, #7
 1937 000a 0920     		movs	r0, #9
 1938 000c FFF7FEFF 		bl	rf_read_reg
ARM GAS  C:\Users\euanm\AppData\Local\Temp\cclZ30xz.s 			page 35


 1939              	.LVL198:
 1940              		.loc 1 348 0
 1941 0010 9DF80700 		ldrb	r0, [sp, #7]	@ zero_extendqisi2
 1942              	.LVL199:
 1943              	.LBE149:
 1944              	.LBE148:
 1945              		.loc 1 321 0
 1946 0014 4008     		lsrs	r0, r0, #1
 1947 0016 03B0     		add	sp, sp, #12
 1948              		.cfi_def_cfa_offset 4
 1949              		@ sp needed
 1950 0018 5DF804FB 		ldr	pc, [sp], #4
 1951              		.cfi_endproc
 1952              	.LFE253:
 1953              		.size	rf_rx_power_detect, .-rf_rx_power_detect
 1954              		.section	.text.rf_read_reg_byte,"ax",%progbits
 1955              		.align	2
 1956              		.p2align 4,,15
 1957              		.global	rf_read_reg_byte
 1958              		.thumb
 1959              		.thumb_func
 1960              		.type	rf_read_reg_byte, %function
 1961              	rf_read_reg_byte:
 1962              	.LFB257:
 1963              		.loc 1 345 0
 1964              		.cfi_startproc
 1965              		@ args = 0, pretend = 0, frame = 8
 1966              		@ frame_needed = 0, uses_anonymous_args = 0
 1967              	.LVL200:
 1968 0000 00B5     		push	{lr}
 1969              		.cfi_def_cfa_offset 4
 1970              		.cfi_offset 14, -4
 1971 0002 83B0     		sub	sp, sp, #12
 1972              		.cfi_def_cfa_offset 16
 1973              		.loc 1 347 0
 1974 0004 0122     		movs	r2, #1
 1975 0006 0DF10701 		add	r1, sp, #7
 1976 000a FFF7FEFF 		bl	rf_read_reg
 1977              	.LVL201:
 1978              		.loc 1 349 0
 1979 000e 9DF80700 		ldrb	r0, [sp, #7]	@ zero_extendqisi2
 1980 0012 03B0     		add	sp, sp, #12
 1981              		.cfi_def_cfa_offset 4
 1982              		@ sp needed
 1983 0014 5DF804FB 		ldr	pc, [sp], #4
 1984              		.cfi_endproc
 1985              	.LFE257:
 1986              		.size	rf_read_reg_byte, .-rf_read_reg_byte
 1987              		.text
 1988              	.Letext0:
 1989              		.file 2 "c:\\program files (x86)\\gnu tools arm embedded\\5.4 2016q3\\arm-none-eabi\\include\\mach
 1990              		.file 3 "c:\\program files (x86)\\gnu tools arm embedded\\5.4 2016q3\\arm-none-eabi\\include\\sys\
 1991              		.file 4 "ChibiOS_3.0.2/os/rt/ports/ARMCMx/compilers/GCC/chtypes.h"
 1992              		.file 5 "ChibiOS_3.0.2/os/rt/include/chsystypes.h"
 1993              		.file 6 "ChibiOS_3.0.2/os/rt/include/chschd.h"
 1994              		.file 7 "ChibiOS_3.0.2/os/rt/ports/ARMCMx/chcore.h"
 1995              		.file 8 "ChibiOS_3.0.2/os/rt/ports/ARMCMx/chcore_v7m.h"
ARM GAS  C:\Users\euanm\AppData\Local\Temp\cclZ30xz.s 			page 36


 1996              		.file 9 "ChibiOS_3.0.2/os/rt/include/chtm.h"
 1997              		.file 10 "ChibiOS_3.0.2/os/rt/include/chsem.h"
 1998              		.file 11 "ChibiOS_3.0.2/os/rt/include/chmtx.h"
 1999              		.file 12 "./datatypes.h"
 2000              		.file 13 "nrf/spi_sw.h"
 2001              		.file 14 "ChibiOS_3.0.2/os/ext/CMSIS/include/core_cm4.h"