ARM GAS  C:\Users\euanm\AppData\Local\Temp\ccGifpEY.s 			page 1


   1              		.syntax unified
   2              		.cpu cortex-m4
   3              		.eabi_attribute 27, 1
   4              		.eabi_attribute 28, 1
   5              		.fpu fpv4-sp-d16
   6              		.eabi_attribute 20, 1
   7              		.eabi_attribute 21, 1
   8              		.eabi_attribute 23, 3
   9              		.eabi_attribute 24, 1
  10              		.eabi_attribute 25, 1
  11              		.eabi_attribute 26, 1
  12              		.eabi_attribute 30, 2
  13              		.eabi_attribute 34, 1
  14              		.eabi_attribute 18, 4
  15              		.thumb
  16              		.syntax unified
  17              		.file	"terminal.c"
  18              		.text
  19              	.Ltext0:
  20              		.cfi_sections	.debug_frame
  21              		.global	__aeabi_f2d
  22              		.section	.text.terminal_process_string,"ax",%progbits
  23              		.align	2
  24              		.p2align 4,,15
  25              		.global	terminal_process_string
  26              		.thumb
  27              		.thumb_func
  28              		.type	terminal_process_string, %function
  29              	terminal_process_string:
  30              	.LFB257:
  31              		.file 1 "terminal.c"
  32              		.loc 1 48 0
  33              		.cfi_startproc
  34              		@ args = 0, pretend = 0, frame = 440
  35              		@ frame_needed = 0, uses_anonymous_args = 0
  36              	.LVL0:
  37 0000 2DE9F04F 		push	{r4, r5, r6, r7, r8, r9, r10, fp, lr}
  38              		.cfi_def_cfa_offset 36
  39              		.cfi_offset 4, -36
  40              		.cfi_offset 5, -32
  41              		.cfi_offset 6, -28
  42              		.cfi_offset 7, -24
  43              		.cfi_offset 8, -20
  44              		.cfi_offset 9, -16
  45              		.cfi_offset 10, -12
  46              		.cfi_offset 11, -8
  47              		.cfi_offset 14, -4
  48 0004 2DED088B 		vpush.64	{d8, d9, d10, d11}
  49              		.cfi_def_cfa_offset 68
  50              		.cfi_offset 80, -68
  51              		.cfi_offset 81, -64
  52              		.cfi_offset 82, -60
  53              		.cfi_offset 83, -56
  54              		.cfi_offset 84, -52
  55              		.cfi_offset 85, -48
  56              		.cfi_offset 86, -44
  57              		.cfi_offset 87, -40
ARM GAS  C:\Users\euanm\AppData\Local\Temp\ccGifpEY.s 			page 2


  58              		.loc 1 53 0
  59 0008 8249     		ldr	r1, .L153
  60              		.loc 1 48 0
  61 000a ADF5037D 		sub	sp, sp, #524
  62              		.cfi_def_cfa_offset 592
  63              		.loc 1 53 0
  64 000e FFF7FEFF 		bl	strtok
  65              	.LVL1:
  66              		.loc 1 54 0
  67 0012 0028     		cmp	r0, #0
  68 0014 5FD0     		beq	.L128
  69 0016 41AD     		add	r5, sp, #260
  70 0018 0024     		movs	r4, #0
  71 001a 01E0     		b	.L5
  72              	.LVL2:
  73              	.L129:
  74              		.loc 1 54 0 is_stmt 0 discriminator 1
  75 001c 402C     		cmp	r4, #64
  76 001e 08D0     		beq	.L4
  77              	.LVL3:
  78              	.L5:
  79              		.loc 1 55 0 is_stmt 1
  80 0020 45F8040F 		str	r0, [r5, #4]!
  81              		.loc 1 56 0
  82 0024 7B49     		ldr	r1, .L153
  83 0026 0020     		movs	r0, #0
  84              	.LVL4:
  85 0028 FFF7FEFF 		bl	strtok
  86              	.LVL5:
  87              		.loc 1 55 0
  88 002c 0134     		adds	r4, r4, #1
  89              	.LVL6:
  90              		.loc 1 54 0
  91 002e 0028     		cmp	r0, #0
  92 0030 F4D1     		bne	.L129
  93              	.L4:
  94              		.loc 1 66 0
  95 0032 FFF7FEFF 		bl	mc_interface_get_configuration
  96              	.LVL7:
  97 0036 4FF4A072 		mov	r2, #320
  98 003a 0146     		mov	r1, r0
  99 003c 7648     		ldr	r0, .L153+4
 100 003e FFF7FEFF 		bl	memcpy
 101              	.LVL8:
 102              		.loc 1 67 0
 103 0042 7549     		ldr	r1, .L153+4
 104 0044 7548     		ldr	r0, .L153+8
 105 0046 4FF4A072 		mov	r2, #320
 106 004a FFF7FEFF 		bl	memcpy
 107              	.LVL9:
 108              		.loc 1 69 0
 109 004e 429D     		ldr	r5, [sp, #264]
 110 0050 7349     		ldr	r1, .L153+12
 111 0052 2846     		mov	r0, r5
 112 0054 FFF7FEFF 		bl	strcmp
 113              	.LVL10:
 114 0058 0028     		cmp	r0, #0
ARM GAS  C:\Users\euanm\AppData\Local\Temp\ccGifpEY.s 			page 3


 115 005a 45D0     		beq	.L130
 116              		.loc 1 71 0
 117 005c 7149     		ldr	r1, .L153+16
 118 005e 2846     		mov	r0, r5
 119 0060 FFF7FEFF 		bl	strcmp
 120              	.LVL11:
 121 0064 0028     		cmp	r0, #0
 122 0066 54D0     		beq	.L131
 123              		.loc 1 74 0
 124 0068 6F49     		ldr	r1, .L153+20
 125 006a 2846     		mov	r0, r5
 126 006c FFF7FEFF 		bl	strcmp
 127              	.LVL12:
 128 0070 0028     		cmp	r0, #0
 129 0072 5BD0     		beq	.L132
 130              		.loc 1 78 0
 131 0074 6D49     		ldr	r1, .L153+24
 132 0076 2846     		mov	r0, r5
 133 0078 FFF7FEFF 		bl	strcmp
 134              	.LVL13:
 135 007c 0028     		cmp	r0, #0
 136 007e 3CD0     		beq	.L133
 137              		.loc 1 80 0
 138 0080 6B49     		ldr	r1, .L153+28
 139 0082 2846     		mov	r0, r5
 140 0084 FFF7FEFF 		bl	strcmp
 141              	.LVL14:
 142 0088 0028     		cmp	r0, #0
 143 008a 00F08280 		beq	.L134
 144              		.loc 1 86 0
 145 008e 6949     		ldr	r1, .L153+32
 146 0090 2846     		mov	r0, r5
 147 0092 FFF7FEFF 		bl	strcmp
 148              	.LVL15:
 149 0096 0028     		cmp	r0, #0
 150 0098 00F08E80 		beq	.L135
 151              		.loc 1 100 0
 152 009c 6649     		ldr	r1, .L153+36
 153 009e 2846     		mov	r0, r5
 154 00a0 FFF7FEFF 		bl	strcmp
 155              	.LVL16:
 156 00a4 0028     		cmp	r0, #0
 157 00a6 00F0AC80 		beq	.L136
 158              		.loc 1 102 0
 159 00aa 6449     		ldr	r1, .L153+40
 160 00ac 2846     		mov	r0, r5
 161 00ae FFF7FEFF 		bl	strcmp
 162              	.LVL17:
 163 00b2 0028     		cmp	r0, #0
 164 00b4 64D0     		beq	.L137
 165              		.loc 1 123 0
 166 00b6 6249     		ldr	r1, .L153+44
 167 00b8 2846     		mov	r0, r5
 168 00ba FFF7FEFF 		bl	strcmp
 169              	.LVL18:
 170 00be 0028     		cmp	r0, #0
 171 00c0 40F08381 		bne	.L17
ARM GAS  C:\Users\euanm\AppData\Local\Temp\ccGifpEY.s 			page 4


 172              		.loc 1 124 0
 173 00c4 5F4F     		ldr	r7, .L153+48
 174 00c6 3B68     		ldr	r3, [r7]
 175 00c8 002B     		cmp	r3, #0
 176 00ca 40F0A881 		bne	.L18
 177              		.loc 1 125 0
 178 00ce 5E48     		ldr	r0, .L153+52
 179 00d0 FFF7FEFF 		bl	commands_printf
 180              	.LVL19:
 181 00d4 02E0     		b	.L1
 182              	.LVL20:
 183              	.L128:
 184              		.loc 1 60 0
 185 00d6 5D48     		ldr	r0, .L153+56
 186              	.LVL21:
 187 00d8 FFF7FEFF 		bl	commands_printf
 188              	.LVL22:
 189              	.L1:
 190              		.loc 1 506 0
 191 00dc 0DF5037D 		add	sp, sp, #524
 192              		.cfi_remember_state
 193              		.cfi_def_cfa_offset 68
 194              		@ sp needed
 195 00e0 BDEC088B 		vldm	sp!, {d8-d11}
 196              		.cfi_restore 86
 197              		.cfi_restore 87
 198              		.cfi_restore 84
 199              		.cfi_restore 85
 200              		.cfi_restore 82
 201              		.cfi_restore 83
 202              		.cfi_restore 80
 203              		.cfi_restore 81
 204              		.cfi_def_cfa_offset 36
 205 00e4 BDE8F08F 		pop	{r4, r5, r6, r7, r8, r9, r10, fp, pc}
 206              	.LVL23:
 207              	.L130:
 208              		.cfi_restore_state
 209              		.loc 1 70 0
 210 00e8 5948     		ldr	r0, .L153+60
 211 00ea FFF7FEFF 		bl	commands_printf
 212              	.LVL24:
 213              		.loc 1 506 0
 214 00ee 0DF5037D 		add	sp, sp, #524
 215              		.cfi_remember_state
 216              		.cfi_def_cfa_offset 68
 217              		@ sp needed
 218 00f2 BDEC088B 		vldm	sp!, {d8-d11}
 219              		.cfi_restore 80
 220              		.cfi_restore 81
 221              		.cfi_restore 82
 222              		.cfi_restore 83
 223              		.cfi_restore 84
 224              		.cfi_restore 85
 225              		.cfi_restore 86
 226              		.cfi_restore 87
 227              		.cfi_def_cfa_offset 36
 228 00f6 BDE8F08F 		pop	{r4, r5, r6, r7, r8, r9, r10, fp, pc}
ARM GAS  C:\Users\euanm\AppData\Local\Temp\ccGifpEY.s 			page 5


 229              	.LVL25:
 230              	.L133:
 231              		.cfi_restore_state
 232              		.loc 1 79 0
 233 00fa FFF7FEFF 		bl	mcpwm_get_kv_filtered
 234              	.LVL26:
 235 00fe 10EE100A 		vmov	r0, s0
 236 0102 FFF7FEFF 		bl	__aeabi_f2d
 237              	.LVL27:
 238 0106 0246     		mov	r2, r0
 239 0108 0B46     		mov	r3, r1
 240 010a 5248     		ldr	r0, .L153+64
 241 010c FFF7FEFF 		bl	commands_printf
 242              	.LVL28:
 243 0110 E4E7     		b	.L1
 244              	.L131:
 245              		.loc 1 72 0
 246 0112 9FED510A 		vldr.32	s0, .L153+68
 247 0116 FFF7FEFF 		bl	mc_interface_set_duty
 248              	.LVL29:
 249              		.loc 1 73 0
 250 011a 5048     		ldr	r0, .L153+72
 251 011c FFF7FEFF 		bl	commands_printf
 252              	.LVL30:
 253              		.loc 1 506 0
 254 0120 0DF5037D 		add	sp, sp, #524
 255              		.cfi_remember_state
 256              		.cfi_def_cfa_offset 68
 257              		@ sp needed
 258 0124 BDEC088B 		vldm	sp!, {d8-d11}
 259              		.cfi_restore 80
 260              		.cfi_restore 81
 261              		.cfi_restore 82
 262              		.cfi_restore 83
 263              		.cfi_restore 84
 264              		.cfi_restore 85
 265              		.cfi_restore 86
 266              		.cfi_restore 87
 267              		.cfi_def_cfa_offset 36
 268 0128 BDE8F08F 		pop	{r4, r5, r6, r7, r8, r9, r10, fp, pc}
 269              	.LVL31:
 270              	.L132:
 271              		.cfi_restore_state
 272              		.loc 1 75 0
 273 012c FFF7FEFF 		bl	mcpwm_get_last_adc_isr_duration
 274              	.LVL32:
 275 0130 9FED4B8A 		vldr.32	s16, .L153+76
 276 0134 60EE087A 		vmul.f32	s15, s0, s16
 277 0138 17EE900A 		vmov	r0, s15
 278 013c FFF7FEFF 		bl	__aeabi_f2d
 279              	.LVL33:
 280 0140 0246     		mov	r2, r0
 281 0142 0B46     		mov	r3, r1
 282 0144 4748     		ldr	r0, .L153+80
 283 0146 FFF7FEFF 		bl	commands_printf
 284              	.LVL34:
 285              		.loc 1 76 0
ARM GAS  C:\Users\euanm\AppData\Local\Temp\ccGifpEY.s 			page 6


 286 014a FFF7FEFF 		bl	mc_interface_get_last_inj_adc_isr_duration
 287              	.LVL35:
 288 014e 60EE087A 		vmul.f32	s15, s0, s16
 289 0152 17EE900A 		vmov	r0, s15
 290 0156 FFF7FEFF 		bl	__aeabi_f2d
 291              	.LVL36:
 292 015a 0246     		mov	r2, r0
 293 015c 0B46     		mov	r3, r1
 294 015e 4248     		ldr	r0, .L153+84
 295 0160 FFF7FEFF 		bl	commands_printf
 296              	.LVL37:
 297              		.loc 1 77 0
 298 0164 FFF7FEFF 		bl	mc_interface_get_last_sample_adc_isr_duration
 299              	.LVL38:
 300 0168 60EE087A 		vmul.f32	s15, s0, s16
 301 016c 17EE900A 		vmov	r0, s15
 302 0170 FFF7FEFF 		bl	__aeabi_f2d
 303              	.LVL39:
 304 0174 0246     		mov	r2, r0
 305 0176 0B46     		mov	r3, r1
 306 0178 3C48     		ldr	r0, .L153+88
 307 017a FFF7FEFF 		bl	commands_printf
 308              	.LVL40:
 309 017e ADE7     		b	.L1
 310              	.L137:
 311              		.loc 1 103 0
 312 0180 304C     		ldr	r4, .L153+48
 313              	.LVL41:
 314 0182 2368     		ldr	r3, [r4]
 315 0184 002B     		cmp	r3, #0
 316 0186 40F08780 		bne	.L16
 317              		.loc 1 104 0
 318 018a 3948     		ldr	r0, .L153+92
 319 018c FFF7FEFF 		bl	commands_printf
 320              	.LVL42:
 321 0190 A4E7     		b	.L1
 322              	.LVL43:
 323              	.L134:
 324              	.LBB70:
 325              		.loc 1 82 0
 326 0192 29A9     		add	r1, sp, #164
 327 0194 FFF7FEFF 		bl	chHeapStatus
 328              	.LVL44:
 329 0198 0446     		mov	r4, r0
 330              	.LVL45:
 331              		.loc 1 83 0
 332 019a FFF7FEFF 		bl	chCoreGetStatusX
 333              	.LVL46:
 334 019e 0146     		mov	r1, r0
 335 01a0 3448     		ldr	r0, .L153+96
 336 01a2 FFF7FEFF 		bl	commands_printf
 337              	.LVL47:
 338              		.loc 1 84 0
 339 01a6 2146     		mov	r1, r4
 340 01a8 3348     		ldr	r0, .L153+100
 341 01aa FFF7FEFF 		bl	commands_printf
 342              	.LVL48:
ARM GAS  C:\Users\euanm\AppData\Local\Temp\ccGifpEY.s 			page 7


 343              		.loc 1 85 0
 344 01ae 2999     		ldr	r1, [sp, #164]
 345 01b0 3248     		ldr	r0, .L153+104
 346 01b2 FFF7FEFF 		bl	commands_printf
 347              	.LVL49:
 348              	.LBE70:
 349 01b6 91E7     		b	.L1
 350              	.LVL50:
 351              	.L135:
 352              	.LBB71:
 353              		.loc 1 89 0
 354 01b8 3148     		ldr	r0, .L153+108
 355 01ba 324D     		ldr	r5, .L153+112
 356 01bc FFF7FEFF 		bl	commands_printf
 357              	.LVL51:
 358              		.loc 1 90 0
 359 01c0 3148     		ldr	r0, .L153+116
 360 01c2 FFF7FEFF 		bl	commands_printf
 361              	.LVL52:
 362              		.loc 1 91 0
 363 01c6 FFF7FEFF 		bl	chRegFirstThread
 364              	.LVL53:
 365 01ca 0446     		mov	r4, r0
 366              	.LVL54:
 367              	.L13:
 368              		.loc 1 96 0 discriminator 1
 369 01cc 216A     		ldr	r1, [r4, #32]
 370              		.loc 1 93 0 discriminator 1
 371 01ce A368     		ldr	r3, [r4, #8]
 372 01d0 E268     		ldr	r2, [r4, #12]
 373 01d2 0391     		str	r1, [sp, #12]
 374 01d4 A169     		ldr	r1, [r4, #24]
 375 01d6 0291     		str	r1, [sp, #8]
 376 01d8 217F     		ldrb	r1, [r4, #28]	@ zero_extendqisi2
 377 01da 2C48     		ldr	r0, .L153+120
 378              	.LVL55:
 379 01dc 55F82110 		ldr	r1, [r5, r1, lsl #2]
 380 01e0 0191     		str	r1, [sp, #4]
 381 01e2 A17F     		ldrb	r1, [r4, #30]	@ zero_extendqisi2
 382 01e4 0139     		subs	r1, r1, #1
 383 01e6 0091     		str	r1, [sp]
 384 01e8 2146     		mov	r1, r4
 385 01ea FFF7FEFF 		bl	commands_printf
 386              	.LVL56:
 387              		.loc 1 97 0 discriminator 1
 388 01ee 2046     		mov	r0, r4
 389 01f0 FFF7FEFF 		bl	chRegNextThread
 390              	.LVL57:
 391              		.loc 1 98 0 discriminator 1
 392 01f4 0446     		mov	r4, r0
 393 01f6 0028     		cmp	r0, #0
 394 01f8 E8D1     		bne	.L13
 395              		.loc 1 99 0
 396 01fa 2548     		ldr	r0, .L153+124
 397              	.LVL58:
 398 01fc FFF7FEFF 		bl	commands_printf
 399              	.LVL59:
ARM GAS  C:\Users\euanm\AppData\Local\Temp\ccGifpEY.s 			page 8


 400              	.LBE71:
 401 0200 6CE7     		b	.L1
 402              	.LVL60:
 403              	.L136:
 404              		.loc 1 101 0
 405 0202 FFF7FEFF 		bl	mc_interface_get_fault
 406              	.LVL61:
 407 0206 FFF7FEFF 		bl	mc_interface_fault_to_string
 408              	.LVL62:
 409 020a 0146     		mov	r1, r0
 410 020c 2148     		ldr	r0, .L153+128
 411 020e FFF7FEFF 		bl	commands_printf
 412              	.LVL63:
 413 0212 63E7     		b	.L1
 414              	.L154:
 415              		.align	2
 416              	.L153:
 417 0214 10000000 		.word	.LC2
 418 0218 00000000 		.word	.LANCHOR0
 419 021c 00000000 		.word	.LANCHOR1
 420 0220 2C000000 		.word	.LC4
 421 0224 3C000000 		.word	.LC6
 422 0228 54000000 		.word	.LC8
 423 022c D8000000 		.word	.LC12
 424 0230 FC000000 		.word	.LC14
 425 0234 54010000 		.word	.LC18
 426 0238 04020000 		.word	.LC23
 427 023c 10020000 		.word	.LC25
 428 0240 FC020000 		.word	.LC28
 429 0244 00000000 		.word	.LANCHOR3
 430 0248 04030000 		.word	.LC29
 431 024c 14000000 		.word	.LC3
 432 0250 34000000 		.word	.LC5
 433 0254 DC000000 		.word	.LC13
 434 0258 00000000 		.word	0
 435 025c 44000000 		.word	.LC7
 436 0260 00007A44 		.word	1148846080
 437 0264 68000000 		.word	.LC9
 438 0268 88000000 		.word	.LC10
 439 026c B0000000 		.word	.LC11
 440 0270 18020000 		.word	.LC26
 441 0274 00010000 		.word	.LC15
 442 0278 1C010000 		.word	.LC16
 443 027c 34010000 		.word	.LC17
 444 0280 5C010000 		.word	.LC19
 445 0284 00000000 		.word	.LANCHOR2
 446 0288 9C010000 		.word	.LC20
 447 028c DC010000 		.word	.LC21
 448 0290 00020000 		.word	.LC22
 449 0294 0C020000 		.word	.LC24
 450              	.LVL64:
 451              	.L16:
 452              		.loc 1 107 0
 453 0298 2368     		ldr	r3, [r4]
 454              		.loc 1 106 0
 455 029a B74D     		ldr	r5, .L155
 456 029c 3421     		movs	r1, #52
ARM GAS  C:\Users\euanm\AppData\Local\Temp\ccGifpEY.s 			page 9


 457              		.loc 1 107 0
 458 029e 013B     		subs	r3, r3, #1
 459              		.loc 1 106 0
 460 02a0 01FB03F3 		mul	r3, r1, r3
 461 02a4 1591     		str	r1, [sp, #84]
 462 02a6 E85C     		ldrb	r0, [r5, r3]	@ zero_extendqisi2
 463 02a8 FFF7FEFF 		bl	mc_interface_fault_to_string
 464              	.LVL65:
 465 02ac 0646     		mov	r6, r0
 466              		.loc 1 108 0
 467 02ae FFF7FEFF 		bl	app_get_configuration
 468              	.LVL66:
 469              		.loc 1 109 0
 470 02b2 2368     		ldr	r3, [r4]
 471 02b4 1599     		ldr	r1, [sp, #84]
 472              		.loc 1 106 0
 473 02b6 0278     		ldrb	r2, [r0]	@ zero_extendqisi2
 474 02b8 1B92     		str	r2, [sp, #108]
 475              		.loc 1 109 0
 476 02ba 013B     		subs	r3, r3, #1
 477 02bc 01FB0353 		mla	r3, r1, r3, r5
 478 02c0 5F68     		ldr	r7, [r3, #4]	@ float
 479              		.loc 1 110 0
 480 02c2 2368     		ldr	r3, [r4]
 481 02c4 013B     		subs	r3, r3, #1
 482 02c6 01FB0353 		mla	r3, r1, r3, r5
 483 02ca D3F80880 		ldr	r8, [r3, #8]	@ float
 484              		.loc 1 111 0
 485 02ce 2368     		ldr	r3, [r4]
 486 02d0 013B     		subs	r3, r3, #1
 487 02d2 01FB0353 		mla	r3, r1, r3, r5
 488 02d6 D3F80C90 		ldr	r9, [r3, #12]	@ float
 489              		.loc 1 112 0
 490 02da 2368     		ldr	r3, [r4]
 491 02dc 013B     		subs	r3, r3, #1
 492 02de 01FB0353 		mla	r3, r1, r3, r5
 493 02e2 D3F810A0 		ldr	r10, [r3, #16]	@ float
 494              		.loc 1 113 0
 495 02e6 2368     		ldr	r3, [r4]
 496 02e8 013B     		subs	r3, r3, #1
 497 02ea 01FB0353 		mla	r3, r1, r3, r5
 498 02ee D3F814B0 		ldr	fp, [r3, #20]	@ float
 499              		.loc 1 114 0
 500 02f2 2368     		ldr	r3, [r4]
 501 02f4 013B     		subs	r3, r3, #1
 502              		.loc 1 106 0
 503 02f6 01FB0353 		mla	r3, r1, r3, r5
 504 02fa 9B69     		ldr	r3, [r3, #24]
 505 02fc 1593     		str	r3, [sp, #84]
 506              		.loc 1 115 0
 507 02fe 2368     		ldr	r3, [r4]
 508 0300 013B     		subs	r3, r3, #1
 509              		.loc 1 106 0
 510 0302 01FB0353 		mla	r3, r1, r3, r5
 511 0306 DA69     		ldr	r2, [r3, #28]
 512              		.loc 1 116 0
 513 0308 2368     		ldr	r3, [r4]
ARM GAS  C:\Users\euanm\AppData\Local\Temp\ccGifpEY.s 			page 10


 514              		.loc 1 106 0
 515 030a 1692     		str	r2, [sp, #88]
 516              		.loc 1 116 0
 517 030c 013B     		subs	r3, r3, #1
 518 030e 01FB0353 		mla	r3, r1, r3, r5
 519 0312 93ED0A8A 		vldr.32	s16, [r3, #40]	@ int
 520 0316 2368     		ldr	r3, [r4]
 521 0318 013B     		subs	r3, r3, #1
 522 031a 01FB0353 		mla	r3, r1, r3, r5
 523 031e D3ED048A 		vldr.32	s17, [r3, #16]
 524              		.loc 1 117 0
 525 0322 2368     		ldr	r3, [r4]
 526 0324 013B     		subs	r3, r3, #1
 527              		.loc 1 106 0
 528 0326 01FB0353 		mla	r3, r1, r3, r5
 529 032a B8EEC88A 		vcvt.f32.s32	s16, s16
 530 032e 186A     		ldr	r0, [r3, #32]
 531              		.loc 1 118 0
 532 0330 2368     		ldr	r3, [r4]
 533              		.loc 1 106 0
 534 0332 1790     		str	r0, [sp, #92]
 535              		.loc 1 118 0
 536 0334 013B     		subs	r3, r3, #1
 537              		.loc 1 106 0
 538 0336 01FB0353 		mla	r3, r1, r3, r5
 539 033a 586A     		ldr	r0, [r3, #36]
 540              		.loc 1 119 0
 541 033c 2368     		ldr	r3, [r4]
 542              		.loc 1 106 0
 543 033e 1890     		str	r0, [sp, #96]
 544              		.loc 1 119 0
 545 0340 013B     		subs	r3, r3, #1
 546              		.loc 1 106 0
 547 0342 01FB0353 		mla	r3, r1, r3, r5
 548 0346 9A6A     		ldr	r2, [r3, #40]
 549 0348 1992     		str	r2, [sp, #100]
 550              		.loc 1 120 0
 551 034a 2368     		ldr	r3, [r4]
 552 034c 013B     		subs	r3, r3, #1
 553              		.loc 1 106 0
 554 034e 01FB0353 		mla	r3, r1, r3, r5
 555 0352 DB6A     		ldr	r3, [r3, #44]
 556              		.loc 1 121 0
 557 0354 2068     		ldr	r0, [r4]
 558              		.loc 1 106 0
 559 0356 1A93     		str	r3, [sp, #104]
 560              		.loc 1 121 0
 561 0358 0138     		subs	r0, r0, #1
 562 035a 01FB0051 		mla	r1, r1, r0, r5
 563 035e 086B     		ldr	r0, [r1, #48]	@ float
 564              		.loc 1 106 0
 565 0360 FFF7FEFF 		bl	__aeabi_f2d
 566              	.LVL67:
 567 0364 68EE287A 		vmul.f32	s15, s16, s17
 568 0368 1A9B     		ldr	r3, [sp, #104]
 569 036a 1093     		str	r3, [sp, #64]
 570 036c FDEEE77A 		vcvt.s32.f32	s15, s15
ARM GAS  C:\Users\euanm\AppData\Local\Temp\ccGifpEY.s 			page 11


 571 0370 159B     		ldr	r3, [sp, #84]
 572 0372 169A     		ldr	r2, [sp, #88]
 573 0374 0A93     		str	r3, [sp, #40]
 574 0376 CDE91201 		strd	r0, [sp, #72]
 575 037a 179B     		ldr	r3, [sp, #92]
 576 037c 1899     		ldr	r1, [sp, #96]
 577 037e 199C     		ldr	r4, [sp, #100]
 578 0380 0B92     		str	r2, [sp, #44]
 579 0382 5846     		mov	r0, fp	@ float
 580 0384 0D93     		str	r3, [sp, #52]
 581 0386 CDED0C7A 		vstr.32	s15, [sp, #48]	@ int
 582 038a 0F94     		str	r4, [sp, #60]
 583 038c 0E91     		str	r1, [sp, #56]
 584 038e FFF7FEFF 		bl	__aeabi_f2d
 585              	.LVL68:
 586 0392 CDE90801 		strd	r0, [sp, #32]
 587 0396 5046     		mov	r0, r10	@ float
 588 0398 FFF7FEFF 		bl	__aeabi_f2d
 589              	.LVL69:
 590 039c CDE90601 		strd	r0, [sp, #24]
 591 03a0 4846     		mov	r0, r9	@ float
 592 03a2 FFF7FEFF 		bl	__aeabi_f2d
 593              	.LVL70:
 594 03a6 CDE90401 		strd	r0, [sp, #16]
 595 03aa 4046     		mov	r0, r8	@ float
 596 03ac FFF7FEFF 		bl	__aeabi_f2d
 597              	.LVL71:
 598 03b0 CDE90201 		strd	r0, [sp, #8]
 599 03b4 3846     		mov	r0, r7	@ float
 600 03b6 FFF7FEFF 		bl	__aeabi_f2d
 601              	.LVL72:
 602 03ba 1B9A     		ldr	r2, [sp, #108]
 603 03bc CDE90001 		strd	r0, [sp]
 604 03c0 3146     		mov	r1, r6
 605 03c2 6E48     		ldr	r0, .L155+4
 606 03c4 FFF7FEFF 		bl	commands_printf
 607              	.LVL73:
 608 03c8 88E6     		b	.L1
 609              	.LVL74:
 610              	.L17:
 611              		.loc 1 145 0
 612 03ca 6D49     		ldr	r1, .L155+8
 613 03cc 2846     		mov	r0, r5
 614 03ce FFF7FEFF 		bl	strcmp
 615              	.LVL75:
 616 03d2 0028     		cmp	r0, #0
 617 03d4 00F09A80 		beq	.L138
 618              		.loc 1 147 0
 619 03d8 6A49     		ldr	r1, .L155+12
 620 03da 2846     		mov	r0, r5
 621 03dc FFF7FEFF 		bl	strcmp
 622              	.LVL76:
 623 03e0 0028     		cmp	r0, #0
 624 03e2 00F08C80 		beq	.L139
 625              		.loc 1 149 0
 626 03e6 6849     		ldr	r1, .L155+16
 627 03e8 2846     		mov	r0, r5
ARM GAS  C:\Users\euanm\AppData\Local\Temp\ccGifpEY.s 			page 12


 628 03ea FFF7FEFF 		bl	strcmp
 629              	.LVL77:
 630 03ee 0028     		cmp	r0, #0
 631 03f0 00F03D81 		beq	.L140
 632              		.loc 1 174 0
 633 03f4 6549     		ldr	r1, .L155+20
 634 03f6 2846     		mov	r0, r5
 635 03f8 FFF7FEFF 		bl	strcmp
 636              	.LVL78:
 637 03fc 0028     		cmp	r0, #0
 638 03fe 00F01D81 		beq	.L141
 639              		.loc 1 176 0
 640 0402 6349     		ldr	r1, .L155+24
 641 0404 2846     		mov	r0, r5
 642 0406 FFF7FEFF 		bl	strcmp
 643              	.LVL79:
 644 040a 0028     		cmp	r0, #0
 645 040c 40F08A80 		bne	.L26
 646              		.loc 1 178 0
 647 0410 042C     		cmp	r4, #4
 648 0412 00F02E83 		beq	.L142
 649              		.loc 1 220 0
 650 0416 5F48     		ldr	r0, .L155+28
 651 0418 FFF7FEFF 		bl	commands_printf
 652              	.LVL80:
 653 041c 5EE6     		b	.L1
 654              	.L18:
 655              		.loc 1 127 0
 656 041e 5E48     		ldr	r0, .L155+32
 657 0420 FFF7FEFF 		bl	commands_printf
 658              	.LVL81:
 659              	.LBB72:
 660              		.loc 1 128 0
 661 0424 3B68     		ldr	r3, [r7]
 662 0426 002B     		cmp	r3, #0
 663 0428 7FF758AE 		ble	.L1
 664 042c 524E     		ldr	r6, .L155
 665              		.loc 1 128 0 is_stmt 0 discriminator 3
 666 042e 0025     		movs	r5, #0
 667              	.LVL82:
 668              	.L20:
 669              		.loc 1 129 0 is_stmt 1 discriminator 3
 670 0430 3423     		movs	r3, #52
 671 0432 03FB05F3 		mul	r3, r3, r5
 672 0436 F418     		adds	r4, r6, r3
 673 0438 F05C     		ldrb	r0, [r6, r3]	@ zero_extendqisi2
 674 043a FFF7FEFF 		bl	mc_interface_fault_to_string
 675              	.LVL83:
 676 043e 0146     		mov	r1, r0
 677 0440 5648     		ldr	r0, .L155+36
 678 0442 FFF7FEFF 		bl	commands_printf
 679              	.LVL84:
 680              		.loc 1 130 0 discriminator 3
 681 0446 6068     		ldr	r0, [r4, #4]	@ float
 682 0448 FFF7FEFF 		bl	__aeabi_f2d
 683              	.LVL85:
 684 044c 0246     		mov	r2, r0
ARM GAS  C:\Users\euanm\AppData\Local\Temp\ccGifpEY.s 			page 13


 685 044e 0B46     		mov	r3, r1
 686 0450 5348     		ldr	r0, .L155+40
 687 0452 FFF7FEFF 		bl	commands_printf
 688              	.LVL86:
 689              		.loc 1 131 0 discriminator 3
 690 0456 A068     		ldr	r0, [r4, #8]	@ float
 691 0458 FFF7FEFF 		bl	__aeabi_f2d
 692              	.LVL87:
 693 045c 0246     		mov	r2, r0
 694 045e 0B46     		mov	r3, r1
 695 0460 5048     		ldr	r0, .L155+44
 696 0462 FFF7FEFF 		bl	commands_printf
 697              	.LVL88:
 698              		.loc 1 132 0 discriminator 3
 699 0466 E068     		ldr	r0, [r4, #12]	@ float
 700 0468 FFF7FEFF 		bl	__aeabi_f2d
 701              	.LVL89:
 702 046c 0246     		mov	r2, r0
 703 046e 0B46     		mov	r3, r1
 704 0470 4D48     		ldr	r0, .L155+48
 705 0472 FFF7FEFF 		bl	commands_printf
 706              	.LVL90:
 707              		.loc 1 133 0 discriminator 3
 708 0476 2069     		ldr	r0, [r4, #16]	@ float
 709 0478 FFF7FEFF 		bl	__aeabi_f2d
 710              	.LVL91:
 711 047c 0246     		mov	r2, r0
 712 047e 0B46     		mov	r3, r1
 713 0480 4A48     		ldr	r0, .L155+52
 714 0482 FFF7FEFF 		bl	commands_printf
 715              	.LVL92:
 716              		.loc 1 134 0 discriminator 3
 717 0486 6069     		ldr	r0, [r4, #20]	@ float
 718 0488 FFF7FEFF 		bl	__aeabi_f2d
 719              	.LVL93:
 720 048c 0246     		mov	r2, r0
 721 048e 0B46     		mov	r3, r1
 722 0490 4748     		ldr	r0, .L155+56
 723 0492 FFF7FEFF 		bl	commands_printf
 724              	.LVL94:
 725              		.loc 1 135 0 discriminator 3
 726 0496 A169     		ldr	r1, [r4, #24]
 727 0498 4648     		ldr	r0, .L155+60
 728 049a FFF7FEFF 		bl	commands_printf
 729              	.LVL95:
 730              		.loc 1 136 0 discriminator 3
 731 049e E169     		ldr	r1, [r4, #28]
 732 04a0 4548     		ldr	r0, .L155+64
 733 04a2 FFF7FEFF 		bl	commands_printf
 734              	.LVL96:
 735              		.loc 1 137 0 discriminator 3
 736 04a6 D4ED0A7A 		vldr.32	s15, [r4, #40]	@ int
 737 04aa 94ED047A 		vldr.32	s14, [r4, #16]
 738 04ae 4348     		ldr	r0, .L155+68
 739 04b0 F8EEE77A 		vcvt.f32.s32	s15, s15
 740              		.loc 1 128 0 discriminator 3
 741 04b4 0135     		adds	r5, r5, #1
ARM GAS  C:\Users\euanm\AppData\Local\Temp\ccGifpEY.s 			page 14


 742              	.LVL97:
 743              		.loc 1 137 0 discriminator 3
 744 04b6 67EE877A 		vmul.f32	s15, s15, s14
 745 04ba FDEEE77A 		vcvt.s32.f32	s15, s15
 746 04be 17EE901A 		vmov	r1, s15	@ int
 747 04c2 FFF7FEFF 		bl	commands_printf
 748              	.LVL98:
 749              		.loc 1 138 0 discriminator 3
 750 04c6 216A     		ldr	r1, [r4, #32]
 751 04c8 3D48     		ldr	r0, .L155+72
 752 04ca FFF7FEFF 		bl	commands_printf
 753              	.LVL99:
 754              		.loc 1 139 0 discriminator 3
 755 04ce 616A     		ldr	r1, [r4, #36]
 756 04d0 3C48     		ldr	r0, .L155+76
 757 04d2 FFF7FEFF 		bl	commands_printf
 758              	.LVL100:
 759              		.loc 1 140 0 discriminator 3
 760 04d6 A16A     		ldr	r1, [r4, #40]
 761 04d8 3B48     		ldr	r0, .L155+80
 762 04da FFF7FEFF 		bl	commands_printf
 763              	.LVL101:
 764              		.loc 1 141 0 discriminator 3
 765 04de E16A     		ldr	r1, [r4, #44]
 766 04e0 3A48     		ldr	r0, .L155+84
 767 04e2 FFF7FEFF 		bl	commands_printf
 768              	.LVL102:
 769              		.loc 1 142 0 discriminator 3
 770 04e6 206B     		ldr	r0, [r4, #48]	@ float
 771 04e8 FFF7FEFF 		bl	__aeabi_f2d
 772              	.LVL103:
 773 04ec 0246     		mov	r2, r0
 774 04ee 0B46     		mov	r3, r1
 775 04f0 3748     		ldr	r0, .L155+88
 776 04f2 FFF7FEFF 		bl	commands_printf
 777              	.LVL104:
 778              		.loc 1 128 0 discriminator 3
 779 04f6 3B68     		ldr	r3, [r7]
 780 04f8 AB42     		cmp	r3, r5
 781 04fa 99DC     		bgt	.L20
 782 04fc EEE5     		b	.L1
 783              	.LVL105:
 784              	.L139:
 785              	.LBE72:
 786              		.loc 1 148 0
 787 04fe FFF7FEFF 		bl	mc_interface_get_tachometer_value
 788              	.LVL106:
 789 0502 0146     		mov	r1, r0
 790 0504 3348     		ldr	r0, .L155+92
 791 0506 FFF7FEFF 		bl	commands_printf
 792              	.LVL107:
 793 050a E7E5     		b	.L1
 794              	.L138:
 795              		.loc 1 146 0
 796 050c FFF7FEFF 		bl	mc_interface_get_rpm
 797              	.LVL108:
 798 0510 10EE100A 		vmov	r0, s0
ARM GAS  C:\Users\euanm\AppData\Local\Temp\ccGifpEY.s 			page 15


 799 0514 FFF7FEFF 		bl	__aeabi_f2d
 800              	.LVL109:
 801 0518 0246     		mov	r2, r0
 802 051a 0B46     		mov	r3, r1
 803 051c 2E48     		ldr	r0, .L155+96
 804 051e FFF7FEFF 		bl	commands_printf
 805              	.LVL110:
 806 0522 DBE5     		b	.L1
 807              	.L26:
 808              		.loc 1 222 0
 809 0524 2D49     		ldr	r1, .L155+100
 810 0526 2846     		mov	r0, r5
 811 0528 FFF7FEFF 		bl	strcmp
 812              	.LVL111:
 813 052c 0028     		cmp	r0, #0
 814 052e 00F04181 		beq	.L143
 815              		.loc 1 227 0
 816 0532 2B49     		ldr	r1, .L155+104
 817 0534 2846     		mov	r0, r5
 818 0536 FFF7FEFF 		bl	strcmp
 819              	.LVL112:
 820 053a 0746     		mov	r7, r0
 821 053c 0028     		cmp	r0, #0
 822 053e 00F0E080 		beq	.L144
 823              		.loc 1 242 0
 824 0542 2849     		ldr	r1, .L155+108
 825 0544 2846     		mov	r0, r5
 826 0546 FFF7FEFF 		bl	strcmp
 827              	.LVL113:
 828 054a 0646     		mov	r6, r0
 829 054c 0028     		cmp	r0, #0
 830 054e 40F04D81 		bne	.L46
 831              	.LBB73:
 832              		.loc 1 243 0
 833 0552 254B     		ldr	r3, .L155+112
 834              	.LBB74:
 835              	.LBB75:
 836              	.LBB76:
 837              	.LBB77:
 838              	.LBB78:
 839              	.LBB79:
 840              		.file 2 "ChibiOS_3.0.2/os/rt/include/chvt.h"
 841              		.loc 2 231 0
 842 0554 254F     		ldr	r7, .L155+116
 843              	.LBE79:
 844              	.LBE78:
 845              	.LBE77:
 846              	.LBE76:
 847              		.loc 1 247 0
 848 0556 9FED268A 		vldr.32	s16, .L155+120
 849              	.LBE75:
 850              	.LBE74:
 851              		.loc 1 243 0
 852 055a 93E80300 		ldmia	r3, {r0, r1}
 853 055e 29AD     		add	r5, sp, #164
 854 0560 ADF8A810 		strh	r1, [sp, #168]	@ movhi
 855 0564 2860     		str	r0, [r5]
ARM GAS  C:\Users\euanm\AppData\Local\Temp\ccGifpEY.s 			page 16


 856 0566 5E22     		movs	r2, #94
 857 0568 3146     		mov	r1, r6
 858 056a 0DF1AA00 		add	r0, sp, #170
 859 056e FFF7FEFF 		bl	memset
 860              	.LVL114:
 861              	.LBB87:
 862              		.loc 1 244 0
 863 0572 3446     		mov	r4, r6
 864              	.LVL115:
 865 0574 41E0     		b	.L49
 866              	.L156:
 867 0576 00BF     		.align	2
 868              	.L155:
 869 0578 00000000 		.word	.LANCHOR4
 870 057c 24020000 		.word	.LC27
 871 0580 B0040000 		.word	.LC45
 872 0584 D0040000 		.word	.LC47
 873 0588 F0040000 		.word	.LC49
 874 058c A8050000 		.word	.LC61
 875 0590 C8050000 		.word	.LC63
 876 0594 20070000 		.word	.LC74
 877 0598 28030000 		.word	.LC30
 878 059c 5C030000 		.word	.LC31
 879 05a0 74030000 		.word	.LC32
 880 05a4 8C030000 		.word	.LC33
 881 05a8 A4030000 		.word	.LC34
 882 05ac BC030000 		.word	.LC35
 883 05b0 D4030000 		.word	.LC36
 884 05b4 EC030000 		.word	.LC37
 885 05b8 04040000 		.word	.LC38
 886 05bc 1C040000 		.word	.LC39
 887 05c0 34040000 		.word	.LC40
 888 05c4 4C040000 		.word	.LC41
 889 05c8 64040000 		.word	.LC42
 890 05cc 7C040000 		.word	.LC43
 891 05d0 94040000 		.word	.LC44
 892 05d4 D8040000 		.word	.LC48
 893 05d8 B4040000 		.word	.LC46
 894 05dc 48070000 		.word	.LC75
 895 05e0 A4070000 		.word	.LC79
 896 05e4 98080000 		.word	.LC88
 897 05e8 00000000 		.word	.LANCHOR5
 898 05ec 00000000 		.word	ch
 899 05f0 00401C46 		.word	1176256512
 900              	.LVL116:
 901              	.L47:
 902              		.loc 1 244 0 is_stmt 0 discriminator 2
 903 05f4 032C     		cmp	r4, #3
 904 05f6 00F05381 		beq	.L124
 905              	.LVL117:
 906              	.L49:
 907              	.LBB85:
 908              		.loc 1 245 0 is_stmt 1
 909 05fa 2046     		mov	r0, r4
 910 05fc FFF7FEFF 		bl	comm_can_get_status_msg_index
 911              	.LVL118:
 912              		.loc 1 247 0
ARM GAS  C:\Users\euanm\AppData\Local\Temp\ccGifpEY.s 			page 17


 913 0600 0268     		ldr	r2, [r0]
 914 0602 002A     		cmp	r2, #0
 915 0604 B7EE007A 		vmov.f32	s14, #1.0e+0
 916              	.LBE85:
 917              		.loc 1 244 0
 918 0608 04F10104 		add	r4, r4, #1
 919              	.LVL119:
 920              	.LBB86:
 921              		.loc 1 247 0
 922 060c F2DB     		blt	.L47
 923              		.loc 1 247 0 is_stmt 0 discriminator 1
 924 060e 4168     		ldr	r1, [r0, #4]
 925              	.LBB83:
 926              	.LBB82:
 927              	.LBB81:
 928              	.LBB80:
 929              		.loc 2 231 0 is_stmt 1 discriminator 1
 930 0610 BB6A     		ldr	r3, [r7, #40]
 931              	.LVL120:
 932              	.LBE80:
 933              	.LBE81:
 934              	.LBE82:
 935              	.LBE83:
 936              		.loc 1 247 0 discriminator 1
 937 0612 5B1A     		subs	r3, r3, r1
 938 0614 07EE903A 		vmov	s15, r3	@ int
 939 0618 F8EE677A 		vcvt.f32.u32	s15, s15
 940 061c C7EE886A 		vdiv.f32	s13, s15, s16
 941 0620 F4EEC76A 		vcmpe.f32	s13, s14
 942 0624 F1EE10FA 		vmrs	APSR_nzcv, FPSCR
 943 0628 E4D5     		bpl	.L47
 944              	.LBB84:
 945              		.loc 1 249 0
 946 062a 25A8     		add	r0, sp, #148
 947              	.LVL121:
 948 062c AD49     		ldr	r1, .L157
 949 062e FFF7FEFF 		bl	sprintf
 950              	.LVL122:
 951              		.loc 1 250 0
 952 0632 25A9     		add	r1, sp, #148
 953 0634 2846     		mov	r0, r5
 954 0636 FFF7FEFF 		bl	strcat
 955              	.LVL123:
 956 063a DBE7     		b	.L47
 957              	.LVL124:
 958              	.L141:
 959              	.LBE84:
 960              	.LBE86:
 961              	.LBE87:
 962              	.LBE73:
 963              		.loc 1 175 0
 964 063c AA4B     		ldr	r3, .L157+4
 965 063e DFEDAB6A 		vldr.32	s13, .L157+8
 966 0642 1B8A     		ldrh	r3, [r3, #16]
 967 0644 9FEDAA7A 		vldr.32	s14, .L157+12
 968 0648 9BB2     		uxth	r3, r3
 969 064a 07EE903A 		vmov	s15, r3	@ int
ARM GAS  C:\Users\euanm\AppData\Local\Temp\ccGifpEY.s 			page 18


 970 064e F8EE677A 		vcvt.f32.u32	s15, s15
 971 0652 67EEA67A 		vmul.f32	s15, s15, s13
 972 0656 67EE877A 		vmul.f32	s15, s15, s14
 973 065a 17EE900A 		vmov	r0, s15
 974 065e FFF7FEFF 		bl	__aeabi_f2d
 975              	.LVL125:
 976 0662 0246     		mov	r2, r0
 977 0664 0B46     		mov	r3, r1
 978 0666 A348     		ldr	r0, .L157+16
 979 0668 FFF7FEFF 		bl	commands_printf
 980              	.LVL126:
 981 066c 36E5     		b	.L1
 982              	.L140:
 983              	.LVL127:
 984              	.LBB88:
 985              	.LBB89:
 986              	.LBB90:
 987              	.LBB91:
 988              	.LBB92:
 989              		.file 3 "ChibiOS_3.0.2/os/ext/CMSIS/include/core_cmFunc.h"
 990              		.loc 3 546 0
 991 066e 2023     		movs	r3, #32
 992              		.syntax unified
 993              	@ 546 "ChibiOS_3.0.2/os/ext/CMSIS/include/core_cmFunc.h" 1
 994 0670 83F31188 		MSR basepri, r3
 995              	@ 0 "" 2
 996              	.LVL128:
 997              		.thumb
 998              		.syntax unified
 999              	.LBE92:
 1000              	.LBE91:
 1001              	.LBE90:
 1002              	.LBE89:
 1003              		.loc 1 151 0
 1004 0674 A04B     		ldr	r3, .L157+20
 1005              		.loc 1 152 0
 1006 0676 A14A     		ldr	r2, .L157+24
 1007              		.loc 1 151 0
 1008 0678 596A     		ldr	r1, [r3, #36]
 1009 067a 2091     		str	r1, [sp, #128]
 1010              		.loc 1 152 0
 1011 067c 516A     		ldr	r1, [r2, #36]
 1012 067e 2191     		str	r1, [sp, #132]
 1013              		.loc 1 153 0
 1014 0680 1968     		ldr	r1, [r3]
 1015 0682 C1F30011 		ubfx	r1, r1, #4, #1
 1016 0686 2591     		str	r1, [sp, #148]
 1017              		.loc 1 154 0
 1018 0688 1168     		ldr	r1, [r2]
 1019 068a C1F30011 		ubfx	r1, r1, #4, #1
 1020 068e 2991     		str	r1, [sp, #164]
 1021              	.LVL129:
 1022              	.LBB93:
 1023              	.LBB94:
 1024              	.LBB95:
 1025              	.LBB96:
 1026              	.LBB97:
ARM GAS  C:\Users\euanm\AppData\Local\Temp\ccGifpEY.s 			page 19


 1027              		.loc 3 546 0
 1028              		.syntax unified
 1029              	@ 546 "ChibiOS_3.0.2/os/ext/CMSIS/include/core_cmFunc.h" 1
 1030 0690 80F31188 		MSR basepri, r0
 1031              	@ 0 "" 2
 1032              	.LVL130:
 1033              		.thumb
 1034              		.syntax unified
 1035              	.LBE97:
 1036              	.LBE96:
 1037              	.LBE95:
 1038              	.LBE94:
 1039              	.LBE93:
 1040              		.loc 1 163 0
 1041 0694 9A48     		ldr	r0, .L157+28
 1042              		.loc 1 156 0
 1043 0696 D3F834A0 		ldr	r10, [r3, #52]
 1044              	.LVL131:
 1045              		.loc 1 157 0
 1046 069a D3F83890 		ldr	r9, [r3, #56]
 1047              	.LVL132:
 1048              		.loc 1 158 0
 1049 069e D3F83C80 		ldr	r8, [r3, #60]
 1050              	.LVL133:
 1051              		.loc 1 159 0
 1052 06a2 DF6A     		ldr	r7, [r3, #44]
 1053              	.LVL134:
 1054              		.loc 1 160 0
 1055 06a4 566B     		ldr	r6, [r2, #52]
 1056              	.LVL135:
 1057              		.loc 1 161 0
 1058 06a6 1D6C     		ldr	r5, [r3, #64]
 1059              	.LVL136:
 1060              		.loc 1 162 0
 1061 06a8 946B     		ldr	r4, [r2, #56]
 1062              	.LVL137:
 1063              		.loc 1 163 0
 1064 06aa 2099     		ldr	r1, [sp, #128]
 1065 06ac FFF7FEFF 		bl	commands_printf
 1066              	.LVL138:
 1067              		.loc 1 164 0
 1068 06b0 2199     		ldr	r1, [sp, #132]
 1069 06b2 9448     		ldr	r0, .L157+32
 1070 06b4 FFF7FEFF 		bl	commands_printf
 1071              	.LVL139:
 1072              		.loc 1 165 0
 1073 06b8 5146     		mov	r1, r10
 1074 06ba 9348     		ldr	r0, .L157+36
 1075 06bc FFF7FEFF 		bl	commands_printf
 1076              	.LVL140:
 1077              		.loc 1 166 0
 1078 06c0 4946     		mov	r1, r9
 1079 06c2 9248     		ldr	r0, .L157+40
 1080 06c4 FFF7FEFF 		bl	commands_printf
 1081              	.LVL141:
 1082              		.loc 1 167 0
 1083 06c8 4146     		mov	r1, r8
ARM GAS  C:\Users\euanm\AppData\Local\Temp\ccGifpEY.s 			page 20


 1084 06ca 9148     		ldr	r0, .L157+44
 1085 06cc FFF7FEFF 		bl	commands_printf
 1086              	.LVL142:
 1087              		.loc 1 168 0
 1088 06d0 3946     		mov	r1, r7
 1089 06d2 9048     		ldr	r0, .L157+48
 1090 06d4 FFF7FEFF 		bl	commands_printf
 1091              	.LVL143:
 1092              		.loc 1 169 0
 1093 06d8 2599     		ldr	r1, [sp, #148]
 1094 06da 8F48     		ldr	r0, .L157+52
 1095 06dc FFF7FEFF 		bl	commands_printf
 1096              	.LVL144:
 1097              		.loc 1 170 0
 1098 06e0 2999     		ldr	r1, [sp, #164]
 1099 06e2 8E48     		ldr	r0, .L157+56
 1100 06e4 FFF7FEFF 		bl	commands_printf
 1101              	.LVL145:
 1102              		.loc 1 171 0
 1103 06e8 3146     		mov	r1, r6
 1104 06ea 8D48     		ldr	r0, .L157+60
 1105 06ec FFF7FEFF 		bl	commands_printf
 1106              	.LVL146:
 1107              		.loc 1 172 0
 1108 06f0 2946     		mov	r1, r5
 1109 06f2 8C48     		ldr	r0, .L157+64
 1110 06f4 FFF7FEFF 		bl	commands_printf
 1111              	.LVL147:
 1112              		.loc 1 173 0
 1113 06f8 2146     		mov	r1, r4
 1114 06fa 8B48     		ldr	r0, .L157+68
 1115 06fc FFF7FEFF 		bl	commands_printf
 1116              	.LVL148:
 1117              	.LBE88:
 1118 0700 ECE4     		b	.L1
 1119              	.LVL149:
 1120              	.L144:
 1121              		.loc 1 228 0
 1122 0702 8A48     		ldr	r0, .L157+72
 1123              	.LBB98:
 1124              	.LBB99:
 1125              	.LBB100:
 1126              	.LBB101:
 1127              	.LBB102:
 1128              	.LBB103:
 1129              		.loc 2 231 0
 1130 0704 8A4E     		ldr	r6, .L157+76
 1131              	.LBE103:
 1132              	.LBE102:
 1133              	.LBE101:
 1134              	.LBE100:
 1135              		.loc 1 232 0
 1136 0706 9FED8B8A 		vldr.32	s16, .L157+80
 1137              		.loc 1 235 0
 1138 070a DFED8B8A 		vldr.32	s17, .L157+84
 1139              	.LBE99:
 1140              	.LBE98:
ARM GAS  C:\Users\euanm\AppData\Local\Temp\ccGifpEY.s 			page 21


 1141              		.loc 1 228 0
 1142 070e FFF7FEFF 		bl	commands_printf
 1143              	.LVL150:
 1144              	.LBB114:
 1145              		.loc 1 229 0
 1146 0712 3D46     		mov	r5, r7
 1147              	.LVL151:
 1148              	.L45:
 1149              	.LBB112:
 1150              		.loc 1 230 0
 1151 0714 2846     		mov	r0, r5
 1152 0716 FFF7FEFF 		bl	comm_can_get_status_msg_index
 1153              	.LVL152:
 1154              		.loc 1 232 0
 1155 071a 0168     		ldr	r1, [r0]
 1156 071c 0029     		cmp	r1, #0
 1157              		.loc 1 230 0
 1158 071e 0446     		mov	r4, r0
 1159              	.LVL153:
 1160              		.loc 1 232 0
 1161 0720 B7EE007A 		vmov.f32	s14, #1.0e+0
 1162              	.LBE112:
 1163              		.loc 1 229 0
 1164 0724 05F10105 		add	r5, r5, #1
 1165              	.LVL154:
 1166              	.LBB113:
 1167              		.loc 1 232 0
 1168 0728 41DB     		blt	.L43
 1169              	.LBB107:
 1170              	.LBB106:
 1171              	.LBB105:
 1172              	.LBB104:
 1173              		.loc 2 231 0 discriminator 1
 1174 072a B36A     		ldr	r3, [r6, #40]
 1175              	.LVL155:
 1176              	.LBE104:
 1177              	.LBE105:
 1178              	.LBE106:
 1179              	.LBE107:
 1180              		.loc 1 232 0 discriminator 1
 1181 072c 4268     		ldr	r2, [r0, #4]
 1182 072e 9B1A     		subs	r3, r3, r2
 1183 0730 07EE903A 		vmov	s15, r3	@ int
 1184 0734 F8EE677A 		vcvt.f32.u32	s15, s15
 1185 0738 C7EE886A 		vdiv.f32	s13, s15, s16
 1186 073c F4EEC76A 		vcmpe.f32	s13, s14
 1187 0740 F1EE10FA 		vmrs	APSR_nzcv, FPSCR
 1188 0744 33D5     		bpl	.L43
 1189              		.loc 1 233 0
 1190 0746 7D48     		ldr	r0, .L157+88
 1191              	.LVL156:
 1192 0748 FFF7FEFF 		bl	commands_printf
 1193              	.LVL157:
 1194              		.loc 1 234 0
 1195 074c 6168     		ldr	r1, [r4, #4]
 1196 074e 7C48     		ldr	r0, .L157+92
 1197 0750 FFF7FEFF 		bl	commands_printf
ARM GAS  C:\Users\euanm\AppData\Local\Temp\ccGifpEY.s 			page 22


 1198              	.LVL158:
 1199              		.loc 1 235 0
 1200 0754 6268     		ldr	r2, [r4, #4]
 1201              	.LBB108:
 1202              	.LBB109:
 1203              	.LBB110:
 1204              	.LBB111:
 1205              		.loc 2 231 0
 1206 0756 B36A     		ldr	r3, [r6, #40]
 1207              	.LVL159:
 1208              	.LBE111:
 1209              	.LBE110:
 1210              	.LBE109:
 1211              	.LBE108:
 1212              		.loc 1 235 0
 1213 0758 9B1A     		subs	r3, r3, r2
 1214 075a 07EE903A 		vmov	s15, r3	@ int
 1215 075e F8EE677A 		vcvt.f32.u32	s15, s15
 1216 0762 87EE887A 		vdiv.f32	s14, s15, s16
 1217 0766 67EE287A 		vmul.f32	s15, s14, s17
 1218 076a 17EE900A 		vmov	r0, s15
 1219 076e FFF7FEFF 		bl	__aeabi_f2d
 1220              	.LVL160:
 1221 0772 0246     		mov	r2, r0
 1222 0774 0B46     		mov	r3, r1
 1223 0776 7348     		ldr	r0, .L157+96
 1224 0778 FFF7FEFF 		bl	commands_printf
 1225              	.LVL161:
 1226              		.loc 1 236 0
 1227 077c A068     		ldr	r0, [r4, #8]	@ float
 1228 077e FFF7FEFF 		bl	__aeabi_f2d
 1229              	.LVL162:
 1230 0782 0246     		mov	r2, r0
 1231 0784 0B46     		mov	r3, r1
 1232 0786 7048     		ldr	r0, .L157+100
 1233 0788 FFF7FEFF 		bl	commands_printf
 1234              	.LVL163:
 1235              		.loc 1 237 0
 1236 078c E068     		ldr	r0, [r4, #12]	@ float
 1237 078e FFF7FEFF 		bl	__aeabi_f2d
 1238              	.LVL164:
 1239 0792 0246     		mov	r2, r0
 1240 0794 0B46     		mov	r3, r1
 1241 0796 6D48     		ldr	r0, .L157+104
 1242 0798 FFF7FEFF 		bl	commands_printf
 1243              	.LVL165:
 1244              		.loc 1 238 0
 1245 079c 94F91010 		ldrsb	r1, [r4, #16]
 1246 07a0 6B48     		ldr	r0, .L157+108
 1247 07a2 FFF7FEFF 		bl	commands_printf
 1248              	.LVL166:
 1249              		.loc 1 239 0
 1250 07a6 617C     		ldrb	r1, [r4, #17]	@ zero_extendqisi2
 1251 07a8 6A48     		ldr	r0, .L157+112
 1252 07aa FFF7FEFF 		bl	commands_printf
 1253              	.LVL167:
 1254              	.L43:
ARM GAS  C:\Users\euanm\AppData\Local\Temp\ccGifpEY.s 			page 23


 1255              	.LBE113:
 1256              		.loc 1 229 0 discriminator 2
 1257 07ae 032D     		cmp	r5, #3
 1258 07b0 B0D1     		bne	.L45
 1259 07b2 93E4     		b	.L1
 1260              	.LVL168:
 1261              	.L143:
 1262              	.LBE114:
 1263              	.LBB115:
 1264              		.loc 1 223 0 discriminator 8
 1265 07b4 29A8     		add	r0, sp, #164
 1266 07b6 FFF7FEFF 		bl	mcpwm_get_rpm_dep
 1267              	.LVL169:
 1268              		.loc 1 224 0 discriminator 8
 1269 07ba 2998     		ldr	r0, [sp, #164]	@ float
 1270 07bc FFF7FEFF 		bl	__aeabi_f2d
 1271              	.LVL170:
 1272 07c0 0246     		mov	r2, r0
 1273 07c2 0B46     		mov	r3, r1
 1274 07c4 6448     		ldr	r0, .L157+116
 1275 07c6 FFF7FEFF 		bl	commands_printf
 1276              	.LVL171:
 1277              		.loc 1 225 0 discriminator 8
 1278 07ca 2A98     		ldr	r0, [sp, #168]	@ float
 1279 07cc FFF7FEFF 		bl	__aeabi_f2d
 1280              	.LVL172:
 1281 07d0 0246     		mov	r2, r0
 1282 07d2 0B46     		mov	r3, r1
 1283 07d4 6148     		ldr	r0, .L157+120
 1284 07d6 FFF7FEFF 		bl	commands_printf
 1285              	.LVL173:
 1286              		.loc 1 226 0 discriminator 8
 1287 07da 2B98     		ldr	r0, [sp, #172]	@ float
 1288 07dc FFF7FEFF 		bl	__aeabi_f2d
 1289              	.LVL174:
 1290 07e0 0246     		mov	r2, r0
 1291 07e2 0B46     		mov	r3, r1
 1292 07e4 5E48     		ldr	r0, .L157+124
 1293 07e6 FFF7FEFF 		bl	commands_printf
 1294              	.LVL175:
 1295              	.LBE115:
 1296 07ea 77E4     		b	.L1
 1297              	.L46:
 1298              		.loc 1 254 0
 1299 07ec 5D49     		ldr	r1, .L157+128
 1300 07ee 2846     		mov	r0, r5
 1301 07f0 FFF7FEFF 		bl	strcmp
 1302              	.LVL176:
 1303 07f4 0646     		mov	r6, r0
 1304 07f6 60B1     		cbz	r0, .L145
 1305              		.loc 1 271 0
 1306 07f8 5B49     		ldr	r1, .L157+132
 1307 07fa 2846     		mov	r0, r5
 1308 07fc FFF7FEFF 		bl	strcmp
 1309              	.LVL177:
 1310 0800 0028     		cmp	r0, #0
 1311 0802 40F0FC80 		bne	.L54
ARM GAS  C:\Users\euanm\AppData\Local\Temp\ccGifpEY.s 			page 24


 1312              		.loc 1 272 0
 1313 0806 022C     		cmp	r4, #2
 1314 0808 4ED0     		beq	.L146
 1315              	.L55:
 1316              		.loc 1 300 0
 1317 080a 5848     		ldr	r0, .L157+136
 1318 080c FFF7FEFF 		bl	commands_printf
 1319              	.LVL178:
 1320 0810 64E4     		b	.L1
 1321              	.L145:
 1322              	.LBB116:
 1323              		.loc 1 255 0
 1324 0812 574B     		ldr	r3, .L157+140
 1325              	.LBB117:
 1326              	.LBB118:
 1327              		.loc 1 264 0
 1328 0814 9FED478A 		vldr.32	s16, .L157+80
 1329              	.LBB119:
 1330              	.LBB120:
 1331              	.LBB121:
 1332              	.LBB122:
 1333              		.loc 2 231 0
 1334 0818 454F     		ldr	r7, .L157+76
 1335              	.LBE122:
 1336              	.LBE121:
 1337              	.LBE120:
 1338              	.LBE119:
 1339              	.LBE118:
 1340              	.LBE117:
 1341              		.loc 1 255 0
 1342 081a 93E80700 		ldmia	r3, {r0, r1, r2}
 1343 081e 29AD     		add	r5, sp, #164
 1344 0820 85E80700 		stmia	r5, {r0, r1, r2}
 1345 0824 5822     		movs	r2, #88
 1346 0826 3146     		mov	r1, r6
 1347 0828 2CA8     		add	r0, sp, #176
 1348 082a FFF7FEFF 		bl	memset
 1349              	.LVL179:
 1350              		.loc 1 258 0
 1351 082e FFF7FEFF 		bl	mc_interface_get_rpm
 1352              	.LVL180:
 1353 0832 10EE100A 		vmov	r0, s0
 1354 0836 FFF7FEFF 		bl	__aeabi_f2d
 1355              	.LVL181:
 1356 083a 0246     		mov	r2, r0
 1357 083c 0B46     		mov	r3, r1
 1358 083e 21A8     		add	r0, sp, #132
 1359 0840 4C49     		ldr	r1, .L157+144
 1360 0842 FFF7FEFF 		bl	sprintf
 1361              	.LVL182:
 1362              		.loc 1 259 0
 1363 0846 21A9     		add	r1, sp, #132
 1364 0848 2846     		mov	r0, r5
 1365 084a FFF7FEFF 		bl	strcat
 1366              	.LVL183:
 1367              	.LBB130:
 1368              		.loc 1 261 0
ARM GAS  C:\Users\euanm\AppData\Local\Temp\ccGifpEY.s 			page 25


 1369 084e 3446     		mov	r4, r6
 1370              	.LVL184:
 1371              	.L53:
 1372              	.LBB128:
 1373              		.loc 1 262 0
 1374 0850 2046     		mov	r0, r4
 1375 0852 FFF7FEFF 		bl	comm_can_get_status_msg_index
 1376              	.LVL185:
 1377              		.loc 1 264 0
 1378 0856 0668     		ldr	r6, [r0]
 1379 0858 002E     		cmp	r6, #0
 1380 085a B7EE007A 		vmov.f32	s14, #1.0e+0
 1381              	.LBE128:
 1382              		.loc 1 261 0
 1383 085e 04F10104 		add	r4, r4, #1
 1384              	.LVL186:
 1385              	.LBB129:
 1386              		.loc 1 264 0
 1387 0862 1BDB     		blt	.L51
 1388              	.LBB126:
 1389              	.LBB125:
 1390              	.LBB124:
 1391              	.LBB123:
 1392              		.loc 2 231 0 discriminator 1
 1393 0864 BB6A     		ldr	r3, [r7, #40]
 1394              	.LVL187:
 1395              	.LBE123:
 1396              	.LBE124:
 1397              	.LBE125:
 1398              	.LBE126:
 1399              		.loc 1 264 0 discriminator 1
 1400 0866 4268     		ldr	r2, [r0, #4]
 1401 0868 9B1A     		subs	r3, r3, r2
 1402 086a 07EE903A 		vmov	s15, r3	@ int
 1403 086e F8EE677A 		vcvt.f32.u32	s15, s15
 1404 0872 C7EE886A 		vdiv.f32	s13, s15, s16
 1405 0876 F4EEC76A 		vcmpe.f32	s13, s14
 1406 087a F1EE10FA 		vmrs	APSR_nzcv, FPSCR
 1407 087e 0DD5     		bpl	.L51
 1408              	.LBB127:
 1409              		.loc 1 266 0
 1410 0880 8068     		ldr	r0, [r0, #8]	@ float
 1411              	.LVL188:
 1412 0882 FFF7FEFF 		bl	__aeabi_f2d
 1413              	.LVL189:
 1414 0886 3246     		mov	r2, r6
 1415 0888 CDE90001 		strd	r0, [sp]
 1416 088c 3A49     		ldr	r1, .L157+148
 1417 088e 25A8     		add	r0, sp, #148
 1418 0890 FFF7FEFF 		bl	sprintf
 1419              	.LVL190:
 1420              		.loc 1 267 0
 1421 0894 25A9     		add	r1, sp, #148
 1422 0896 2846     		mov	r0, r5
 1423 0898 FFF7FEFF 		bl	strcat
 1424              	.LVL191:
 1425              	.L51:
ARM GAS  C:\Users\euanm\AppData\Local\Temp\ccGifpEY.s 			page 26


 1426              	.LBE127:
 1427              	.LBE129:
 1428              		.loc 1 261 0 discriminator 2
 1429 089c 032C     		cmp	r4, #3
 1430 089e D7D1     		bne	.L53
 1431              	.LVL192:
 1432              	.L124:
 1433              	.LBE130:
 1434              		.loc 1 270 0 discriminator 11
 1435 08a0 2846     		mov	r0, r5
 1436 08a2 FFF7FEFF 		bl	commands_printf
 1437              	.LVL193:
 1438              	.LBE116:
 1439 08a6 19E4     		b	.L1
 1440              	.LVL194:
 1441              	.L146:
 1442              	.LBB131:
 1443              		.loc 1 273 0
 1444 08a8 344B     		ldr	r3, .L157+152
 1445              		.loc 1 274 0
 1446 08aa 4398     		ldr	r0, [sp, #268]
 1447 08ac 3449     		ldr	r1, .L157+156
 1448              		.loc 1 273 0
 1449 08ae 2193     		str	r3, [sp, #132]	@ float
 1450              		.loc 1 274 0
 1451 08b0 21AA     		add	r2, sp, #132
 1452 08b2 FFF7FEFF 		bl	sscanf
 1453              	.LVL195:
 1454              		.loc 1 276 0
 1455 08b6 DDED217A 		vldr.32	s15, [sp, #132]
 1456 08ba F5EEC07A 		vcmpe.f32	s15, #0
 1457 08be F1EE10FA 		vmrs	APSR_nzcv, FPSCR
 1458 08c2 4FF00005 		mov	r5, #0
 1459 08c6 07DD     		ble	.L121
 1460              		.loc 1 276 0 is_stmt 0 discriminator 1
 1461 08c8 2E4C     		ldr	r4, .L157+160
 1462              	.LVL196:
 1463 08ca 94ED017A 		vldr.32	s14, [r4, #4]
 1464 08ce F4EEC77A 		vcmpe.f32	s15, s14
 1465 08d2 F1EE10FA 		vmrs	APSR_nzcv, FPSCR
 1466 08d6 59D9     		bls	.L147
 1467              	.L121:
 1468              	.LBE131:
 1469              	.LBB133:
 1470              		.loc 1 417 0 is_stmt 1
 1471 08d8 2B48     		ldr	r0, .L157+164
 1472 08da FFF7FEFF 		bl	commands_printf
 1473              	.LVL197:
 1474 08de FFF7FDBB 		b	.L1
 1475              	.L158:
 1476 08e2 00BF     		.align	2
 1477              	.L157:
 1478 08e4 A4080000 		.word	.LC90
 1479 08e8 00000000 		.word	ADC_Value
 1480 08ec 6740533A 		.word	978534503
 1481 08f0 D145FF41 		.word	1107248593
 1482 08f4 B0050000 		.word	.LC62
ARM GAS  C:\Users\euanm\AppData\Local\Temp\ccGifpEY.s 			page 27


 1483 08f8 00000140 		.word	1073807360
 1484 08fc 00040140 		.word	1073808384
 1485 0900 F4040000 		.word	.LC50
 1486 0904 04050000 		.word	.LC51
 1487 0908 14050000 		.word	.LC52
 1488 090c 24050000 		.word	.LC53
 1489 0910 34050000 		.word	.LC54
 1490 0914 44050000 		.word	.LC55
 1491 0918 4C050000 		.word	.LC56
 1492 091c 58050000 		.word	.LC57
 1493 0920 64050000 		.word	.LC58
 1494 0924 78050000 		.word	.LC59
 1495 0928 90050000 		.word	.LC60
 1496 092c B0070000 		.word	.LC80
 1497 0930 00000000 		.word	ch
 1498 0934 00401C46 		.word	1176256512
 1499 0938 00007A44 		.word	1148846080
 1500 093c E0070000 		.word	.LC81
 1501 0940 F8070000 		.word	.LC82
 1502 0944 10080000 		.word	.LC83
 1503 0948 2C080000 		.word	.LC84
 1504 094c 48080000 		.word	.LC85
 1505 0950 64080000 		.word	.LC86
 1506 0954 7C080000 		.word	.LC87
 1507 0958 50070000 		.word	.LC76
 1508 095c 68070000 		.word	.LC77
 1509 0960 88070000 		.word	.LC78
 1510 0964 A8080000 		.word	.LC91
 1511 0968 CC080000 		.word	.LC95
 1512 096c 28090000 		.word	.LC100
 1513 0970 64000000 		.word	.LANCHOR5+100
 1514 0974 B4080000 		.word	.LC93
 1515 0978 C0080000 		.word	.LC94
 1516 097c 000080BF 		.word	-1082130432
 1517 0980 D8050000 		.word	.LC64
 1518 0984 00000000 		.word	.LANCHOR0
 1519 0988 08070000 		.word	.LC73
 1520              	.L147:
 1521              	.LBE133:
 1522              	.LBB139:
 1523              		.loc 1 277 0
 1524 098c FFF7FEFF 		bl	encoder_is_configured
 1525              	.LVL198:
 1526 0990 0028     		cmp	r0, #0
 1527 0992 00F0DD80 		beq	.L59
 1528              	.LBB132:
 1529              		.loc 1 279 0
 1530 0996 0223     		movs	r3, #2
 1531              		.loc 1 280 0
 1532 0998 2046     		mov	r0, r4
 1533              		.loc 1 278 0
 1534 099a A678     		ldrb	r6, [r4, #2]	@ zero_extendqisi2
 1535              	.LVL199:
 1536              		.loc 1 279 0
 1537 099c A370     		strb	r3, [r4, #2]
 1538              		.loc 1 284 0
 1539 099e 0027     		movs	r7, #0
ARM GAS  C:\Users\euanm\AppData\Local\Temp\ccGifpEY.s 			page 28


 1540              		.loc 1 280 0
 1541 09a0 FFF7FEFF 		bl	mc_interface_set_configuration
 1542              	.LVL200:
 1543              		.loc 1 285 0
 1544 09a4 9DED210A 		vldr.32	s0, [sp, #132]
 1545              		.loc 1 282 0
 1546 09a8 2595     		str	r5, [sp, #148]	@ float
 1547              		.loc 1 285 0
 1548 09aa 29AA     		add	r2, sp, #164
 1549 09ac 20AB     		add	r3, sp, #128
 1550 09ae 25A9     		add	r1, sp, #148
 1551 09b0 0120     		movs	r0, #1
 1552              		.loc 1 283 0
 1553 09b2 2995     		str	r5, [sp, #164]	@ float
 1554              		.loc 1 284 0
 1555 09b4 8DF88070 		strb	r7, [sp, #128]
 1556              		.loc 1 285 0
 1557 09b8 FFF7FEFF 		bl	mcpwm_foc_encoder_detect
 1558              	.LVL201:
 1559              		.loc 1 288 0
 1560 09bc 2046     		mov	r0, r4
 1561              		.loc 1 287 0
 1562 09be A670     		strb	r6, [r4, #2]
 1563              		.loc 1 288 0
 1564 09c0 FFF7FEFF 		bl	mc_interface_set_configuration
 1565              	.LVL202:
 1566              		.loc 1 290 0
 1567 09c4 2598     		ldr	r0, [sp, #148]	@ float
 1568 09c6 FFF7FEFF 		bl	__aeabi_f2d
 1569              	.LVL203:
 1570 09ca 0246     		mov	r2, r0
 1571 09cc 0B46     		mov	r3, r1
 1572 09ce BE48     		ldr	r0, .L159
 1573 09d0 FFF7FEFF 		bl	commands_printf
 1574              	.LVL204:
 1575              		.loc 1 291 0
 1576 09d4 2998     		ldr	r0, [sp, #164]	@ float
 1577 09d6 FFF7FEFF 		bl	__aeabi_f2d
 1578              	.LVL205:
 1579 09da 0246     		mov	r2, r0
 1580 09dc 0B46     		mov	r3, r1
 1581 09de BB48     		ldr	r0, .L159+4
 1582 09e0 FFF7FEFF 		bl	commands_printf
 1583              	.LVL206:
 1584              		.loc 1 292 0
 1585 09e4 9DF88010 		ldrb	r1, [sp, #128]	@ zero_extendqisi2
 1586 09e8 B94A     		ldr	r2, .L159+8
 1587 09ea BA4B     		ldr	r3, .L159+12
 1588 09ec BA48     		ldr	r0, .L159+16
 1589 09ee B942     		cmp	r1, r7
 1590 09f0 14BF     		ite	ne
 1591 09f2 1146     		movne	r1, r2
 1592 09f4 1946     		moveq	r1, r3
 1593 09f6 FFF7FEFF 		bl	commands_printf
 1594              	.LVL207:
 1595              	.LBE132:
 1596 09fa FFF76FBB 		b	.L1
ARM GAS  C:\Users\euanm\AppData\Local\Temp\ccGifpEY.s 			page 29


 1597              	.LVL208:
 1598              	.L54:
 1599              	.LBE139:
 1600              		.loc 1 302 0
 1601 09fe B749     		ldr	r1, .L159+20
 1602 0a00 2846     		mov	r0, r5
 1603 0a02 FFF7FEFF 		bl	strcmp
 1604              	.LVL209:
 1605 0a06 0028     		cmp	r0, #0
 1606 0a08 40F0A780 		bne	.L62
 1607              		.loc 1 303 0
 1608 0a0c 022C     		cmp	r4, #2
 1609 0a0e 7FF4FCAE 		bne	.L55
 1610              	.LBB140:
 1611              		.loc 1 304 0
 1612 0a12 B34B     		ldr	r3, .L159+24
 1613              		.loc 1 305 0
 1614 0a14 4398     		ldr	r0, [sp, #268]
 1615 0a16 B349     		ldr	r1, .L159+28
 1616              		.loc 1 304 0
 1617 0a18 2993     		str	r3, [sp, #164]	@ float
 1618              		.loc 1 305 0
 1619 0a1a 29AA     		add	r2, sp, #164
 1620 0a1c FFF7FEFF 		bl	sscanf
 1621              	.LVL210:
 1622              		.loc 1 307 0
 1623 0a20 DDED297A 		vldr.32	s15, [sp, #164]
 1624 0a24 F5EEC07A 		vcmpe.f32	s15, #0
 1625 0a28 F1EE10FA 		vmrs	APSR_nzcv, FPSCR
 1626 0a2c 7FF754AF 		ble	.L121
 1627              		.loc 1 307 0 is_stmt 0 discriminator 1
 1628 0a30 AD4B     		ldr	r3, .L159+32
 1629 0a32 93ED017A 		vldr.32	s14, [r3, #4]
 1630 0a36 F4EEC77A 		vcmpe.f32	s15, s14
 1631 0a3a F1EE10FA 		vmrs	APSR_nzcv, FPSCR
 1632 0a3e 3FF64BAF 		bhi	.L121
 1633              		.loc 1 309 0 is_stmt 1
 1634 0a42 1846     		mov	r0, r3
 1635              		.loc 1 308 0
 1636 0a44 9C70     		strb	r4, [r3, #2]
 1637              		.loc 1 309 0
 1638 0a46 FFF7FEFF 		bl	mc_interface_set_configuration
 1639              	.LVL211:
 1640              		.loc 1 311 0
 1641 0a4a 4FF4FA60 		mov	r0, #2000
 1642 0a4e 9DED290A 		vldr.32	s0, [sp, #164]
 1643 0a52 FFF7FEFF 		bl	mcpwm_foc_measure_resistance
 1644              	.LVL212:
 1645 0a56 10EE100A 		vmov	r0, s0
 1646 0a5a FFF7FEFF 		bl	__aeabi_f2d
 1647              	.LVL213:
 1648 0a5e 0246     		mov	r2, r0
 1649 0a60 0B46     		mov	r3, r1
 1650 0a62 A248     		ldr	r0, .L159+36
 1651 0a64 FFF7FEFF 		bl	commands_printf
 1652              	.LVL214:
 1653              		.loc 1 313 0
ARM GAS  C:\Users\euanm\AppData\Local\Temp\ccGifpEY.s 			page 30


 1654 0a68 A148     		ldr	r0, .L159+40
 1655 0a6a FFF7FEFF 		bl	mc_interface_set_configuration
 1656              	.LVL215:
 1657 0a6e FFF735BB 		b	.L1
 1658              	.L142:
 1659              	.LBE140:
 1660              	.LBB141:
 1661              		.loc 1 179 0
 1662 0a72 9B4B     		ldr	r3, .L159+24
 1663              		.loc 1 182 0
 1664 0a74 9B49     		ldr	r1, .L159+28
 1665 0a76 4398     		ldr	r0, [sp, #268]
 1666              		.loc 1 179 0
 1667 0a78 1D93     		str	r3, [sp, #116]	@ float
 1668              		.loc 1 182 0
 1669 0a7a 1DAA     		add	r2, sp, #116
 1670              		.loc 1 180 0
 1671 0a7c 1E93     		str	r3, [sp, #120]	@ float
 1672              		.loc 1 181 0
 1673 0a7e 1F93     		str	r3, [sp, #124]	@ float
 1674              		.loc 1 182 0
 1675 0a80 FFF7FEFF 		bl	sscanf
 1676              	.LVL216:
 1677              		.loc 1 183 0
 1678 0a84 1EAA     		add	r2, sp, #120
 1679 0a86 9749     		ldr	r1, .L159+28
 1680 0a88 4498     		ldr	r0, [sp, #272]
 1681 0a8a FFF7FEFF 		bl	sscanf
 1682              	.LVL217:
 1683              		.loc 1 184 0
 1684 0a8e 1FAA     		add	r2, sp, #124
 1685 0a90 4598     		ldr	r0, [sp, #276]
 1686 0a92 9449     		ldr	r1, .L159+28
 1687 0a94 FFF7FEFF 		bl	sscanf
 1688              	.LVL218:
 1689              		.loc 1 186 0
 1690 0a98 9DED1D0A 		vldr.32	s0, [sp, #116]
 1691 0a9c B5EEC00A 		vcmpe.f32	s0, #0
 1692 0aa0 F1EE10FA 		vmrs	APSR_nzcv, FPSCR
 1693 0aa4 7FF718AF 		ble	.L121
 1694              		.loc 1 186 0 is_stmt 0 discriminator 1
 1695 0aa8 8F4B     		ldr	r3, .L159+32
 1696 0aaa D3ED017A 		vldr.32	s15, [r3, #4]
 1697 0aae B4EEE70A 		vcmpe.f32	s0, s15
 1698 0ab2 F1EE10FA 		vmrs	APSR_nzcv, FPSCR
 1699 0ab6 7FF50FAF 		bpl	.L121
 1700              		.loc 1 187 0 is_stmt 1 discriminator 2
 1701 0aba DDED1E0A 		vldr.32	s1, [sp, #120]
 1702              		.loc 1 186 0 discriminator 2
 1703 0abe F2EE047A 		vmov.f32	s15, #1.0e+1
 1704 0ac2 F4EEE70A 		vcmpe.f32	s1, s15
 1705 0ac6 F1EE10FA 		vmrs	APSR_nzcv, FPSCR
 1706 0aca 7FF705AF 		ble	.L121
 1707              		.loc 1 187 0
 1708 0ace DFED897A 		vldr.32	s15, .L159+44
 1709 0ad2 F4EEE70A 		vcmpe.f32	s1, s15
 1710 0ad6 F1EE10FA 		vmrs	APSR_nzcv, FPSCR
ARM GAS  C:\Users\euanm\AppData\Local\Temp\ccGifpEY.s 			page 31


 1711 0ada 7FF5FDAE 		bpl	.L121
 1712              		.loc 1 188 0 discriminator 1
 1713 0ade 9DED1F1A 		vldr.32	s2, [sp, #124]
 1714              		.loc 1 187 0 discriminator 1
 1715 0ae2 DFED857A 		vldr.32	s15, .L159+48
 1716 0ae6 B4EEE71A 		vcmpe.f32	s2, s15
 1717 0aea F1EE10FA 		vmrs	APSR_nzcv, FPSCR
 1718 0aee 7FF7F3AE 		ble	.L121
 1719              		.loc 1 188 0
 1720 0af2 DFED827A 		vldr.32	s15, .L159+52
 1721 0af6 B4EEE71A 		vcmpe.f32	s2, s15
 1722 0afa F1EE10FA 		vmrs	APSR_nzcv, FPSCR
 1723 0afe 7FF5EBAE 		bpl	.L121
 1724              	.LBB142:
 1725              		.loc 1 194 0
 1726 0b02 25AB     		add	r3, sp, #148
 1727 0b04 29AA     		add	r2, sp, #164
 1728 0b06 21A9     		add	r1, sp, #132
 1729 0b08 20A8     		add	r0, sp, #128
 1730 0b0a FFF7FEFF 		bl	conf_general_detect_motor_param
 1731              	.LVL219:
 1732 0b0e 0028     		cmp	r0, #0
 1733 0b10 78D0     		beq	.L35
 1734              		.loc 1 195 0
 1735 0b12 2098     		ldr	r0, [sp, #128]	@ float
 1736 0b14 FFF7FEFF 		bl	__aeabi_f2d
 1737              	.LVL220:
 1738 0b18 0246     		mov	r2, r0
 1739 0b1a 0B46     		mov	r3, r1
 1740 0b1c 7848     		ldr	r0, .L159+56
 1741 0b1e FFF7FEFF 		bl	commands_printf
 1742              	.LVL221:
 1743              		.loc 1 196 0
 1744 0b22 2198     		ldr	r0, [sp, #132]	@ float
 1745 0b24 FFF7FEFF 		bl	__aeabi_f2d
 1746              	.LVL222:
 1747 0b28 0246     		mov	r2, r0
 1748 0b2a 0B46     		mov	r3, r1
 1749 0b2c 7548     		ldr	r0, .L159+60
 1750 0b2e FFF7FEFF 		bl	commands_printf
 1751              	.LVL223:
 1752              		.loc 1 198 0
 1753 0b32 259B     		ldr	r3, [sp, #148]
 1754 0b34 002B     		cmp	r3, #0
 1755 0b36 4AD0     		beq	.L148
 1756              		.loc 1 203 0
 1757 0b38 591C     		adds	r1, r3, #1
 1758 0b3a 68D0     		beq	.L149
 1759              		.loc 1 208 0
 1760 0b3c 9A1C     		adds	r2, r3, #2
 1761 0b3e 41D0     		beq	.L150
 1762              		.loc 1 210 0
 1763 0b40 0333     		adds	r3, r3, #3
 1764 0b42 7FF4CBAA 		bne	.L1
 1765              		.loc 1 211 0
 1766 0b46 7048     		ldr	r0, .L159+64
 1767 0b48 FFF7FEFF 		bl	commands_printf
ARM GAS  C:\Users\euanm\AppData\Local\Temp\ccGifpEY.s 			page 32


 1768              	.LVL224:
 1769 0b4c FFF7C6BA 		b	.L1
 1770              	.LVL225:
 1771              	.L59:
 1772              	.LBE142:
 1773              	.LBE141:
 1774              	.LBB145:
 1775              		.loc 1 294 0
 1776 0b50 6E48     		ldr	r0, .L159+68
 1777 0b52 FFF7FEFF 		bl	commands_printf
 1778              	.LVL226:
 1779 0b56 FFF7C1BA 		b	.L1
 1780              	.LVL227:
 1781              	.L62:
 1782              	.LBE145:
 1783              		.loc 1 320 0
 1784 0b5a 6D49     		ldr	r1, .L159+72
 1785 0b5c 2846     		mov	r0, r5
 1786 0b5e FFF7FEFF 		bl	strcmp
 1787              	.LVL228:
 1788 0b62 0646     		mov	r6, r0
 1789 0b64 0028     		cmp	r0, #0
 1790 0b66 54D1     		bne	.L67
 1791              		.loc 1 321 0
 1792 0b68 022C     		cmp	r4, #2
 1793 0b6a 7FF44EAE 		bne	.L55
 1794              	.LBB146:
 1795              		.loc 1 322 0
 1796 0b6e 5C4B     		ldr	r3, .L159+24
 1797              		.loc 1 323 0
 1798 0b70 4398     		ldr	r0, [sp, #268]
 1799 0b72 5C49     		ldr	r1, .L159+28
 1800              		.loc 1 322 0
 1801 0b74 2993     		str	r3, [sp, #164]	@ float
 1802              		.loc 1 323 0
 1803 0b76 29AA     		add	r2, sp, #164
 1804 0b78 FFF7FEFF 		bl	sscanf
 1805              	.LVL229:
 1806              		.loc 1 325 0
 1807 0b7c DDED297A 		vldr.32	s15, [sp, #164]
 1808 0b80 F5EEC07A 		vcmpe.f32	s15, #0
 1809 0b84 F1EE10FA 		vmrs	APSR_nzcv, FPSCR
 1810 0b88 7FF7A6AE 		ble	.L121
 1811              		.loc 1 326 0
 1812 0b8c 564B     		ldr	r3, .L159+32
 1813              		.loc 1 327 0
 1814 0b8e 614A     		ldr	r2, .L159+76
 1815              		.loc 1 326 0
 1816 0b90 9C70     		strb	r4, [r3, #2]
 1817              		.loc 1 328 0
 1818 0b92 1846     		mov	r0, r3
 1819              		.loc 1 327 0
 1820 0b94 C3F89C20 		str	r2, [r3, #156]	@ float
 1821              		.loc 1 328 0
 1822 0b98 FFF7FEFF 		bl	mc_interface_set_configuration
 1823              	.LVL230:
 1824              		.loc 1 330 0
ARM GAS  C:\Users\euanm\AppData\Local\Temp\ccGifpEY.s 			page 33


 1825 0b9c C820     		movs	r0, #200
 1826 0b9e 3146     		mov	r1, r6
 1827 0ba0 9DED290A 		vldr.32	s0, [sp, #164]
 1828 0ba4 FFF7FEFF 		bl	mcpwm_foc_measure_inductance
 1829              	.LVL231:
 1830 0ba8 10EE100A 		vmov	r0, s0
 1831              	.L126:
 1832              	.LBE146:
 1833              	.LBB147:
 1834              		.loc 1 368 0 discriminator 23
 1835 0bac FFF7FEFF 		bl	__aeabi_f2d
 1836              	.LVL232:
 1837 0bb0 0246     		mov	r2, r0
 1838 0bb2 0B46     		mov	r3, r1
 1839 0bb4 5848     		ldr	r0, .L159+80
 1840 0bb6 FFF7FEFF 		bl	commands_printf
 1841              	.LVL233:
 1842              		.loc 1 370 0 discriminator 23
 1843 0bba 4D48     		ldr	r0, .L159+40
 1844 0bbc FFF7FEFF 		bl	mc_interface_set_configuration
 1845              	.LVL234:
 1846              	.LBE147:
 1847 0bc0 FFF78CBA 		b	.L1
 1848              	.L150:
 1849              	.LBB148:
 1850              	.LBB143:
 1851              		.loc 1 209 0
 1852 0bc4 5548     		ldr	r0, .L159+84
 1853 0bc6 FFF7FEFF 		bl	commands_printf
 1854              	.LVL235:
 1855 0bca FFF787BA 		b	.L1
 1856              	.L148:
 1857              		.loc 1 199 0
 1858 0bce 5448     		ldr	r0, .L159+88
 1859              	.L123:
 1860              		.loc 1 204 0
 1861 0bd0 FFF7FEFF 		bl	commands_printf
 1862              	.LVL236:
 1863              		.loc 1 205 0
 1864 0bd4 9DF9A700 		ldrsb	r0, [sp, #167]
 1865 0bd8 9DF9AA60 		ldrsb	r6, [sp, #170]
 1866 0bdc 9DF9A950 		ldrsb	r5, [sp, #169]
 1867 0be0 9DF9A840 		ldrsb	r4, [sp, #168]
 1868              	.LVL237:
 1869 0be4 9DF9AB70 		ldrsb	r7, [sp, #171]
 1870 0be8 9DF9A630 		ldrsb	r3, [sp, #166]
 1871 0bec 9DF9A520 		ldrsb	r2, [sp, #165]
 1872 0bf0 9DF9A410 		ldrsb	r1, [sp, #164]
 1873 0bf4 0497     		str	r7, [sp, #16]
 1874 0bf6 8DE87100 		stmia	sp, {r0, r4, r5, r6}
 1875 0bfa 4A48     		ldr	r0, .L159+92
 1876 0bfc FFF7FEFF 		bl	commands_printf
 1877              	.LVL238:
 1878 0c00 FFF76CBA 		b	.L1
 1879              	.LVL239:
 1880              	.L35:
 1881              		.loc 1 214 0
ARM GAS  C:\Users\euanm\AppData\Local\Temp\ccGifpEY.s 			page 34


 1882 0c04 4848     		ldr	r0, .L159+96
 1883 0c06 FFF7FEFF 		bl	commands_printf
 1884              	.LVL240:
 1885              	.LBE143:
 1886              		.loc 1 188 0
 1887 0c0a FFF767BA 		b	.L1
 1888              	.L149:
 1889              	.LBB144:
 1890              		.loc 1 204 0
 1891 0c0e 4748     		ldr	r0, .L159+100
 1892 0c10 DEE7     		b	.L123
 1893              	.L67:
 1894              	.LBE144:
 1895              	.LBE148:
 1896              		.loc 1 339 0
 1897 0c12 4749     		ldr	r1, .L159+104
 1898 0c14 2846     		mov	r0, r5
 1899 0c16 FFF7FEFF 		bl	strcmp
 1900              	.LVL241:
 1901 0c1a 0028     		cmp	r0, #0
 1902 0c1c 40F08C80 		bne	.L71
 1903              		.loc 1 340 0
 1904 0c20 052C     		cmp	r4, #5
 1905 0c22 7FF4F2AD 		bne	.L55
 1906              	.LBB149:
 1907              		.loc 1 341 0
 1908 0c26 2E4B     		ldr	r3, .L159+24
 1909              		.loc 1 345 0
 1910 0c28 2E49     		ldr	r1, .L159+28
 1911 0c2a 4398     		ldr	r0, [sp, #268]
 1912              		.loc 1 341 0
 1913 0c2c 1F93     		str	r3, [sp, #124]	@ float
 1914              		.loc 1 345 0
 1915 0c2e 1FAA     		add	r2, sp, #124
 1916              		.loc 1 342 0
 1917 0c30 2093     		str	r3, [sp, #128]	@ float
 1918              		.loc 1 343 0
 1919 0c32 2193     		str	r3, [sp, #132]	@ float
 1920              		.loc 1 344 0
 1921 0c34 2593     		str	r3, [sp, #148]	@ float
 1922              		.loc 1 345 0
 1923 0c36 FFF7FEFF 		bl	sscanf
 1924              	.LVL242:
 1925              		.loc 1 346 0
 1926 0c3a 20AA     		add	r2, sp, #128
 1927 0c3c 2949     		ldr	r1, .L159+28
 1928 0c3e 4498     		ldr	r0, [sp, #272]
 1929 0c40 FFF7FEFF 		bl	sscanf
 1930              	.LVL243:
 1931              		.loc 1 347 0
 1932 0c44 21AA     		add	r2, sp, #132
 1933 0c46 2749     		ldr	r1, .L159+28
 1934 0c48 4598     		ldr	r0, [sp, #276]
 1935 0c4a FFF7FEFF 		bl	sscanf
 1936              	.LVL244:
 1937              		.loc 1 348 0
 1938 0c4e 25AA     		add	r2, sp, #148
ARM GAS  C:\Users\euanm\AppData\Local\Temp\ccGifpEY.s 			page 35


 1939 0c50 4698     		ldr	r0, [sp, #280]
 1940 0c52 2449     		ldr	r1, .L159+28
 1941 0c54 FFF7FEFF 		bl	sscanf
 1942              	.LVL245:
 1943              		.loc 1 350 0
 1944 0c58 9DED1F0A 		vldr.32	s0, [sp, #124]
 1945 0c5c B5EEC00A 		vcmpe.f32	s0, #0
 1946 0c60 F1EE10FA 		vmrs	APSR_nzcv, FPSCR
 1947 0c64 7FF738AE 		ble	.L121
 1948              		.loc 1 350 0 is_stmt 0 discriminator 1
 1949 0c68 1F4B     		ldr	r3, .L159+32
 1950 0c6a D3ED017A 		vldr.32	s15, [r3, #4]
 1951 0c6e B4EEE70A 		vcmpe.f32	s0, s15
 1952 0c72 F1EE10FA 		vmrs	APSR_nzcv, FPSCR
 1953 0c76 3FF62FAE 		bhi	.L121
 1954              		.loc 1 350 0 discriminator 2
 1955 0c7a 9DED211A 		vldr.32	s2, [sp, #132]
 1956 0c7e B5EEC01A 		vcmpe.f32	s2, #0
 1957 0c82 F1EE10FA 		vmrs	APSR_nzcv, FPSCR
 1958 0c86 7FF727AE 		ble	.L121
 1959              		.loc 1 350 0 discriminator 3
 1960 0c8a DDED200A 		vldr.32	s1, [sp, #128]
 1961 0c8e DFED1A7A 		vldr.32	s15, .L159+48
 1962 0c92 F4EEE70A 		vcmpe.f32	s1, s15
 1963 0c96 F1EE10FA 		vmrs	APSR_nzcv, FPSCR
 1964 0c9a 7FF71DAE 		ble	.L121
 1965              		.loc 1 350 0 discriminator 4
 1966 0c9e DDED251A 		vldr.32	s3, [sp, #148]
 1967 0ca2 F5EEC01A 		vcmpe.f32	s3, #0
 1968 0ca6 F1EE10FA 		vmrs	APSR_nzcv, FPSCR
 1969 0caa FFF615AE 		blt	.L121
 1970              	.LBB150:
 1971              		.loc 1 352 0 is_stmt 1
 1972 0cae 29A8     		add	r0, sp, #164
 1973 0cb0 FFF7FEFF 		bl	conf_general_measure_flux_linkage
 1974              	.LVL246:
 1975              		.loc 1 353 0
 1976 0cb4 2998     		ldr	r0, [sp, #164]	@ float
 1977              	.LVL247:
 1978              	.L125:
 1979              	.LBE150:
 1980              	.LBE149:
 1981              	.LBB151:
 1982              	.LBB134:
 1983              		.loc 1 415 0
 1984 0cb6 FFF7FEFF 		bl	__aeabi_f2d
 1985              	.LVL248:
 1986 0cba 0246     		mov	r2, r0
 1987 0cbc 0B46     		mov	r3, r1
 1988 0cbe 1D48     		ldr	r0, .L159+108
 1989 0cc0 FFF7FEFF 		bl	commands_printf
 1990              	.LVL249:
 1991              	.LBE134:
 1992 0cc4 FFF70ABA 		b	.L1
 1993              	.L160:
 1994              		.align	2
 1995              	.L159:
ARM GAS  C:\Users\euanm\AppData\Local\Temp\ccGifpEY.s 			page 36


 1996 0cc8 E0080000 		.word	.LC96
 1997 0ccc F0080000 		.word	.LC97
 1998 0cd0 00000000 		.word	.LC0
 1999 0cd4 08000000 		.word	.LC1
 2000 0cd8 00090000 		.word	.LC98
 2001 0cdc 50090000 		.word	.LC101
 2002 0ce0 000080BF 		.word	-1082130432
 2003 0ce4 D8050000 		.word	.LC64
 2004 0ce8 00000000 		.word	.LANCHOR0
 2005 0cec 5C090000 		.word	.LC102
 2006 0cf0 00000000 		.word	.LANCHOR1
 2007 0cf4 00803B45 		.word	1161527296
 2008 0cf8 0AD7A33C 		.word	1017370378
 2009 0cfc CDCC4C3F 		.word	1061997773
 2010 0d00 DC050000 		.word	.LC65
 2011 0d04 FC050000 		.word	.LC66
 2012 0d08 A0060000 		.word	.LC71
 2013 0d0c 10090000 		.word	.LC99
 2014 0d10 74090000 		.word	.LC103
 2015 0d14 00803B45 		.word	1161527296
 2016 0d18 80090000 		.word	.LC104
 2017 0d1c 70060000 		.word	.LC70
 2018 0d20 14060000 		.word	.LC67
 2019 0d24 30060000 		.word	.LC68
 2020 0d28 D0060000 		.word	.LC72
 2021 0d2c 50060000 		.word	.LC69
 2022 0d30 A0090000 		.word	.LC105
 2023 0d34 B0090000 		.word	.LC106
 2024              	.LVL250:
 2025              	.L71:
 2026              	.LBE151:
 2027              		.loc 1 360 0
 2028 0d38 AA49     		ldr	r1, .L161
 2029 0d3a 2846     		mov	r0, r5
 2030 0d3c FFF7FEFF 		bl	strcmp
 2031              	.LVL251:
 2032 0d40 0028     		cmp	r0, #0
 2033 0d42 00F08280 		beq	.L151
 2034              		.loc 1 371 0
 2035 0d46 A849     		ldr	r1, .L161+4
 2036 0d48 2846     		mov	r0, r5
 2037 0d4a FFF7FEFF 		bl	strcmp
 2038              	.LVL252:
 2039 0d4e 0646     		mov	r6, r0
 2040 0d50 0028     		cmp	r0, #0
 2041 0d52 40F09180 		bne	.L80
 2042              		.loc 1 372 0
 2043 0d56 022C     		cmp	r4, #2
 2044 0d58 7FF457AD 		bne	.L55
 2045              	.LBB152:
 2046              		.loc 1 373 0
 2047 0d5c 29AD     		add	r5, sp, #164
 2048 0d5e A34B     		ldr	r3, .L161+8
 2049              		.loc 1 374 0
 2050 0d60 4398     		ldr	r0, [sp, #268]
 2051 0d62 A349     		ldr	r1, .L161+12
 2052              		.loc 1 373 0
ARM GAS  C:\Users\euanm\AppData\Local\Temp\ccGifpEY.s 			page 37


 2053 0d64 2B60     		str	r3, [r5]	@ float
 2054              		.loc 1 374 0
 2055 0d66 2A46     		mov	r2, r5
 2056 0d68 FFF7FEFF 		bl	sscanf
 2057              	.LVL253:
 2058              		.loc 1 376 0
 2059 0d6c D5ED007A 		vldr.32	s15, [r5]
 2060 0d70 F5EEC07A 		vcmpe.f32	s15, #0
 2061 0d74 F1EE10FA 		vmrs	APSR_nzcv, FPSCR
 2062 0d78 7FF7AEAD 		ble	.L121
 2063              	.LBB138:
 2064              		.loc 1 377 0
 2065 0d7c 9D4F     		ldr	r7, .L161+16
 2066              	.LBB135:
 2067              		.loc 1 387 0
 2068 0d7e 9FED9E8A 		vldr.32	s16, .L161+20
 2069              	.LBE135:
 2070              		.loc 1 377 0
 2071 0d82 BC70     		strb	r4, [r7, #2]
 2072              		.loc 1 378 0
 2073 0d84 3846     		mov	r0, r7
 2074 0d86 FFF7FEFF 		bl	mc_interface_set_configuration
 2075              	.LVL254:
 2076              		.loc 1 379 0
 2077 0d8a D7ED2D7A 		vldr.32	s15, [r7, #180]
 2078 0d8e B7EE089A 		vmov.f32	s18, #1.5e+0
 2079 0d92 27EE899A 		vmul.f32	s18, s15, s18
 2080              	.LVL255:
 2081              		.loc 1 382 0
 2082 0d96 FFF7FEFF 		bl	timeout_get_timeout_msec
 2083              	.LVL256:
 2084 0d9a 0746     		mov	r7, r0
 2085              	.LVL257:
 2086              		.loc 1 383 0
 2087 0d9c FFF7FEFF 		bl	timeout_get_brake_current
 2088              	.LVL258:
 2089              		.loc 1 384 0
 2090 0da0 4EF66020 		movw	r0, #60000
 2091              		.loc 1 383 0
 2092 0da4 F0EE40AA 		vmov.f32	s21, s0
 2093              	.LVL259:
 2094              		.loc 1 384 0
 2095 0da8 9FED940A 		vldr.32	s0, .L161+24
 2096              	.LVL260:
 2097 0dac FFF7FEFF 		bl	timeout_configure
 2098              	.LVL261:
 2099              	.LBB136:
 2100              		.loc 1 386 0
 2101 0db0 3446     		mov	r4, r6
 2102              	.LVL262:
 2103              	.L83:
 2104              		.loc 1 387 0 discriminator 3
 2105 0db2 07EE904A 		vmov	s15, r4	@ int
 2106 0db6 B8EEE77A 		vcvt.f32.s32	s14, s15
 2107 0dba D5ED007A 		vldr.32	s15, [r5]
 2108 0dbe 87EE080A 		vdiv.f32	s0, s14, s16
 2109              		.loc 1 386 0 discriminator 3
ARM GAS  C:\Users\euanm\AppData\Local\Temp\ccGifpEY.s 			page 38


 2110 0dc2 0134     		adds	r4, r4, #1
 2111              	.LVL263:
 2112              		.loc 1 387 0 discriminator 3
 2113 0dc4 20EE270A 		vmul.f32	s0, s0, s15
 2114 0dc8 FFF7FEFF 		bl	mc_interface_set_duty
 2115              	.LVL264:
 2116              		.loc 1 388 0 discriminator 3
 2117 0dcc C820     		movs	r0, #200
 2118 0dce FFF7FEFF 		bl	chThdSleep
 2119              	.LVL265:
 2120              		.loc 1 386 0 discriminator 3
 2121 0dd2 642C     		cmp	r4, #100
 2122 0dd4 EDD1     		bne	.L83
 2123 0dd6 9FED898A 		vldr.32	s16, .L161+24
 2124 0dda 4FF47A74 		mov	r4, #1000
 2125              	.LVL266:
 2126 0dde F0EE488A 		vmov.f32	s17, s16
 2127 0de2 F0EE489A 		vmov.f32	s19, s16
 2128 0de6 B0EE48AA 		vmov.f32	s20, s16
 2129              	.LBE136:
 2130              	.LBB137:
 2131              		.loc 1 399 0 discriminator 3
 2132 0dea B7EE00BA 		vmov.f32	s22, #1.0e+0
 2133              	.L84:
 2134              	.LVL267:
 2135              		.loc 1 396 0 discriminator 3
 2136 0dee FFF7FEFF 		bl	mcpwm_foc_get_vq
 2137              	.LVL268:
 2138 0df2 3AEE00AA 		vadd.f32	s20, s20, s0
 2139              	.LVL269:
 2140              		.loc 1 397 0 discriminator 3
 2141 0df6 FFF7FEFF 		bl	mc_interface_get_rpm
 2142              	.LVL270:
 2143 0dfa 79EE809A 		vadd.f32	s19, s19, s0
 2144              	.LVL271:
 2145              		.loc 1 398 0 discriminator 3
 2146 0dfe FFF7FEFF 		bl	mc_interface_get_tot_current_directional
 2147              	.LVL272:
 2148              		.loc 1 400 0 discriminator 3
 2149 0e02 0A20     		movs	r0, #10
 2150              		.loc 1 398 0 discriminator 3
 2151 0e04 38EE008A 		vadd.f32	s16, s16, s0
 2152              	.LVL273:
 2153              		.loc 1 400 0 discriminator 3
 2154 0e08 FFF7FEFF 		bl	chThdSleep
 2155              	.LVL274:
 2156              		.loc 1 395 0 discriminator 3
 2157 0e0c 013C     		subs	r4, r4, #1
 2158              	.LVL275:
 2159              		.loc 1 399 0 discriminator 3
 2160 0e0e 78EE8B8A 		vadd.f32	s17, s17, s22
 2161              	.LVL276:
 2162              		.loc 1 395 0 discriminator 3
 2163 0e12 ECD1     		bne	.L84
 2164              	.LBE137:
 2165              		.loc 1 403 0
 2166 0e14 FFF7FEFF 		bl	mc_interface_release_motor
ARM GAS  C:\Users\euanm\AppData\Local\Temp\ccGifpEY.s 			page 39


 2167              	.LVL277:
 2168              		.loc 1 404 0
 2169 0e18 7948     		ldr	r0, .L161+28
 2170 0e1a FFF7FEFF 		bl	mc_interface_set_configuration
 2171              	.LVL278:
 2172              		.loc 1 407 0
 2173 0e1e 3846     		mov	r0, r7
 2174 0e20 B0EE6A0A 		vmov.f32	s0, s21
 2175 0e24 FFF7FEFF 		bl	timeout_configure
 2176              	.LVL279:
 2177              		.loc 1 415 0
 2178 0e28 C8EE286A 		vdiv.f32	s13, s16, s17
 2179              	.LVL280:
 2180 0e2c 8AEE287A 		vdiv.f32	s14, s20, s17
 2181              	.LVL281:
 2182 0e30 C9EEA87A 		vdiv.f32	s15, s19, s17
 2183              	.LVL282:
 2184 0e34 A9EE667A 		vfms.f32	s14, s18, s13
 2185              	.LVL283:
 2186 0e38 DFED726A 		vldr.32	s13, .L161+32
 2187              	.LVL284:
 2188 0e3c 67EEA67A 		vmul.f32	s15, s15, s13
 2189              	.LVL285:
 2190 0e40 C7EE276A 		vdiv.f32	s13, s14, s15
 2191 0e44 16EE900A 		vmov	r0, s13
 2192 0e48 35E7     		b	.L125
 2193              	.LVL286:
 2194              	.L151:
 2195              	.LBE138:
 2196              	.LBE152:
 2197              	.LBB153:
 2198              		.loc 1 361 0 discriminator 23
 2199 0e4a 6A4B     		ldr	r3, .L161+16
 2200 0e4c 0222     		movs	r2, #2
 2201              		.loc 1 362 0 discriminator 23
 2202 0e4e 1846     		mov	r0, r3
 2203              		.loc 1 361 0 discriminator 23
 2204 0e50 9A70     		strb	r2, [r3, #2]
 2205              		.loc 1 362 0 discriminator 23
 2206 0e52 FFF7FEFF 		bl	mc_interface_set_configuration
 2207              	.LVL287:
 2208              		.loc 1 364 0 discriminator 23
 2209 0e56 0023     		movs	r3, #0
 2210              		.loc 1 366 0 discriminator 23
 2211 0e58 29A9     		add	r1, sp, #164
 2212 0e5a 25A8     		add	r0, sp, #148
 2213              		.loc 1 364 0 discriminator 23
 2214 0e5c 2593     		str	r3, [sp, #148]	@ float
 2215              		.loc 1 365 0 discriminator 23
 2216 0e5e 2993     		str	r3, [sp, #164]	@ float
 2217              		.loc 1 366 0 discriminator 23
 2218 0e60 FFF7FEFF 		bl	mcpwm_foc_measure_res_ind
 2219              	.LVL288:
 2220              		.loc 1 367 0 discriminator 23
 2221 0e64 2598     		ldr	r0, [sp, #148]	@ float
 2222 0e66 FFF7FEFF 		bl	__aeabi_f2d
 2223              	.LVL289:
ARM GAS  C:\Users\euanm\AppData\Local\Temp\ccGifpEY.s 			page 40


 2224 0e6a 0246     		mov	r2, r0
 2225 0e6c 0B46     		mov	r3, r1
 2226 0e6e 6648     		ldr	r0, .L161+36
 2227 0e70 FFF7FEFF 		bl	commands_printf
 2228              	.LVL290:
 2229              		.loc 1 368 0 discriminator 23
 2230 0e74 2998     		ldr	r0, [sp, #164]	@ float
 2231 0e76 99E6     		b	.L126
 2232              	.L80:
 2233              	.LBE153:
 2234              		.loc 1 422 0
 2235 0e78 6449     		ldr	r1, .L161+40
 2236 0e7a 2846     		mov	r0, r5
 2237 0e7c FFF7FEFF 		bl	strcmp
 2238              	.LVL291:
 2239 0e80 0028     		cmp	r0, #0
 2240 0e82 00F0A880 		beq	.L152
 2241              		.loc 1 428 0
 2242 0e86 6249     		ldr	r1, .L161+44
 2243 0e88 2846     		mov	r0, r5
 2244 0e8a FFF7FEFF 		bl	strcmp
 2245              	.LVL292:
 2246 0e8e 0028     		cmp	r0, #0
 2247 0e90 40F09B80 		bne	.L87
 2248              		.loc 1 429 0
 2249 0e94 5F48     		ldr	r0, .L161+48
 2250 0e96 FFF7FEFF 		bl	commands_printf
 2251              	.LVL293:
 2252              		.loc 1 430 0
 2253 0e9a 5D48     		ldr	r0, .L161+44
 2254 0e9c FFF7FEFF 		bl	commands_printf
 2255              	.LVL294:
 2256              		.loc 1 431 0
 2257 0ea0 5D48     		ldr	r0, .L161+52
 2258 0ea2 FFF7FEFF 		bl	commands_printf
 2259              	.LVL295:
 2260              		.loc 1 433 0
 2261 0ea6 5D48     		ldr	r0, .L161+56
 2262 0ea8 FFF7FEFF 		bl	commands_printf
 2263              	.LVL296:
 2264              		.loc 1 434 0
 2265 0eac 5C48     		ldr	r0, .L161+60
 2266 0eae FFF7FEFF 		bl	commands_printf
 2267              	.LVL297:
 2268              		.loc 1 436 0
 2269 0eb2 5C48     		ldr	r0, .L161+64
 2270 0eb4 FFF7FEFF 		bl	commands_printf
 2271              	.LVL298:
 2272              		.loc 1 437 0
 2273 0eb8 5B48     		ldr	r0, .L161+68
 2274 0eba FFF7FEFF 		bl	commands_printf
 2275              	.LVL299:
 2276              		.loc 1 439 0
 2277 0ebe 5B48     		ldr	r0, .L161+72
 2278 0ec0 FFF7FEFF 		bl	commands_printf
 2279              	.LVL300:
 2280              		.loc 1 440 0
ARM GAS  C:\Users\euanm\AppData\Local\Temp\ccGifpEY.s 			page 41


 2281 0ec4 5A48     		ldr	r0, .L161+76
 2282 0ec6 FFF7FEFF 		bl	commands_printf
 2283              	.LVL301:
 2284              		.loc 1 442 0
 2285 0eca 5A48     		ldr	r0, .L161+80
 2286 0ecc FFF7FEFF 		bl	commands_printf
 2287              	.LVL302:
 2288              		.loc 1 443 0
 2289 0ed0 5948     		ldr	r0, .L161+84
 2290 0ed2 FFF7FEFF 		bl	commands_printf
 2291              	.LVL303:
 2292              		.loc 1 445 0
 2293 0ed6 5948     		ldr	r0, .L161+88
 2294 0ed8 FFF7FEFF 		bl	commands_printf
 2295              	.LVL304:
 2296              		.loc 1 446 0
 2297 0edc 5848     		ldr	r0, .L161+92
 2298 0ede FFF7FEFF 		bl	commands_printf
 2299              	.LVL305:
 2300              		.loc 1 448 0
 2301 0ee2 5848     		ldr	r0, .L161+96
 2302 0ee4 FFF7FEFF 		bl	commands_printf
 2303              	.LVL306:
 2304              		.loc 1 449 0
 2305 0ee8 5748     		ldr	r0, .L161+100
 2306 0eea FFF7FEFF 		bl	commands_printf
 2307              	.LVL307:
 2308              		.loc 1 451 0
 2309 0eee 5748     		ldr	r0, .L161+104
 2310 0ef0 FFF7FEFF 		bl	commands_printf
 2311              	.LVL308:
 2312              		.loc 1 452 0
 2313 0ef4 5648     		ldr	r0, .L161+108
 2314 0ef6 FFF7FEFF 		bl	commands_printf
 2315              	.LVL309:
 2316              		.loc 1 454 0
 2317 0efa 5648     		ldr	r0, .L161+112
 2318 0efc FFF7FEFF 		bl	commands_printf
 2319              	.LVL310:
 2320              		.loc 1 455 0
 2321 0f00 5548     		ldr	r0, .L161+116
 2322 0f02 FFF7FEFF 		bl	commands_printf
 2323              	.LVL311:
 2324              		.loc 1 457 0
 2325 0f06 5548     		ldr	r0, .L161+120
 2326 0f08 FFF7FEFF 		bl	commands_printf
 2327              	.LVL312:
 2328              		.loc 1 458 0
 2329 0f0c 5448     		ldr	r0, .L161+124
 2330 0f0e FFF7FEFF 		bl	commands_printf
 2331              	.LVL313:
 2332              		.loc 1 460 0
 2333 0f12 5448     		ldr	r0, .L161+128
 2334 0f14 FFF7FEFF 		bl	commands_printf
 2335              	.LVL314:
 2336              		.loc 1 461 0
 2337 0f18 5348     		ldr	r0, .L161+132
ARM GAS  C:\Users\euanm\AppData\Local\Temp\ccGifpEY.s 			page 42


 2338 0f1a FFF7FEFF 		bl	commands_printf
 2339              	.LVL315:
 2340              		.loc 1 463 0
 2341 0f1e 5348     		ldr	r0, .L161+136
 2342 0f20 FFF7FEFF 		bl	commands_printf
 2343              	.LVL316:
 2344              		.loc 1 464 0
 2345 0f24 5248     		ldr	r0, .L161+140
 2346 0f26 FFF7FEFF 		bl	commands_printf
 2347              	.LVL317:
 2348              		.loc 1 466 0
 2349 0f2a 5248     		ldr	r0, .L161+144
 2350 0f2c FFF7FEFF 		bl	commands_printf
 2351              	.LVL318:
 2352              		.loc 1 467 0
 2353 0f30 5148     		ldr	r0, .L161+148
 2354 0f32 FFF7FEFF 		bl	commands_printf
 2355              	.LVL319:
 2356              		.loc 1 469 0
 2357 0f36 5148     		ldr	r0, .L161+152
 2358 0f38 FFF7FEFF 		bl	commands_printf
 2359              	.LVL320:
 2360              		.loc 1 470 0
 2361 0f3c 5048     		ldr	r0, .L161+156
 2362 0f3e FFF7FEFF 		bl	commands_printf
 2363              	.LVL321:
 2364              		.loc 1 471 0
 2365 0f42 5048     		ldr	r0, .L161+160
 2366 0f44 FFF7FEFF 		bl	commands_printf
 2367              	.LVL322:
 2368              		.loc 1 472 0
 2369 0f48 4F48     		ldr	r0, .L161+164
 2370 0f4a FFF7FEFF 		bl	commands_printf
 2371              	.LVL323:
 2372              		.loc 1 474 0
 2373 0f4e 4F48     		ldr	r0, .L161+168
 2374 0f50 FFF7FEFF 		bl	commands_printf
 2375              	.LVL324:
 2376              		.loc 1 475 0
 2377 0f54 4E48     		ldr	r0, .L161+172
 2378 0f56 FFF7FEFF 		bl	commands_printf
 2379              	.LVL325:
 2380              		.loc 1 477 0
 2381 0f5a 4E48     		ldr	r0, .L161+176
 2382 0f5c FFF7FEFF 		bl	commands_printf
 2383              	.LVL326:
 2384              		.loc 1 478 0
 2385 0f60 4D48     		ldr	r0, .L161+180
 2386 0f62 FFF7FEFF 		bl	commands_printf
 2387              	.LVL327:
 2388              		.loc 1 480 0
 2389 0f66 4D48     		ldr	r0, .L161+184
 2390 0f68 FFF7FEFF 		bl	commands_printf
 2391              	.LVL328:
 2392              		.loc 1 481 0
 2393 0f6c 4C48     		ldr	r0, .L161+188
 2394 0f6e FFF7FEFF 		bl	commands_printf
ARM GAS  C:\Users\euanm\AppData\Local\Temp\ccGifpEY.s 			page 43


 2395              	.LVL329:
 2396              		.loc 1 483 0
 2397 0f72 4C48     		ldr	r0, .L161+192
 2398 0f74 FFF7FEFF 		bl	commands_printf
 2399              	.LVL330:
 2400              		.loc 1 484 0
 2401 0f78 4B48     		ldr	r0, .L161+196
 2402 0f7a FFF7FEFF 		bl	commands_printf
 2403              	.LVL331:
 2404              		.loc 1 486 0
 2405 0f7e 4B48     		ldr	r0, .L161+200
 2406 0f80 FFF7FEFF 		bl	commands_printf
 2407              	.LVL332:
 2408              		.loc 1 487 0
 2409 0f84 4A48     		ldr	r0, .L161+204
 2410 0f86 FFF7FEFF 		bl	commands_printf
 2411              	.LVL333:
 2412              		.loc 1 489 0
 2413 0f8a 4A48     		ldr	r0, .L161+208
 2414 0f8c FFF7FEFF 		bl	commands_printf
 2415              	.LVL334:
 2416              		.loc 1 490 0
 2417 0f90 4948     		ldr	r0, .L161+212
 2418 0f92 FFF7FEFF 		bl	commands_printf
 2419              	.LVL335:
 2420              		.loc 1 491 0
 2421 0f96 4948     		ldr	r0, .L161+216
 2422 0f98 FFF7FEFF 		bl	commands_printf
 2423              	.LVL336:
 2424              		.loc 1 492 0
 2425 0f9c 4848     		ldr	r0, .L161+220
 2426 0f9e FFF7FEFF 		bl	commands_printf
 2427              	.LVL337:
 2428              		.loc 1 494 0
 2429 0fa2 1048     		ldr	r0, .L161
 2430 0fa4 FFF7FEFF 		bl	commands_printf
 2431              	.LVL338:
 2432              		.loc 1 495 0
 2433 0fa8 4648     		ldr	r0, .L161+224
 2434 0faa FFF7FEFF 		bl	commands_printf
 2435              	.LVL339:
 2436              		.loc 1 497 0
 2437 0fae 4648     		ldr	r0, .L161+228
 2438 0fb0 FFF7FEFF 		bl	commands_printf
 2439              	.LVL340:
 2440              		.loc 1 498 0
 2441 0fb4 4548     		ldr	r0, .L161+232
 2442 0fb6 FFF7FEFF 		bl	commands_printf
 2443              	.LVL341:
 2444              		.loc 1 500 0
 2445 0fba 1448     		ldr	r0, .L161+40
 2446 0fbc FFF7FEFF 		bl	commands_printf
 2447              	.LVL342:
 2448              		.loc 1 501 0
 2449 0fc0 4348     		ldr	r0, .L161+236
 2450 0fc2 FFF7FEFF 		bl	commands_printf
 2451              	.LVL343:
ARM GAS  C:\Users\euanm\AppData\Local\Temp\ccGifpEY.s 			page 44


 2452 0fc6 FFF789B8 		b	.L1
 2453              	.L87:
 2454              		.loc 1 503 0
 2455 0fca 2946     		mov	r1, r5
 2456 0fcc 4148     		ldr	r0, .L161+240
 2457 0fce FFF7FEFF 		bl	commands_printf
 2458              	.LVL344:
 2459 0fd2 FFF783B8 		b	.L1
 2460              	.L152:
 2461              		.loc 1 423 0
 2462 0fd6 FFF7FEFF 		bl	mcpwm_foc_print_state
 2463              	.LVL345:
 2464              		.loc 1 424 0
 2465 0fda 3F48     		ldr	r0, .L161+244
 2466 0fdc FFF7FEFF 		bl	commands_printf
 2467              	.LVL346:
 2468 0fe0 FFF77CB8 		b	.L1
 2469              	.L162:
 2470              		.align	2
 2471              	.L161:
 2472 0fe4 C4090000 		.word	.LC107
 2473 0fe8 EC090000 		.word	.LC109
 2474 0fec 000080BF 		.word	-1082130432
 2475 0ff0 D8050000 		.word	.LC64
 2476 0ff4 00000000 		.word	.LANCHOR0
 2477 0ff8 0000C842 		.word	1120403456
 2478 0ffc 00000000 		.word	0
 2479 1000 00000000 		.word	.LANCHOR1
 2480 1004 5077D63D 		.word	1037465424
 2481 1008 D4090000 		.word	.LC108
 2482 100c 000A0000 		.word	.LC110
 2483 1010 0C0A0000 		.word	.LC111
 2484 1014 140A0000 		.word	.LC112
 2485 1018 280A0000 		.word	.LC113
 2486 101c 2C000000 		.word	.LC4
 2487 1020 3C0A0000 		.word	.LC114
 2488 1024 3C000000 		.word	.LC6
 2489 1028 680A0000 		.word	.LC115
 2490 102c 54000000 		.word	.LC8
 2491 1030 7C0A0000 		.word	.LC116
 2492 1034 D8000000 		.word	.LC12
 2493 1038 AC0A0000 		.word	.LC117
 2494 103c FC000000 		.word	.LC14
 2495 1040 D00A0000 		.word	.LC118
 2496 1044 54010000 		.word	.LC18
 2497 1048 E40A0000 		.word	.LC119
 2498 104c 04020000 		.word	.LC23
 2499 1050 F80A0000 		.word	.LC120
 2500 1054 FC020000 		.word	.LC28
 2501 1058 180B0000 		.word	.LC121
 2502 105c B0040000 		.word	.LC45
 2503 1060 5C0B0000 		.word	.LC122
 2504 1064 D0040000 		.word	.LC47
 2505 1068 800B0000 		.word	.LC123
 2506 106c F0040000 		.word	.LC49
 2507 1070 9C0B0000 		.word	.LC124
 2508 1074 A8050000 		.word	.LC61
ARM GAS  C:\Users\euanm\AppData\Local\Temp\ccGifpEY.s 			page 45


 2509 1078 BC0B0000 		.word	.LC125
 2510 107c D80B0000 		.word	.LC126
 2511 1080 040C0000 		.word	.LC127
 2512 1084 480C0000 		.word	.LC128
 2513 1088 840C0000 		.word	.LC129
 2514 108c 48070000 		.word	.LC75
 2515 1090 AC0C0000 		.word	.LC130
 2516 1094 A4070000 		.word	.LC79
 2517 1098 CC0C0000 		.word	.LC131
 2518 109c 080D0000 		.word	.LC132
 2519 10a0 280D0000 		.word	.LC133
 2520 10a4 6C0D0000 		.word	.LC134
 2521 10a8 840D0000 		.word	.LC135
 2522 10ac C40D0000 		.word	.LC136
 2523 10b0 D80D0000 		.word	.LC137
 2524 10b4 2C0E0000 		.word	.LC138
 2525 10b8 640E0000 		.word	.LC139
 2526 10bc A40E0000 		.word	.LC140
 2527 10c0 D00E0000 		.word	.LC141
 2528 10c4 080F0000 		.word	.LC142
 2529 10c8 600F0000 		.word	.LC143
 2530 10cc 7C0F0000 		.word	.LC144
 2531 10d0 B40F0000 		.word	.LC145
 2532 10d4 D80F0000 		.word	.LC146
 2533 10d8 10000000 		.word	.LC2
 2534              		.cfi_endproc
 2535              	.LFE257:
 2536              		.size	terminal_process_string, .-terminal_process_string
 2537              		.section	.text.terminal_add_fault_data,"ax",%progbits
 2538              		.align	2
 2539              		.p2align 4,,15
 2540              		.global	terminal_add_fault_data
 2541              		.thumb
 2542              		.thumb_func
 2543              		.type	terminal_add_fault_data, %function
 2544              	terminal_add_fault_data:
 2545              	.LFB258:
 2546              		.loc 1 508 0
 2547              		.cfi_startproc
 2548              		@ args = 0, pretend = 0, frame = 0
 2549              		@ frame_needed = 0, uses_anonymous_args = 0
 2550              	.LVL347:
 2551 0000 F0B5     		push	{r4, r5, r6, r7, lr}
 2552              		.cfi_def_cfa_offset 20
 2553              		.cfi_offset 4, -20
 2554              		.cfi_offset 5, -16
 2555              		.cfi_offset 6, -12
 2556              		.cfi_offset 7, -8
 2557              		.cfi_offset 14, -4
 2558              		.loc 1 509 0
 2559 0002 0D4F     		ldr	r7, .L166
 2560 0004 0D4C     		ldr	r4, .L166+4
 2561 0006 3D68     		ldr	r5, [r7]
 2562 0008 0646     		mov	r6, r0
 2563 000a 0FCE     		ldmia	r6!, {r0, r1, r2, r3}
 2564              	.LVL348:
 2565 000c 05F1010E 		add	lr, r5, #1
ARM GAS  C:\Users\euanm\AppData\Local\Temp\ccGifpEY.s 			page 46


 2566 0010 C7F800E0 		str	lr, [r7]
 2567 0014 4FF0340E 		mov	lr, #52
 2568 0018 0EFB0544 		mla	r4, lr, r5, r4
 2569 001c 0FC4     		stmia	r4!, {r0, r1, r2, r3}
 2570 001e 0FCE     		ldmia	r6!, {r0, r1, r2, r3}
 2571              	.LVL349:
 2572 0020 0FC4     		stmia	r4!, {r0, r1, r2, r3}
 2573 0022 0FCE     		ldmia	r6!, {r0, r1, r2, r3}
 2574              	.LVL350:
 2575 0024 0FC4     		stmia	r4!, {r0, r1, r2, r3}
 2576 0026 3368     		ldr	r3, [r6]
 2577 0028 2360     		str	r3, [r4]
 2578              		.loc 1 510 0
 2579 002a 3B68     		ldr	r3, [r7]
 2580 002c 182B     		cmp	r3, #24
 2581              		.loc 1 511 0
 2582 002e C4BF     		itt	gt
 2583 0030 0023     		movgt	r3, #0
 2584 0032 3B60     		strgt	r3, [r7]
 2585 0034 F0BD     		pop	{r4, r5, r6, r7, pc}
 2586              	.LVL351:
 2587              	.L167:
 2588 0036 00BF     		.align	2
 2589              	.L166:
 2590 0038 00000000 		.word	.LANCHOR3
 2591 003c 00000000 		.word	.LANCHOR4
 2592              		.cfi_endproc
 2593              	.LFE258:
 2594              		.size	terminal_add_fault_data, .-terminal_add_fault_data
 2595              		.section	.rodata
 2596              		.align	2
 2597              		.set	.LANCHOR5,. + 0
 2598              	.LC89:
 2599 0000 43414E3A 		.ascii	"CAN:\012\000"
 2599      0A00
 2600 0006 00000000 		.space	94
 2600      00000000 
 2600      00000000 
 2600      00000000 
 2600      00000000 
 2601              	.LC92:
 2602 0064 43414E20 		.ascii	"CAN ERPMs:\012\000"
 2602      4552504D 
 2602      733A0A00 
 2603 0070 00000000 		.space	88
 2603      00000000 
 2603      00000000 
 2603      00000000 
 2603      00000000 
 2604              		.section	.rodata.states.11379,"a",%progbits
 2605              		.align	2
 2606              		.set	.LANCHOR2,. + 0
 2607              		.type	states.11379, %object
 2608              		.size	states.11379, 64
 2609              	states.11379:
 2610 0000 18100000 		.word	.LC147
 2611 0004 20100000 		.word	.LC148
ARM GAS  C:\Users\euanm\AppData\Local\Temp\ccGifpEY.s 			page 47


 2612 0008 28100000 		.word	.LC149
 2613 000c 30100000 		.word	.LC150
 2614 0010 3C100000 		.word	.LC151
 2615 0014 44100000 		.word	.LC152
 2616 0018 4C100000 		.word	.LC153
 2617 001c 54100000 		.word	.LC154
 2618 0020 5C100000 		.word	.LC155
 2619 0024 68100000 		.word	.LC156
 2620 0028 70100000 		.word	.LC157
 2621 002c 78100000 		.word	.LC158
 2622 0030 84100000 		.word	.LC159
 2623 0034 8C100000 		.word	.LC160
 2624 0038 94100000 		.word	.LC161
 2625 003c 9C100000 		.word	.LC162
 2626              		.section	.bss.fault_vec_write,"aw",%nobits
 2627              		.align	2
 2628              		.set	.LANCHOR3,. + 0
 2629              		.type	fault_vec_write, %object
 2630              		.size	fault_vec_write, 4
 2631              	fault_vec_write:
 2632 0000 00000000 		.space	4
 2633              		.section	.rodata.str1.4,"aMS",%progbits,1
 2634              		.align	2
 2635              	.LC0:
 2636 0000 74727565 		.ascii	"true\000"
 2636      00
 2637 0005 000000   		.space	3
 2638              	.LC1:
 2639 0008 66616C73 		.ascii	"false\000"
 2639      6500
 2640 000e 0000     		.space	2
 2641              	.LC2:
 2642 0010 2000     		.ascii	" \000"
 2643 0012 0000     		.space	2
 2644              	.LC3:
 2645 0014 4E6F2063 		.ascii	"No command received\012\000"
 2645      6F6D6D61 
 2645      6E642072 
 2645      65636569 
 2645      7665640A 
 2646 0029 000000   		.space	3
 2647              	.LC4:
 2648 002c 70696E67 		.ascii	"ping\000"
 2648      00
 2649 0031 000000   		.space	3
 2650              	.LC5:
 2651 0034 706F6E67 		.ascii	"pong\012\000"
 2651      0A00
 2652 003a 0000     		.space	2
 2653              	.LC6:
 2654 003c 73746F70 		.ascii	"stop\000"
 2654      00
 2655 0041 000000   		.space	3
 2656              	.LC7:
 2657 0044 4D6F746F 		.ascii	"Motor stopped\012\000"
 2657      72207374 
 2657      6F707065 
ARM GAS  C:\Users\euanm\AppData\Local\Temp\ccGifpEY.s 			page 48


 2657      640A00
 2658 0053 00       		.space	1
 2659              	.LC8:
 2660 0054 6C617374 		.ascii	"last_adc_duration\000"
 2660      5F616463 
 2660      5F647572 
 2660      6174696F 
 2660      6E00
 2661 0066 0000     		.space	2
 2662              	.LC9:
 2663 0068 4C617465 		.ascii	"Latest ADC duration: %.4f ms\000"
 2663      73742041 
 2663      44432064 
 2663      75726174 
 2663      696F6E3A 
 2664 0085 000000   		.space	3
 2665              	.LC10:
 2666 0088 4C617465 		.ascii	"Latest injected ADC duration: %.4f ms\000"
 2666      73742069 
 2666      6E6A6563 
 2666      74656420 
 2666      41444320 
 2667 00ae 0000     		.space	2
 2668              	.LC11:
 2669 00b0 4C617465 		.ascii	"Latest sample ADC duration: %.4f ms\012\000"
 2669      73742073 
 2669      616D706C 
 2669      65204144 
 2669      43206475 
 2670 00d5 000000   		.space	3
 2671              	.LC12:
 2672 00d8 6B7600   		.ascii	"kv\000"
 2673 00db 00       		.space	1
 2674              	.LC13:
 2675 00dc 43616C63 		.ascii	"Calculated KV: %.2f rpm/volt\012\000"
 2675      756C6174 
 2675      6564204B 
 2675      563A2025 
 2675      2E326620 
 2676 00fa 0000     		.space	2
 2677              	.LC14:
 2678 00fc 6D656D00 		.ascii	"mem\000"
 2679              	.LC15:
 2680 0100 636F7265 		.ascii	"core free memory : %u bytes\000"
 2680      20667265 
 2680      65206D65 
 2680      6D6F7279 
 2680      203A2025 
 2681              	.LC16:
 2682 011c 68656170 		.ascii	"heap fragments   : %u\000"
 2682      20667261 
 2682      676D656E 
 2682      74732020 
 2682      203A2025 
 2683 0132 0000     		.space	2
 2684              	.LC17:
 2685 0134 68656170 		.ascii	"heap free total  : %u bytes\012\000"
ARM GAS  C:\Users\euanm\AppData\Local\Temp\ccGifpEY.s 			page 49


 2685      20667265 
 2685      6520746F 
 2685      74616C20 
 2685      203A2025 
 2686 0151 000000   		.space	3
 2687              	.LC18:
 2688 0154 74687265 		.ascii	"threads\000"
 2688      61647300 
 2689              	.LC19:
 2690 015c 20202020 		.ascii	"    addr    stack prio refs     state           nam"
 2690      61646472 
 2690      20202020 
 2690      73746163 
 2690      6B207072 
 2691 018f 65207469 		.ascii	"e time    \000"
 2691      6D652020 
 2691      202000
 2692 019a 0000     		.space	2
 2693              	.LC20:
 2694 019c 2D2D2D2D 		.ascii	"---------------------------------------------------"
 2694      2D2D2D2D 
 2694      2D2D2D2D 
 2694      2D2D2D2D 
 2694      2D2D2D2D 
 2695 01cf 2D2D2D2D 		.ascii	"----------\000"
 2695      2D2D2D2D 
 2695      2D2D00
 2696 01da 0000     		.space	2
 2697              	.LC21:
 2698 01dc 252E386C 		.ascii	"%.8lx %.8lx %4lu %4lu %9s %14s %lu\000"
 2698      7820252E 
 2698      386C7820 
 2698      25346C75 
 2698      2025346C 
 2699 01ff 00       		.space	1
 2700              	.LC22:
 2701 0200 00       		.ascii	"\000"
 2702 0201 000000   		.space	3
 2703              	.LC23:
 2704 0204 6661756C 		.ascii	"fault\000"
 2704      7400
 2705 020a 0000     		.space	2
 2706              	.LC24:
 2707 020c 25730A00 		.ascii	"%s\012\000"
 2708              	.LC25:
 2709 0210 6661756C 		.ascii	"faulta\000"
 2709      746100
 2710 0217 00       		.space	1
 2711              	.LC26:
 2712 0218 4E6F2066 		.ascii	"No faults\000"
 2712      61756C74 
 2712      7300
 2713 0222 0000     		.space	2
 2714              	.LC27:
 2715 0224 4661756C 		.ascii	"Fault: %s\012ID: %i\012Current: %.1f\012Current fil"
 2715      743A2025 
 2715      730A4944 
ARM GAS  C:\Users\euanm\AppData\Local\Temp\ccGifpEY.s 			page 50


 2715      3A202569 
 2715      0A437572 
 2716 024e 74657265 		.ascii	"tered: %.1f\012Voltage: %.2f\012Duty: %.2f\012RPM: "
 2716      643A2025 
 2716      2E31660A 
 2716      566F6C74 
 2716      6167653A 
 2717 0278 252E3166 		.ascii	"%.1f\012Tacho: %d\012Cycles running: %d\012TIM duty"
 2717      0A546163 
 2717      686F3A20 
 2717      25640A43 
 2717      79636C65 
 2718 02a2 3A202564 		.ascii	": %d\012TIM val samp: %d\012TIM current samp: %d\012"
 2718      0A54494D 
 2718      2076616C 
 2718      2073616D 
 2718      703A2025 
 2719 02cd 54494D20 		.ascii	"TIM top: %d\012Comm step: %d\012Temperature: %.2f\000"
 2719      746F703A 
 2719      2025640A 
 2719      436F6D6D 
 2719      20737465 
 2720 02f9 000000   		.space	3
 2721              	.LC28:
 2722 02fc 6661756C 		.ascii	"faults\000"
 2722      747300
 2723 0303 00       		.space	1
 2724              	.LC29:
 2725 0304 4E6F2066 		.ascii	"No faults registered since startup\012\000"
 2725      61756C74 
 2725      73207265 
 2725      67697374 
 2725      65726564 
 2726              	.LC30:
 2727 0328 54686520 		.ascii	"The following faults were registered since start:\012"
 2727      666F6C6C 
 2727      6F77696E 
 2727      67206661 
 2727      756C7473 
 2728 035a 00       		.ascii	"\000"
 2729 035b 00       		.space	1
 2730              	.LC31:
 2731 035c 4661756C 		.ascii	"Fault            : %s\000"
 2731      74202020 
 2731      20202020 
 2731      20202020 
 2731      203A2025 
 2732 0372 0000     		.space	2
 2733              	.LC32:
 2734 0374 43757272 		.ascii	"Current          : %.1f\000"
 2734      656E7420 
 2734      20202020 
 2734      20202020 
 2734      203A2025 
 2735              	.LC33:
 2736 038c 43757272 		.ascii	"Current filtered : %.1f\000"
 2736      656E7420 
ARM GAS  C:\Users\euanm\AppData\Local\Temp\ccGifpEY.s 			page 51


 2736      66696C74 
 2736      65726564 
 2736      203A2025 
 2737              	.LC34:
 2738 03a4 566F6C74 		.ascii	"Voltage          : %.2f\000"
 2738      61676520 
 2738      20202020 
 2738      20202020 
 2738      203A2025 
 2739              	.LC35:
 2740 03bc 44757479 		.ascii	"Duty             : %.2f\000"
 2740      20202020 
 2740      20202020 
 2740      20202020 
 2740      203A2025 
 2741              	.LC36:
 2742 03d4 52504D20 		.ascii	"RPM              : %.1f\000"
 2742      20202020 
 2742      20202020 
 2742      20202020 
 2742      203A2025 
 2743              	.LC37:
 2744 03ec 54616368 		.ascii	"Tacho            : %d\000"
 2744      6F202020 
 2744      20202020 
 2744      20202020 
 2744      203A2025 
 2745 0402 0000     		.space	2
 2746              	.LC38:
 2747 0404 4379636C 		.ascii	"Cycles running   : %d\000"
 2747      65732072 
 2747      756E6E69 
 2747      6E672020 
 2747      203A2025 
 2748 041a 0000     		.space	2
 2749              	.LC39:
 2750 041c 54494D20 		.ascii	"TIM duty         : %d\000"
 2750      64757479 
 2750      20202020 
 2750      20202020 
 2750      203A2025 
 2751 0432 0000     		.space	2
 2752              	.LC40:
 2753 0434 54494D20 		.ascii	"TIM val samp     : %d\000"
 2753      76616C20 
 2753      73616D70 
 2753      20202020 
 2753      203A2025 
 2754 044a 0000     		.space	2
 2755              	.LC41:
 2756 044c 54494D20 		.ascii	"TIM current samp : %d\000"
 2756      63757272 
 2756      656E7420 
 2756      73616D70 
 2756      203A2025 
 2757 0462 0000     		.space	2
 2758              	.LC42:
ARM GAS  C:\Users\euanm\AppData\Local\Temp\ccGifpEY.s 			page 52


 2759 0464 54494D20 		.ascii	"TIM top          : %d\000"
 2759      746F7020 
 2759      20202020 
 2759      20202020 
 2759      203A2025 
 2760 047a 0000     		.space	2
 2761              	.LC43:
 2762 047c 436F6D6D 		.ascii	"Comm step        : %d\000"
 2762      20737465 
 2762      70202020 
 2762      20202020 
 2762      203A2025 
 2763 0492 0000     		.space	2
 2764              	.LC44:
 2765 0494 54656D70 		.ascii	"Temperature      : %.2f\012\000"
 2765      65726174 
 2765      75726520 
 2765      20202020 
 2765      203A2025 
 2766 04ad 000000   		.space	3
 2767              	.LC45:
 2768 04b0 72706D00 		.ascii	"rpm\000"
 2769              	.LC46:
 2770 04b4 456C6563 		.ascii	"Electrical RPM: %.2f rpm\012\000"
 2770      74726963 
 2770      616C2052 
 2770      504D3A20 
 2770      252E3266 
 2771 04ce 0000     		.space	2
 2772              	.LC47:
 2773 04d0 74616368 		.ascii	"tacho\000"
 2773      6F00
 2774 04d6 0000     		.space	2
 2775              	.LC48:
 2776 04d8 54616368 		.ascii	"Tachometer counts: %i\012\000"
 2776      6F6D6574 
 2776      65722063 
 2776      6F756E74 
 2776      733A2025 
 2777 04ef 00       		.space	1
 2778              	.LC49:
 2779 04f0 74696D00 		.ascii	"tim\000"
 2780              	.LC50:
 2781 04f4 54696D31 		.ascii	"Tim1 CNT: %i\000"
 2781      20434E54 
 2781      3A202569 
 2781      00
 2782 0501 000000   		.space	3
 2783              	.LC51:
 2784 0504 54696D38 		.ascii	"Tim8 CNT: %u\000"
 2784      20434E54 
 2784      3A202575 
 2784      00
 2785 0511 000000   		.space	3
 2786              	.LC52:
 2787 0514 44757479 		.ascii	"Duty cycle1: %u\000"
 2787      20637963 
ARM GAS  C:\Users\euanm\AppData\Local\Temp\ccGifpEY.s 			page 53


 2787      6C65313A 
 2787      20257500 
 2788              	.LC53:
 2789 0524 44757479 		.ascii	"Duty cycle2: %u\000"
 2789      20637963 
 2789      6C65323A 
 2789      20257500 
 2790              	.LC54:
 2791 0534 44757479 		.ascii	"Duty cycle3: %u\000"
 2791      20637963 
 2791      6C65333A 
 2791      20257500 
 2792              	.LC55:
 2793 0544 546F703A 		.ascii	"Top: %u\000"
 2793      20257500 
 2794              	.LC56:
 2795 054c 44697231 		.ascii	"Dir1: %u\000"
 2795      3A202575 
 2795      00
 2796 0555 000000   		.space	3
 2797              	.LC57:
 2798 0558 44697238 		.ascii	"Dir8: %u\000"
 2798      3A202575 
 2798      00
 2799 0561 000000   		.space	3
 2800              	.LC58:
 2801 0564 566F6C74 		.ascii	"Voltage sample: %u\000"
 2801      61676520 
 2801      73616D70 
 2801      6C653A20 
 2801      257500
 2802 0577 00       		.space	1
 2803              	.LC59:
 2804 0578 43757272 		.ascii	"Current 1 sample: %u\000"
 2804      656E7420 
 2804      31207361 
 2804      6D706C65 
 2804      3A202575 
 2805 058d 000000   		.space	3
 2806              	.LC60:
 2807 0590 43757272 		.ascii	"Current 2 sample: %u\012\000"
 2807      656E7420 
 2807      32207361 
 2807      6D706C65 
 2807      3A202575 
 2808 05a6 0000     		.space	2
 2809              	.LC61:
 2810 05a8 766F6C74 		.ascii	"volt\000"
 2810      00
 2811 05ad 000000   		.space	3
 2812              	.LC62:
 2813 05b0 496E7075 		.ascii	"Input voltage: %.2f\012\000"
 2813      7420766F 
 2813      6C746167 
 2813      653A2025 
 2813      2E32660A 
 2814 05c5 000000   		.space	3
ARM GAS  C:\Users\euanm\AppData\Local\Temp\ccGifpEY.s 			page 54


 2815              	.LC63:
 2816 05c8 70617261 		.ascii	"param_detect\000"
 2816      6D5F6465 
 2816      74656374 
 2816      00
 2817 05d5 000000   		.space	3
 2818              	.LC64:
 2819 05d8 256600   		.ascii	"%f\000"
 2820 05db 00       		.space	1
 2821              	.LC65:
 2822 05dc 4379636C 		.ascii	"Cycle integrator limit: %.2f\000"
 2822      6520696E 
 2822      74656772 
 2822      61746F72 
 2822      206C696D 
 2823 05f9 000000   		.space	3
 2824              	.LC66:
 2825 05fc 436F7570 		.ascii	"Coupling factor: %.2f\000"
 2825      6C696E67 
 2825      20666163 
 2825      746F723A 
 2825      20252E32 
 2826 0612 0000     		.space	2
 2827              	.LC67:
 2828 0614 44657465 		.ascii	"Detected hall sensor table:\000"
 2828      63746564 
 2828      2068616C 
 2828      6C207365 
 2828      6E736F72 
 2829              	.LC68:
 2830 0630 25692C20 		.ascii	"%i, %i, %i, %i, %i, %i, %i, %i\012\000"
 2830      25692C20 
 2830      25692C20 
 2830      25692C20 
 2830      25692C20 
 2831              	.LC69:
 2832 0650 48616C6C 		.ascii	"Hall sensor detection failed:\000"
 2832      2073656E 
 2832      736F7220 
 2832      64657465 
 2832      6374696F 
 2833 066e 0000     		.space	2
 2834              	.LC70:
 2835 0670 57533238 		.ascii	"WS2811 enabled. Hall sensors cannot be used.\012\000"
 2835      31312065 
 2835      6E61626C 
 2835      65642E20 
 2835      48616C6C 
 2836 069e 0000     		.space	2
 2837              	.LC71:
 2838 06a0 456E636F 		.ascii	"Encoder enabled. Hall sensors cannot be used.\012\000"
 2838      64657220 
 2838      656E6162 
 2838      6C65642E 
 2838      2048616C 
 2839 06cf 00       		.space	1
 2840              	.LC72:
ARM GAS  C:\Users\euanm\AppData\Local\Temp\ccGifpEY.s 			page 55


 2841 06d0 44657465 		.ascii	"Detection failed. Try again with different paramete"
 2841      6374696F 
 2841      6E206661 
 2841      696C6564 
 2841      2E205472 
 2842 0703 72732E0A 		.ascii	"rs.\012\000"
 2842      00
 2843              	.LC73:
 2844 0708 496E7661 		.ascii	"Invalid argument(s).\012\000"
 2844      6C696420 
 2844      61726775 
 2844      6D656E74 
 2844      2873292E 
 2845 071e 0000     		.space	2
 2846              	.LC74:
 2847 0720 54686973 		.ascii	"This command requires three arguments.\012\000"
 2847      20636F6D 
 2847      6D616E64 
 2847      20726571 
 2847      75697265 
 2848              	.LC75:
 2849 0748 72706D5F 		.ascii	"rpm_dep\000"
 2849      64657000 
 2850              	.LC76:
 2851 0750 4379636C 		.ascii	"Cycle int limit: %.2f\000"
 2851      6520696E 
 2851      74206C69 
 2851      6D69743A 
 2851      20252E32 
 2852 0766 0000     		.space	2
 2853              	.LC77:
 2854 0768 4379636C 		.ascii	"Cycle int limit running: %.2f\000"
 2854      6520696E 
 2854      74206C69 
 2854      6D697420 
 2854      72756E6E 
 2855 0786 0000     		.space	2
 2856              	.LC78:
 2857 0788 4379636C 		.ascii	"Cycle int limit max: %.2f\012\000"
 2857      6520696E 
 2857      74206C69 
 2857      6D697420 
 2857      6D61783A 
 2858 07a3 00       		.space	1
 2859              	.LC79:
 2860 07a4 63616E5F 		.ascii	"can_devs\000"
 2860      64657673 
 2860      00
 2861 07ad 000000   		.space	3
 2862              	.LC80:
 2863 07b0 43414E20 		.ascii	"CAN devices seen on the bus the past second:\012\000"
 2863      64657669 
 2863      63657320 
 2863      7365656E 
 2863      206F6E20 
 2864 07de 0000     		.space	2
 2865              	.LC81:
ARM GAS  C:\Users\euanm\AppData\Local\Temp\ccGifpEY.s 			page 56


 2866 07e0 49442020 		.ascii	"ID                 : %i\000"
 2866      20202020 
 2866      20202020 
 2866      20202020 
 2866      2020203A 
 2867              	.LC82:
 2868 07f8 52582054 		.ascii	"RX Time            : %i\000"
 2868      696D6520 
 2868      20202020 
 2868      20202020 
 2868      2020203A 
 2869              	.LC83:
 2870 0810 41676520 		.ascii	"Age (milliseconds) : %.2f\000"
 2870      286D696C 
 2870      6C697365 
 2870      636F6E64 
 2870      7329203A 
 2871 082a 0000     		.space	2
 2872              	.LC84:
 2873 082c 52504D20 		.ascii	"RPM                : %.2f\000"
 2873      20202020 
 2873      20202020 
 2873      20202020 
 2873      2020203A 
 2874 0846 0000     		.space	2
 2875              	.LC85:
 2876 0848 43757272 		.ascii	"Current            : %.2f\000"
 2876      656E7420 
 2876      20202020 
 2876      20202020 
 2876      2020203A 
 2877 0862 0000     		.space	2
 2878              	.LC86:
 2879 0864 44757479 		.ascii	"Duty               : %i\000"
 2879      20202020 
 2879      20202020 
 2879      20202020 
 2879      2020203A 
 2880              	.LC87:
 2881 087c 43727569 		.ascii	"Cruise Control     : %i\012\000"
 2881      73652043 
 2881      6F6E7472 
 2881      6F6C2020 
 2881      2020203A 
 2882 0895 000000   		.space	3
 2883              	.LC88:
 2884 0898 63616E5F 		.ascii	"can_member\000"
 2884      6D656D62 
 2884      657200
 2885 08a3 00       		.space	1
 2886              	.LC90:
 2887 08a4 25690A00 		.ascii	"%i\012\000"
 2888              	.LC91:
 2889 08a8 63616E5F 		.ascii	"can_erpms\000"
 2889      6572706D 
 2889      7300
 2890 08b2 0000     		.space	2
ARM GAS  C:\Users\euanm\AppData\Local\Temp\ccGifpEY.s 			page 57


 2891              	.LC93:
 2892 08b4 4D202536 		.ascii	"M %6.2f\012\000"
 2892      2E32660A 
 2892      00
 2893 08bd 000000   		.space	3
 2894              	.LC94:
 2895 08c0 25692025 		.ascii	"%i %6.2f\012\000"
 2895      362E3266 
 2895      0A00
 2896 08ca 0000     		.space	2
 2897              	.LC95:
 2898 08cc 666F635F 		.ascii	"foc_encoder_detect\000"
 2898      656E636F 
 2898      6465725F 
 2898      64657465 
 2898      637400
 2899 08df 00       		.space	1
 2900              	.LC96:
 2901 08e0 4F666673 		.ascii	"Offset   : %.2f\000"
 2901      65742020 
 2901      203A2025 
 2901      2E326600 
 2902              	.LC97:
 2903 08f0 52617469 		.ascii	"Ratio    : %.2f\000"
 2903      6F202020 
 2903      203A2025 
 2903      2E326600 
 2904              	.LC98:
 2905 0900 496E7665 		.ascii	"Inverted : %s\012\000"
 2905      72746564 
 2905      203A2025 
 2905      730A00
 2906 090f 00       		.space	1
 2907              	.LC99:
 2908 0910 456E636F 		.ascii	"Encoder not enabled.\012\000"
 2908      64657220 
 2908      6E6F7420 
 2908      656E6162 
 2908      6C65642E 
 2909 0926 0000     		.space	2
 2910              	.LC100:
 2911 0928 54686973 		.ascii	"This command requires one argument.\012\000"
 2911      20636F6D 
 2911      6D616E64 
 2911      20726571 
 2911      75697265 
 2912 094d 000000   		.space	3
 2913              	.LC101:
 2914 0950 6D656173 		.ascii	"measure_res\000"
 2914      7572655F 
 2914      72657300 
 2915              	.LC102:
 2916 095c 52657369 		.ascii	"Resistance: %.6f ohm\012\000"
 2916      7374616E 
 2916      63653A20 
 2916      252E3666 
 2916      206F686D 
ARM GAS  C:\Users\euanm\AppData\Local\Temp\ccGifpEY.s 			page 58


 2917 0972 0000     		.space	2
 2918              	.LC103:
 2919 0974 6D656173 		.ascii	"measure_ind\000"
 2919      7572655F 
 2919      696E6400 
 2920              	.LC104:
 2921 0980 496E6475 		.ascii	"Inductance: %.2f microhenry\012\000"
 2921      6374616E 
 2921      63653A20 
 2921      252E3266 
 2921      206D6963 
 2922 099d 000000   		.space	3
 2923              	.LC105:
 2924 09a0 6D656173 		.ascii	"measure_linkage\000"
 2924      7572655F 
 2924      6C696E6B 
 2924      61676500 
 2925              	.LC106:
 2926 09b0 466C7578 		.ascii	"Flux linkage: %.7f\012\000"
 2926      206C696E 
 2926      6B616765 
 2926      3A20252E 
 2926      37660A00 
 2927              	.LC107:
 2928 09c4 6D656173 		.ascii	"measure_res_ind\000"
 2928      7572655F 
 2928      7265735F 
 2928      696E6400 
 2929              	.LC108:
 2930 09d4 52657369 		.ascii	"Resistance: %.6f ohm\000"
 2930      7374616E 
 2930      63653A20 
 2930      252E3666 
 2930      206F686D 
 2931 09e9 000000   		.space	3
 2932              	.LC109:
 2933 09ec 6D656173 		.ascii	"measure_linkage_foc\000"
 2933      7572655F 
 2933      6C696E6B 
 2933      6167655F 
 2933      666F6300 
 2934              	.LC110:
 2935 0a00 666F635F 		.ascii	"foc_state\000"
 2935      73746174 
 2935      6500
 2936 0a0a 0000     		.space	2
 2937              	.LC111:
 2938 0a0c 68656C70 		.ascii	"help\000"
 2938      00
 2939 0a11 000000   		.space	3
 2940              	.LC112:
 2941 0a14 56616C69 		.ascii	"Valid commands are:\000"
 2941      6420636F 
 2941      6D6D616E 
 2941      64732061 
 2941      72653A00 
 2942              	.LC113:
ARM GAS  C:\Users\euanm\AppData\Local\Temp\ccGifpEY.s 			page 59


 2943 0a28 20205368 		.ascii	"  Show this help\000"
 2943      6F772074 
 2943      68697320 
 2943      68656C70 
 2943      00
 2944 0a39 000000   		.space	3
 2945              	.LC114:
 2946 0a3c 20205072 		.ascii	"  Print pong here to see if the reply works\000"
 2946      696E7420 
 2946      706F6E67 
 2946      20686572 
 2946      6520746F 
 2947              	.LC115:
 2948 0a68 20205374 		.ascii	"  Stop the motor\000"
 2948      6F702074 
 2948      6865206D 
 2948      6F746F72 
 2948      00
 2949 0a79 000000   		.space	3
 2950              	.LC116:
 2951 0a7c 20205468 		.ascii	"  The time the latest ADC interrupt consumed\000"
 2951      65207469 
 2951      6D652074 
 2951      6865206C 
 2951      61746573 
 2952 0aa9 000000   		.space	3
 2953              	.LC117:
 2954 0aac 20205468 		.ascii	"  The calculated kv of the motor\000"
 2954      65206361 
 2954      6C63756C 
 2954      61746564 
 2954      206B7620 
 2955 0acd 000000   		.space	3
 2956              	.LC118:
 2957 0ad0 20205368 		.ascii	"  Show memory usage\000"
 2957      6F77206D 
 2957      656D6F72 
 2957      79207573 
 2957      61676500 
 2958              	.LC119:
 2959 0ae4 20204C69 		.ascii	"  List all threads\000"
 2959      73742061 
 2959      6C6C2074 
 2959      68726561 
 2959      647300
 2960 0af7 00       		.space	1
 2961              	.LC120:
 2962 0af8 20205072 		.ascii	"  Prints the current fault code\000"
 2962      696E7473 
 2962      20746865 
 2962      20637572 
 2962      72656E74 
 2963              	.LC121:
 2964 0b18 20205072 		.ascii	"  Prints all stored fault codes and conditions when"
 2964      696E7473 
 2964      20616C6C 
 2964      2073746F 
ARM GAS  C:\Users\euanm\AppData\Local\Temp\ccGifpEY.s 			page 60


 2964      72656420 
 2965 0b4b 20746865 		.ascii	" they arrived\000"
 2965      79206172 
 2965      72697665 
 2965      6400
 2966 0b59 000000   		.space	3
 2967              	.LC122:
 2968 0b5c 20205072 		.ascii	"  Prints the current electrical RPM\000"
 2968      696E7473 
 2968      20746865 
 2968      20637572 
 2968      72656E74 
 2969              	.LC123:
 2970 0b80 20205072 		.ascii	"  Prints tachometer value\000"
 2970      696E7473 
 2970      20746163 
 2970      686F6D65 
 2970      74657220 
 2971 0b9a 0000     		.space	2
 2972              	.LC124:
 2973 0b9c 20205072 		.ascii	"  Prints tim1 and tim8 settings\000"
 2973      696E7473 
 2973      2074696D 
 2973      3120616E 
 2973      64207469 
 2974              	.LC125:
 2975 0bbc 20205072 		.ascii	"  Prints different voltages\000"
 2975      696E7473 
 2975      20646966 
 2975      66657265 
 2975      6E742076 
 2976              	.LC126:
 2977 0bd8 70617261 		.ascii	"param_detect [current] [min_rpm] [low_duty]\000"
 2977      6D5F6465 
 2977      74656374 
 2977      205B6375 
 2977      7272656E 
 2978              	.LC127:
 2979 0c04 20205370 		.ascii	"  Spin up the motor in COMM_MODE_DELAY and compute "
 2979      696E2075 
 2979      70207468 
 2979      65206D6F 
 2979      746F7220 
 2980 0c37 69747320 		.ascii	"its parameters.\000"
 2980      70617261 
 2980      6D657465 
 2980      72732E00 
 2981 0c47 00       		.space	1
 2982              	.LC128:
 2983 0c48 20205468 		.ascii	"  This test should be performed without load on the"
 2983      69732074 
 2983      65737420 
 2983      73686F75 
 2983      6C642062 
 2984 0c7b 206D6F74 		.ascii	" motor.\000"
 2984      6F722E00 
 2985 0c83 00       		.space	1
ARM GAS  C:\Users\euanm\AppData\Local\Temp\ccGifpEY.s 			page 61


 2986              	.LC129:
 2987 0c84 20204578 		.ascii	"  Example: param_detect 5.0 600 0.06\000"
 2987      616D706C 
 2987      653A2070 
 2987      6172616D 
 2987      5F646574 
 2988 0ca9 000000   		.space	3
 2989              	.LC130:
 2990 0cac 20205072 		.ascii	"  Prints some rpm-dep values\000"
 2990      696E7473 
 2990      20736F6D 
 2990      65207270 
 2990      6D2D6465 
 2991 0cc9 000000   		.space	3
 2992              	.LC131:
 2993 0ccc 20205072 		.ascii	"  Prints all CAN devices seen on the bus the past s"
 2993      696E7473 
 2993      20616C6C 
 2993      2043414E 
 2993      20646576 
 2994 0cff 65636F6E 		.ascii	"econd\000"
 2994      6400
 2995 0d05 000000   		.space	3
 2996              	.LC132:
 2997 0d08 666F635F 		.ascii	"foc_encoder_detect [current]\000"
 2997      656E636F 
 2997      6465725F 
 2997      64657465 
 2997      6374205B 
 2998 0d25 000000   		.space	3
 2999              	.LC133:
 3000 0d28 20205275 		.ascii	"  Run the motor at 1Hz on open loop and compute enc"
 3000      6E207468 
 3000      65206D6F 
 3000      746F7220 
 3000      61742031 
 3001 0d5b 6F646572 		.ascii	"oder settings\000"
 3001      20736574 
 3001      74696E67 
 3001      7300
 3002 0d69 000000   		.space	3
 3003              	.LC134:
 3004 0d6c 6D656173 		.ascii	"measure_res [current]\000"
 3004      7572655F 
 3004      72657320 
 3004      5B637572 
 3004      72656E74 
 3005 0d82 0000     		.space	2
 3006              	.LC135:
 3007 0d84 20204C6F 		.ascii	"  Lock the motor with a current and calculate its r"
 3007      636B2074 
 3007      6865206D 
 3007      6F746F72 
 3007      20776974 
 3008 0db7 65736973 		.ascii	"esistance\000"
 3008      74616E63 
 3008      6500
ARM GAS  C:\Users\euanm\AppData\Local\Temp\ccGifpEY.s 			page 62


 3009 0dc1 000000   		.space	3
 3010              	.LC136:
 3011 0dc4 6D656173 		.ascii	"measure_ind [duty]\000"
 3011      7572655F 
 3011      696E6420 
 3011      5B647574 
 3011      795D00
 3012 0dd7 00       		.space	1
 3013              	.LC137:
 3014 0dd8 20205365 		.ascii	"  Send short voltage pulses, measure the current an"
 3014      6E642073 
 3014      686F7274 
 3014      20766F6C 
 3014      74616765 
 3015 0e0b 64206361 		.ascii	"d calculate the motor inductance\000"
 3015      6C63756C 
 3015      61746520 
 3015      74686520 
 3015      6D6F746F 
 3016              	.LC138:
 3017 0e2c 6D656173 		.ascii	"measure_linkage [current] [duty] [min_rpm] [motor_r"
 3017      7572655F 
 3017      6C696E6B 
 3017      61676520 
 3017      5B637572 
 3018 0e5f 65735D00 		.ascii	"es]\000"
 3019 0e63 00       		.space	1
 3020              	.LC139:
 3021 0e64 20205275 		.ascii	"  Run the motor in BLDC delay mode and measure the "
 3021      6E207468 
 3021      65206D6F 
 3021      746F7220 
 3021      696E2042 
 3022 0e97 666C7578 		.ascii	"flux linkage\000"
 3022      206C696E 
 3022      6B616765 
 3022      00
 3023              	.LC140:
 3024 0ea4 20206578 		.ascii	"  example measure_linkage 5 0.5 700 0.076\000"
 3024      616D706C 
 3024      65206D65 
 3024      61737572 
 3024      655F6C69 
 3025 0ece 0000     		.space	2
 3026              	.LC141:
 3027 0ed0 20207469 		.ascii	"  tip: measure the resistance with measure_res firs"
 3027      703A206D 
 3027      65617375 
 3027      72652074 
 3027      68652072 
 3028 0f03 7400     		.ascii	"t\000"
 3029 0f05 000000   		.space	3
 3030              	.LC142:
 3031 0f08 20204D65 		.ascii	"  Measure the motor resistance and inductance with "
 3031      61737572 
 3031      65207468 
 3031      65206D6F 
ARM GAS  C:\Users\euanm\AppData\Local\Temp\ccGifpEY.s 			page 63


 3031      746F7220 
 3032 0f3b 616E2069 		.ascii	"an incremental adaptive algorithm.\000"
 3032      6E637265 
 3032      6D656E74 
 3032      616C2061 
 3032      64617074 
 3033 0f5e 0000     		.space	2
 3034              	.LC143:
 3035 0f60 6D656173 		.ascii	"measure_linkage_foc [duty]\000"
 3035      7572655F 
 3035      6C696E6B 
 3035      6167655F 
 3035      666F6320 
 3036 0f7b 00       		.space	1
 3037              	.LC144:
 3038 0f7c 20205275 		.ascii	"  Run the motor with FOC and measure the flux linka"
 3038      6E207468 
 3038      65206D6F 
 3038      746F7220 
 3038      77697468 
 3039 0faf 67652E00 		.ascii	"ge.\000"
 3040 0fb3 00       		.space	1
 3041              	.LC145:
 3042 0fb4 20205072 		.ascii	"  Print some FOC state variables.\012\000"
 3042      696E7420 
 3042      736F6D65 
 3042      20464F43 
 3042      20737461 
 3043 0fd7 00       		.space	1
 3044              	.LC146:
 3045 0fd8 496E7661 		.ascii	"Invalid command: %s\012type help to list all availa"
 3045      6C696420 
 3045      636F6D6D 
 3045      616E643A 
 3045      2025730A 
 3046 1008 626C6520 		.ascii	"ble commands\012\000"
 3046      636F6D6D 
 3046      616E6473 
 3046      0A00
 3047 1016 0000     		.space	2
 3048              	.LC147:
 3049 1018 52454144 		.ascii	"READY\000"
 3049      5900
 3050 101e 0000     		.space	2
 3051              	.LC148:
 3052 1020 43555252 		.ascii	"CURRENT\000"
 3052      454E5400 
 3053              	.LC149:
 3054 1028 57545354 		.ascii	"WTSTART\000"
 3054      41525400 
 3055              	.LC150:
 3056 1030 53555350 		.ascii	"SUSPENDED\000"
 3056      454E4445 
 3056      4400
 3057 103a 0000     		.space	2
 3058              	.LC151:
 3059 103c 51554555 		.ascii	"QUEUED\000"
ARM GAS  C:\Users\euanm\AppData\Local\Temp\ccGifpEY.s 			page 64


 3059      454400
 3060 1043 00       		.space	1
 3061              	.LC152:
 3062 1044 57545345 		.ascii	"WTSEM\000"
 3062      4D00
 3063 104a 0000     		.space	2
 3064              	.LC153:
 3065 104c 57544D54 		.ascii	"WTMTX\000"
 3065      5800
 3066 1052 0000     		.space	2
 3067              	.LC154:
 3068 1054 5754434F 		.ascii	"WTCOND\000"
 3068      4E4400
 3069 105b 00       		.space	1
 3070              	.LC155:
 3071 105c 534C4545 		.ascii	"SLEEPING\000"
 3071      50494E47 
 3071      00
 3072 1065 000000   		.space	3
 3073              	.LC156:
 3074 1068 57544558 		.ascii	"WTEXIT\000"
 3074      495400
 3075 106f 00       		.space	1
 3076              	.LC157:
 3077 1070 57544F52 		.ascii	"WTOREVT\000"
 3077      45565400 
 3078              	.LC158:
 3079 1078 5754414E 		.ascii	"WTANDEVT\000"
 3079      44455654 
 3079      00
 3080 1081 000000   		.space	3
 3081              	.LC159:
 3082 1084 534E444D 		.ascii	"SNDMSGQ\000"
 3082      53475100 
 3083              	.LC160:
 3084 108c 534E444D 		.ascii	"SNDMSG\000"
 3084      534700
 3085 1093 00       		.space	1
 3086              	.LC161:
 3087 1094 57544D53 		.ascii	"WTMSG\000"
 3087      4700
 3088 109a 0000     		.space	2
 3089              	.LC162:
 3090 109c 46494E41 		.ascii	"FINAL\000"
 3090      4C00
 3091              		.section	.bss.fault_vec,"aw",%nobits
 3092              		.align	2
 3093              		.set	.LANCHOR4,. + 0
 3094              		.type	fault_vec, %object
 3095              		.size	fault_vec, 1300
 3096              	fault_vec:
 3097 0000 00000000 		.space	1300
 3097      00000000 
 3097      00000000 
 3097      00000000 
 3097      00000000 
 3098              		.section	.bss.mcconf.11374,"aw",%nobits
ARM GAS  C:\Users\euanm\AppData\Local\Temp\ccGifpEY.s 			page 65


 3099              		.align	2
 3100              		.set	.LANCHOR0,. + 0
 3101              		.type	mcconf.11374, %object
 3102              		.size	mcconf.11374, 320
 3103              	mcconf.11374:
 3104 0000 00000000 		.space	320
 3104      00000000 
 3104      00000000 
 3104      00000000 
 3104      00000000 
 3105              		.section	.bss.mcconf_old.11375,"aw",%nobits
 3106              		.align	2
 3107              		.set	.LANCHOR1,. + 0
 3108              		.type	mcconf_old.11375, %object
 3109              		.size	mcconf_old.11375, 320
 3110              	mcconf_old.11375:
 3111 0000 00000000 		.space	320
 3111      00000000 
 3111      00000000 
 3111      00000000 
 3111      00000000 
 3112              		.text
 3113              	.Letext0:
 3114              		.file 4 "c:\\program files (x86)\\gnu tools arm embedded\\5.4 2016q3\\lib\\gcc\\arm-none-eabi\\5.4
 3115              		.file 5 "c:\\program files (x86)\\gnu tools arm embedded\\5.4 2016q3\\arm-none-eabi\\include\\mach
 3116              		.file 6 "c:\\program files (x86)\\gnu tools arm embedded\\5.4 2016q3\\arm-none-eabi\\include\\sys\
 3117              		.file 7 "ChibiOS_3.0.2/os/rt/ports/ARMCMx/compilers/GCC/chtypes.h"
 3118              		.file 8 "ChibiOS_3.0.2/os/rt/include/chsystypes.h"
 3119              		.file 9 "ChibiOS_3.0.2/os/rt/include/chschd.h"
 3120              		.file 10 "ChibiOS_3.0.2/os/ext/CMSIS/ST/stm32f407xx.h"
 3121              		.file 11 "ChibiOS_3.0.2/os/rt/ports/ARMCMx/chcore.h"
 3122              		.file 12 "ChibiOS_3.0.2/os/rt/ports/ARMCMx/chcore_v7m.h"
 3123              		.file 13 "ChibiOS_3.0.2/os/rt/include/chtm.h"
 3124              		.file 14 "ChibiOS_3.0.2/os/rt/include/chsem.h"
 3125              		.file 15 "ChibiOS_3.0.2/os/rt/include/chmtx.h"
 3126              		.file 16 "datatypes.h"
 3127              		.file 17 "ChibiOS_3.0.2/os/rt/include/chsys.h"
 3128              		.file 18 "ChibiOS_3.0.2/os/ext/CMSIS/include/core_cm4.h"
 3129              		.file 19 "mc_interface.h"
 3130              		.file 20 "ChibiOS_3.0.2/os/rt/include/chheap.h"
 3131              		.file 21 "ChibiOS_3.0.2/os/rt/include/chmemcore.h"
 3132              		.file 22 "commands.h"
 3133              		.file 23 "ChibiOS_3.0.2/os/rt/include/chregistry.h"
 3134              		.file 24 "c:\\program files (x86)\\gnu tools arm embedded\\5.4 2016q3\\arm-none-eabi\\include\\std
 3135              		.file 25 "c:\\program files (x86)\\gnu tools arm embedded\\5.4 2016q3\\arm-none-eabi\\include\\str
 3136              		.file 26 "comm_can.h"
 3137              		.file 27 "mcpwm.h"
 3138              		.file 28 "mcpwm_foc.h"
 3139              		.file 29 "encoder.h"
 3140              		.file 30 "ChibiOS_3.0.2/os/rt/include/chthreads.h"
 3141              		.file 31 "timeout.h"
 3142              		.file 32 "conf_general.h"
 3143              		.file 33 "applications/app.h"