ARM GAS  C:\Users\euanm\AppData\Local\Temp\cca4Encf.s 			page 1


   1              		.syntax unified
   2              		.cpu cortex-m4
   3              		.eabi_attribute 27, 1
   4              		.eabi_attribute 28, 1
   5              		.fpu fpv4-sp-d16
   6              		.eabi_attribute 20, 1
   7              		.eabi_attribute 21, 1
   8              		.eabi_attribute 23, 3
   9              		.eabi_attribute 24, 1
  10              		.eabi_attribute 25, 1
  11              		.eabi_attribute 26, 1
  12              		.eabi_attribute 30, 2
  13              		.eabi_attribute 34, 1
  14              		.eabi_attribute 18, 4
  15              		.thumb
  16              		.syntax unified
  17              		.file	"timeout.c"
  18              		.text
  19              	.Ltext0:
  20              		.cfi_sections	.debug_frame
  21              		.section	.text.timeout_thread,"ax",%progbits
  22              		.align	2
  23              		.p2align 4,,15
  24              		.thumb
  25              		.thumb_func
  26              		.type	timeout_thread, %function
  27              	timeout_thread:
  28              	.LFB225:
  29              		.file 1 "timeout.c"
  30              		.loc 1 68 0
  31              		.cfi_startproc
  32              		@ Volatile: function does not return.
  33              		@ args = 0, pretend = 0, frame = 0
  34              		@ frame_needed = 0, uses_anonymous_args = 0
  35              	.LVL0:
  36 0000 2DE98848 		push	{r3, r7, fp, lr}
  37              		.cfi_def_cfa_offset 16
  38              		.cfi_offset 3, -16
  39              		.cfi_offset 7, -12
  40              		.cfi_offset 11, -8
  41              		.cfi_offset 14, -4
  42              	.LBB47:
  43              	.LBB48:
  44              		.file 2 "ChibiOS_3.0.2/os/rt/include/chregistry.h"
  45              		.loc 2 135 0
  46 0004 174F     		ldr	r7, .L11
  47 0006 184C     		ldr	r4, .L11+4
  48 0008 BB69     		ldr	r3, [r7, #24]
  49 000a 184A     		ldr	r2, .L11+8
  50 000c DFF864A0 		ldr	r10, .L11+16
  51 0010 DFF864B0 		ldr	fp, .L11+20
  52 0014 164D     		ldr	r5, .L11+12
  53              	.LBE48:
  54              	.LBE47:
  55              		.loc 1 74 0
  56 0016 DFF86490 		ldr	r9, .L11+24
  57              	.LBB50:
ARM GAS  C:\Users\euanm\AppData\Local\Temp\cca4Encf.s 			page 2


  58              	.LBB49:
  59              		.loc 2 135 0
  60 001a 9A61     		str	r2, [r3, #24]
  61              	.LBE49:
  62              	.LBE50:
  63              		.loc 1 74 0
  64 001c A046     		mov	r8, r4
  65              		.loc 1 79 0
  66 001e 0026     		movs	r6, #0
  67              	.LVL1:
  68              	.L4:
  69              		.loc 1 74 0
  70 0020 2268     		ldr	r2, [r4]
  71 0022 42F21073 		movw	r3, #10000
  72 0026 72B1     		cbz	r2, .L2
  73              		.loc 1 74 0 is_stmt 0 discriminator 1
  74 0028 DAF80010 		ldr	r1, [r10]
  75              	.LVL2:
  76              	.LBB51:
  77              	.LBB52:
  78              	.LBB53:
  79              	.LBB54:
  80              		.file 3 "ChibiOS_3.0.2/os/rt/include/chvt.h"
  81              		.loc 3 231 0 is_stmt 1 discriminator 1
  82 002c BA6A     		ldr	r2, [r7, #40]
  83              	.LVL3:
  84              	.LBE54:
  85              	.LBE53:
  86              	.LBE52:
  87              	.LBE51:
  88              		.loc 1 74 0 discriminator 1
  89 002e D8F80000 		ldr	r0, [r8]
  90 0032 03FB00F3 		mul	r3, r3, r0
  91 0036 03F2E733 		addw	r3, r3, #999
  92 003a 521A     		subs	r2, r2, r1
  93 003c A9FB0313 		umull	r1, r3, r9, r3
  94 0040 B2EB931F 		cmp	r2, r3, lsr #6
  95 0044 04D8     		bhi	.L10
  96              	.L2:
  97              		.loc 1 79 0
  98 0046 2E70     		strb	r6, [r5]
  99              	.L3:
 100              		.loc 1 82 0
 101 0048 6420     		movs	r0, #100
 102 004a FFF7FEFF 		bl	chThdSleep
 103              	.LVL4:
 104              		.loc 1 83 0
 105 004e E7E7     		b	.L4
 106              	.L10:
 107              		.loc 1 75 0
 108 0050 FFF7FEFF 		bl	mc_interface_unlock
 109              	.LVL5:
 110              		.loc 1 76 0
 111 0054 9BED000A 		vldr.32	s0, [fp]
 112 0058 FFF7FEFF 		bl	mc_interface_set_brake_current
 113              	.LVL6:
 114              		.loc 1 77 0
ARM GAS  C:\Users\euanm\AppData\Local\Temp\cca4Encf.s 			page 3


 115 005c 0123     		movs	r3, #1
 116 005e 2B70     		strb	r3, [r5]
 117 0060 F2E7     		b	.L3
 118              	.L12:
 119 0062 00BF     		.align	2
 120              	.L11:
 121 0064 00000000 		.word	ch
 122 0068 00000000 		.word	.LANCHOR0
 123 006c 00000000 		.word	.LC0
 124 0070 00000000 		.word	.LANCHOR3
 125 0074 00000000 		.word	.LANCHOR1
 126 0078 00000000 		.word	.LANCHOR2
 127 007c D34D6210 		.word	274877907
 128              		.cfi_endproc
 129              	.LFE225:
 130              		.size	timeout_thread, .-timeout_thread
 131              		.section	.text.timeout_init,"ax",%progbits
 132              		.align	2
 133              		.p2align 4,,15
 134              		.global	timeout_init
 135              		.thumb
 136              		.thumb_func
 137              		.type	timeout_init, %function
 138              	timeout_init:
 139              	.LFB219:
 140              		.loc 1 38 0
 141              		.cfi_startproc
 142              		@ args = 0, pretend = 0, frame = 0
 143              		@ frame_needed = 0, uses_anonymous_args = 0
 144 0000 F0B5     		push	{r4, r5, r6, r7, lr}
 145              		.cfi_def_cfa_offset 20
 146              		.cfi_offset 4, -20
 147              		.cfi_offset 5, -16
 148              		.cfi_offset 6, -12
 149              		.cfi_offset 7, -8
 150              		.cfi_offset 14, -4
 151              		.loc 1 39 0
 152 0002 0B4A     		ldr	r2, .L15
 153              		.loc 1 40 0
 154 0004 0B49     		ldr	r1, .L15+4
 155              		.loc 1 41 0
 156 0006 0C4E     		ldr	r6, .L15+8
 157              		.loc 1 42 0
 158 0008 0C4D     		ldr	r5, .L15+12
 159              		.loc 1 44 0
 160 000a 0D4B     		ldr	r3, .L15+16
 161 000c 0D48     		ldr	r0, .L15+20
 162              		.loc 1 38 0
 163 000e 83B0     		sub	sp, sp, #12
 164              		.cfi_def_cfa_offset 32
 165              		.loc 1 39 0
 166 0010 4FF47A74 		mov	r4, #1000
 167 0014 1460     		str	r4, [r2]
 168              		.loc 1 40 0
 169 0016 0024     		movs	r4, #0
 170              		.loc 1 44 0
 171 0018 0094     		str	r4, [sp]
ARM GAS  C:\Users\euanm\AppData\Local\Temp\cca4Encf.s 			page 4


 172              		.loc 1 41 0
 173 001a 0027     		movs	r7, #0
 174              		.loc 1 40 0
 175 001c 0C60     		str	r4, [r1]
 176              		.loc 1 44 0
 177 001e 4022     		movs	r2, #64
 178 0020 4FF46671 		mov	r1, #920
 179              		.loc 1 41 0
 180 0024 3760     		str	r7, [r6]	@ float
 181              		.loc 1 42 0
 182 0026 2C70     		strb	r4, [r5]
 183              		.loc 1 44 0
 184 0028 FFF7FEFF 		bl	chThdCreateStatic
 185              	.LVL7:
 186              		.loc 1 45 0
 187 002c 03B0     		add	sp, sp, #12
 188              		.cfi_def_cfa_offset 20
 189              		@ sp needed
 190 002e F0BD     		pop	{r4, r5, r6, r7, pc}
 191              	.L16:
 192              		.align	2
 193              	.L15:
 194 0030 00000000 		.word	.LANCHOR0
 195 0034 00000000 		.word	.LANCHOR1
 196 0038 00000000 		.word	.LANCHOR2
 197 003c 00000000 		.word	.LANCHOR3
 198 0040 00000000 		.word	timeout_thread
 199 0044 00000000 		.word	.LANCHOR4
 200              		.cfi_endproc
 201              	.LFE219:
 202              		.size	timeout_init, .-timeout_init
 203              		.section	.text.timeout_configure,"ax",%progbits
 204              		.align	2
 205              		.p2align 4,,15
 206              		.global	timeout_configure
 207              		.thumb
 208              		.thumb_func
 209              		.type	timeout_configure, %function
 210              	timeout_configure:
 211              	.LFB220:
 212              		.loc 1 47 0
 213              		.cfi_startproc
 214              		@ args = 0, pretend = 0, frame = 0
 215              		@ frame_needed = 0, uses_anonymous_args = 0
 216              		@ link register save eliminated.
 217              	.LVL8:
 218              		.loc 1 48 0
 219 0000 024A     		ldr	r2, .L18
 220              		.loc 1 49 0
 221 0002 034B     		ldr	r3, .L18+4
 222              		.loc 1 48 0
 223 0004 1060     		str	r0, [r2]
 224              		.loc 1 49 0
 225 0006 83ED000A 		vstr.32	s0, [r3]
 226 000a 7047     		bx	lr
 227              	.L19:
 228              		.align	2
ARM GAS  C:\Users\euanm\AppData\Local\Temp\cca4Encf.s 			page 5


 229              	.L18:
 230 000c 00000000 		.word	.LANCHOR0
 231 0010 00000000 		.word	.LANCHOR2
 232              		.cfi_endproc
 233              	.LFE220:
 234              		.size	timeout_configure, .-timeout_configure
 235              		.section	.text.timeout_reset,"ax",%progbits
 236              		.align	2
 237              		.p2align 4,,15
 238              		.global	timeout_reset
 239              		.thumb
 240              		.thumb_func
 241              		.type	timeout_reset, %function
 242              	timeout_reset:
 243              	.LFB221:
 244              		.loc 1 52 0
 245              		.cfi_startproc
 246              		@ args = 0, pretend = 0, frame = 0
 247              		@ frame_needed = 0, uses_anonymous_args = 0
 248              		@ link register save eliminated.
 249              	.LVL9:
 250              	.LBB55:
 251              	.LBB56:
 252              	.LBB57:
 253              	.LBB58:
 254              	.LBB59:
 255              	.LBB60:
 256              		.file 4 "ChibiOS_3.0.2/os/ext/CMSIS/include/core_cmFunc.h"
 257              		.loc 4 546 0
 258 0000 2023     		movs	r3, #32
 259              		.syntax unified
 260              	@ 546 "ChibiOS_3.0.2/os/ext/CMSIS/include/core_cmFunc.h" 1
 261 0002 83F31188 		MSR basepri, r3
 262              	@ 0 "" 2
 263              	.LVL10:
 264              		.thumb
 265              		.syntax unified
 266              	.LBE60:
 267              	.LBE59:
 268              	.LBE58:
 269              	.LBE57:
 270              	.LBB61:
 271              	.LBB62:
 272              		.loc 3 231 0
 273 0006 044A     		ldr	r2, .L21
 274              	.LBE62:
 275              	.LBE61:
 276              	.LBB64:
 277              	.LBB65:
 278              	.LBB66:
 279              	.LBB67:
 280              	.LBB68:
 281              		.loc 4 546 0
 282 0008 0023     		movs	r3, #0
 283              	.LBE68:
 284              	.LBE67:
 285              	.LBE66:
ARM GAS  C:\Users\euanm\AppData\Local\Temp\cca4Encf.s 			page 6


 286              	.LBE65:
 287              	.LBE64:
 288              	.LBB73:
 289              	.LBB63:
 290              		.loc 3 231 0
 291 000a 926A     		ldr	r2, [r2, #40]
 292              	.LVL11:
 293              	.LBE63:
 294              	.LBE73:
 295              	.LBB74:
 296              	.LBB72:
 297              	.LBB71:
 298              	.LBB70:
 299              	.LBB69:
 300              		.loc 4 546 0
 301              		.syntax unified
 302              	@ 546 "ChibiOS_3.0.2/os/ext/CMSIS/include/core_cmFunc.h" 1
 303 000c 83F31188 		MSR basepri, r3
 304              	@ 0 "" 2
 305              	.LVL12:
 306              		.thumb
 307              		.syntax unified
 308              	.LBE69:
 309              	.LBE70:
 310              	.LBE71:
 311              	.LBE72:
 312              	.LBE74:
 313              	.LBE56:
 314              	.LBE55:
 315              		.loc 1 53 0
 316 0010 024B     		ldr	r3, .L21+4
 317 0012 1A60     		str	r2, [r3]
 318 0014 7047     		bx	lr
 319              	.L22:
 320 0016 00BF     		.align	2
 321              	.L21:
 322 0018 00000000 		.word	ch
 323 001c 00000000 		.word	.LANCHOR1
 324              		.cfi_endproc
 325              	.LFE221:
 326              		.size	timeout_reset, .-timeout_reset
 327              		.section	.text.timeout_has_timeout,"ax",%progbits
 328              		.align	2
 329              		.p2align 4,,15
 330              		.global	timeout_has_timeout
 331              		.thumb
 332              		.thumb_func
 333              		.type	timeout_has_timeout, %function
 334              	timeout_has_timeout:
 335              	.LFB222:
 336              		.loc 1 56 0
 337              		.cfi_startproc
 338              		@ args = 0, pretend = 0, frame = 0
 339              		@ frame_needed = 0, uses_anonymous_args = 0
 340              		@ link register save eliminated.
 341              		.loc 1 57 0
 342 0000 014B     		ldr	r3, .L24
ARM GAS  C:\Users\euanm\AppData\Local\Temp\cca4Encf.s 			page 7


 343 0002 1878     		ldrb	r0, [r3]	@ zero_extendqisi2
 344              		.loc 1 58 0
 345 0004 7047     		bx	lr
 346              	.L25:
 347 0006 00BF     		.align	2
 348              	.L24:
 349 0008 00000000 		.word	.LANCHOR3
 350              		.cfi_endproc
 351              	.LFE222:
 352              		.size	timeout_has_timeout, .-timeout_has_timeout
 353              		.section	.text.timeout_get_timeout_msec,"ax",%progbits
 354              		.align	2
 355              		.p2align 4,,15
 356              		.global	timeout_get_timeout_msec
 357              		.thumb
 358              		.thumb_func
 359              		.type	timeout_get_timeout_msec, %function
 360              	timeout_get_timeout_msec:
 361              	.LFB223:
 362              		.loc 1 60 0
 363              		.cfi_startproc
 364              		@ args = 0, pretend = 0, frame = 0
 365              		@ frame_needed = 0, uses_anonymous_args = 0
 366              		@ link register save eliminated.
 367              		.loc 1 61 0
 368 0000 014B     		ldr	r3, .L27
 369 0002 1868     		ldr	r0, [r3]
 370              		.loc 1 62 0
 371 0004 7047     		bx	lr
 372              	.L28:
 373 0006 00BF     		.align	2
 374              	.L27:
 375 0008 00000000 		.word	.LANCHOR0
 376              		.cfi_endproc
 377              	.LFE223:
 378              		.size	timeout_get_timeout_msec, .-timeout_get_timeout_msec
 379              		.section	.text.timeout_get_brake_current,"ax",%progbits
 380              		.align	2
 381              		.p2align 4,,15
 382              		.global	timeout_get_brake_current
 383              		.thumb
 384              		.thumb_func
 385              		.type	timeout_get_brake_current, %function
 386              	timeout_get_brake_current:
 387              	.LFB224:
 388              		.loc 1 64 0
 389              		.cfi_startproc
 390              		@ args = 0, pretend = 0, frame = 0
 391              		@ frame_needed = 0, uses_anonymous_args = 0
 392              		@ link register save eliminated.
 393              		.loc 1 65 0
 394 0000 014B     		ldr	r3, .L30
 395 0002 93ED000A 		vldr.32	s0, [r3]
 396              		.loc 1 66 0
 397 0006 7047     		bx	lr
 398              	.L31:
 399              		.align	2
ARM GAS  C:\Users\euanm\AppData\Local\Temp\cca4Encf.s 			page 8


 400              	.L30:
 401 0008 00000000 		.word	.LANCHOR2
 402              		.cfi_endproc
 403              	.LFE224:
 404              		.size	timeout_get_brake_current, .-timeout_get_brake_current
 405              		.section	.bss.timeout_thread_wa,"aw",%nobits
 406              		.align	3
 407              		.set	.LANCHOR4,. + 0
 408              		.type	timeout_thread_wa, %object
 409              		.size	timeout_thread_wa, 920
 410              	timeout_thread_wa:
 411 0000 00000000 		.space	920
 411      00000000 
 411      00000000 
 411      00000000 
 411      00000000 
 412              		.section	.bss.last_update_time,"aw",%nobits
 413              		.align	2
 414              		.set	.LANCHOR1,. + 0
 415              		.type	last_update_time, %object
 416              		.size	last_update_time, 4
 417              	last_update_time:
 418 0000 00000000 		.space	4
 419              		.section	.rodata.str1.4,"aMS",%progbits,1
 420              		.align	2
 421              	.LC0:
 422 0000 54696D65 		.ascii	"Timeout\000"
 422      6F757400 
 423              		.section	.bss.timeout_brake_current,"aw",%nobits
 424              		.align	2
 425              		.set	.LANCHOR2,. + 0
 426              		.type	timeout_brake_current, %object
 427              		.size	timeout_brake_current, 4
 428              	timeout_brake_current:
 429 0000 00000000 		.space	4
 430              		.section	.bss.has_timeout,"aw",%nobits
 431              		.set	.LANCHOR3,. + 0
 432              		.type	has_timeout, %object
 433              		.size	has_timeout, 1
 434              	has_timeout:
 435 0000 00       		.space	1
 436              		.section	.bss.timeout_msec,"aw",%nobits
 437              		.align	2
 438              		.set	.LANCHOR0,. + 0
 439              		.type	timeout_msec, %object
 440              		.size	timeout_msec, 4
 441              	timeout_msec:
 442 0000 00000000 		.space	4
 443              		.text
 444              	.Letext0:
 445              		.file 5 "c:\\program files (x86)\\gnu tools arm embedded\\5.4 2016q3\\lib\\gcc\\arm-none-eabi\\5.4
 446              		.file 6 "c:\\program files (x86)\\gnu tools arm embedded\\5.4 2016q3\\arm-none-eabi\\include\\mach
 447              		.file 7 "c:\\program files (x86)\\gnu tools arm embedded\\5.4 2016q3\\arm-none-eabi\\include\\sys\
 448              		.file 8 "ChibiOS_3.0.2/os/rt/ports/ARMCMx/compilers/GCC/chtypes.h"
 449              		.file 9 "ChibiOS_3.0.2/os/rt/include/chsystypes.h"
 450              		.file 10 "ChibiOS_3.0.2/os/rt/include/chschd.h"
 451              		.file 11 "ChibiOS_3.0.2/os/rt/ports/ARMCMx/chcore.h"
ARM GAS  C:\Users\euanm\AppData\Local\Temp\cca4Encf.s 			page 9


 452              		.file 12 "ChibiOS_3.0.2/os/rt/ports/ARMCMx/chcore_v7m.h"
 453              		.file 13 "ChibiOS_3.0.2/os/rt/include/chtm.h"
 454              		.file 14 "ChibiOS_3.0.2/os/rt/include/chsem.h"
 455              		.file 15 "ChibiOS_3.0.2/os/rt/include/chmtx.h"
 456              		.file 16 "ChibiOS_3.0.2/os/rt/include/chsys.h"
 457              		.file 17 "ChibiOS_3.0.2/os/rt/include/chthreads.h"
 458              		.file 18 "mc_interface.h"
 459              		.file 19 "ChibiOS_3.0.2/os/ext/CMSIS/include/core_cm4.h"