ARM GAS  C:\Users\euanm\AppData\Local\Temp\ccE8Zd2k.s 			page 1


   1              		.syntax unified
   2              		.cpu cortex-m4
   3              		.eabi_attribute 27, 1
   4              		.eabi_attribute 28, 1
   5              		.fpu fpv4-sp-d16
   6              		.eabi_attribute 20, 1
   7              		.eabi_attribute 21, 1
   8              		.eabi_attribute 23, 3
   9              		.eabi_attribute 24, 1
  10              		.eabi_attribute 25, 1
  11              		.eabi_attribute 26, 1
  12              		.eabi_attribute 30, 2
  13              		.eabi_attribute 34, 1
  14              		.eabi_attribute 18, 4
  15              		.thumb
  16              		.syntax unified
  17              		.file	"utils.c"
  18              		.text
  19              	.Ltext0:
  20              		.cfi_sections	.debug_frame
  21              		.section	.text.utils_step_towards,"ax",%progbits
  22              		.align	2
  23              		.p2align 4,,15
  24              		.global	utils_step_towards
  25              		.thumb
  26              		.thumb_func
  27              		.type	utils_step_towards, %function
  28              	utils_step_towards:
  29              	.LFB256:
  30              		.file 1 "utils.c"
  31              		.loc 1 33 0
  32              		.cfi_startproc
  33              		@ args = 0, pretend = 0, frame = 0
  34              		@ frame_needed = 0, uses_anonymous_args = 0
  35              		@ link register save eliminated.
  36              	.LVL0:
  37              		.loc 1 34 0
  38 0000 D0ED007A 		vldr.32	s15, [r0]
  39 0004 F4EEC07A 		vcmpe.f32	s15, s0
  40 0008 F1EE10FA 		vmrs	APSR_nzcv, FPSCR
  41 000c 09D5     		bpl	.L13
  42              		.loc 1 35 0
  43 000e 77EEA07A 		vadd.f32	s15, s15, s1
  44 0012 B4EEE70A 		vcmpe.f32	s0, s15
  45 0016 F1EE10FA 		vmrs	APSR_nzcv, FPSCR
  46 001a 0ADD     		ble	.L4
  47              	.L14:
  48              		.loc 1 42 0
  49 001c C0ED007A 		vstr.32	s15, [r0]
  50              	.L1:
  51 0020 7047     		bx	lr
  52              	.L13:
  53              		.loc 1 40 0
  54 0022 FDDD     		ble	.L1
  55              		.loc 1 41 0
  56 0024 77EEE07A 		vsub.f32	s15, s15, s1
  57 0028 B4EEE70A 		vcmpe.f32	s0, s15
ARM GAS  C:\Users\euanm\AppData\Local\Temp\ccE8Zd2k.s 			page 2


  58 002c F1EE10FA 		vmrs	APSR_nzcv, FPSCR
  59 0030 F4D4     		bmi	.L14
  60              	.L4:
  61              		.loc 1 38 0
  62 0032 80ED000A 		vstr.32	s0, [r0]
  63 0036 7047     		bx	lr
  64              		.cfi_endproc
  65              	.LFE256:
  66              		.size	utils_step_towards, .-utils_step_towards
  67              		.section	.text.utils_calc_ratio,"ax",%progbits
  68              		.align	2
  69              		.p2align 4,,15
  70              		.global	utils_calc_ratio
  71              		.thumb
  72              		.thumb_func
  73              		.type	utils_calc_ratio, %function
  74              	utils_calc_ratio:
  75              	.LFB257:
  76              		.loc 1 49 0
  77              		.cfi_startproc
  78              		@ args = 0, pretend = 0, frame = 0
  79              		@ frame_needed = 0, uses_anonymous_args = 0
  80              		@ link register save eliminated.
  81              	.LVL1:
  82              		.loc 1 50 0
  83 0000 31EE401A 		vsub.f32	s2, s2, s0
  84              	.LVL2:
  85 0004 30EEC00A 		vsub.f32	s0, s1, s0
  86              	.LVL3:
  87              		.loc 1 51 0
  88 0008 81EE000A 		vdiv.f32	s0, s2, s0
  89 000c 7047     		bx	lr
  90              		.cfi_endproc
  91              	.LFE257:
  92              		.size	utils_calc_ratio, .-utils_calc_ratio
  93 000e 00BF     		.section	.text.utils_norm_angle,"ax",%progbits
  94              		.align	2
  95              		.p2align 4,,15
  96              		.global	utils_norm_angle
  97              		.thumb
  98              		.thumb_func
  99              		.type	utils_norm_angle, %function
 100              	utils_norm_angle:
 101              	.LFB258:
 102              		.loc 1 59 0
 103              		.cfi_startproc
 104              		@ args = 0, pretend = 0, frame = 0
 105              		@ frame_needed = 0, uses_anonymous_args = 0
 106              	.LVL4:
 107 0000 10B5     		push	{r4, lr}
 108              		.cfi_def_cfa_offset 8
 109              		.cfi_offset 4, -8
 110              		.cfi_offset 14, -4
 111 0002 2DED028B 		vpush.64	{d8}
 112              		.cfi_def_cfa_offset 16
 113              		.cfi_offset 80, -16
 114              		.cfi_offset 81, -12
ARM GAS  C:\Users\euanm\AppData\Local\Temp\ccE8Zd2k.s 			page 3


 115              		.loc 1 60 0
 116 0006 9FED0A8A 		vldr.32	s16, .L22
 117 000a 90ED000A 		vldr.32	s0, [r0]
 118 000e F0EE480A 		vmov.f32	s1, s16
 119              		.loc 1 59 0
 120 0012 0446     		mov	r4, r0
 121              		.loc 1 60 0
 122 0014 FFF7FEFF 		bl	fmodf
 123              	.LVL5:
 124              		.loc 1 62 0
 125 0018 B5EEC00A 		vcmpe.f32	s0, #0
 126 001c F1EE10FA 		vmrs	APSR_nzcv, FPSCR
 127              		.loc 1 63 0
 128 0020 48BF     		it	mi
 129 0022 30EE080A 		vaddmi.f32	s0, s0, s16
 130              		.loc 1 65 0
 131 0026 BDEC028B 		vldm	sp!, {d8}
 132              		.cfi_restore 80
 133              		.cfi_restore 81
 134              		.cfi_def_cfa_offset 8
 135              		.loc 1 63 0
 136 002a 84ED000A 		vstr.32	s0, [r4]
 137              		.loc 1 65 0
 138 002e 10BD     		pop	{r4, pc}
 139              	.LVL6:
 140              	.L23:
 141              		.align	2
 142              	.L22:
 143 0030 0000B443 		.word	1135869952
 144              		.cfi_endproc
 145              	.LFE258:
 146              		.size	utils_norm_angle, .-utils_norm_angle
 147              		.section	.text.utils_norm_angle_rad,"ax",%progbits
 148              		.align	2
 149              		.p2align 4,,15
 150              		.global	utils_norm_angle_rad
 151              		.thumb
 152              		.thumb_func
 153              		.type	utils_norm_angle_rad, %function
 154              	utils_norm_angle_rad:
 155              	.LFB259:
 156              		.loc 1 76 0
 157              		.cfi_startproc
 158              		@ args = 0, pretend = 0, frame = 0
 159              		@ frame_needed = 0, uses_anonymous_args = 0
 160              		@ link register save eliminated.
 161              	.LVL7:
 162              		.loc 1 77 0
 163 0000 D0ED007A 		vldr.32	s15, [r0]
 164 0004 9FED127A 		vldr.32	s14, .L34
 165 0008 F4EEC77A 		vcmpe.f32	s15, s14
 166 000c F1EE10FA 		vmrs	APSR_nzcv, FPSCR
 167 0010 0AD5     		bpl	.L25
 168              		.loc 1 78 0
 169 0012 DFED106A 		vldr.32	s13, .L34+4
 170              	.L27:
 171 0016 77EEA67A 		vadd.f32	s15, s15, s13
ARM GAS  C:\Users\euanm\AppData\Local\Temp\ccE8Zd2k.s 			page 4


 172              		.loc 1 77 0
 173 001a F4EEC77A 		vcmpe.f32	s15, s14
 174 001e F1EE10FA 		vmrs	APSR_nzcv, FPSCR
 175 0022 F8D4     		bmi	.L27
 176 0024 C0ED007A 		vstr.32	s15, [r0]
 177              	.L25:
 178              		.loc 1 81 0
 179 0028 9FED0B7A 		vldr.32	s14, .L34+8
 180 002c F4EEC77A 		vcmpe.f32	s15, s14
 181 0030 F1EE10FA 		vmrs	APSR_nzcv, FPSCR
 182 0034 0ADD     		ble	.L24
 183              		.loc 1 82 0
 184 0036 DFED076A 		vldr.32	s13, .L34+4
 185              	.L29:
 186 003a 77EEE67A 		vsub.f32	s15, s15, s13
 187              		.loc 1 81 0
 188 003e F4EEC77A 		vcmpe.f32	s15, s14
 189 0042 F1EE10FA 		vmrs	APSR_nzcv, FPSCR
 190 0046 F8DC     		bgt	.L29
 191 0048 C0ED007A 		vstr.32	s15, [r0]
 192              	.L24:
 193 004c 7047     		bx	lr
 194              	.L35:
 195 004e 00BF     		.align	2
 196              	.L34:
 197 0050 DB0F49C0 		.word	-1068953637
 198 0054 DB0FC940 		.word	1086918619
 199 0058 DB0F4940 		.word	1078530011
 200              		.cfi_endproc
 201              	.LFE259:
 202              		.size	utils_norm_angle_rad, .-utils_norm_angle_rad
 203              		.section	.text.utils_truncate_number,"ax",%progbits
 204              		.align	2
 205              		.p2align 4,,15
 206              		.global	utils_truncate_number
 207              		.thumb
 208              		.thumb_func
 209              		.type	utils_truncate_number, %function
 210              	utils_truncate_number:
 211              	.LFB260:
 212              		.loc 1 86 0
 213              		.cfi_startproc
 214              		@ args = 0, pretend = 0, frame = 0
 215              		@ frame_needed = 0, uses_anonymous_args = 0
 216              		@ link register save eliminated.
 217              	.LVL8:
 218              		.loc 1 89 0
 219 0000 D0ED007A 		vldr.32	s15, [r0]
 220 0004 F4EEE07A 		vcmpe.f32	s15, s1
 221 0008 F1EE10FA 		vmrs	APSR_nzcv, FPSCR
 222 000c 09DC     		bgt	.L46
 223              		.loc 1 92 0
 224 000e F4EEC07A 		vcmpe.f32	s15, s0
 225 0012 F1EE10FA 		vmrs	APSR_nzcv, FPSCR
 226              		.loc 1 93 0
 227 0016 46BF     		itte	mi
 228 0018 80ED000A 		vstrmi.32	s0, [r0]
ARM GAS  C:\Users\euanm\AppData\Local\Temp\ccE8Zd2k.s 			page 5


 229              	.LVL9:
 230              		.loc 1 94 0
 231 001c 0120     		movmi	r0, #1
 232              	.LVL10:
 233              		.loc 1 87 0
 234 001e 0020     		movpl	r0, #0
 235              	.LVL11:
 236              		.loc 1 98 0
 237 0020 7047     		bx	lr
 238              	.LVL12:
 239              	.L46:
 240              		.loc 1 90 0
 241 0022 C0ED000A 		vstr.32	s1, [r0]
 242              	.LVL13:
 243              		.loc 1 91 0
 244 0026 0120     		movs	r0, #1
 245              	.LVL14:
 246 0028 7047     		bx	lr
 247              		.cfi_endproc
 248              	.LFE260:
 249              		.size	utils_truncate_number, .-utils_truncate_number
 250 002a 00BF     		.section	.text.utils_map,"ax",%progbits
 251              		.align	2
 252              		.p2align 4,,15
 253              		.global	utils_map
 254              		.thumb
 255              		.thumb_func
 256              		.type	utils_map, %function
 257              	utils_map:
 258              	.LFB261:
 259              		.loc 1 100 0
 260              		.cfi_startproc
 261              		@ args = 0, pretend = 0, frame = 0
 262              		@ frame_needed = 0, uses_anonymous_args = 0
 263              		@ link register save eliminated.
 264              	.LVL15:
 265              		.loc 1 101 0
 266 0000 30EE600A 		vsub.f32	s0, s0, s1
 267              	.LVL16:
 268 0004 32EE612A 		vsub.f32	s4, s4, s3
 269              	.LVL17:
 270 0008 31EE601A 		vsub.f32	s2, s2, s1
 271              	.LVL18:
 272 000c 20EE022A 		vmul.f32	s4, s0, s4
 273 0010 82EE010A 		vdiv.f32	s0, s4, s2
 274              		.loc 1 102 0
 275 0014 30EE210A 		vadd.f32	s0, s0, s3
 276 0018 7047     		bx	lr
 277              		.cfi_endproc
 278              	.LFE261:
 279              		.size	utils_map, .-utils_map
 280 001a 00BF     		.section	.text.utils_map_int,"ax",%progbits
 281              		.align	2
 282              		.p2align 4,,15
 283              		.global	utils_map_int
 284              		.thumb
 285              		.thumb_func
ARM GAS  C:\Users\euanm\AppData\Local\Temp\ccE8Zd2k.s 			page 6


 286              		.type	utils_map_int, %function
 287              	utils_map_int:
 288              	.LFB262:
 289              		.loc 1 104 0
 290              		.cfi_startproc
 291              		@ args = 4, pretend = 0, frame = 0
 292              		@ frame_needed = 0, uses_anonymous_args = 0
 293              		@ link register save eliminated.
 294              	.LVL19:
 295 0000 10B4     		push	{r4}
 296              		.cfi_def_cfa_offset 4
 297              		.cfi_offset 4, -4
 298              		.loc 1 104 0
 299 0002 019C     		ldr	r4, [sp, #4]
 300              		.loc 1 105 0
 301 0004 401A     		subs	r0, r0, r1
 302              	.LVL20:
 303 0006 E41A     		subs	r4, r4, r3
 304 0008 04FB00F4 		mul	r4, r4, r0
 305 000c 521A     		subs	r2, r2, r1
 306              	.LVL21:
 307 000e 94FBF2F0 		sdiv	r0, r4, r2
 308              		.loc 1 106 0
 309 0012 5DF8044B 		ldr	r4, [sp], #4
 310              		.cfi_restore 4
 311              		.cfi_def_cfa_offset 0
 312              	.LVL22:
 313 0016 1844     		add	r0, r0, r3
 314 0018 7047     		bx	lr
 315              		.cfi_endproc
 316              	.LFE262:
 317              		.size	utils_map_int, .-utils_map_int
 318 001a 00BF     		.section	.text.utils_deadband,"ax",%progbits
 319              		.align	2
 320              		.p2align 4,,15
 321              		.global	utils_deadband
 322              		.thumb
 323              		.thumb_func
 324              		.type	utils_deadband, %function
 325              	utils_deadband:
 326              	.LFB263:
 327              		.loc 1 112 0
 328              		.cfi_startproc
 329              		@ args = 0, pretend = 0, frame = 0
 330              		@ frame_needed = 0, uses_anonymous_args = 0
 331              		@ link register save eliminated.
 332              	.LVL23:
 333              		.loc 1 113 0
 334 0000 D0ED007A 		vldr.32	s15, [r0]
 335 0004 B0EEE77A 		vabs.f32	s14, s15
 336 0008 B4EEC07A 		vcmpe.f32	s14, s0
 337 000c F1EE10FA 		vmrs	APSR_nzcv, FPSCR
 338 0010 17D4     		bmi	.L60
 339              	.LBB24:
 340              		.loc 1 116 0
 341 0012 30EEC00A 		vsub.f32	s0, s1, s0
 342              	.LVL24:
ARM GAS  C:\Users\euanm\AppData\Local\Temp\ccE8Zd2k.s 			page 7


 343              		.loc 1 118 0
 344 0016 B7EE007A 		vmov.f32	s14, #1.0e+0
 345              		.loc 1 116 0
 346 001a C0EE806A 		vdiv.f32	s13, s1, s0
 347              	.LVL25:
 348              		.loc 1 117 0
 349 001e F5EEC07A 		vcmpe.f32	s15, #0
 350              		.loc 1 118 0
 351 0022 37EE667A 		vsub.f32	s14, s14, s13
 352              		.loc 1 117 0
 353 0026 F1EE10FA 		vmrs	APSR_nzcv, FPSCR
 354              		.loc 1 118 0
 355 002a 67EE200A 		vmul.f32	s1, s14, s1
 356              	.LVL26:
 357              		.loc 1 120 0
 358 002e D6BF     		itet	le
 359 0030 E7EEE60A 		vfmsle.f32	s1, s15, s13
 360              		.loc 1 118 0
 361 0034 E7EEA60A 		vfmagt.f32	s1, s15, s13
 362              		.loc 1 120 0
 363 0038 F1EE600A 		vnegle.f32	s1, s1
 364 003c C0ED000A 		vstr.32	s1, [r0]
 365 0040 7047     		bx	lr
 366              	.LVL27:
 367              	.L60:
 368              	.LBE24:
 369              		.loc 1 114 0
 370 0042 0023     		movs	r3, #0
 371 0044 0360     		str	r3, [r0]	@ float
 372 0046 7047     		bx	lr
 373              		.cfi_endproc
 374              	.LFE263:
 375              		.size	utils_deadband, .-utils_deadband
 376              		.section	.text.utils_angle_difference,"ax",%progbits
 377              		.align	2
 378              		.p2align 4,,15
 379              		.global	utils_angle_difference
 380              		.thumb
 381              		.thumb_func
 382              		.type	utils_angle_difference, %function
 383              	utils_angle_difference:
 384              	.LFB264:
 385              		.loc 1 135 0
 386              		.cfi_startproc
 387              		@ args = 0, pretend = 0, frame = 0
 388              		@ frame_needed = 0, uses_anonymous_args = 0
 389              		@ link register save eliminated.
 390              	.LVL28:
 391              		.loc 1 150 0
 392 0000 30EE600A 		vsub.f32	s0, s0, s1
 393              	.LVL29:
 394              		.loc 1 151 0
 395 0004 DFED107A 		vldr.32	s15, .L72
 396 0008 B4EEE70A 		vcmpe.f32	s0, s15
 397 000c F1EE10FA 		vmrs	APSR_nzcv, FPSCR
 398 0010 08D5     		bpl	.L62
 399              		.loc 1 151 0 is_stmt 0 discriminator 2
ARM GAS  C:\Users\euanm\AppData\Local\Temp\ccE8Zd2k.s 			page 8


 400 0012 9FED0E7A 		vldr.32	s14, .L72+4
 401              	.L64:
 402 0016 30EE070A 		vadd.f32	s0, s0, s14
 403              	.LVL30:
 404 001a B4EEE70A 		vcmpe.f32	s0, s15
 405 001e F1EE10FA 		vmrs	APSR_nzcv, FPSCR
 406 0022 F8D4     		bmi	.L64
 407              	.L62:
 408              		.loc 1 152 0 is_stmt 1 discriminator 1
 409 0024 DFED0A7A 		vldr.32	s15, .L72+8
 410 0028 B4EEE70A 		vcmpe.f32	s0, s15
 411 002c F1EE10FA 		vmrs	APSR_nzcv, FPSCR
 412 0030 08DD     		ble	.L65
 413              		.loc 1 152 0 is_stmt 0 discriminator 2
 414 0032 9FED067A 		vldr.32	s14, .L72+4
 415              	.L67:
 416 0036 30EE470A 		vsub.f32	s0, s0, s14
 417              	.LVL31:
 418 003a B4EEE70A 		vcmpe.f32	s0, s15
 419 003e F1EE10FA 		vmrs	APSR_nzcv, FPSCR
 420 0042 F8DC     		bgt	.L67
 421              	.L65:
 422              		.loc 1 154 0 is_stmt 1
 423 0044 7047     		bx	lr
 424              	.L73:
 425 0046 00BF     		.align	2
 426              	.L72:
 427 0048 000034C3 		.word	-1020002304
 428 004c 0000B443 		.word	1135869952
 429 0050 00003443 		.word	1127481344
 430              		.cfi_endproc
 431              	.LFE264:
 432              		.size	utils_angle_difference, .-utils_angle_difference
 433              		.section	.text.utils_angle_difference_rad,"ax",%progbits
 434              		.align	2
 435              		.p2align 4,,15
 436              		.global	utils_angle_difference_rad
 437              		.thumb
 438              		.thumb_func
 439              		.type	utils_angle_difference_rad, %function
 440              	utils_angle_difference_rad:
 441              	.LFB265:
 442              		.loc 1 165 0
 443              		.cfi_startproc
 444              		@ args = 0, pretend = 0, frame = 0
 445              		@ frame_needed = 0, uses_anonymous_args = 0
 446              		@ link register save eliminated.
 447              	.LVL32:
 448              		.loc 1 166 0
 449 0000 30EE600A 		vsub.f32	s0, s0, s1
 450              	.LVL33:
 451              		.loc 1 167 0
 452 0004 DFED107A 		vldr.32	s15, .L85
 453 0008 B4EEE70A 		vcmpe.f32	s0, s15
 454 000c F1EE10FA 		vmrs	APSR_nzcv, FPSCR
 455 0010 08D5     		bpl	.L75
 456              		.loc 1 167 0 is_stmt 0 discriminator 2
ARM GAS  C:\Users\euanm\AppData\Local\Temp\ccE8Zd2k.s 			page 9


 457 0012 9FED0E7A 		vldr.32	s14, .L85+4
 458              	.L77:
 459 0016 30EE070A 		vadd.f32	s0, s0, s14
 460              	.LVL34:
 461 001a B4EEE70A 		vcmpe.f32	s0, s15
 462 001e F1EE10FA 		vmrs	APSR_nzcv, FPSCR
 463 0022 F8D4     		bmi	.L77
 464              	.L75:
 465              		.loc 1 168 0 is_stmt 1 discriminator 1
 466 0024 DFED0A7A 		vldr.32	s15, .L85+8
 467 0028 B4EEE70A 		vcmpe.f32	s0, s15
 468 002c F1EE10FA 		vmrs	APSR_nzcv, FPSCR
 469 0030 08DD     		ble	.L78
 470              		.loc 1 168 0 is_stmt 0 discriminator 2
 471 0032 9FED067A 		vldr.32	s14, .L85+4
 472              	.L80:
 473 0036 30EE470A 		vsub.f32	s0, s0, s14
 474              	.LVL35:
 475 003a B4EEE70A 		vcmpe.f32	s0, s15
 476 003e F1EE10FA 		vmrs	APSR_nzcv, FPSCR
 477 0042 F8DC     		bgt	.L80
 478              	.L78:
 479              		.loc 1 170 0 is_stmt 1
 480 0044 7047     		bx	lr
 481              	.L86:
 482 0046 00BF     		.align	2
 483              	.L85:
 484 0048 DB0F49C0 		.word	-1068953637
 485 004c DB0FC940 		.word	1086918619
 486 0050 DB0F4940 		.word	1078530011
 487              		.cfi_endproc
 488              	.LFE265:
 489              		.size	utils_angle_difference_rad, .-utils_angle_difference_rad
 490              		.section	.text.utils_middle_of_3,"ax",%progbits
 491              		.align	2
 492              		.p2align 4,,15
 493              		.global	utils_middle_of_3
 494              		.thumb
 495              		.thumb_func
 496              		.type	utils_middle_of_3, %function
 497              	utils_middle_of_3:
 498              	.LFB267:
 499              		.loc 1 216 0
 500              		.cfi_startproc
 501              		@ args = 0, pretend = 0, frame = 0
 502              		@ frame_needed = 0, uses_anonymous_args = 0
 503              		@ link register save eliminated.
 504              	.LVL36:
 505              		.loc 1 219 0
 506 0000 B4EEE00A 		vcmpe.f32	s0, s1
 507 0004 F1EE10FA 		vmrs	APSR_nzcv, FPSCR
 508 0008 0ED8     		bhi	.L110
 509              		.loc 1 219 0 is_stmt 0 discriminator 1
 510 000a B4EEC10A 		vcmpe.f32	s0, s2
 511 000e F1EE10FA 		vmrs	APSR_nzcv, FPSCR
 512 0012 25D8     		bhi	.L111
 513              		.loc 1 224 0 is_stmt 1
ARM GAS  C:\Users\euanm\AppData\Local\Temp\ccE8Zd2k.s 			page 10


 514 0014 F4EE410A 		vcmp.f32	s1, s2
 515 0018 F1EE10FA 		vmrs	APSR_nzcv, FPSCR
 516 001c 98BF     		it	ls
 517 001e B0EE601A 		vmovls.f32	s2, s1
 518              	.LVL37:
 519              		.loc 1 227 0
 520 0022 B0EE410A 		vmov.f32	s0, s2
 521              	.LVL38:
 522 0026 7047     		bx	lr
 523              	.LVL39:
 524              	.L110:
 525              		.loc 1 221 0
 526 0028 0BDA     		bge	.L115
 527              	.L94:
 528              		.loc 1 224 0
 529 002a B4EEE00A 		vcmpe.f32	s0, s1
 530 002e F1EE10FA 		vmrs	APSR_nzcv, FPSCR
 531 0032 8CBF     		ite	hi
 532 0034 B0EE601A 		vmovhi.f32	s2, s1
 533 0038 B0EE401A 		vmovls.f32	s2, s0
 534              	.LVL40:
 535              		.loc 1 227 0
 536 003c B0EE410A 		vmov.f32	s0, s2
 537              	.LVL41:
 538 0040 7047     		bx	lr
 539              	.LVL42:
 540              	.L115:
 541              		.loc 1 221 0 discriminator 1
 542 0042 F4EEC10A 		vcmpe.f32	s1, s2
 543 0046 F1EE10FA 		vmrs	APSR_nzcv, FPSCR
 544 004a EED8     		bhi	.L94
 545              	.L100:
 546              		.loc 1 222 0
 547 004c B4EE410A 		vcmp.f32	s0, s2
 548 0050 F1EE10FA 		vmrs	APSR_nzcv, FPSCR
 549 0054 98BF     		it	ls
 550 0056 B0EE401A 		vmovls.f32	s2, s0
 551              	.LVL43:
 552              		.loc 1 227 0
 553 005a B0EE410A 		vmov.f32	s0, s2
 554              	.LVL44:
 555 005e 7047     		bx	lr
 556              	.LVL45:
 557              	.L111:
 558              		.loc 1 221 0
 559 0060 B4EEE00A 		vcmpe.f32	s0, s1
 560 0064 F1EE10FA 		vmrs	APSR_nzcv, FPSCR
 561 0068 04DB     		blt	.L114
 562 006a F4EEC10A 		vcmpe.f32	s1, s2
 563 006e F1EE10FA 		vmrs	APSR_nzcv, FPSCR
 564 0072 EBD9     		bls	.L100
 565              	.L114:
 566              		.loc 1 222 0
 567 0074 B0EE401A 		vmov.f32	s2, s0
 568              	.LVL46:
 569              		.loc 1 227 0
 570 0078 B0EE410A 		vmov.f32	s0, s2
ARM GAS  C:\Users\euanm\AppData\Local\Temp\ccE8Zd2k.s 			page 11


 571              	.LVL47:
 572 007c 7047     		bx	lr
 573              		.cfi_endproc
 574              	.LFE267:
 575              		.size	utils_middle_of_3, .-utils_middle_of_3
 576 007e 00BF     		.section	.text.utils_smallest_of_2,"ax",%progbits
 577              		.align	2
 578              		.p2align 4,,15
 579              		.global	utils_smallest_of_2
 580              		.thumb
 581              		.thumb_func
 582              		.type	utils_smallest_of_2, %function
 583              	utils_smallest_of_2:
 584              	.LFB268:
 585              		.loc 1 241 0
 586              		.cfi_startproc
 587              		@ args = 0, pretend = 0, frame = 0
 588              		@ frame_needed = 0, uses_anonymous_args = 0
 589              		@ link register save eliminated.
 590              	.LVL48:
 591              		.loc 1 242 0
 592 0000 F4EEC00A 		vcmpe.f32	s1, s0
 593 0004 F1EE10FA 		vmrs	APSR_nzcv, FPSCR
 594              		.loc 1 246 0
 595 0008 48BF     		it	mi
 596 000a B0EE600A 		vmovmi.f32	s0, s1
 597              	.LVL49:
 598 000e 7047     		bx	lr
 599              		.cfi_endproc
 600              	.LFE268:
 601              		.size	utils_smallest_of_2, .-utils_smallest_of_2
 602              		.section	.text.utils_smallest_of_3,"ax",%progbits
 603              		.align	2
 604              		.p2align 4,,15
 605              		.global	utils_smallest_of_3
 606              		.thumb
 607              		.thumb_func
 608              		.type	utils_smallest_of_3, %function
 609              	utils_smallest_of_3:
 610              	.LFB269:
 611              		.loc 1 263 0
 612              		.cfi_startproc
 613              		@ args = 0, pretend = 0, frame = 0
 614              		@ frame_needed = 0, uses_anonymous_args = 0
 615              		@ link register save eliminated.
 616              	.LVL50:
 617              		.loc 1 264 0
 618 0000 F4EEC00A 		vcmpe.f32	s1, s0
 619 0004 F1EE10FA 		vmrs	APSR_nzcv, FPSCR
 620 0008 09D5     		bpl	.L126
 621              		.loc 1 265 0
 622 000a F4EEC10A 		vcmpe.f32	s1, s2
 623 000e F1EE10FA 		vmrs	APSR_nzcv, FPSCR
 624              		.loc 1 268 0
 625 0012 D4BF     		ite	le
 626 0014 B0EE600A 		vmovle.f32	s0, s1
 627 0018 B0EE410A 		vmovgt.f32	s0, s2
ARM GAS  C:\Users\euanm\AppData\Local\Temp\ccE8Zd2k.s 			page 12


 628              	.LVL51:
 629 001c 7047     		bx	lr
 630              	.LVL52:
 631              	.L126:
 632              		.loc 1 270 0
 633 001e B4EEC10A 		vcmpe.f32	s0, s2
 634 0022 F1EE10FA 		vmrs	APSR_nzcv, FPSCR
 635              		.loc 1 273 0
 636 0026 C8BF     		it	gt
 637 0028 B0EE410A 		vmovgt.f32	s0, s2
 638              	.LVL53:
 639              		.loc 1 275 0
 640 002c 7047     		bx	lr
 641              		.cfi_endproc
 642              	.LFE269:
 643              		.size	utils_smallest_of_3, .-utils_smallest_of_3
 644 002e 00BF     		.section	.text.utils_highest_of_2,"ax",%progbits
 645              		.align	2
 646              		.p2align 4,,15
 647              		.global	utils_highest_of_2
 648              		.thumb
 649              		.thumb_func
 650              		.type	utils_highest_of_2, %function
 651              	utils_highest_of_2:
 652              	.LFB270:
 653              		.loc 1 289 0
 654              		.cfi_startproc
 655              		@ args = 0, pretend = 0, frame = 0
 656              		@ frame_needed = 0, uses_anonymous_args = 0
 657              		@ link register save eliminated.
 658              	.LVL54:
 659              		.loc 1 290 0
 660 0000 F4EEC00A 		vcmpe.f32	s1, s0
 661 0004 F1EE10FA 		vmrs	APSR_nzcv, FPSCR
 662              		.loc 1 294 0
 663 0008 C8BF     		it	gt
 664 000a B0EE600A 		vmovgt.f32	s0, s1
 665              	.LVL55:
 666 000e 7047     		bx	lr
 667              		.cfi_endproc
 668              	.LFE270:
 669              		.size	utils_highest_of_2, .-utils_highest_of_2
 670              		.section	.text.utils_middle_of_3_int,"ax",%progbits
 671              		.align	2
 672              		.p2align 4,,15
 673              		.global	utils_middle_of_3_int
 674              		.thumb
 675              		.thumb_func
 676              		.type	utils_middle_of_3_int, %function
 677              	utils_middle_of_3_int:
 678              	.LFB271:
 679              		.loc 1 311 0
 680              		.cfi_startproc
 681              		@ args = 0, pretend = 0, frame = 0
 682              		@ frame_needed = 0, uses_anonymous_args = 0
 683              		@ link register save eliminated.
 684              	.LVL56:
ARM GAS  C:\Users\euanm\AppData\Local\Temp\ccE8Zd2k.s 			page 13


 685              		.loc 1 314 0
 686 0000 8842     		cmp	r0, r1
 687 0002 05DD     		ble	.L136
 688              	.L131:
 689              		.loc 1 316 0 discriminator 1
 690 0004 9142     		cmp	r1, r2
 691 0006 0BDD     		ble	.L137
 692              		.loc 1 319 0
 693 0008 8842     		cmp	r0, r1
 694 000a A8BF     		it	ge
 695 000c 0846     		movge	r0, r1
 696              	.LVL57:
 697              		.loc 1 322 0
 698 000e 7047     		bx	lr
 699              	.LVL58:
 700              	.L136:
 701              		.loc 1 314 0 discriminator 1
 702 0010 9042     		cmp	r0, r2
 703 0012 09DD     		ble	.L138
 704              		.loc 1 316 0
 705 0014 8842     		cmp	r0, r1
 706 0016 F5DA     		bge	.L131
 707              		.loc 1 319 0
 708 0018 8842     		cmp	r0, r1
 709 001a A8BF     		it	ge
 710 001c 0846     		movge	r0, r1
 711              	.LVL59:
 712              		.loc 1 322 0
 713 001e 7047     		bx	lr
 714              	.LVL60:
 715              	.L137:
 716              		.loc 1 317 0
 717 0020 9042     		cmp	r0, r2
 718 0022 A8BF     		it	ge
 719 0024 1046     		movge	r0, r2
 720              	.LVL61:
 721 0026 7047     		bx	lr
 722              	.LVL62:
 723              	.L138:
 724              		.loc 1 315 0
 725 0028 9142     		cmp	r1, r2
 726 002a A8BF     		it	ge
 727 002c 1146     		movge	r1, r2
 728              	.LVL63:
 729 002e 0846     		mov	r0, r1
 730              	.LVL64:
 731 0030 7047     		bx	lr
 732              		.cfi_endproc
 733              	.LFE271:
 734              		.size	utils_middle_of_3_int, .-utils_middle_of_3_int
 735 0032 00BF     		.section	.text.utils_fast_inv_sqrt,"ax",%progbits
 736              		.align	2
 737              		.p2align 4,,15
 738              		.global	utils_fast_inv_sqrt
 739              		.thumb
 740              		.thumb_func
 741              		.type	utils_fast_inv_sqrt, %function
ARM GAS  C:\Users\euanm\AppData\Local\Temp\ccE8Zd2k.s 			page 14


 742              	utils_fast_inv_sqrt:
 743              	.LFB272:
 744              		.loc 1 326 0
 745              		.cfi_startproc
 746              		@ args = 0, pretend = 0, frame = 0
 747              		@ frame_needed = 0, uses_anonymous_args = 0
 748              		@ link register save eliminated.
 749              	.LVL65:
 750              		.loc 1 335 0
 751 0000 10EE102A 		vmov	r2, s0	@ int
 752 0004 084B     		ldr	r3, .L140
 753              		.loc 1 336 0
 754 0006 B6EE007A 		vmov.f32	s14, #5.0e-1
 755              		.loc 1 335 0
 756 000a A3EB6203 		sub	r3, r3, r2, asr #1
 757              	.LVL66:
 758 000e 07EE903A 		vmov	s15, r3	@ int
 759              		.loc 1 336 0
 760 0012 20EE077A 		vmul.f32	s14, s0, s14
 761              	.LVL67:
 762 0016 B7EE080A 		vmov.f32	s0, #1.5e+0
 763              	.LVL68:
 764 001a 27EE277A 		vmul.f32	s14, s14, s15
 765              	.LVL69:
 766 001e A7EEC70A 		vfms.f32	s0, s15, s14
 767              		.loc 1 337 0
 768 0022 20EE270A 		vmul.f32	s0, s0, s15
 769 0026 7047     		bx	lr
 770              	.L141:
 771              		.align	2
 772              	.L140:
 773 0028 DF59375F 		.word	1597463007
 774              		.cfi_endproc
 775              	.LFE272:
 776              		.size	utils_fast_inv_sqrt, .-utils_fast_inv_sqrt
 777              		.section	.text.utils_fast_atan2,"ax",%progbits
 778              		.align	2
 779              		.p2align 4,,15
 780              		.global	utils_fast_atan2
 781              		.thumb
 782              		.thumb_func
 783              		.type	utils_fast_atan2, %function
 784              	utils_fast_atan2:
 785              	.LFB273:
 786              		.loc 1 353 0
 787              		.cfi_startproc
 788              		@ args = 0, pretend = 0, frame = 0
 789              		@ frame_needed = 0, uses_anonymous_args = 0
 790              		@ link register save eliminated.
 791              	.LVL70:
 792              		.loc 1 354 0
 793 0000 DFED1F7A 		vldr.32	s15, .L153
 794              		.loc 1 357 0
 795 0004 F5EEC00A 		vcmpe.f32	s1, #0
 796              		.loc 1 354 0
 797 0008 B0EEC07A 		vabs.f32	s14, s0
 798              		.loc 1 357 0
ARM GAS  C:\Users\euanm\AppData\Local\Temp\ccE8Zd2k.s 			page 15


 799 000c F1EE10FA 		vmrs	APSR_nzcv, FPSCR
 800              		.loc 1 353 0
 801 0010 F0EE406A 		vmov.f32	s13, s0
 802              		.loc 1 354 0
 803 0014 77EE277A 		vadd.f32	s15, s14, s15
 804              	.LVL71:
 805              		.loc 1 357 0
 806 0018 1DDB     		blt	.L151
 807              	.LBB25:
 808              		.loc 1 358 0
 809 001a 30EEE75A 		vsub.f32	s10, s1, s15
 810 001e 77EEA07A 		vadd.f32	s15, s15, s1
 811              	.LVL72:
 812              		.loc 1 360 0
 813 0022 DFED185A 		vldr.32	s11, .L153+4
 814 0026 9FED187A 		vldr.32	s14, .L153+8
 815              	.LVL73:
 816 002a 9FED180A 		vldr.32	s0, .L153+12
 817              	.LVL74:
 818              		.loc 1 358 0
 819 002e 85EE276A 		vdiv.f32	s12, s10, s15
 820              	.LVL75:
 821              		.loc 1 360 0
 822 0032 66EE067A 		vmul.f32	s15, s12, s12
 823              	.LVL76:
 824 0036 A7EEA57A 		vfma.f32	s14, s15, s11
 825 003a A6EE070A 		vfma.f32	s0, s12, s14
 826 003e F0EE407A 		vmov.f32	s15, s0
 827              	.LVL77:
 828              	.L145:
 829              	.LBE25:
 830              		.loc 1 367 0
 831 0042 F5EEC06A 		vcmpe.f32	s13, #0
 832 0046 F1EE10FA 		vmrs	APSR_nzcv, FPSCR
 833              		.loc 1 368 0
 834 004a 4CBF     		ite	mi
 835 004c B1EE670A 		vnegmi.f32	s0, s15
 836              		.loc 1 370 0
 837 0050 B0EE670A 		vmovpl.f32	s0, s15
 838              		.loc 1 372 0
 839 0054 7047     		bx	lr
 840              	.LVL78:
 841              	.L151:
 842              	.LBB26:
 843              		.loc 1 362 0
 844 0056 77EEA04A 		vadd.f32	s9, s15, s1
 845 005a 77EEE07A 		vsub.f32	s15, s15, s1
 846              	.LVL79:
 847              		.loc 1 364 0
 848 005e 9FED095A 		vldr.32	s10, .L153+4
 849 0062 9FED096A 		vldr.32	s12, .L153+8
 850 0066 9FED0A7A 		vldr.32	s14, .L153+16
 851              	.LVL80:
 852              		.loc 1 362 0
 853 006a C4EEA75A 		vdiv.f32	s11, s9, s15
 854              	.LVL81:
 855              		.loc 1 364 0
ARM GAS  C:\Users\euanm\AppData\Local\Temp\ccE8Zd2k.s 			page 16


 856 006e 65EEA57A 		vmul.f32	s15, s11, s11
 857              	.LVL82:
 858 0072 A7EE856A 		vfma.f32	s12, s15, s10
 859 0076 A5EE867A 		vfma.f32	s14, s11, s12
 860 007a F0EE477A 		vmov.f32	s15, s14
 861              	.LVL83:
 862 007e E0E7     		b	.L145
 863              	.L154:
 864              		.align	2
 865              	.L153:
 866 0080 FFE6DB2E 		.word	786163455
 867 0084 DE02493E 		.word	1044972254
 868 0088 B1507BBF 		.word	-1082437455
 869 008c DB0F493F 		.word	1061752795
 870 0090 E4CB1640 		.word	1075235812
 871              	.LBE26:
 872              		.cfi_endproc
 873              	.LFE273:
 874              		.size	utils_fast_atan2, .-utils_fast_atan2
 875              		.section	.text.utils_saturate_vector_2d,"ax",%progbits
 876              		.align	2
 877              		.p2align 4,,15
 878              		.global	utils_saturate_vector_2d
 879              		.thumb
 880              		.thumb_func
 881              		.type	utils_saturate_vector_2d, %function
 882              	utils_saturate_vector_2d:
 883              	.LFB274:
 884              		.loc 1 389 0
 885              		.cfi_startproc
 886              		@ args = 0, pretend = 0, frame = 8
 887              		@ frame_needed = 0, uses_anonymous_args = 0
 888              	.LVL84:
 889              		.loc 1 391 0
 890 0000 D1ED007A 		vldr.32	s15, [r1]
 891 0004 27EEA77A 		vmul.f32	s14, s15, s15
 892 0008 D0ED007A 		vldr.32	s15, [r0]
 893 000c A7EEA77A 		vfma.f32	s14, s15, s15
 894              		.loc 1 389 0
 895 0010 10B5     		push	{r4, lr}
 896              		.cfi_def_cfa_offset 8
 897              		.cfi_offset 4, -8
 898              		.cfi_offset 14, -4
 899              		.loc 1 391 0
 900 0012 F1EEC77A 		vsqrt.f32	s15, s14
 901              		.loc 1 389 0
 902 0016 0446     		mov	r4, r0
 903 0018 2DED028B 		vpush.64	{d8}
 904              		.cfi_def_cfa_offset 16
 905              		.cfi_offset 80, -16
 906              		.cfi_offset 81, -12
 907              		.loc 1 391 0
 908 001c F4EE677A 		vcmp.f32	s15, s15
 909 0020 F1EE10FA 		vmrs	APSR_nzcv, FPSCR
 910              		.loc 1 389 0
 911 0024 82B0     		sub	sp, sp, #8
 912              		.cfi_def_cfa_offset 24
ARM GAS  C:\Users\euanm\AppData\Local\Temp\ccE8Zd2k.s 			page 17


 913              		.loc 1 389 0
 914 0026 B0EE408A 		vmov.f32	s16, s0
 915              		.loc 1 391 0
 916 002a 27D1     		bne	.L166
 917              	.LVL85:
 918              	.L156:
 919              		.loc 1 394 0
 920 002c 9FED180A 		vldr.32	s0, .L167
 921              		.loc 1 395 0
 922 0030 F4EE407A 		vcmp.f32	s15, s0
 923 0034 F1EE10FA 		vmrs	APSR_nzcv, FPSCR
 924 0038 48BF     		it	mi
 925 003a F0EE407A 		vmovmi.f32	s15, s0
 926              	.LVL86:
 927              		.loc 1 392 0
 928 003e B0EEC87A 		vabs.f32	s14, s16
 929              	.LVL87:
 930              		.loc 1 398 0
 931 0042 F4EEC77A 		vcmpe.f32	s15, s14
 932 0046 F1EE10FA 		vmrs	APSR_nzcv, FPSCR
 933 004a 12DD     		ble	.L164
 934              	.LBB27:
 935              		.loc 1 399 0
 936 004c C7EE276A 		vdiv.f32	s13, s14, s15
 937              	.LVL88:
 938              		.loc 1 402 0
 939 0050 0120     		movs	r0, #1
 940              		.loc 1 400 0
 941 0052 94ED007A 		vldr.32	s14, [r4]
 942              	.LVL89:
 943 0056 27EE267A 		vmul.f32	s14, s14, s13
 944 005a 84ED007A 		vstr.32	s14, [r4]
 945              		.loc 1 401 0
 946 005e D1ED007A 		vldr.32	s15, [r1]
 947              	.LVL90:
 948 0062 67EEA67A 		vmul.f32	s15, s15, s13
 949 0066 C1ED007A 		vstr.32	s15, [r1]
 950              	.LVL91:
 951              	.LBE27:
 952              		.loc 1 406 0
 953 006a 02B0     		add	sp, sp, #8
 954              		.cfi_remember_state
 955              		.cfi_def_cfa_offset 16
 956              		@ sp needed
 957 006c BDEC028B 		vldm	sp!, {d8}
 958              		.cfi_restore 80
 959              		.cfi_restore 81
 960              		.cfi_def_cfa_offset 8
 961              	.LVL92:
 962 0070 10BD     		pop	{r4, pc}
 963              	.LVL93:
 964              	.L164:
 965              		.cfi_restore_state
 966              		.loc 1 390 0
 967 0072 0020     		movs	r0, #0
 968              	.LVL94:
 969              		.loc 1 406 0
ARM GAS  C:\Users\euanm\AppData\Local\Temp\ccE8Zd2k.s 			page 18


 970 0074 02B0     		add	sp, sp, #8
 971              		.cfi_remember_state
 972              		.cfi_def_cfa_offset 16
 973              		@ sp needed
 974 0076 BDEC028B 		vldm	sp!, {d8}
 975              		.cfi_restore 80
 976              		.cfi_restore 81
 977              		.cfi_def_cfa_offset 8
 978 007a 10BD     		pop	{r4, pc}
 979              	.LVL95:
 980              	.L166:
 981              		.cfi_restore_state
 982              		.loc 1 391 0
 983 007c B0EE470A 		vmov.f32	s0, s14
 984              	.LVL96:
 985 0080 0191     		str	r1, [sp, #4]
 986 0082 FFF7FEFF 		bl	sqrtf
 987              	.LVL97:
 988 0086 0199     		ldr	r1, [sp, #4]
 989 0088 F0EE407A 		vmov.f32	s15, s0
 990 008c CEE7     		b	.L156
 991              	.L168:
 992 008e 00BF     		.align	2
 993              	.L167:
 994 0090 FFE6DB2E 		.word	786163455
 995              		.cfi_endproc
 996              	.LFE274:
 997              		.size	utils_saturate_vector_2d, .-utils_saturate_vector_2d
 998              		.section	.text.utils_fast_sincos,"ax",%progbits
 999              		.align	2
 1000              		.p2align 4,,15
 1001              		.global	utils_fast_sincos
 1002              		.thumb
 1003              		.thumb_func
 1004              		.type	utils_fast_sincos, %function
 1005              	utils_fast_sincos:
 1006              	.LFB275:
 1007              		.loc 1 423 0
 1008              		.cfi_startproc
 1009              		@ args = 0, pretend = 0, frame = 0
 1010              		@ frame_needed = 0, uses_anonymous_args = 0
 1011              		@ link register save eliminated.
 1012              	.LVL98:
 1013              		.loc 1 425 0
 1014 0000 DFED2A7A 		vldr.32	s15, .L193
 1015 0004 B4EEE70A 		vcmpe.f32	s0, s15
 1016 0008 F1EE10FA 		vmrs	APSR_nzcv, FPSCR
 1017 000c 08D5     		bpl	.L170
 1018              		.loc 1 426 0
 1019 000e 9FED287A 		vldr.32	s14, .L193+4
 1020              	.L172:
 1021 0012 30EE070A 		vadd.f32	s0, s0, s14
 1022              	.LVL99:
 1023              		.loc 1 425 0
 1024 0016 B4EEE70A 		vcmpe.f32	s0, s15
 1025 001a F1EE10FA 		vmrs	APSR_nzcv, FPSCR
 1026 001e F8D4     		bmi	.L172
ARM GAS  C:\Users\euanm\AppData\Local\Temp\ccE8Zd2k.s 			page 19


 1027              	.L170:
 1028              		.loc 1 429 0
 1029 0020 DFED247A 		vldr.32	s15, .L193+8
 1030 0024 B4EEE70A 		vcmpe.f32	s0, s15
 1031 0028 F1EE10FA 		vmrs	APSR_nzcv, FPSCR
 1032 002c 08DD     		ble	.L173
 1033              		.loc 1 430 0
 1034 002e 9FED207A 		vldr.32	s14, .L193+4
 1035              	.L175:
 1036 0032 30EE470A 		vsub.f32	s0, s0, s14
 1037              	.LVL100:
 1038              		.loc 1 429 0
 1039 0036 B4EEE70A 		vcmpe.f32	s0, s15
 1040 003a F1EE10FA 		vmrs	APSR_nzcv, FPSCR
 1041 003e F8DC     		bgt	.L175
 1042              	.L173:
 1043              		.loc 1 435 0
 1044 0040 DFED1D7A 		vldr.32	s15, .L193+12
 1045 0044 9FED1D7A 		vldr.32	s14, .L193+16
 1046 0048 60EE277A 		vmul.f32	s15, s0, s15
 1047              		.loc 1 434 0
 1048 004c B5EEC00A 		vcmpe.f32	s0, #0
 1049 0050 F1EE10FA 		vmrs	APSR_nzcv, FPSCR
 1050              		.loc 1 435 0
 1051 0054 4CBF     		ite	mi
 1052 0056 67EE807A 		vmulmi.f32	s15, s15, s0
 1053              		.loc 1 437 0
 1054 005a 60EE677A 		vnmulpl.f32	s15, s0, s15
 1055 005e E0EE077A 		vfma.f32	s15, s0, s14
 1056              		.loc 1 441 0
 1057 0062 9FED177A 		vldr.32	s14, .L193+20
 1058              		.loc 1 437 0
 1059 0066 C0ED007A 		vstr.32	s15, [r0]
 1060              		.loc 1 441 0
 1061 006a 30EE070A 		vadd.f32	s0, s0, s14
 1062              	.LVL101:
 1063              		.loc 1 443 0
 1064 006e DFED117A 		vldr.32	s15, .L193+8
 1065              		.loc 1 448 0
 1066 0072 9FED127A 		vldr.32	s14, .L193+16
 1067              		.loc 1 443 0
 1068 0076 B4EEE70A 		vcmpe.f32	s0, s15
 1069 007a F1EE10FA 		vmrs	APSR_nzcv, FPSCR
 1070              		.loc 1 444 0
 1071 007e C4BF     		itt	gt
 1072 0080 DFED0B7A 		vldrgt.32	s15, .L193+4
 1073 0084 30EE670A 		vsubgt.f32	s0, s0, s15
 1074              	.LVL102:
 1075              		.loc 1 448 0
 1076 0088 DFED0B7A 		vldr.32	s15, .L193+12
 1077              		.loc 1 447 0
 1078 008c B5EEC00A 		vcmpe.f32	s0, #0
 1079              		.loc 1 448 0
 1080 0090 60EE277A 		vmul.f32	s15, s0, s15
 1081              		.loc 1 447 0
 1082 0094 F1EE10FA 		vmrs	APSR_nzcv, FPSCR
 1083              		.loc 1 448 0
ARM GAS  C:\Users\euanm\AppData\Local\Temp\ccE8Zd2k.s 			page 20


 1084 0098 4CBF     		ite	mi
 1085 009a 67EE807A 		vmulmi.f32	s15, s15, s0
 1086              		.loc 1 450 0
 1087 009e 60EE677A 		vnmulpl.f32	s15, s0, s15
 1088 00a2 E0EE077A 		vfma.f32	s15, s0, s14
 1089 00a6 C1ED007A 		vstr.32	s15, [r1]
 1090 00aa 7047     		bx	lr
 1091              	.L194:
 1092              		.align	2
 1093              	.L193:
 1094 00ac DB0F49C0 		.word	-1068953637
 1095 00b0 DB0FC940 		.word	1086918619
 1096 00b4 DB0F4940 		.word	1078530011
 1097 00b8 7B81CF3E 		.word	1053786491
 1098 00bc 83F9A23F 		.word	1067645315
 1099 00c0 DB0FC93F 		.word	1070141403
 1100              		.cfi_endproc
 1101              	.LFE275:
 1102              		.size	utils_fast_sincos, .-utils_fast_sincos
 1103              		.section	.text.utils_fast_sincos_better,"ax",%progbits
 1104              		.align	2
 1105              		.p2align 4,,15
 1106              		.global	utils_fast_sincos_better
 1107              		.thumb
 1108              		.thumb_func
 1109              		.type	utils_fast_sincos_better, %function
 1110              	utils_fast_sincos_better:
 1111              	.LFB276:
 1112              		.loc 1 469 0
 1113              		.cfi_startproc
 1114              		@ args = 0, pretend = 0, frame = 0
 1115              		@ frame_needed = 0, uses_anonymous_args = 0
 1116              		@ link register save eliminated.
 1117              	.LVL103:
 1118              		.loc 1 471 0
 1119 0000 DFED3B7A 		vldr.32	s15, .L241
 1120 0004 B4EEE70A 		vcmpe.f32	s0, s15
 1121 0008 F1EE10FA 		vmrs	APSR_nzcv, FPSCR
 1122 000c 08D5     		bpl	.L196
 1123              		.loc 1 472 0
 1124 000e 9FED397A 		vldr.32	s14, .L241+4
 1125              	.L198:
 1126 0012 30EE070A 		vadd.f32	s0, s0, s14
 1127              	.LVL104:
 1128              		.loc 1 471 0
 1129 0016 B4EEE70A 		vcmpe.f32	s0, s15
 1130 001a F1EE10FA 		vmrs	APSR_nzcv, FPSCR
 1131 001e F8D4     		bmi	.L198
 1132              	.L196:
 1133              		.loc 1 475 0
 1134 0020 DFED357A 		vldr.32	s15, .L241+8
 1135 0024 B4EEE70A 		vcmpe.f32	s0, s15
 1136 0028 F1EE10FA 		vmrs	APSR_nzcv, FPSCR
 1137 002c 08DD     		ble	.L199
 1138              		.loc 1 476 0
 1139 002e 9FED317A 		vldr.32	s14, .L241+4
 1140              	.L201:
ARM GAS  C:\Users\euanm\AppData\Local\Temp\ccE8Zd2k.s 			page 21


 1141 0032 30EE470A 		vsub.f32	s0, s0, s14
 1142              	.LVL105:
 1143              		.loc 1 475 0
 1144 0036 B4EEE70A 		vcmpe.f32	s0, s15
 1145 003a F1EE10FA 		vmrs	APSR_nzcv, FPSCR
 1146 003e F8DC     		bgt	.L201
 1147              	.L199:
 1148              		.loc 1 481 0
 1149 0040 DFED2E7A 		vldr.32	s15, .L241+12
 1150 0044 9FED2E7A 		vldr.32	s14, .L241+16
 1151 0048 60EE277A 		vmul.f32	s15, s0, s15
 1152              		.loc 1 480 0
 1153 004c B5EEC00A 		vcmpe.f32	s0, #0
 1154 0050 F1EE10FA 		vmrs	APSR_nzcv, FPSCR
 1155              		.loc 1 481 0
 1156 0054 4CBF     		ite	mi
 1157 0056 67EE807A 		vmulmi.f32	s15, s15, s0
 1158              		.loc 1 489 0
 1159 005a 60EE677A 		vnmulpl.f32	s15, s0, s15
 1160 005e E0EE077A 		vfma.f32	s15, s0, s14
 1161              		.loc 1 494 0
 1162 0062 9FED287A 		vldr.32	s14, .L241+20
 1163              		.loc 1 489 0
 1164 0066 C0ED007A 		vstr.32	s15, [r0]
 1165              		.loc 1 491 0
 1166 006a F5EEC07A 		vcmpe.f32	s15, #0
 1167 006e F1EE10FA 		vmrs	APSR_nzcv, FPSCR
 1168              		.loc 1 492 0
 1169 0072 F0EE676A 		vmov.f32	s13, s15
 1170 0076 4CBF     		ite	mi
 1171 0078 D7EEE76A 		vfnmami.f32	s13, s15, s15
 1172              		.loc 1 494 0
 1173 007c D7EEA76A 		vfnmspl.f32	s13, s15, s15
 1174 0080 E6EE877A 		vfma.f32	s15, s13, s14
 1175              		.loc 1 499 0
 1176 0084 9FED207A 		vldr.32	s14, .L241+24
 1177              		.loc 1 494 0
 1178 0088 C0ED007A 		vstr.32	s15, [r0]
 1179              		.loc 1 499 0
 1180 008c 30EE070A 		vadd.f32	s0, s0, s14
 1181              	.LVL106:
 1182              		.loc 1 500 0
 1183 0090 DFED197A 		vldr.32	s15, .L241+8
 1184              		.loc 1 505 0
 1185 0094 9FED1A7A 		vldr.32	s14, .L241+16
 1186              		.loc 1 500 0
 1187 0098 B4EEE70A 		vcmpe.f32	s0, s15
 1188 009c F1EE10FA 		vmrs	APSR_nzcv, FPSCR
 1189              		.loc 1 501 0
 1190 00a0 C4BF     		itt	gt
 1191 00a2 DFED147A 		vldrgt.32	s15, .L241+4
 1192 00a6 30EE670A 		vsubgt.f32	s0, s0, s15
 1193              	.LVL107:
 1194              		.loc 1 505 0
 1195 00aa DFED147A 		vldr.32	s15, .L241+12
 1196              		.loc 1 504 0
 1197 00ae B5EEC00A 		vcmpe.f32	s0, #0
ARM GAS  C:\Users\euanm\AppData\Local\Temp\ccE8Zd2k.s 			page 22


 1198              		.loc 1 505 0
 1199 00b2 60EE277A 		vmul.f32	s15, s0, s15
 1200              		.loc 1 504 0
 1201 00b6 F1EE10FA 		vmrs	APSR_nzcv, FPSCR
 1202              		.loc 1 505 0
 1203 00ba 4CBF     		ite	mi
 1204 00bc 67EE807A 		vmulmi.f32	s15, s15, s0
 1205              		.loc 1 513 0
 1206 00c0 60EE677A 		vnmulpl.f32	s15, s0, s15
 1207 00c4 E0EE077A 		vfma.f32	s15, s0, s14
 1208              		.loc 1 518 0
 1209 00c8 9FED0E7A 		vldr.32	s14, .L241+20
 1210              		.loc 1 513 0
 1211 00cc C1ED007A 		vstr.32	s15, [r1]
 1212              		.loc 1 515 0
 1213 00d0 F5EEC07A 		vcmpe.f32	s15, #0
 1214              		.loc 1 516 0
 1215 00d4 F0EE676A 		vmov.f32	s13, s15
 1216              		.loc 1 515 0
 1217 00d8 F1EE10FA 		vmrs	APSR_nzcv, FPSCR
 1218              		.loc 1 516 0
 1219 00dc 4CBF     		ite	mi
 1220 00de D7EEE76A 		vfnmami.f32	s13, s15, s15
 1221              		.loc 1 518 0
 1222 00e2 D7EEA76A 		vfnmspl.f32	s13, s15, s15
 1223 00e6 E6EE877A 		vfma.f32	s15, s13, s14
 1224 00ea C1ED007A 		vstr.32	s15, [r1]
 1225 00ee 7047     		bx	lr
 1226              	.L242:
 1227              		.align	2
 1228              	.L241:
 1229 00f0 DB0F49C0 		.word	-1068953637
 1230 00f4 DB0FC940 		.word	1086918619
 1231 00f8 DB0F4940 		.word	1078530011
 1232 00fc 7B81CF3E 		.word	1053786491
 1233 0100 83F9A23F 		.word	1067645315
 1234 0104 6666663E 		.word	1046898278
 1235 0108 DB0FC93F 		.word	1070141403
 1236              		.cfi_endproc
 1237              	.LFE276:
 1238              		.size	utils_fast_sincos_better, .-utils_fast_sincos_better
 1239              		.section	.text.utils_avg_angles_rad_fast,"ax",%progbits
 1240              		.align	2
 1241              		.p2align 4,,15
 1242              		.global	utils_avg_angles_rad_fast
 1243              		.thumb
 1244              		.thumb_func
 1245              		.type	utils_avg_angles_rad_fast, %function
 1246              	utils_avg_angles_rad_fast:
 1247              	.LFB266:
 1248              		.loc 1 187 0
 1249              		.cfi_startproc
 1250              		@ args = 0, pretend = 0, frame = 8
 1251              		@ frame_needed = 0, uses_anonymous_args = 0
 1252              	.LVL108:
 1253              	.LBB28:
 1254              		.loc 1 191 0
ARM GAS  C:\Users\euanm\AppData\Local\Temp\ccE8Zd2k.s 			page 23


 1255 0000 002A     		cmp	r2, #0
 1256 0002 22DD     		ble	.L246
 1257              	.LBE28:
 1258              		.loc 1 187 0
 1259 0004 30B5     		push	{r4, r5, lr}
 1260              		.cfi_def_cfa_offset 12
 1261              		.cfi_offset 4, -12
 1262              		.cfi_offset 5, -8
 1263              		.cfi_offset 14, -4
 1264              	.LBB31:
 1265              		.loc 1 191 0
 1266 0006 DFED140A 		vldr.32	s1, .L251
 1267              	.LBE31:
 1268              		.loc 1 187 0
 1269 000a 83B0     		sub	sp, sp, #12
 1270              		.cfi_def_cfa_offset 24
 1271              	.LBB32:
 1272              		.loc 1 191 0
 1273 000c B0EE606A 		vmov.f32	s12, s1
 1274 0010 0546     		mov	r5, r0
 1275 0012 0C46     		mov	r4, r1
 1276 0014 0023     		movs	r3, #0
 1277              	.LVL109:
 1278              	.L245:
 1279              	.LBB29:
 1280              		.loc 1 193 0 discriminator 3
 1281 0016 01A9     		add	r1, sp, #4
 1282 0018 6846     		mov	r0, sp
 1283 001a B5EC010A 		vldmia.32	r5!, {s0}
 1284 001e FFF7FEFF 		bl	utils_fast_sincos_better
 1285              	.LVL110:
 1286              		.loc 1 194 0 discriminator 3
 1287 0022 F4EC017A 		vldmia.32	r4!, {s15}
 1288 0026 DDED006A 		vldr.32	s13, [sp]
 1289              		.loc 1 195 0 discriminator 3
 1290 002a 9DED017A 		vldr.32	s14, [sp, #4]
 1291              	.LBE29:
 1292              		.loc 1 191 0 discriminator 3
 1293 002e 0133     		adds	r3, r3, #1
 1294 0030 9A42     		cmp	r2, r3
 1295              	.LBB30:
 1296              		.loc 1 194 0 discriminator 3
 1297 0032 A7EEA66A 		vfma.f32	s12, s15, s13
 1298              	.LVL111:
 1299              		.loc 1 195 0 discriminator 3
 1300 0036 E7EE870A 		vfma.f32	s1, s15, s14
 1301              	.LVL112:
 1302              	.LBE30:
 1303              		.loc 1 191 0 discriminator 3
 1304 003a ECD1     		bne	.L245
 1305              	.LBE32:
 1306              		.loc 1 198 0
 1307 003c B0EE460A 		vmov.f32	s0, s12
 1308              		.loc 1 199 0
 1309 0040 03B0     		add	sp, sp, #12
 1310              		.cfi_def_cfa_offset 12
 1311              		@ sp needed
ARM GAS  C:\Users\euanm\AppData\Local\Temp\ccE8Zd2k.s 			page 24


 1312 0042 BDE83040 		pop	{r4, r5, lr}
 1313              		.cfi_restore 14
 1314              		.cfi_restore 5
 1315              		.cfi_restore 4
 1316              		.cfi_def_cfa_offset 0
 1317              		.loc 1 198 0
 1318 0046 FFF7FEBF 		b	utils_fast_atan2
 1319              	.LVL113:
 1320              	.L246:
 1321              		.loc 1 189 0
 1322 004a DFED030A 		vldr.32	s1, .L251
 1323              		.loc 1 198 0
 1324 004e B0EE600A 		vmov.f32	s0, s1
 1325 0052 FFF7FEBF 		b	utils_fast_atan2
 1326              	.LVL114:
 1327              	.L252:
 1328 0056 00BF     		.align	2
 1329              	.L251:
 1330 0058 00000000 		.word	0
 1331              		.cfi_endproc
 1332              	.LFE266:
 1333              		.size	utils_avg_angles_rad_fast, .-utils_avg_angles_rad_fast
 1334              		.section	.text.utils_sys_lock_cnt,"ax",%progbits
 1335              		.align	2
 1336              		.p2align 4,,15
 1337              		.global	utils_sys_lock_cnt
 1338              		.thumb
 1339              		.thumb_func
 1340              		.type	utils_sys_lock_cnt, %function
 1341              	utils_sys_lock_cnt:
 1342              	.LFB277:
 1343              		.loc 1 529 0
 1344              		.cfi_startproc
 1345              		@ args = 0, pretend = 0, frame = 0
 1346              		@ frame_needed = 0, uses_anonymous_args = 0
 1347              		@ link register save eliminated.
 1348              		.loc 1 530 0
 1349 0000 044B     		ldr	r3, .L255
 1350 0002 1A68     		ldr	r2, [r3]
 1351 0004 12B9     		cbnz	r2, .L254
 1352              	.LVL115:
 1353              	.LBB33:
 1354              	.LBB34:
 1355              	.LBB35:
 1356              	.LBB36:
 1357              		.file 2 "ChibiOS_3.0.2/os/ext/CMSIS/include/core_cmFunc.h"
 1358              		.loc 2 546 0
 1359 0006 2022     		movs	r2, #32
 1360              		.syntax unified
 1361              	@ 546 "ChibiOS_3.0.2/os/ext/CMSIS/include/core_cmFunc.h" 1
 1362 0008 82F31188 		MSR basepri, r2
 1363              	@ 0 "" 2
 1364              	.LVL116:
 1365              		.thumb
 1366              		.syntax unified
 1367              	.L254:
 1368              	.LBE36:
ARM GAS  C:\Users\euanm\AppData\Local\Temp\ccE8Zd2k.s 			page 25


 1369              	.LBE35:
 1370              	.LBE34:
 1371              	.LBE33:
 1372              		.loc 1 533 0
 1373 000c 1A68     		ldr	r2, [r3]
 1374 000e 0132     		adds	r2, r2, #1
 1375 0010 1A60     		str	r2, [r3]
 1376 0012 7047     		bx	lr
 1377              	.L256:
 1378              		.align	2
 1379              	.L255:
 1380 0014 00000000 		.word	.LANCHOR0
 1381              		.cfi_endproc
 1382              	.LFE277:
 1383              		.size	utils_sys_lock_cnt, .-utils_sys_lock_cnt
 1384              		.section	.text.utils_sys_unlock_cnt,"ax",%progbits
 1385              		.align	2
 1386              		.p2align 4,,15
 1387              		.global	utils_sys_unlock_cnt
 1388              		.thumb
 1389              		.thumb_func
 1390              		.type	utils_sys_unlock_cnt, %function
 1391              	utils_sys_unlock_cnt:
 1392              	.LFB278:
 1393              		.loc 1 542 0
 1394              		.cfi_startproc
 1395              		@ args = 0, pretend = 0, frame = 0
 1396              		@ frame_needed = 0, uses_anonymous_args = 0
 1397              		@ link register save eliminated.
 1398              		.loc 1 543 0
 1399 0000 054B     		ldr	r3, .L261
 1400 0002 1A68     		ldr	r2, [r3]
 1401 0004 32B1     		cbz	r2, .L257
 1402              		.loc 1 544 0
 1403 0006 1A68     		ldr	r2, [r3]
 1404 0008 013A     		subs	r2, r2, #1
 1405 000a 1A60     		str	r2, [r3]
 1406              		.loc 1 545 0
 1407 000c 1B68     		ldr	r3, [r3]
 1408 000e 0BB9     		cbnz	r3, .L257
 1409              	.LVL117:
 1410              	.LBB37:
 1411              	.LBB38:
 1412              	.LBB39:
 1413              	.LBB40:
 1414              	.LBB41:
 1415              		.loc 2 546 0
 1416              		.syntax unified
 1417              	@ 546 "ChibiOS_3.0.2/os/ext/CMSIS/include/core_cmFunc.h" 1
 1418 0010 83F31188 		MSR basepri, r3
 1419              	@ 0 "" 2
 1420              	.LVL118:
 1421              		.thumb
 1422              		.syntax unified
 1423              	.L257:
 1424 0014 7047     		bx	lr
 1425              	.L262:
ARM GAS  C:\Users\euanm\AppData\Local\Temp\ccE8Zd2k.s 			page 26


 1426 0016 00BF     		.align	2
 1427              	.L261:
 1428 0018 00000000 		.word	.LANCHOR0
 1429              	.LBE41:
 1430              	.LBE40:
 1431              	.LBE39:
 1432              	.LBE38:
 1433              	.LBE37:
 1434              		.cfi_endproc
 1435              	.LFE278:
 1436              		.size	utils_sys_unlock_cnt, .-utils_sys_unlock_cnt
 1437              		.section	.bss.sys_lock_cnt,"aw",%nobits
 1438              		.align	2
 1439              		.set	.LANCHOR0,. + 0
 1440              		.type	sys_lock_cnt, %object
 1441              		.size	sys_lock_cnt, 4
 1442              	sys_lock_cnt:
 1443 0000 00000000 		.space	4
 1444              		.text
 1445              	.Letext0:
 1446              		.file 3 "c:\\program files (x86)\\gnu tools arm embedded\\5.4 2016q3\\lib\\gcc\\arm-none-eabi\\5.4
 1447              		.file 4 "c:\\program files (x86)\\gnu tools arm embedded\\5.4 2016q3\\arm-none-eabi\\include\\mach
 1448              		.file 5 "c:\\program files (x86)\\gnu tools arm embedded\\5.4 2016q3\\arm-none-eabi\\include\\sys\
 1449              		.file 6 "ChibiOS_3.0.2/os/rt/ports/ARMCMx/compilers/GCC/chtypes.h"
 1450              		.file 7 "ChibiOS_3.0.2/os/rt/include/chsystypes.h"
 1451              		.file 8 "ChibiOS_3.0.2/os/rt/include/chschd.h"
 1452              		.file 9 "ChibiOS_3.0.2/os/rt/ports/ARMCMx/chcore.h"
 1453              		.file 10 "ChibiOS_3.0.2/os/rt/ports/ARMCMx/chcore_v7m.h"
 1454              		.file 11 "ChibiOS_3.0.2/os/rt/include/chtm.h"
 1455              		.file 12 "ChibiOS_3.0.2/os/rt/include/chsem.h"
 1456              		.file 13 "ChibiOS_3.0.2/os/rt/include/chmtx.h"
 1457              		.file 14 "ChibiOS_3.0.2/os/rt/include/chsys.h"
 1458              		.file 15 "c:\\program files (x86)\\gnu tools arm embedded\\5.4 2016q3\\arm-none-eabi\\include\\mat
 1459              		.file 16 "ChibiOS_3.0.2/os/ext/CMSIS/include/core_cm4.h"